
NRF24_RX.elf:     file format elf32-avr

Sections:
Idx Name          Size      VMA       LMA       File off  Algn
  0 .data         000000cc  00800100  0000546a  000054fe  2**0
                  CONTENTS, ALLOC, LOAD, DATA
  1 .text         0000546a  00000000  00000000  00000094  2**1
                  CONTENTS, ALLOC, LOAD, READONLY, CODE
  2 .bss          0000051c  008001cc  008001cc  000055ca  2**0
                  ALLOC
  3 .comment      0000005c  00000000  00000000  000055ca  2**0
                  CONTENTS, READONLY
  4 .note.gnu.avr.deviceinfo 00000040  00000000  00000000  00005628  2**2
                  CONTENTS, READONLY
  5 .debug_aranges 000003c0  00000000  00000000  00005668  2**0
                  CONTENTS, READONLY, DEBUGGING
  6 .debug_info   00008b95  00000000  00000000  00005a28  2**0
                  CONTENTS, READONLY, DEBUGGING
  7 .debug_abbrev 00001548  00000000  00000000  0000e5bd  2**0
                  CONTENTS, READONLY, DEBUGGING
  8 .debug_line   00003714  00000000  00000000  0000fb05  2**0
                  CONTENTS, READONLY, DEBUGGING
  9 .debug_frame  00000cfc  00000000  00000000  0001321c  2**2
                  CONTENTS, READONLY, DEBUGGING
 10 .debug_str    00000d4b  00000000  00000000  00013f18  2**0
                  CONTENTS, READONLY, DEBUGGING
 11 .debug_loc    0000416a  00000000  00000000  00014c63  2**0
                  CONTENTS, READONLY, DEBUGGING
 12 .debug_ranges 00000348  00000000  00000000  00018dcd  2**0
                  CONTENTS, READONLY, DEBUGGING

Disassembly of section .text:

00000000 <__vectors>:
       0:	0c 94 90 04 	jmp	0x920	; 0x920 <__ctors_end>
       4:	0c 94 36 12 	jmp	0x246c	; 0x246c <__vector_1>
       8:	0c 94 73 0f 	jmp	0x1ee6	; 0x1ee6 <__vector_2>
       c:	0c 94 ad 04 	jmp	0x95a	; 0x95a <__bad_interrupt>
      10:	0c 94 ad 04 	jmp	0x95a	; 0x95a <__bad_interrupt>
      14:	0c 94 ad 04 	jmp	0x95a	; 0x95a <__bad_interrupt>
      18:	0c 94 ad 04 	jmp	0x95a	; 0x95a <__bad_interrupt>
      1c:	0c 94 ad 04 	jmp	0x95a	; 0x95a <__bad_interrupt>
      20:	0c 94 ad 04 	jmp	0x95a	; 0x95a <__bad_interrupt>
      24:	0c 94 ad 04 	jmp	0x95a	; 0x95a <__bad_interrupt>
      28:	0c 94 ad 04 	jmp	0x95a	; 0x95a <__bad_interrupt>
      2c:	0c 94 be 0e 	jmp	0x1d7c	; 0x1d7c <__vector_11>
      30:	0c 94 ad 04 	jmp	0x95a	; 0x95a <__bad_interrupt>
      34:	0c 94 ad 04 	jmp	0x95a	; 0x95a <__bad_interrupt>
      38:	0c 94 31 0f 	jmp	0x1e62	; 0x1e62 <__vector_14>
      3c:	0c 94 ad 04 	jmp	0x95a	; 0x95a <__bad_interrupt>
      40:	0c 94 ad 04 	jmp	0x95a	; 0x95a <__bad_interrupt>
      44:	0c 94 ad 04 	jmp	0x95a	; 0x95a <__bad_interrupt>
      48:	0c 94 ad 04 	jmp	0x95a	; 0x95a <__bad_interrupt>
      4c:	0c 94 ad 04 	jmp	0x95a	; 0x95a <__bad_interrupt>
      50:	0c 94 ad 04 	jmp	0x95a	; 0x95a <__bad_interrupt>
      54:	0c 94 ad 04 	jmp	0x95a	; 0x95a <__bad_interrupt>
      58:	0c 94 ad 04 	jmp	0x95a	; 0x95a <__bad_interrupt>
      5c:	0c 94 ad 04 	jmp	0x95a	; 0x95a <__bad_interrupt>
      60:	0c 94 ad 04 	jmp	0x95a	; 0x95a <__bad_interrupt>
      64:	0c 94 ad 04 	jmp	0x95a	; 0x95a <__bad_interrupt>
      68:	de 19       	sub	r29, r14
      6a:	e6 19       	sub	r30, r6
      6c:	ee 19       	sub	r30, r14
      6e:	f6 19       	sub	r31, r6
      70:	fe 19       	sub	r31, r14
      72:	06 1a       	sub	r0, r22
      74:	0e 1a       	sub	r0, r30
      76:	23 1a       	sub	r2, r19
      78:	2e 1a       	sub	r2, r30
      7a:	39 1a       	sub	r3, r25
      7c:	44 1a       	sub	r4, r20
      7e:	4f 1a       	sub	r4, r31
      80:	5a 1a       	sub	r5, r26
      82:	65 1a       	sub	r6, r21
      84:	70 1a       	sub	r7, r16
      86:	7b 1a       	sub	r7, r27
      88:	86 1a       	sub	r8, r22
      8a:	91 1a       	sub	r9, r17
      8c:	9c 1a       	sub	r9, r28

0000008e <__trampolines_end>:
      8e:	6e 61       	ori	r22, 0x1E	; 30
      90:	6e 00       	.word	0x006e	; ????

00000092 <__c.2332>:
      92:	69 6e 66 00 00 40 7a 10 f3 5a 00 a0 72 4e 18 09     inf..@z..Z..rN..
      a2:	00 10 a5 d4 e8 00 00 e8 76 48 17 00 00 e4 0b 54     ........vH.....T
      b2:	02 00 00 ca 9a 3b 00 00 00 e1 f5 05 00 00 80 96     .....;..........
      c2:	98 00 00 00 40 42 0f 00 00 00 a0 86 01 00 00 00     ....@B..........
      d2:	10 27 00 00 00 00 e8 03 00 00 00 00 64 00 00 00     .'..........d...
      e2:	00 00 0a 00 00 00 00 00 01 00 00 00 00 00 2c 76     ..............,v
      f2:	d8 88 dc 67 4f 08 23 df c1 df ae 59 e1 b1 b7 96     ...gO.#....Y....
     102:	e5 e3 e4 53 c6 3a e6 51 99 76 96 e8 e6 c2 84 26     ...S.:.Q.v.....&
     112:	eb 89 8c 9b 62 ed 40 7c 6f fc ef bc 9c 9f 40 f2     ....b.@|o.....@.
     122:	ba a5 6f a5 f4 90 05 5a 2a f7 5c 93 6b 6c f9 67     ..o....Z*.\.kl.g
     132:	6d c1 1b fc e0 e4 0d 47 fe f5 20 e6 b5 00 d0 ed     m......G.. .....
     142:	90 2e 03 00 94 35 77 05 00 80 84 1e 08 00 00 20     .....5w........ 
     152:	4e 0a 00 00 00 c8 0c 33 33 33 33 0f 98 6e 12 83     N......3333..n..
     162:	11 41 ef 8d 21 14 89 3b e6 55 16 cf fe e6 db 18     .A..!..;.U......
     172:	d1 84 4b 38 1b f7 7c 1d 90 1d a4 bb e4 24 20 32     ..K8..|......$ 2
     182:	84 72 5e 22 81 00 c9 f1 24 ec a1 e5 3d 27           .r^"....$...='

00000190 <__c.2474>:
     190:	63 64 69 6e 6f 70 73 75 78 58 5b 00                 cdinopsuxX[.

0000019c <JPEG>:
	...
     204:	00 00 80 80 80 80 c0 c0 c0 c0 e0 e0 e0 e0 e0 e0     ................
	...
     224:	00 02 06 07 07 07 07 07 06 02 02 02 02 02 02 02     ................
     234:	02 02 02 02 02 ff ff ff 02 02 02 0e 1e 3e 7e ff     .............>~.
     244:	ff ff ff ff ff ff ff ff ff ff ff ff ff ff ff ff     ................
     254:	fe c0 00 00 00 00 00 00 00 00 00 00 00 00 00 00     ................
	...
     274:	00 f8 fc fc ff ff ff ff ff fc fc f8 00 00 00 00     ................
     284:	01 01 01 01 01 01 01 01 01 01 01 01 01 01 01 01     ................
     294:	01 00 00 00 00 00 00 00 00 00 00 00 00 00 00 00     ................
     2a4:	80 c0 e0 e0 e0 e0 e0 e0 c0 c0 80 00 00 00 00 00     ................
     2b4:	00 1f 17 b7 f7 f7 f7 f7 f7 b7 17 1f 00 00 00 00     ................
     2c4:	00 00 80 c0 c0 e0 e0 e0 e0 e0 e0 c0 80 00 00 00     ................
	...
     2e0:	00 00 18 7f ff ff ff ff ff ff ff ff ff ff ff 3e     ...............>
     2f0:	18 18 18 18 18 18 18 3f bf bf bf bf bf 3f 18 18     .......?.....?..
     300:	18 18 18 18 18 3e ff ff ff ff ff ff ff ff ff ff     .....>..........
     310:	ff 7f 1c 00 00 00 00 00 00 00 00 00 00 00 00 00     ................
     320:	00 00 00 00 01 01 03 03 03 07 03 03 03 01 00 00     ................
	...
     338:	01 03 07 03 01 00 00 00 00 00 00 00 00 00 00 01     ................
     348:	03 03 03 07 03 03 03 01 01 00 00 00 00 00 00 00     ................
	...

0000039c <Font11_16>:
     39c:	00 e0 f8 fc 3e 07 03 01 e1 fe fc 3f 7f 87 80 80     ....>......?....
     3ac:	e0 7c 3f 1f 07 00 00 00 00 00 02 e2 fe ff 1f 03     .|?.............
     3bc:	00 80 80 c0 f8 ff ff 87 80 00 00 00 00 00 00 0c     ................
     3cc:	06 03 03 87 ff 7e 1c 80 c0 e0 f0 e8 e4 e3 e1 f0     .....~..........
     3dc:	18 00 00 00 00 80 84 82 c3 c3 7f 3f 1e 60 e0 c0     ...........?.`..
     3ec:	c0 80 81 43 7f 3f 1e 00 00 00 00 00 80 40 20 f0     ...C.?.......@ .
     3fc:	f8 fc 1e 10 1c 1a 19 18 f8 fe ff 1f 19 08 00 00     ................
     40c:	40 78 f6 e7 e7 c7 87 07 03 60 e0 c0 80 80 41 7f     @x.......`....A.
     41c:	3f 0f 00 00 00 c0 e0 f8 78 5c 4e c6 c3 81 01 3f     ?.......x\N....?
     42c:	7f ff 81 80 c0 f0 7f 3f 0f 00 08 0e 07 07 07 87     .......?........
     43c:	67 1f 07 01 00 80 60 10 0c 03 00 00 00 00 00 00     g.....`.........
     44c:	00 00 3c 7e ff e3 c1 c1 7f 3e 1c 3c 7e ff 83 80     ..<~.....>.<~...
     45c:	81 c3 7f 7f 1e 00 00 f0 fc fe 0f 03 01 c1 ff fe     ................
     46c:	fc 80 c1 c3 63 72 3a 1e 0f 07 03 00 00 00 00 00     ....cr:.........
     47c:	00 38 38 38 00 00 00 00 00 00 38 38 38 00 00 00     .888......888...
	...

0000048e <Font7_11>:
     48e:	80 c0 60 20 60 c0 80 3f 7f c0 80 c0 7f 3f 00 20     ..` `..?.....?. 
     49e:	20 e0 e0 00 00 00 80 80 ff ff 80 80 80 c0 60 60      .............``
     4ae:	e0 c0 00 80 c0 e0 d8 cf c3 e0 80 40 60 60 e0 c0     ...........@``..
     4be:	00 c0 c0 84 86 8f 7d 38 00 00 00 80 c0 e0 00 38     ......}8.......8
     4ce:	34 32 31 ff ff 30 00 c0 60 60 60 60 20 c2 c3 c3     421..0..```` ...
     4de:	83 86 4e 3c 00 80 c0 40 60 20 20 3e 7f c3 82 c6     ..N<...@`  >....
     4ee:	7c 38 c0 60 60 60 60 e0 20 00 00 80 70 0e 01 00     |8.````. ...p...
     4fe:	c0 e0 20 20 20 e0 c0 71 fb 87 86 8e ff 79 80 c0     ..   ..q.....y..
     50e:	60 20 60 c0 80 83 87 cc 48 78 3f 0f 00 00 00 00     ` `.....Hx?.....
     51e:	00 00 00 00 00 c0 c0 00 00 00                       ..........

00000528 <Font4_6>:
     528:	fc 84 84 fc 00 08 fc 00 88 c4 a4 9c 44 84 94 7c     ............D..|
     538:	60 50 fc 40 58 94 94 64 78 94 94 64 00 04 f4 0c     `P.@X..dx..d....
     548:	6c 94 94 6c 98 a4 a4 78 00 80 00 00                 l..l...x....

00000554 <Font5_7>:
	...
     55c:	4f 00 00 00 00 07 00 07 00 00 00 14 7f 14 7f 14     O...............
     56c:	00 24 2a 7f 2a 12 00 23 13 08 64 62 00 36 49 55     .$*.*..#..db.6IU
     57c:	22 40 00 00 05 03 00 00 00 1c 22 41 00 00 00 41     "@........"A...A
     58c:	22 1c 00 00 00 14 08 3e 08 14 00 08 08 3e 08 08     "......>.....>..
     59c:	00 a0 60 00 00 00 00 08 08 08 08 08 00 60 60 00     ..`..........``.
     5ac:	00 00 00 20 10 08 04 02 00 3e 51 49 45 3e 00 00     ... .....>QIE>..
     5bc:	42 7f 40 00 00 42 61 51 49 46 00 21 41 45 4b 31     B.@..BaQIF.!AEK1
     5cc:	00 18 14 12 7f 10 00 27 45 45 45 39 00 3c 4a 49     .......'EEE9.<JI
     5dc:	49 30 00 01 71 09 05 03 00 36 49 49 49 36 00 06     I0..q....6III6..
     5ec:	49 49 29 1e 00 6c 6c 00 00 00 00 00 56 36 00 00     II)..ll.....V6..
     5fc:	00 08 14 22 41 00 00 24 24 24 24 24 00 00 41 22     ..."A..$$$$$..A"
     60c:	14 08 00 02 01 51 09 06 00 32 49 79 41 3e 00 7e     .....Q...2IyA>.~
     61c:	11 11 11 7e 00 7f 49 49 49 36 00 3e 41 41 41 22     ...~..III6.>AAA"
     62c:	00 7f 41 41 22 1c 00 7f 49 49 49 41 00 7f 09 09     ..AA"...IIIA....
     63c:	09 01 00 3e 41 49 49 3a 00 7f 08 08 08 7f 00 00     ...>AII:........
     64c:	41 7f 41 00 00 20 40 41 3f 01 00 7f 08 14 22 41     A.A.. @A?....."A
     65c:	00 7f 40 40 40 40 00 7f 02 0c 02 7f 00 7f 04 08     ..@@@@..........
     66c:	10 7f 00 3e 41 41 41 3e 00 7f 09 09 09 06 00 3e     ...>AAA>.......>
     67c:	41 51 21 5e 00 7f 09 19 29 46 00 46 49 49 49 31     AQ!^....)F.FIII1
     68c:	00 01 01 7f 01 01 00 3f 40 40 40 3f 00 1f 20 40     .......?@@@?.. @
     69c:	20 1f 00 3f 40 60 40 3f 00 63 14 08 14 63 00 07      ..?@`@?.c...c..
     6ac:	08 70 08 07 00 61 51 49 45 43 00 7f 41 41 00 00     .p...aQIEC..AA..
     6bc:	00 15 16 7c 16 15 00 41 41 7f 00 00 00 04 02 01     ...|...AA.......
     6cc:	02 04 00 40 40 40 40 40 00 01 02 04 00 00 00 20     ...@@@@@....... 
     6dc:	54 54 54 78 00 7f 44 44 44 38 00 38 44 44 44 00     TTTx..DDD8.8DDD.
     6ec:	00 38 44 44 48 7f 00 38 54 54 54 18 00 10 7e 11     .8DDH..8TTT...~.
     6fc:	01 02 00 0c 52 52 52 3e 00 7f 08 04 04 78 00 00     ....RRR>.....x..
     70c:	44 7d 40 00 00 20 40 40 3d 00 00 7f 10 28 44 00     D}@.. @@=....(D.
     71c:	00 00 41 7f 40 00 00 7c 04 18 04 78 00 7c 08 04     ..A.@..|...x.|..
     72c:	04 78 00 38 44 44 44 38 00 7c 14 14 14 08 00 08     .x.8DDD8.|......
     73c:	14 14 18 7c 00 7c 08 04 04 08 00 48 54 54 54 20     ...|.|.....HTTT 
     74c:	00 04 3f 44 40 20 00 3c 40 40 20 7c 00 1c 20 40     ..?D@ .<@@ |.. @
     75c:	20 1c 00 1e 20 10 20 1e 00 22 14 08 14 22 00 06      ... . .."..."..
     76c:	48 48 48 3e 00 44 64 54 4c 44 00 08 36 41 00 00     HHH>.DdTLD..6A..
     77c:	00 00 00 7f 00 00 00 41 36 08 00 00 00 08 08 2a     .......A6......*
     78c:	1c 08 00 7e 11 11 11 7e 00 7f 49 49 49 33 00 7f     ...~...~..III3..
     79c:	49 49 49 36 00 7f 01 01 01 03 00 e0 51 4f 41 ff     III6........QOA.
     7ac:	00 7f 49 49 49 41 00 77 08 7f 08 77 00 41 49 49     ..IIIA.w...w.AII
     7bc:	49 36 00 7f 10 08 04 7f 00 7c 21 12 09 7c 00 7f     I6.......|!..|..
     7cc:	08 14 22 41 00 20 41 3f 01 7f 00 7f 02 0c 02 7f     .."A. A?........
     7dc:	00 7f 08 08 08 7f 00 3e 41 41 41 3e 00 7f 01 01     .......>AAA>....
     7ec:	01 7f 00 7f 09 09 09 06 00 3e 41 41 41 22 00 01     .........>AAA"..
     7fc:	01 7f 01 01 00 47 28 10 08 07 00 1c 22 7f 22 1c     .....G(.....".".
     80c:	00 63 14 08 14 63 00 7f 40 40 40 ff 00 07 08 08     .c...c..@@@.....
     81c:	08 7f 00 7f 40 7f 40 7f 00 7f 40 7f 40 ff 00 01     ....@.@...@.@...
     82c:	7f 48 48 30 00 7f 48 30 00 7f 00 00 7f 48 48 30     .HH0..H0.....HH0
     83c:	00 22 41 49 49 3e 00 7f 08 3e 41 3e 00 46 29 19     ."AII>...>A>.F).
     84c:	09 7f 00 20 54 54 54 78 00 3c 4a 4a 49 31 00 7c     ... TTTx.<JJI1.|
     85c:	54 54 28 00 00 7c 04 04 04 0c 00 e0 54 4c 44 fc     TT(..|......TLD.
     86c:	00 38 54 54 54 18 00 6c 10 7c 10 6c 00 44 44 54     .8TTT..l.|.l.DDT
     87c:	54 28 00 7c 20 10 08 7c 00 7c 41 22 11 7c 00 7c     T(.| ..|.|A".|.|
     88c:	10 28 44 00 00 20 44 3c 04 7c 00 7c 08 10 08 7c     .(D.. D<.|.|...|
     89c:	00 7c 10 10 10 7c 00 38 44 44 44 38 00 7c 04 04     .|...|.8DDD8.|..
     8ac:	04 7c 00 7c 14 14 14 08 00 38 44 44 44 28 00 04     .|.|.....8DDD(..
     8bc:	04 7c 04 04 00 0c 50 50 50 3c 00 30 48 fc 48 30     .|....PPP<.0H.H0
     8cc:	00 44 28 10 28 44 00 7c 40 40 40 fc 00 0c 10 10     .D(.(D.|@@@.....
     8dc:	10 7c 00 7c 40 7c 40 7c 00 7c 40 7c 40 fc 00 04     .|.|@|@|.|@|@...
     8ec:	7c 50 50 20 00 7c 50 50 20 7c 00 7c 50 50 20 00     |PP .|PP |.|PP .
     8fc:	00 28 44 54 54 38 00 7c 10 38 44 38 00 08 54 34     .(DTT8.|.8D8..T4
     90c:	14 7c 00 7e 4b 4a 4b 42 00 38 55 54 55 18 00 00     .|.~KJKB.8UTU...
     91c:	06 09 09 06                                         ....

00000920 <__ctors_end>:
     920:	11 24       	eor	r1, r1
     922:	1f be       	out	0x3f, r1	; 63
     924:	cf ef       	ldi	r28, 0xFF	; 255
     926:	d8 e0       	ldi	r29, 0x08	; 8
     928:	de bf       	out	0x3e, r29	; 62
     92a:	cd bf       	out	0x3d, r28	; 61

0000092c <__do_copy_data>:
     92c:	11 e0       	ldi	r17, 0x01	; 1
     92e:	a0 e0       	ldi	r26, 0x00	; 0
     930:	b1 e0       	ldi	r27, 0x01	; 1
     932:	ea e6       	ldi	r30, 0x6A	; 106
     934:	f4 e5       	ldi	r31, 0x54	; 84
     936:	02 c0       	rjmp	.+4      	; 0x93c <__do_copy_data+0x10>
     938:	05 90       	lpm	r0, Z+
     93a:	0d 92       	st	X+, r0
     93c:	ac 3c       	cpi	r26, 0xCC	; 204
     93e:	b1 07       	cpc	r27, r17
     940:	d9 f7       	brne	.-10     	; 0x938 <__do_copy_data+0xc>

00000942 <__do_clear_bss>:
     942:	26 e0       	ldi	r18, 0x06	; 6
     944:	ac ec       	ldi	r26, 0xCC	; 204
     946:	b1 e0       	ldi	r27, 0x01	; 1
     948:	01 c0       	rjmp	.+2      	; 0x94c <.do_clear_bss_start>

0000094a <.do_clear_bss_loop>:
     94a:	1d 92       	st	X+, r1

0000094c <.do_clear_bss_start>:
     94c:	a8 3e       	cpi	r26, 0xE8	; 232
     94e:	b2 07       	cpc	r27, r18
     950:	e1 f7       	brne	.-8      	; 0x94a <.do_clear_bss_loop>
     952:	0e 94 ca 0f 	call	0x1f94	; 0x1f94 <main>
     956:	0c 94 33 2a 	jmp	0x5466	; 0x5466 <_exit>

0000095a <__bad_interrupt>:
     95a:	0c 94 00 00 	jmp	0	; 0x0 <__vectors>

0000095e <Read>:
#define BMP180_R 0xEF
#define BMP180_W 0xEE

// чтение регистра 16 бит
uint16_t Read(uint8_t address) 
{
     95e:	0f 93       	push	r16
     960:	1f 93       	push	r17
     962:	cf 93       	push	r28
     964:	df 93       	push	r29
     966:	c8 2f       	mov	r28, r24
	uint16_t msb=0;
	uint16_t lsb=0;
	uint16_t data;

	I2C_StartCondition();               // запуск i2c
     968:	0e 94 00 13 	call	0x2600	; 0x2600 <I2C_StartCondition>
	I2C_SendByte(BMP180_W);        // передача адреса устройства, режим записи
     96c:	8e ee       	ldi	r24, 0xEE	; 238
     96e:	0e 94 0c 13 	call	0x2618	; 0x2618 <I2C_SendByte>
	I2C_SendByte(address);	        // передача адреса памяти
     972:	8c 2f       	mov	r24, r28
     974:	0e 94 0c 13 	call	0x2618	; 0x2618 <I2C_SendByte>
	I2C_StopCondition();                // остановка i2c
     978:	0e 94 08 13 	call	0x2610	; 0x2610 <I2C_StopCondition>

	I2C_StartCondition();               // запуск i2c
     97c:	0e 94 00 13 	call	0x2600	; 0x2600 <I2C_StartCondition>
	I2C_SendByte(BMP180_R);        // передача адреса устройства, режим чтения
     980:	8f ee       	ldi	r24, 0xEF	; 239
     982:	0e 94 0c 13 	call	0x2618	; 0x2618 <I2C_SendByte>
	msb = I2C_ReadByte();
     986:	0e 94 16 13 	call	0x262c	; 0x262c <I2C_ReadByte>
     98a:	c8 2f       	mov	r28, r24
     98c:	d0 e0       	ldi	r29, 0x00	; 0
	lsb = I2C_ReadLastByte();
     98e:	0e 94 20 13 	call	0x2640	; 0x2640 <I2C_ReadLastByte>
     992:	08 2f       	mov	r16, r24
     994:	10 e0       	ldi	r17, 0x00	; 0
	I2C_StopCondition();                // остановка i2c
     996:	0e 94 08 13 	call	0x2610	; 0x2610 <I2C_StopCondition>

	data = (uint16_t)((msb << 8) + lsb);
     99a:	9c 2f       	mov	r25, r28
     99c:	88 27       	eor	r24, r24
	return data;
}
     99e:	80 0f       	add	r24, r16
     9a0:	91 1f       	adc	r25, r17
     9a2:	df 91       	pop	r29
     9a4:	cf 91       	pop	r28
     9a6:	1f 91       	pop	r17
     9a8:	0f 91       	pop	r16
     9aa:	08 95       	ret

000009ac <BMP180_Calibration>:
// получить данные для калибровки
void BMP180_Calibration (void) 
{
	ac1 = Read(0xAA);
     9ac:	8a ea       	ldi	r24, 0xAA	; 170
     9ae:	0e 94 af 04 	call	0x95e	; 0x95e <Read>
     9b2:	90 93 9b 06 	sts	0x069B, r25	; 0x80069b <ac1+0x1>
     9b6:	80 93 9a 06 	sts	0x069A, r24	; 0x80069a <ac1>
	ac2 = Read(0xAC);
     9ba:	8c ea       	ldi	r24, 0xAC	; 172
     9bc:	0e 94 af 04 	call	0x95e	; 0x95e <Read>
     9c0:	90 93 a3 06 	sts	0x06A3, r25	; 0x8006a3 <ac2+0x1>
     9c4:	80 93 a2 06 	sts	0x06A2, r24	; 0x8006a2 <ac2>
	ac3 = Read(0xAE);
     9c8:	8e ea       	ldi	r24, 0xAE	; 174
     9ca:	0e 94 af 04 	call	0x95e	; 0x95e <Read>
     9ce:	90 93 b3 06 	sts	0x06B3, r25	; 0x8006b3 <ac3+0x1>
     9d2:	80 93 b2 06 	sts	0x06B2, r24	; 0x8006b2 <ac3>
	ac4 = Read(0xB0);
     9d6:	80 eb       	ldi	r24, 0xB0	; 176
     9d8:	0e 94 af 04 	call	0x95e	; 0x95e <Read>
     9dc:	90 93 a7 06 	sts	0x06A7, r25	; 0x8006a7 <ac4+0x1>
     9e0:	80 93 a6 06 	sts	0x06A6, r24	; 0x8006a6 <ac4>
	ac5 = Read(0xB2);
     9e4:	82 eb       	ldi	r24, 0xB2	; 178
     9e6:	0e 94 af 04 	call	0x95e	; 0x95e <Read>
     9ea:	90 93 a1 06 	sts	0x06A1, r25	; 0x8006a1 <ac5+0x1>
     9ee:	80 93 a0 06 	sts	0x06A0, r24	; 0x8006a0 <ac5>
	ac6 = Read(0xB4);
     9f2:	84 eb       	ldi	r24, 0xB4	; 180
     9f4:	0e 94 af 04 	call	0x95e	; 0x95e <Read>
     9f8:	90 93 9f 06 	sts	0x069F, r25	; 0x80069f <ac6+0x1>
     9fc:	80 93 9e 06 	sts	0x069E, r24	; 0x80069e <ac6>
	b1  = Read(0xB6);
     a00:	86 eb       	ldi	r24, 0xB6	; 182
     a02:	0e 94 af 04 	call	0x95e	; 0x95e <Read>
     a06:	90 93 9d 06 	sts	0x069D, r25	; 0x80069d <b1+0x1>
     a0a:	80 93 9c 06 	sts	0x069C, r24	; 0x80069c <b1>
	b2  = Read(0xB8);
     a0e:	88 eb       	ldi	r24, 0xB8	; 184
     a10:	0e 94 af 04 	call	0x95e	; 0x95e <Read>
     a14:	90 93 97 06 	sts	0x0697, r25	; 0x800697 <b2+0x1>
     a18:	80 93 96 06 	sts	0x0696, r24	; 0x800696 <b2>
	mb  = Read(0xBA);
     a1c:	8a eb       	ldi	r24, 0xBA	; 186
     a1e:	0e 94 af 04 	call	0x95e	; 0x95e <Read>
     a22:	90 93 99 06 	sts	0x0699, r25	; 0x800699 <mb+0x1>
     a26:	80 93 98 06 	sts	0x0698, r24	; 0x800698 <mb>
	mc  = Read(0xBC);
     a2a:	8c eb       	ldi	r24, 0xBC	; 188
     a2c:	0e 94 af 04 	call	0x95e	; 0x95e <Read>
     a30:	90 93 a9 06 	sts	0x06A9, r25	; 0x8006a9 <mc+0x1>
     a34:	80 93 a8 06 	sts	0x06A8, r24	; 0x8006a8 <mc>
	md  = Read(0xBE);
     a38:	8e eb       	ldi	r24, 0xBE	; 190
     a3a:	0e 94 af 04 	call	0x95e	; 0x95e <Read>
     a3e:	90 93 a5 06 	sts	0x06A5, r25	; 0x8006a5 <md+0x1>
     a42:	80 93 a4 06 	sts	0x06A4, r24	; 0x8006a4 <md>
     a46:	08 95       	ret

00000a48 <BMP180_get_temper>:
	md = 2705;*/
}
// прочитать значение температуры
int32_t BMP180_get_temper(void)
{
	I2C_StartCondition();               // запуск i2c
     a48:	0e 94 00 13 	call	0x2600	; 0x2600 <I2C_StartCondition>
	I2C_SendByte(BMP180_W);        // передача адреса устройства, режим записи
     a4c:	8e ee       	ldi	r24, 0xEE	; 238
     a4e:	0e 94 0c 13 	call	0x2618	; 0x2618 <I2C_SendByte>
	I2C_SendByte(0xF4);	        // передача адреса памяти
     a52:	84 ef       	ldi	r24, 0xF4	; 244
     a54:	0e 94 0c 13 	call	0x2618	; 0x2618 <I2C_SendByte>
	I2C_SendByte(0x2E);	        // передача разрешения (oss) адреса памяти температуры (можно так же как для давления)
     a58:	8e e2       	ldi	r24, 0x2E	; 46
     a5a:	0e 94 0c 13 	call	0x2618	; 0x2618 <I2C_SendByte>
	I2C_StopCondition();                // остановка i2c
     a5e:	0e 94 08 13 	call	0x2610	; 0x2610 <I2C_StopCondition>
	#else
		//round up by default
		__ticks_dc = (uint32_t)(ceil(fabs(__tmp)));
	#endif

	__builtin_avr_delay_cycles(__ticks_dc);
     a62:	8f e0       	ldi	r24, 0x0F	; 15
     a64:	97 e2       	ldi	r25, 0x27	; 39
     a66:	01 97       	sbiw	r24, 0x01	; 1
     a68:	f1 f7       	brne	.-4      	; 0xa66 <BMP180_get_temper+0x1e>
     a6a:	00 c0       	rjmp	.+0      	; 0xa6c <BMP180_get_temper+0x24>
     a6c:	00 00       	nop

	_delay_ms(5);                   // время на замер (от 5 до 26 мс в зависимости от разрешения (oss))

	return Read(0xF6);     // вычислить температуру
     a6e:	86 ef       	ldi	r24, 0xF6	; 246
     a70:	0e 94 af 04 	call	0x95e	; 0x95e <Read>
     a74:	bc 01       	movw	r22, r24
     a76:	80 e0       	ldi	r24, 0x00	; 0
     a78:	90 e0       	ldi	r25, 0x00	; 0
}
     a7a:	08 95       	ret

00000a7c <BMP180_get_pressure>:
// прочитать значение атмосферного давления
int32_t BMP180_get_pressure()
{
	I2C_StartCondition();               // запуск i2c
     a7c:	0e 94 00 13 	call	0x2600	; 0x2600 <I2C_StartCondition>
	I2C_SendByte(BMP180_W);        // передача адреса устройства, режим записи
     a80:	8e ee       	ldi	r24, 0xEE	; 238
     a82:	0e 94 0c 13 	call	0x2618	; 0x2618 <I2C_SendByte>
	I2C_SendByte(0xF4);	        // передача адреса памяти
     a86:	84 ef       	ldi	r24, 0xF4	; 244
     a88:	0e 94 0c 13 	call	0x2618	; 0x2618 <I2C_SendByte>
	I2C_SendByte(0x34+(OSS<<6));	// передача разрешения (oss) адреса памяти температуры
     a8c:	84 ef       	ldi	r24, 0xF4	; 244
     a8e:	0e 94 0c 13 	call	0x2618	; 0x2618 <I2C_SendByte>
	I2C_StopCondition();                // остановка i2c
     a92:	0e 94 08 13 	call	0x2610	; 0x2610 <I2C_StopCondition>
     a96:	8f e1       	ldi	r24, 0x1F	; 31
     a98:	9b ec       	ldi	r25, 0xCB	; 203
     a9a:	01 97       	sbiw	r24, 0x01	; 1
     a9c:	f1 f7       	brne	.-4      	; 0xa9a <BMP180_get_pressure+0x1e>
     a9e:	00 c0       	rjmp	.+0      	; 0xaa0 <BMP180_get_pressure+0x24>
     aa0:	00 00       	nop

	_delay_ms(26);                  // время на замер (от 5 до 26 мс в зависимости от разрешения (oss))
	
	I2C_StartCondition();               // запуск i2c
     aa2:	0e 94 00 13 	call	0x2600	; 0x2600 <I2C_StartCondition>
	I2C_SendByte(BMP180_W);        // передача адреса устройства, режим записи
     aa6:	8e ee       	ldi	r24, 0xEE	; 238
     aa8:	0e 94 0c 13 	call	0x2618	; 0x2618 <I2C_SendByte>
	I2C_SendByte(0xF6);	        // передача адреса памяти
     aac:	86 ef       	ldi	r24, 0xF6	; 246
     aae:	0e 94 0c 13 	call	0x2618	; 0x2618 <I2C_SendByte>
	I2C_StopCondition();                // остановка i2c
     ab2:	0e 94 08 13 	call	0x2610	; 0x2610 <I2C_StopCondition>

	I2C_StartCondition();               // запуск i2c
     ab6:	0e 94 00 13 	call	0x2600	; 0x2600 <I2C_StartCondition>
	I2C_SendByte(BMP180_R);        // передача адреса устройства, режим чтения
     aba:	8f ee       	ldi	r24, 0xEF	; 239
     abc:	0e 94 0c 13 	call	0x2618	; 0x2618 <I2C_SendByte>
	D1=I2C_ReadByte();             // MSB
     ac0:	0e 94 16 13 	call	0x262c	; 0x262c <I2C_ReadByte>
     ac4:	90 e0       	ldi	r25, 0x00	; 0
     ac6:	a0 e0       	ldi	r26, 0x00	; 0
     ac8:	b0 e0       	ldi	r27, 0x00	; 0
     aca:	80 93 ae 06 	sts	0x06AE, r24	; 0x8006ae <D1>
     ace:	90 93 af 06 	sts	0x06AF, r25	; 0x8006af <D1+0x1>
     ad2:	a0 93 b0 06 	sts	0x06B0, r26	; 0x8006b0 <D1+0x2>
     ad6:	b0 93 b1 06 	sts	0x06B1, r27	; 0x8006b1 <D1+0x3>
	D2=I2C_ReadByte();             // LSB
     ada:	0e 94 16 13 	call	0x262c	; 0x262c <I2C_ReadByte>
     ade:	90 e0       	ldi	r25, 0x00	; 0
     ae0:	a0 e0       	ldi	r26, 0x00	; 0
     ae2:	b0 e0       	ldi	r27, 0x00	; 0
     ae4:	80 93 aa 06 	sts	0x06AA, r24	; 0x8006aa <D2>
     ae8:	90 93 ab 06 	sts	0x06AB, r25	; 0x8006ab <D2+0x1>
     aec:	a0 93 ac 06 	sts	0x06AC, r26	; 0x8006ac <D2+0x2>
     af0:	b0 93 ad 06 	sts	0x06AD, r27	; 0x8006ad <D2+0x3>
	D3=I2C_ReadLastByte();             // XLSB
     af4:	0e 94 20 13 	call	0x2640	; 0x2640 <I2C_ReadLastByte>
     af8:	90 e0       	ldi	r25, 0x00	; 0
     afa:	a0 e0       	ldi	r26, 0x00	; 0
     afc:	b0 e0       	ldi	r27, 0x00	; 0
     afe:	80 93 92 06 	sts	0x0692, r24	; 0x800692 <D3>
     b02:	90 93 93 06 	sts	0x0693, r25	; 0x800693 <D3+0x1>
     b06:	a0 93 94 06 	sts	0x0694, r26	; 0x800694 <D3+0x2>
     b0a:	b0 93 95 06 	sts	0x0695, r27	; 0x800695 <D3+0x3>
	I2C_StopCondition();                // остановка i2c
     b0e:	0e 94 08 13 	call	0x2610	; 0x2610 <I2C_StopCondition>
	

	return (int32_t)(((D1 << 16) + (D2 << 8) + D3) >> (8-OSS));  // вычислить давление (в Па ?)
     b12:	40 91 ae 06 	lds	r20, 0x06AE	; 0x8006ae <D1>
     b16:	50 91 af 06 	lds	r21, 0x06AF	; 0x8006af <D1+0x1>
     b1a:	60 91 b0 06 	lds	r22, 0x06B0	; 0x8006b0 <D1+0x2>
     b1e:	70 91 b1 06 	lds	r23, 0x06B1	; 0x8006b1 <D1+0x3>
     b22:	ba 01       	movw	r22, r20
     b24:	55 27       	eor	r21, r21
     b26:	44 27       	eor	r20, r20
     b28:	80 91 aa 06 	lds	r24, 0x06AA	; 0x8006aa <D2>
     b2c:	90 91 ab 06 	lds	r25, 0x06AB	; 0x8006ab <D2+0x1>
     b30:	a0 91 ac 06 	lds	r26, 0x06AC	; 0x8006ac <D2+0x2>
     b34:	b0 91 ad 06 	lds	r27, 0x06AD	; 0x8006ad <D2+0x3>
     b38:	ba 2f       	mov	r27, r26
     b3a:	a9 2f       	mov	r26, r25
     b3c:	98 2f       	mov	r25, r24
     b3e:	88 27       	eor	r24, r24
     b40:	48 0f       	add	r20, r24
     b42:	59 1f       	adc	r21, r25
     b44:	6a 1f       	adc	r22, r26
     b46:	7b 1f       	adc	r23, r27
     b48:	80 91 92 06 	lds	r24, 0x0692	; 0x800692 <D3>
     b4c:	90 91 93 06 	lds	r25, 0x0693	; 0x800693 <D3+0x1>
     b50:	a0 91 94 06 	lds	r26, 0x0694	; 0x800694 <D3+0x2>
     b54:	b0 91 95 06 	lds	r27, 0x0695	; 0x800695 <D3+0x3>
     b58:	84 0f       	add	r24, r20
     b5a:	95 1f       	adc	r25, r21
     b5c:	a6 1f       	adc	r26, r22
     b5e:	b7 1f       	adc	r27, r23
     b60:	bc 01       	movw	r22, r24
     b62:	cd 01       	movw	r24, r26
     b64:	68 94       	set
     b66:	14 f8       	bld	r1, 4
     b68:	96 95       	lsr	r25
     b6a:	87 95       	ror	r24
     b6c:	77 95       	ror	r23
     b6e:	67 95       	ror	r22
     b70:	16 94       	lsr	r1
     b72:	d1 f7       	brne	.-12     	; 0xb68 <BMP180_get_pressure+0xec>
}
     b74:	08 95       	ret

00000b76 <BMP180_calculation>:
// получить значения температуры и атмосферного давления с учетом калибровочных коэффициентов
int32_t BMP180_calculation () 
{
     b76:	4f 92       	push	r4
     b78:	5f 92       	push	r5
     b7a:	6f 92       	push	r6
     b7c:	7f 92       	push	r7
     b7e:	8f 92       	push	r8
     b80:	9f 92       	push	r9
     b82:	af 92       	push	r10
     b84:	bf 92       	push	r11
     b86:	cf 92       	push	r12
     b88:	df 92       	push	r13
     b8a:	ef 92       	push	r14
     b8c:	ff 92       	push	r15
     b8e:	0f 93       	push	r16
     b90:	1f 93       	push	r17
     b92:	cf 93       	push	r28
     b94:	df 93       	push	r29
     b96:	00 d0       	rcall	.+0      	; 0xb98 <BMP180_calculation+0x22>
     b98:	00 d0       	rcall	.+0      	; 0xb9a <BMP180_calculation+0x24>
     b9a:	cd b7       	in	r28, 0x3d	; 61
     b9c:	de b7       	in	r29, 0x3e	; 62
	int32_t ut=0;
	int32_t up=0;
	int32_t x1, x2, b5, b6, x3, b3, p;
	uint32_t b4, b7;

	ut += BMP180_get_temper();
     b9e:	0e 94 24 05 	call	0xa48	; 0xa48 <BMP180_get_temper>
     ba2:	6b 01       	movw	r12, r22
     ba4:	7c 01       	movw	r14, r24

	up = BMP180_get_pressure();
     ba6:	0e 94 3e 05 	call	0xa7c	; 0xa7c <BMP180_get_pressure>
     baa:	69 83       	std	Y+1, r22	; 0x01
     bac:	7a 83       	std	Y+2, r23	; 0x02
     bae:	8b 83       	std	Y+3, r24	; 0x03
     bb0:	9c 83       	std	Y+4, r25	; 0x04

	x1 = ((int32_t)ut - (int32_t)ac6) * (int32_t)ac5 >> 15;
     bb2:	80 91 9e 06 	lds	r24, 0x069E	; 0x80069e <ac6>
     bb6:	90 91 9f 06 	lds	r25, 0x069F	; 0x80069f <ac6+0x1>
     bba:	a7 01       	movw	r20, r14
     bbc:	96 01       	movw	r18, r12
     bbe:	28 1b       	sub	r18, r24
     bc0:	39 0b       	sbc	r19, r25
     bc2:	41 09       	sbc	r20, r1
     bc4:	51 09       	sbc	r21, r1
     bc6:	a0 91 a0 06 	lds	r26, 0x06A0	; 0x8006a0 <ac5>
     bca:	b0 91 a1 06 	lds	r27, 0x06A1	; 0x8006a1 <ac5+0x1>
     bce:	0e 94 e1 24 	call	0x49c2	; 0x49c2 <__muluhisi3>
     bd2:	2b 01       	movw	r4, r22
     bd4:	3c 01       	movw	r6, r24
     bd6:	03 2e       	mov	r0, r19
     bd8:	3f e0       	ldi	r19, 0x0F	; 15
     bda:	75 94       	asr	r7
     bdc:	67 94       	ror	r6
     bde:	57 94       	ror	r5
     be0:	47 94       	ror	r4
     be2:	3a 95       	dec	r19
     be4:	d1 f7       	brne	.-12     	; 0xbda <BMP180_calculation+0x64>
     be6:	30 2d       	mov	r19, r0
	x2 = ((int32_t)mc << 11) / (x1 + md);
     be8:	60 91 a8 06 	lds	r22, 0x06A8	; 0x8006a8 <mc>
     bec:	70 91 a9 06 	lds	r23, 0x06A9	; 0x8006a9 <mc+0x1>
     bf0:	cb 01       	movw	r24, r22
     bf2:	77 0f       	add	r23, r23
     bf4:	aa 0b       	sbc	r26, r26
     bf6:	bb 0b       	sbc	r27, r27
     bf8:	bc 01       	movw	r22, r24
     bfa:	cd 01       	movw	r24, r26
     bfc:	05 2e       	mov	r0, r21
     bfe:	5b e0       	ldi	r21, 0x0B	; 11
     c00:	66 0f       	add	r22, r22
     c02:	77 1f       	adc	r23, r23
     c04:	88 1f       	adc	r24, r24
     c06:	99 1f       	adc	r25, r25
     c08:	5a 95       	dec	r21
     c0a:	d1 f7       	brne	.-12     	; 0xc00 <BMP180_calculation+0x8a>
     c0c:	50 2d       	mov	r21, r0
     c0e:	20 91 a4 06 	lds	r18, 0x06A4	; 0x8006a4 <md>
     c12:	30 91 a5 06 	lds	r19, 0x06A5	; 0x8006a5 <md+0x1>
     c16:	89 01       	movw	r16, r18
     c18:	33 0f       	add	r19, r19
     c1a:	22 0b       	sbc	r18, r18
     c1c:	33 0b       	sbc	r19, r19
     c1e:	a9 01       	movw	r20, r18
     c20:	98 01       	movw	r18, r16
     c22:	24 0d       	add	r18, r4
     c24:	35 1d       	adc	r19, r5
     c26:	46 1d       	adc	r20, r6
     c28:	57 1d       	adc	r21, r7
     c2a:	0e 94 bc 24 	call	0x4978	; 0x4978 <__divmodsi4>
	b5 = x1 + x2;
     c2e:	42 0e       	add	r4, r18
     c30:	53 1e       	adc	r5, r19
     c32:	64 1e       	adc	r6, r20
     c34:	75 1e       	adc	r7, r21
	//*temperature = (b5 + 8) >> 4;
	
	b6 = b5 - 4000;
     c36:	80 ea       	ldi	r24, 0xA0	; 160
     c38:	48 1a       	sub	r4, r24
     c3a:	8f e0       	ldi	r24, 0x0F	; 15
     c3c:	58 0a       	sbc	r5, r24
     c3e:	61 08       	sbc	r6, r1
     c40:	71 08       	sbc	r7, r1
	x1 = (b2 * ((b6 * b6) >> 12)) >> 11;
     c42:	a3 01       	movw	r20, r6
     c44:	92 01       	movw	r18, r4
     c46:	c3 01       	movw	r24, r6
     c48:	b2 01       	movw	r22, r4
     c4a:	0e 94 8a 24 	call	0x4914	; 0x4914 <__mulsi3>
     c4e:	4b 01       	movw	r8, r22
     c50:	5c 01       	movw	r10, r24
     c52:	07 2e       	mov	r0, r23
     c54:	7c e0       	ldi	r23, 0x0C	; 12
     c56:	b5 94       	asr	r11
     c58:	a7 94       	ror	r10
     c5a:	97 94       	ror	r9
     c5c:	87 94       	ror	r8
     c5e:	7a 95       	dec	r23
     c60:	d1 f7       	brne	.-12     	; 0xc56 <BMP180_calculation+0xe0>
     c62:	70 2d       	mov	r23, r0
     c64:	a0 91 96 06 	lds	r26, 0x0696	; 0x800696 <b2>
     c68:	b0 91 97 06 	lds	r27, 0x0697	; 0x800697 <b2+0x1>
     c6c:	a5 01       	movw	r20, r10
     c6e:	94 01       	movw	r18, r8
     c70:	0e 94 ec 24 	call	0x49d8	; 0x49d8 <__mulshisi3>
     c74:	6b 01       	movw	r12, r22
     c76:	7c 01       	movw	r14, r24
     c78:	0b 2e       	mov	r0, r27
     c7a:	bb e0       	ldi	r27, 0x0B	; 11
     c7c:	f5 94       	asr	r15
     c7e:	e7 94       	ror	r14
     c80:	d7 94       	ror	r13
     c82:	c7 94       	ror	r12
     c84:	ba 95       	dec	r27
     c86:	d1 f7       	brne	.-12     	; 0xc7c <BMP180_calculation+0x106>
     c88:	b0 2d       	mov	r27, r0
	x2 = (ac2 * b6) >> 11;
     c8a:	a0 91 a2 06 	lds	r26, 0x06A2	; 0x8006a2 <ac2>
     c8e:	b0 91 a3 06 	lds	r27, 0x06A3	; 0x8006a3 <ac2+0x1>
     c92:	a3 01       	movw	r20, r6
     c94:	92 01       	movw	r18, r4
     c96:	0e 94 ec 24 	call	0x49d8	; 0x49d8 <__mulshisi3>
     c9a:	dc 01       	movw	r26, r24
     c9c:	cb 01       	movw	r24, r22
     c9e:	07 2e       	mov	r0, r23
     ca0:	7b e0       	ldi	r23, 0x0B	; 11
     ca2:	b5 95       	asr	r27
     ca4:	a7 95       	ror	r26
     ca6:	97 95       	ror	r25
     ca8:	87 95       	ror	r24
     caa:	7a 95       	dec	r23
     cac:	d1 f7       	brne	.-12     	; 0xca2 <BMP180_calculation+0x12c>
     cae:	70 2d       	mov	r23, r0
	x3 = x1 + x2;
     cb0:	c8 0e       	add	r12, r24
     cb2:	d9 1e       	adc	r13, r25
     cb4:	ea 1e       	adc	r14, r26
     cb6:	fb 1e       	adc	r15, r27
	b3 = (((((int32_t) ac1) * 4 + x3)<<OSS) + 2)>> 2;
     cb8:	80 91 9a 06 	lds	r24, 0x069A	; 0x80069a <ac1>
     cbc:	90 91 9b 06 	lds	r25, 0x069B	; 0x80069b <ac1+0x1>
     cc0:	09 2e       	mov	r0, r25
     cc2:	00 0c       	add	r0, r0
     cc4:	aa 0b       	sbc	r26, r26
     cc6:	bb 0b       	sbc	r27, r27
     cc8:	88 0f       	add	r24, r24
     cca:	99 1f       	adc	r25, r25
     ccc:	aa 1f       	adc	r26, r26
     cce:	bb 1f       	adc	r27, r27
     cd0:	88 0f       	add	r24, r24
     cd2:	99 1f       	adc	r25, r25
     cd4:	aa 1f       	adc	r26, r26
     cd6:	bb 1f       	adc	r27, r27
     cd8:	c8 0e       	add	r12, r24
     cda:	d9 1e       	adc	r13, r25
     cdc:	ea 1e       	adc	r14, r26
     cde:	fb 1e       	adc	r15, r27
     ce0:	cc 0c       	add	r12, r12
     ce2:	dd 1c       	adc	r13, r13
     ce4:	ee 1c       	adc	r14, r14
     ce6:	ff 1c       	adc	r15, r15
	x1 = (ac3 * b6) >> 13;
     ce8:	a0 91 b2 06 	lds	r26, 0x06B2	; 0x8006b2 <ac3>
     cec:	b0 91 b3 06 	lds	r27, 0x06B3	; 0x8006b3 <ac3+0x1>
     cf0:	0e 94 ec 24 	call	0x49d8	; 0x49d8 <__mulshisi3>
     cf4:	2b 01       	movw	r4, r22
     cf6:	3c 01       	movw	r6, r24
     cf8:	03 2e       	mov	r0, r19
     cfa:	3d e0       	ldi	r19, 0x0D	; 13
     cfc:	75 94       	asr	r7
     cfe:	67 94       	ror	r6
     d00:	57 94       	ror	r5
     d02:	47 94       	ror	r4
     d04:	3a 95       	dec	r19
     d06:	d1 f7       	brne	.-12     	; 0xcfc <BMP180_calculation+0x186>
     d08:	30 2d       	mov	r19, r0
	x2 = (b1 * ((b6 * b6) >> 12)) >> 16;
     d0a:	a0 91 9c 06 	lds	r26, 0x069C	; 0x80069c <b1>
     d0e:	b0 91 9d 06 	lds	r27, 0x069D	; 0x80069d <b1+0x1>
     d12:	a5 01       	movw	r20, r10
     d14:	94 01       	movw	r18, r8
     d16:	0e 94 ec 24 	call	0x49d8	; 0x49d8 <__mulshisi3>
     d1a:	bb 27       	eor	r27, r27
     d1c:	97 fd       	sbrc	r25, 7
     d1e:	b0 95       	com	r27
     d20:	ab 2f       	mov	r26, r27
	x3 = ((x1 + x2) + 2) >> 2;
     d22:	84 0d       	add	r24, r4
     d24:	95 1d       	adc	r25, r5
     d26:	a6 1d       	adc	r26, r6
     d28:	b7 1d       	adc	r27, r7
     d2a:	02 96       	adiw	r24, 0x02	; 2
     d2c:	a1 1d       	adc	r26, r1
     d2e:	b1 1d       	adc	r27, r1
     d30:	b5 95       	asr	r27
     d32:	a7 95       	ror	r26
     d34:	97 95       	ror	r25
     d36:	87 95       	ror	r24
     d38:	b5 95       	asr	r27
     d3a:	a7 95       	ror	r26
     d3c:	97 95       	ror	r25
     d3e:	87 95       	ror	r24
	b4 = (ac4 * (uint32_t) (x3 + 32768)) >> 15;
     d40:	9c 01       	movw	r18, r24
     d42:	ad 01       	movw	r20, r26
     d44:	30 58       	subi	r19, 0x80	; 128
     d46:	4f 4f       	sbci	r20, 0xFF	; 255
     d48:	5f 4f       	sbci	r21, 0xFF	; 255
     d4a:	a0 91 a6 06 	lds	r26, 0x06A6	; 0x8006a6 <ac4>
     d4e:	b0 91 a7 06 	lds	r27, 0x06A7	; 0x8006a7 <ac4+0x1>
     d52:	0e 94 e1 24 	call	0x49c2	; 0x49c2 <__muluhisi3>
     d56:	2b 01       	movw	r4, r22
     d58:	3c 01       	movw	r6, r24
     d5a:	03 2e       	mov	r0, r19
     d5c:	3f e0       	ldi	r19, 0x0F	; 15
     d5e:	76 94       	lsr	r7
     d60:	67 94       	ror	r6
     d62:	57 94       	ror	r5
     d64:	47 94       	ror	r4
     d66:	3a 95       	dec	r19
     d68:	d1 f7       	brne	.-12     	; 0xd5e <BMP180_calculation+0x1e8>
     d6a:	30 2d       	mov	r19, r0
	b7 = ((uint32_t) (up - b3) * (50000 >> OSS));
     d6c:	29 81       	ldd	r18, Y+1	; 0x01
     d6e:	3a 81       	ldd	r19, Y+2	; 0x02
     d70:	4b 81       	ldd	r20, Y+3	; 0x03
     d72:	5c 81       	ldd	r21, Y+4	; 0x04
     d74:	2c 19       	sub	r18, r12
     d76:	3d 09       	sbc	r19, r13
     d78:	4e 09       	sbc	r20, r14
     d7a:	5f 09       	sbc	r21, r15
     d7c:	aa e6       	ldi	r26, 0x6A	; 106
     d7e:	b8 e1       	ldi	r27, 0x18	; 24
     d80:	0e 94 e1 24 	call	0x49c2	; 0x49c2 <__muluhisi3>
	//p = b7 < 0x80000000 ? (b7 * 2) / b4 : (b7 / b4) * 2;
	
	if (b7 < 0x80000000)
     d84:	99 23       	and	r25, r25
     d86:	5c f0       	brlt	.+22     	; 0xd9e <BMP180_calculation+0x228>
	{
		p = (b7 << 1) / b4;
     d88:	66 0f       	add	r22, r22
     d8a:	77 1f       	adc	r23, r23
     d8c:	88 1f       	adc	r24, r24
     d8e:	99 1f       	adc	r25, r25
     d90:	a3 01       	movw	r20, r6
     d92:	92 01       	movw	r18, r4
     d94:	0e 94 9a 24 	call	0x4934	; 0x4934 <__udivmodsi4>
     d98:	29 01       	movw	r4, r18
     d9a:	3a 01       	movw	r6, r20
     d9c:	0a c0       	rjmp	.+20     	; 0xdb2 <BMP180_calculation+0x23c>
	}
	else
	{
		p = (b7 / b4) << 1;
     d9e:	a3 01       	movw	r20, r6
     da0:	92 01       	movw	r18, r4
     da2:	0e 94 9a 24 	call	0x4934	; 0x4934 <__udivmodsi4>
     da6:	29 01       	movw	r4, r18
     da8:	3a 01       	movw	r6, r20
     daa:	44 0c       	add	r4, r4
     dac:	55 1c       	adc	r5, r5
     dae:	66 1c       	adc	r6, r6
     db0:	77 1c       	adc	r7, r7
	}

	x1 = (p / (pow(2,8))) * (p / (pow(2,8)));
     db2:	c3 01       	movw	r24, r6
     db4:	b2 01       	movw	r22, r4
     db6:	0e 94 eb 1f 	call	0x3fd6	; 0x3fd6 <__floatsisf>
     dba:	6b 01       	movw	r12, r22
     dbc:	7c 01       	movw	r14, r24
     dbe:	20 e0       	ldi	r18, 0x00	; 0
     dc0:	30 e0       	ldi	r19, 0x00	; 0
     dc2:	40 e8       	ldi	r20, 0x80	; 128
     dc4:	5b e3       	ldi	r21, 0x3B	; 59
     dc6:	0e 94 a0 20 	call	0x4140	; 0x4140 <__mulsf3>
     dca:	9b 01       	movw	r18, r22
     dcc:	ac 01       	movw	r20, r24
     dce:	0e 94 a0 20 	call	0x4140	; 0x4140 <__mulsf3>
     dd2:	0e 94 b3 1f 	call	0x3f66	; 0x3f66 <__fixsfsi>
     dd6:	9b 01       	movw	r18, r22
     dd8:	ac 01       	movw	r20, r24
	x1 = (x1 * 3038) / (pow(2,16));
     dda:	ae ed       	ldi	r26, 0xDE	; 222
     ddc:	bb e0       	ldi	r27, 0x0B	; 11
     dde:	0e 94 e1 24 	call	0x49c2	; 0x49c2 <__muluhisi3>
     de2:	0e 94 eb 1f 	call	0x3fd6	; 0x3fd6 <__floatsisf>
     de6:	20 e0       	ldi	r18, 0x00	; 0
     de8:	30 e0       	ldi	r19, 0x00	; 0
     dea:	40 e8       	ldi	r20, 0x80	; 128
     dec:	57 e3       	ldi	r21, 0x37	; 55
     dee:	0e 94 a0 20 	call	0x4140	; 0x4140 <__mulsf3>
     df2:	0e 94 b3 1f 	call	0x3f66	; 0x3f66 <__fixsfsi>
     df6:	4b 01       	movw	r8, r22
     df8:	5c 01       	movw	r10, r24
	x2 = (-7357 * p) / (pow(2,16));
     dfa:	a3 e4       	ldi	r26, 0x43	; 67
     dfc:	b3 ee       	ldi	r27, 0xE3	; 227
     dfe:	a3 01       	movw	r20, r6
     e00:	92 01       	movw	r18, r4
     e02:	0e 94 ef 24 	call	0x49de	; 0x49de <__mulohisi3>
     e06:	0e 94 eb 1f 	call	0x3fd6	; 0x3fd6 <__floatsisf>
     e0a:	20 e0       	ldi	r18, 0x00	; 0
     e0c:	30 e0       	ldi	r19, 0x00	; 0
     e0e:	40 e8       	ldi	r20, 0x80	; 128
     e10:	57 e3       	ldi	r21, 0x37	; 55
     e12:	0e 94 a0 20 	call	0x4140	; 0x4140 <__mulsf3>
     e16:	0e 94 b3 1f 	call	0x3f66	; 0x3f66 <__fixsfsi>
	pressure = p + ((x1 + x2 + 3791) / (pow(2,4)));
     e1a:	dc 01       	movw	r26, r24
     e1c:	cb 01       	movw	r24, r22
     e1e:	88 0d       	add	r24, r8
     e20:	99 1d       	adc	r25, r9
     e22:	aa 1d       	adc	r26, r10
     e24:	bb 1d       	adc	r27, r11
     e26:	bc 01       	movw	r22, r24
     e28:	cd 01       	movw	r24, r26
     e2a:	61 53       	subi	r22, 0x31	; 49
     e2c:	71 4f       	sbci	r23, 0xF1	; 241
     e2e:	8f 4f       	sbci	r24, 0xFF	; 255
     e30:	9f 4f       	sbci	r25, 0xFF	; 255
     e32:	0e 94 eb 1f 	call	0x3fd6	; 0x3fd6 <__floatsisf>
     e36:	20 e0       	ldi	r18, 0x00	; 0
     e38:	30 e0       	ldi	r19, 0x00	; 0
     e3a:	40 e8       	ldi	r20, 0x80	; 128
     e3c:	5d e3       	ldi	r21, 0x3D	; 61
     e3e:	0e 94 a0 20 	call	0x4140	; 0x4140 <__mulsf3>
     e42:	9b 01       	movw	r18, r22
     e44:	ac 01       	movw	r20, r24
     e46:	c7 01       	movw	r24, r14
     e48:	b6 01       	movw	r22, r12
     e4a:	0e 94 d0 1e 	call	0x3da0	; 0x3da0 <__addsf3>
     e4e:	0e 94 b3 1f 	call	0x3f66	; 0x3f66 <__fixsfsi>
     e52:	60 93 cc 01 	sts	0x01CC, r22	; 0x8001cc <__data_end>
     e56:	70 93 cd 01 	sts	0x01CD, r23	; 0x8001cd <__data_end+0x1>
     e5a:	80 93 ce 01 	sts	0x01CE, r24	; 0x8001ce <__data_end+0x2>
     e5e:	90 93 cf 01 	sts	0x01CF, r25	; 0x8001cf <__data_end+0x3>
	return pressure;
}
     e62:	0f 90       	pop	r0
     e64:	0f 90       	pop	r0
     e66:	0f 90       	pop	r0
     e68:	0f 90       	pop	r0
     e6a:	df 91       	pop	r29
     e6c:	cf 91       	pop	r28
     e6e:	1f 91       	pop	r17
     e70:	0f 91       	pop	r16
     e72:	ff 90       	pop	r15
     e74:	ef 90       	pop	r14
     e76:	df 90       	pop	r13
     e78:	cf 90       	pop	r12
     e7a:	bf 90       	pop	r11
     e7c:	af 90       	pop	r10
     e7e:	9f 90       	pop	r9
     e80:	8f 90       	pop	r8
     e82:	7f 90       	pop	r7
     e84:	6f 90       	pop	r6
     e86:	5f 90       	pop	r5
     e88:	4f 90       	pop	r4
     e8a:	08 95       	ret

00000e8c <dht22_init>:
     e8c:	2f ef       	ldi	r18, 0xFF	; 255
     e8e:	83 ed       	ldi	r24, 0xD3	; 211
     e90:	90 e3       	ldi	r25, 0x30	; 48
     e92:	21 50       	subi	r18, 0x01	; 1
     e94:	80 40       	sbci	r24, 0x00	; 0
     e96:	90 40       	sbci	r25, 0x00	; 0
     e98:	e1 f7       	brne	.-8      	; 0xe92 <dht22_init+0x6>
     e9a:	00 c0       	rjmp	.+0      	; 0xe9c <dht22_init+0x10>
     e9c:	00 00       	nop
#include "DHT22.h"

uint8_t dht22_init (void)
{
	_delay_ms(2000);
	DDRC |= (1<<DHT22_PORT);   // set as output
     e9e:	87 b1       	in	r24, 0x07	; 7
     ea0:	81 60       	ori	r24, 0x01	; 1
     ea2:	87 b9       	out	0x07, r24	; 7
	PORTC |= (1<<DHT22_PORT);// pull the pin high
     ea4:	88 b1       	in	r24, 0x08	; 8
     ea6:	81 60       	ori	r24, 0x01	; 1
     ea8:	88 b9       	out	0x08, r24	; 8

	return 0;
}
     eaa:	80 e0       	ldi	r24, 0x00	; 0
     eac:	08 95       	ret

00000eae <dht22_GetData>:
uint8_t dht22_GetData (uint8_t *data)
{
     eae:	bc 01       	movw	r22, r24
	uint8_t i, j = 0;
	DDRC |= (1<<DHT22_PORT);   // set as output
     eb0:	87 b1       	in	r24, 0x07	; 7
     eb2:	81 60       	ori	r24, 0x01	; 1
     eb4:	87 b9       	out	0x07, r24	; 7
	//reset ports
	PORTC &= ~(1<<DHT22_PORT);// pull the pin low
     eb6:	88 b1       	in	r24, 0x08	; 8
     eb8:	8e 7f       	andi	r24, 0xFE	; 254
     eba:	88 b9       	out	0x08, r24	; 8
	PORTC |= (1<<DHT22_PORT);// pull the pin high
     ebc:	88 b1       	in	r24, 0x08	; 8
     ebe:	81 60       	ori	r24, 0x01	; 1
     ec0:	88 b9       	out	0x08, r24	; 8
     ec2:	2f ef       	ldi	r18, 0xFF	; 255
     ec4:	80 e7       	ldi	r24, 0x70	; 112
     ec6:	92 e0       	ldi	r25, 0x02	; 2
     ec8:	21 50       	subi	r18, 0x01	; 1
     eca:	80 40       	sbci	r24, 0x00	; 0
     ecc:	90 40       	sbci	r25, 0x00	; 0
     ece:	e1 f7       	brne	.-8      	; 0xec8 <dht22_GetData+0x1a>
     ed0:	00 c0       	rjmp	.+0      	; 0xed2 <dht22_GetData+0x24>
     ed2:	00 00       	nop
	_delay_ms(100);
	//start
	PORTC &= ~(1<<DHT22_PORT);// pull the pin low
     ed4:	88 b1       	in	r24, 0x08	; 8
     ed6:	8e 7f       	andi	r24, 0xFE	; 254
     ed8:	88 b9       	out	0x08, r24	; 8
     eda:	8f e9       	ldi	r24, 0x9F	; 159
     edc:	9c e8       	ldi	r25, 0x8C	; 140
     ede:	01 97       	sbiw	r24, 0x01	; 1
     ee0:	f1 f7       	brne	.-4      	; 0xede <dht22_GetData+0x30>
     ee2:	00 c0       	rjmp	.+0      	; 0xee4 <dht22_GetData+0x36>
     ee4:	00 00       	nop
	_delay_ms(18);
	PORTC |= (1<<DHT22_PORT);// pull the pin high
     ee6:	88 b1       	in	r24, 0x08	; 8
     ee8:	81 60       	ori	r24, 0x01	; 1
     eea:	88 b9       	out	0x08, r24	; 8
	//ждем ответа датчика
	DDRC &= ~(1<<DHT22_PORT);   // set as input
     eec:	87 b1       	in	r24, 0x07	; 7
     eee:	8e 7f       	andi	r24, 0xFE	; 254
     ef0:	87 b9       	out	0x07, r24	; 7
	#else
		//round up by default
		__ticks_dc = (uint32_t)(ceil(fabs(__tmp)));
	#endif

	__builtin_avr_delay_cycles(__ticks_dc);
     ef2:	90 ea       	ldi	r25, 0xA0	; 160
     ef4:	9a 95       	dec	r25
     ef6:	f1 f7       	brne	.-4      	; 0xef4 <dht22_GetData+0x46>
	_delay_us(60);//экспериментом выявлено 60 а не 40 сек
	//если датчик не ответил притягиванием шины, то ошибка
	if (PINC & (1 << DHT22_PORT))
     ef8:	30 99       	sbic	0x06, 0	; 6
     efa:	38 c0       	rjmp	.+112    	; 0xf6c <dht22_GetData+0xbe>
     efc:	25 ed       	ldi	r18, 0xD5	; 213
     efe:	2a 95       	dec	r18
     f00:	f1 f7       	brne	.-4      	; 0xefe <dht22_GetData+0x50>
     f02:	00 00       	nop
	{
		return 0;
	}
	_delay_us(80);
	//если датчик не отпустил шину, то ошибка
	if (!(PINC & (1 << DHT22_PORT)))
     f04:	96 b1       	in	r25, 0x06	; 6
     f06:	89 2f       	mov	r24, r25
     f08:	81 70       	andi	r24, 0x01	; 1
     f0a:	90 ff       	sbrs	r25, 0
     f0c:	30 c0       	rjmp	.+96     	; 0xf6e <dht22_GetData+0xc0>
     f0e:	85 ed       	ldi	r24, 0xD5	; 213
     f10:	8a 95       	dec	r24
     f12:	f1 f7       	brne	.-4      	; 0xf10 <dht22_GetData+0x62>
     f14:	00 00       	nop
	}
	_delay_us(80);
	//читаем данные (записываем байты в массив наоборот,
	//т.к. сначала передается старший, чтобы потом
	//не переворачивать двухбайтовый результат
	for (j=0; j<5; j++)
     f16:	80 e0       	ldi	r24, 0x00	; 0
     f18:	25 c0       	rjmp	.+74     	; 0xf64 <dht22_GetData+0xb6>
	{
		data[4-j] = 0;
     f1a:	e4 e0       	ldi	r30, 0x04	; 4
     f1c:	f0 e0       	ldi	r31, 0x00	; 0
     f1e:	e8 1b       	sub	r30, r24
     f20:	f1 09       	sbc	r31, r1
     f22:	e6 0f       	add	r30, r22
     f24:	f7 1f       	adc	r31, r23
     f26:	10 82       	st	Z, r1
		for (i = 0; i<8; i++)
     f28:	90 e0       	ldi	r25, 0x00	; 0
     f2a:	19 c0       	rjmp	.+50     	; 0xf5e <dht22_GetData+0xb0>
		{
			while(!(PINC & (1 << DHT22_PORT)));//ждем отпускания шины
     f2c:	30 9b       	sbis	0x06, 0	; 6
     f2e:	fe cf       	rjmp	.-4      	; 0xf2c <dht22_GetData+0x7e>
     f30:	2d e5       	ldi	r18, 0x5D	; 93
     f32:	2a 95       	dec	r18
     f34:	f1 f7       	brne	.-4      	; 0xf32 <dht22_GetData+0x84>
     f36:	00 00       	nop
			_delay_us(35);
			if (PINC & (1 << DHT22_PORT))//читаем результат по прошествии 30 микросекунд
     f38:	30 9b       	sbis	0x06, 0	; 6
     f3a:	0e c0       	rjmp	.+28     	; 0xf58 <dht22_GetData+0xaa>
			//если шина за это время не притянулась к земле, то значит это единица, иначе ноль
			data[4-j] |= (1<<(7-i));
     f3c:	47 e0       	ldi	r20, 0x07	; 7
     f3e:	50 e0       	ldi	r21, 0x00	; 0
     f40:	49 1b       	sub	r20, r25
     f42:	51 09       	sbc	r21, r1
     f44:	21 e0       	ldi	r18, 0x01	; 1
     f46:	30 e0       	ldi	r19, 0x00	; 0
     f48:	02 c0       	rjmp	.+4      	; 0xf4e <dht22_GetData+0xa0>
     f4a:	22 0f       	add	r18, r18
     f4c:	33 1f       	adc	r19, r19
     f4e:	4a 95       	dec	r20
     f50:	e2 f7       	brpl	.-8      	; 0xf4a <dht22_GetData+0x9c>
     f52:	30 81       	ld	r19, Z
     f54:	23 2b       	or	r18, r19
     f56:	20 83       	st	Z, r18
			while(PINC & (1 << DHT22_PORT));//ждем пока датчик притянет шину(в случае единицы)
     f58:	30 99       	sbic	0x06, 0	; 6
     f5a:	fe cf       	rjmp	.-4      	; 0xf58 <dht22_GetData+0xaa>
	//т.к. сначала передается старший, чтобы потом
	//не переворачивать двухбайтовый результат
	for (j=0; j<5; j++)
	{
		data[4-j] = 0;
		for (i = 0; i<8; i++)
     f5c:	9f 5f       	subi	r25, 0xFF	; 255
     f5e:	98 30       	cpi	r25, 0x08	; 8
     f60:	28 f3       	brcs	.-54     	; 0xf2c <dht22_GetData+0x7e>
	}
	_delay_us(80);
	//читаем данные (записываем байты в массив наоборот,
	//т.к. сначала передается старший, чтобы потом
	//не переворачивать двухбайтовый результат
	for (j=0; j<5; j++)
     f62:	8f 5f       	subi	r24, 0xFF	; 255
     f64:	85 30       	cpi	r24, 0x05	; 5
     f66:	c8 f2       	brcs	.-78     	; 0xf1a <dht22_GetData+0x6c>
			//если шина за это время не притянулась к земле, то значит это единица, иначе ноль
			data[4-j] |= (1<<(7-i));
			while(PINC & (1 << DHT22_PORT));//ждем пока датчик притянет шину(в случае единицы)
		}
	}
	return 1;
     f68:	81 e0       	ldi	r24, 0x01	; 1
     f6a:	08 95       	ret
	DDRC &= ~(1<<DHT22_PORT);   // set as input
	_delay_us(60);//экспериментом выявлено 60 а не 40 сек
	//если датчик не ответил притягиванием шины, то ошибка
	if (PINC & (1 << DHT22_PORT))
	{
		return 0;
     f6c:	80 e0       	ldi	r24, 0x00	; 0
			data[4-j] |= (1<<(7-i));
			while(PINC & (1 << DHT22_PORT));//ждем пока датчик притянет шину(в случае единицы)
		}
	}
	return 1;
     f6e:	08 95       	ret

00000f70 <LCD_12864_Draw_pixel>:
			LCD_12864_send_data(0x00);
			LCD_12864_send_data(0x00);
		}
	}
	LCD_12864_Clean_Frame_buffer();
}
     f70:	90 91 00 01 	lds	r25, 0x0100	; 0x800100 <__DATA_REGION_ORIGIN__>
     f74:	69 17       	cp	r22, r25
     f76:	e0 f4       	brcc	.+56     	; 0xfb0 <LCD_12864_Draw_pixel+0x40>
     f78:	90 91 01 01 	lds	r25, 0x0101	; 0x800101 <ST7920_width>
     f7c:	89 17       	cp	r24, r25
     f7e:	c0 f4       	brcc	.+48     	; 0xfb0 <LCD_12864_Draw_pixel+0x40>
     f80:	96 2f       	mov	r25, r22
     f82:	96 95       	lsr	r25
     f84:	96 95       	lsr	r25
     f86:	96 95       	lsr	r25
     f88:	e8 2f       	mov	r30, r24
     f8a:	f0 e0       	ldi	r31, 0x00	; 0
     f8c:	80 e8       	ldi	r24, 0x80	; 128
     f8e:	98 9f       	mul	r25, r24
     f90:	e0 0d       	add	r30, r0
     f92:	f1 1d       	adc	r31, r1
     f94:	11 24       	eor	r1, r1
     f96:	67 70       	andi	r22, 0x07	; 7
     f98:	81 e0       	ldi	r24, 0x01	; 1
     f9a:	90 e0       	ldi	r25, 0x00	; 0
     f9c:	02 c0       	rjmp	.+4      	; 0xfa2 <LCD_12864_Draw_pixel+0x32>
     f9e:	88 0f       	add	r24, r24
     fa0:	99 1f       	adc	r25, r25
     fa2:	6a 95       	dec	r22
     fa4:	e2 f7       	brpl	.-8      	; 0xf9e <LCD_12864_Draw_pixel+0x2e>
     fa6:	e4 57       	subi	r30, 0x74	; 116
     fa8:	fd 4f       	sbci	r31, 0xFD	; 253
     faa:	90 81       	ld	r25, Z
     fac:	89 2b       	or	r24, r25
     fae:	80 83       	st	Z, r24
     fb0:	08 95       	ret

00000fb2 <LCD_12864_Clean_pixel>:
     fb2:	90 91 00 01 	lds	r25, 0x0100	; 0x800100 <__DATA_REGION_ORIGIN__>
     fb6:	69 17       	cp	r22, r25
     fb8:	e0 f4       	brcc	.+56     	; 0xff2 <LCD_12864_Clean_pixel+0x40>
     fba:	90 91 01 01 	lds	r25, 0x0101	; 0x800101 <ST7920_width>
     fbe:	89 17       	cp	r24, r25
     fc0:	c0 f4       	brcc	.+48     	; 0xff2 <LCD_12864_Clean_pixel+0x40>
     fc2:	96 2f       	mov	r25, r22
     fc4:	96 95       	lsr	r25
     fc6:	96 95       	lsr	r25
     fc8:	96 95       	lsr	r25
     fca:	e8 2f       	mov	r30, r24
     fcc:	f0 e0       	ldi	r31, 0x00	; 0
     fce:	80 e8       	ldi	r24, 0x80	; 128
     fd0:	98 9f       	mul	r25, r24
     fd2:	e0 0d       	add	r30, r0
     fd4:	f1 1d       	adc	r31, r1
     fd6:	11 24       	eor	r1, r1
     fd8:	67 70       	andi	r22, 0x07	; 7
     fda:	8e ef       	ldi	r24, 0xFE	; 254
     fdc:	90 e0       	ldi	r25, 0x00	; 0
     fde:	02 c0       	rjmp	.+4      	; 0xfe4 <LCD_12864_Clean_pixel+0x32>
     fe0:	88 0f       	add	r24, r24
     fe2:	99 1f       	adc	r25, r25
     fe4:	6a 95       	dec	r22
     fe6:	e2 f7       	brpl	.-8      	; 0xfe0 <LCD_12864_Clean_pixel+0x2e>
     fe8:	e4 57       	subi	r30, 0x74	; 116
     fea:	fd 4f       	sbci	r31, 0xFD	; 253
     fec:	90 81       	ld	r25, Z
     fee:	89 23       	and	r24, r25
     ff0:	80 83       	st	Z, r24
     ff2:	08 95       	ret

00000ff4 <strob>:
     ff4:	82 e0       	ldi	r24, 0x02	; 2
     ff6:	8a 95       	dec	r24
     ff8:	f1 f7       	brne	.-4      	; 0xff6 <strob+0x2>
     ffa:	00 c0       	rjmp	.+0      	; 0xffc <strob+0x8>
     ffc:	8b b1       	in	r24, 0x0b	; 11
     ffe:	80 62       	ori	r24, 0x20	; 32
    1000:	8b b9       	out	0x0b, r24	; 11
    1002:	82 e0       	ldi	r24, 0x02	; 2
    1004:	8a 95       	dec	r24
    1006:	f1 f7       	brne	.-4      	; 0x1004 <strob+0x10>
    1008:	00 c0       	rjmp	.+0      	; 0x100a <strob+0x16>
    100a:	8b b1       	in	r24, 0x0b	; 11
    100c:	8f 7d       	andi	r24, 0xDF	; 223
    100e:	8b b9       	out	0x0b, r24	; 11
    1010:	82 e0       	ldi	r24, 0x02	; 2
    1012:	8a 95       	dec	r24
    1014:	f1 f7       	brne	.-4      	; 0x1012 <strob+0x1e>
    1016:	00 c0       	rjmp	.+0      	; 0x1018 <strob+0x24>
    1018:	08 95       	ret

0000101a <LCD_12864_send_data>:
    101a:	1f 93       	push	r17
    101c:	cf 93       	push	r28
    101e:	df 93       	push	r29
    1020:	18 2f       	mov	r17, r24
    1022:	8b b1       	in	r24, 0x0b	; 11
    1024:	80 68       	ori	r24, 0x80	; 128
    1026:	8b b9       	out	0x0b, r24	; 11
    1028:	8b b1       	in	r24, 0x0b	; 11
    102a:	80 64       	ori	r24, 0x40	; 64
    102c:	8b b9       	out	0x0b, r24	; 11
    102e:	0e 94 fa 07 	call	0xff4	; 0xff4 <strob>
    1032:	0e 94 fa 07 	call	0xff4	; 0xff4 <strob>
    1036:	0e 94 fa 07 	call	0xff4	; 0xff4 <strob>
    103a:	0e 94 fa 07 	call	0xff4	; 0xff4 <strob>
    103e:	0e 94 fa 07 	call	0xff4	; 0xff4 <strob>
    1042:	8b b1       	in	r24, 0x0b	; 11
    1044:	8f 7b       	andi	r24, 0xBF	; 191
    1046:	8b b9       	out	0x0b, r24	; 11
    1048:	0e 94 fa 07 	call	0xff4	; 0xff4 <strob>
    104c:	8b b1       	in	r24, 0x0b	; 11
    104e:	80 64       	ori	r24, 0x40	; 64
    1050:	8b b9       	out	0x0b, r24	; 11
    1052:	0e 94 fa 07 	call	0xff4	; 0xff4 <strob>
    1056:	8b b1       	in	r24, 0x0b	; 11
    1058:	8f 7b       	andi	r24, 0xBF	; 191
    105a:	8b b9       	out	0x0b, r24	; 11
    105c:	0e 94 fa 07 	call	0xff4	; 0xff4 <strob>
    1060:	c0 e0       	ldi	r28, 0x00	; 0
    1062:	d0 e0       	ldi	r29, 0x00	; 0
    1064:	1c c0       	rjmp	.+56     	; 0x109e <LCD_12864_send_data+0x84>
    1066:	ce 01       	movw	r24, r28
    1068:	04 97       	sbiw	r24, 0x04	; 4
    106a:	04 97       	sbiw	r24, 0x04	; 4
    106c:	30 f4       	brcc	.+12     	; 0x107a <LCD_12864_send_data+0x60>
    106e:	8b b1       	in	r24, 0x0b	; 11
    1070:	8f 7b       	andi	r24, 0xBF	; 191
    1072:	8b b9       	out	0x0b, r24	; 11
    1074:	0e 94 fa 07 	call	0xff4	; 0xff4 <strob>
    1078:	11 c0       	rjmp	.+34     	; 0x109c <LCD_12864_send_data+0x82>
    107a:	81 2f       	mov	r24, r17
    107c:	80 78       	andi	r24, 0x80	; 128
    107e:	41 f0       	breq	.+16     	; 0x1090 <LCD_12864_send_data+0x76>
    1080:	80 38       	cpi	r24, 0x80	; 128
    1082:	59 f4       	brne	.+22     	; 0x109a <LCD_12864_send_data+0x80>
    1084:	8b b1       	in	r24, 0x0b	; 11
    1086:	80 64       	ori	r24, 0x40	; 64
    1088:	8b b9       	out	0x0b, r24	; 11
    108a:	0e 94 fa 07 	call	0xff4	; 0xff4 <strob>
    108e:	05 c0       	rjmp	.+10     	; 0x109a <LCD_12864_send_data+0x80>
    1090:	8b b1       	in	r24, 0x0b	; 11
    1092:	8f 7b       	andi	r24, 0xBF	; 191
    1094:	8b b9       	out	0x0b, r24	; 11
    1096:	0e 94 fa 07 	call	0xff4	; 0xff4 <strob>
    109a:	11 0f       	add	r17, r17
    109c:	21 96       	adiw	r28, 0x01	; 1
    109e:	cc 30       	cpi	r28, 0x0C	; 12
    10a0:	d1 05       	cpc	r29, r1
    10a2:	0c f3       	brlt	.-62     	; 0x1066 <LCD_12864_send_data+0x4c>
    10a4:	8b b1       	in	r24, 0x0b	; 11
    10a6:	8f 7b       	andi	r24, 0xBF	; 191
    10a8:	8b b9       	out	0x0b, r24	; 11
    10aa:	0e 94 fa 07 	call	0xff4	; 0xff4 <strob>
    10ae:	0e 94 fa 07 	call	0xff4	; 0xff4 <strob>
    10b2:	0e 94 fa 07 	call	0xff4	; 0xff4 <strob>
    10b6:	0e 94 fa 07 	call	0xff4	; 0xff4 <strob>
    10ba:	8b b1       	in	r24, 0x0b	; 11
    10bc:	8f 77       	andi	r24, 0x7F	; 127
    10be:	8b b9       	out	0x0b, r24	; 11
    10c0:	df 91       	pop	r29
    10c2:	cf 91       	pop	r28
    10c4:	1f 91       	pop	r17
    10c6:	08 95       	ret

000010c8 <LCD_12864_send_command>:
    10c8:	1f 93       	push	r17
    10ca:	cf 93       	push	r28
    10cc:	df 93       	push	r29
    10ce:	18 2f       	mov	r17, r24
    10d0:	8b b1       	in	r24, 0x0b	; 11
    10d2:	80 68       	ori	r24, 0x80	; 128
    10d4:	8b b9       	out	0x0b, r24	; 11
    10d6:	8b b1       	in	r24, 0x0b	; 11
    10d8:	80 64       	ori	r24, 0x40	; 64
    10da:	8b b9       	out	0x0b, r24	; 11
    10dc:	0e 94 fa 07 	call	0xff4	; 0xff4 <strob>
    10e0:	0e 94 fa 07 	call	0xff4	; 0xff4 <strob>
    10e4:	0e 94 fa 07 	call	0xff4	; 0xff4 <strob>
    10e8:	0e 94 fa 07 	call	0xff4	; 0xff4 <strob>
    10ec:	0e 94 fa 07 	call	0xff4	; 0xff4 <strob>
    10f0:	8b b1       	in	r24, 0x0b	; 11
    10f2:	8f 7b       	andi	r24, 0xBF	; 191
    10f4:	8b b9       	out	0x0b, r24	; 11
    10f6:	0e 94 fa 07 	call	0xff4	; 0xff4 <strob>
    10fa:	8b b1       	in	r24, 0x0b	; 11
    10fc:	8f 7b       	andi	r24, 0xBF	; 191
    10fe:	8b b9       	out	0x0b, r24	; 11
    1100:	0e 94 fa 07 	call	0xff4	; 0xff4 <strob>
    1104:	8b b1       	in	r24, 0x0b	; 11
    1106:	8f 7b       	andi	r24, 0xBF	; 191
    1108:	8b b9       	out	0x0b, r24	; 11
    110a:	0e 94 fa 07 	call	0xff4	; 0xff4 <strob>
    110e:	c0 e0       	ldi	r28, 0x00	; 0
    1110:	d0 e0       	ldi	r29, 0x00	; 0
    1112:	1c c0       	rjmp	.+56     	; 0x114c <LCD_12864_send_command+0x84>
    1114:	ce 01       	movw	r24, r28
    1116:	04 97       	sbiw	r24, 0x04	; 4
    1118:	04 97       	sbiw	r24, 0x04	; 4
    111a:	30 f4       	brcc	.+12     	; 0x1128 <LCD_12864_send_command+0x60>
    111c:	8b b1       	in	r24, 0x0b	; 11
    111e:	8f 7b       	andi	r24, 0xBF	; 191
    1120:	8b b9       	out	0x0b, r24	; 11
    1122:	0e 94 fa 07 	call	0xff4	; 0xff4 <strob>
    1126:	11 c0       	rjmp	.+34     	; 0x114a <LCD_12864_send_command+0x82>
    1128:	81 2f       	mov	r24, r17
    112a:	80 78       	andi	r24, 0x80	; 128
    112c:	41 f0       	breq	.+16     	; 0x113e <LCD_12864_send_command+0x76>
    112e:	80 38       	cpi	r24, 0x80	; 128
    1130:	59 f4       	brne	.+22     	; 0x1148 <LCD_12864_send_command+0x80>
    1132:	8b b1       	in	r24, 0x0b	; 11
    1134:	80 64       	ori	r24, 0x40	; 64
    1136:	8b b9       	out	0x0b, r24	; 11
    1138:	0e 94 fa 07 	call	0xff4	; 0xff4 <strob>
    113c:	05 c0       	rjmp	.+10     	; 0x1148 <LCD_12864_send_command+0x80>
    113e:	8b b1       	in	r24, 0x0b	; 11
    1140:	8f 7b       	andi	r24, 0xBF	; 191
    1142:	8b b9       	out	0x0b, r24	; 11
    1144:	0e 94 fa 07 	call	0xff4	; 0xff4 <strob>
    1148:	11 0f       	add	r17, r17
    114a:	21 96       	adiw	r28, 0x01	; 1
    114c:	cc 30       	cpi	r28, 0x0C	; 12
    114e:	d1 05       	cpc	r29, r1
    1150:	0c f3       	brlt	.-62     	; 0x1114 <LCD_12864_send_command+0x4c>
    1152:	8b b1       	in	r24, 0x0b	; 11
    1154:	8f 7b       	andi	r24, 0xBF	; 191
    1156:	8b b9       	out	0x0b, r24	; 11
    1158:	0e 94 fa 07 	call	0xff4	; 0xff4 <strob>
    115c:	0e 94 fa 07 	call	0xff4	; 0xff4 <strob>
    1160:	0e 94 fa 07 	call	0xff4	; 0xff4 <strob>
    1164:	0e 94 fa 07 	call	0xff4	; 0xff4 <strob>
    1168:	8b b1       	in	r24, 0x0b	; 11
    116a:	8f 77       	andi	r24, 0x7F	; 127
    116c:	8b b9       	out	0x0b, r24	; 11
    116e:	df 91       	pop	r29
    1170:	cf 91       	pop	r28
    1172:	1f 91       	pop	r17
    1174:	08 95       	ret

00001176 <LCD_12864_GrapnicMode>:
    1176:	88 23       	and	r24, r24
    1178:	99 f0       	breq	.+38     	; 0x11a0 <LCD_12864_GrapnicMode+0x2a>
    117a:	84 e3       	ldi	r24, 0x34	; 52
    117c:	0e 94 64 08 	call	0x10c8	; 0x10c8 <LCD_12864_send_command>
    1180:	8f ec       	ldi	r24, 0xCF	; 207
    1182:	97 e0       	ldi	r25, 0x07	; 7
    1184:	01 97       	sbiw	r24, 0x01	; 1
    1186:	f1 f7       	brne	.-4      	; 0x1184 <LCD_12864_GrapnicMode+0xe>
    1188:	00 c0       	rjmp	.+0      	; 0x118a <LCD_12864_GrapnicMode+0x14>
    118a:	00 00       	nop
    118c:	86 e3       	ldi	r24, 0x36	; 54
    118e:	0e 94 64 08 	call	0x10c8	; 0x10c8 <LCD_12864_send_command>
    1192:	8f ec       	ldi	r24, 0xCF	; 207
    1194:	97 e0       	ldi	r25, 0x07	; 7
    1196:	01 97       	sbiw	r24, 0x01	; 1
    1198:	f1 f7       	brne	.-4      	; 0x1196 <LCD_12864_GrapnicMode+0x20>
    119a:	00 c0       	rjmp	.+0      	; 0x119c <LCD_12864_GrapnicMode+0x26>
    119c:	00 00       	nop
    119e:	08 95       	ret
    11a0:	80 e3       	ldi	r24, 0x30	; 48
    11a2:	0e 94 64 08 	call	0x10c8	; 0x10c8 <LCD_12864_send_command>
    11a6:	8f ec       	ldi	r24, 0xCF	; 207
    11a8:	97 e0       	ldi	r25, 0x07	; 7
    11aa:	01 97       	sbiw	r24, 0x01	; 1
    11ac:	f1 f7       	brne	.-4      	; 0x11aa <LCD_12864_GrapnicMode+0x34>
    11ae:	00 c0       	rjmp	.+0      	; 0x11b0 <LCD_12864_GrapnicMode+0x3a>
    11b0:	00 00       	nop
    11b2:	08 95       	ret

000011b4 <LCD_12864_Draw_bitmap>:
    11b4:	8f 92       	push	r8
    11b6:	9f 92       	push	r9
    11b8:	af 92       	push	r10
    11ba:	bf 92       	push	r11
    11bc:	df 92       	push	r13
    11be:	ef 92       	push	r14
    11c0:	ff 92       	push	r15
    11c2:	0f 93       	push	r16
    11c4:	1f 93       	push	r17
    11c6:	cf 93       	push	r28
    11c8:	df 93       	push	r29
    11ca:	7c 01       	movw	r14, r24
    11cc:	d1 2c       	mov	r13, r1
    11ce:	31 c1       	rjmp	.+610    	; 0x1432 <LCD_12864_Draw_bitmap+0x27e>
    11d0:	8f e1       	ldi	r24, 0x1F	; 31
    11d2:	8d 15       	cp	r24, r13
    11d4:	48 f0       	brcs	.+18     	; 0x11e8 <LCD_12864_Draw_bitmap+0x34>
    11d6:	8d 2d       	mov	r24, r13
    11d8:	80 68       	ori	r24, 0x80	; 128
    11da:	0e 94 64 08 	call	0x10c8	; 0x10c8 <LCD_12864_send_command>
    11de:	80 2f       	mov	r24, r16
    11e0:	80 68       	ori	r24, 0x80	; 128
    11e2:	0e 94 64 08 	call	0x10c8	; 0x10c8 <LCD_12864_send_command>
    11e6:	09 c0       	rjmp	.+18     	; 0x11fa <LCD_12864_Draw_bitmap+0x46>
    11e8:	80 ee       	ldi	r24, 0xE0	; 224
    11ea:	8d 0d       	add	r24, r13
    11ec:	80 68       	ori	r24, 0x80	; 128
    11ee:	0e 94 64 08 	call	0x10c8	; 0x10c8 <LCD_12864_send_command>
    11f2:	80 2f       	mov	r24, r16
    11f4:	88 68       	ori	r24, 0x88	; 136
    11f6:	0e 94 64 08 	call	0x10c8	; 0x10c8 <LCD_12864_send_command>
    11fa:	cd 2d       	mov	r28, r13
    11fc:	c6 95       	lsr	r28
    11fe:	c6 95       	lsr	r28
    1200:	c6 95       	lsr	r28
    1202:	d0 e0       	ldi	r29, 0x00	; 0
    1204:	cc 0f       	add	r28, r28
    1206:	dd 1f       	adc	r29, r29
    1208:	cc 0f       	add	r28, r28
    120a:	dd 1f       	adc	r29, r29
    120c:	cc 0f       	add	r28, r28
    120e:	dd 1f       	adc	r29, r29
    1210:	c0 0f       	add	r28, r16
    1212:	d1 1d       	adc	r29, r1
    1214:	c2 95       	swap	r28
    1216:	d2 95       	swap	r29
    1218:	d0 7f       	andi	r29, 0xF0	; 240
    121a:	dc 27       	eor	r29, r28
    121c:	c0 7f       	andi	r28, 0xF0	; 240
    121e:	dc 27       	eor	r29, r28
    1220:	ce 0d       	add	r28, r14
    1222:	df 1d       	adc	r29, r15
    1224:	88 80       	ld	r8, Y
    1226:	91 2c       	mov	r9, r1
    1228:	1d 2d       	mov	r17, r13
    122a:	17 70       	andi	r17, 0x07	; 7
    122c:	01 2e       	mov	r0, r17
    122e:	02 c0       	rjmp	.+4      	; 0x1234 <LCD_12864_Draw_bitmap+0x80>
    1230:	95 94       	asr	r9
    1232:	87 94       	ror	r8
    1234:	0a 94       	dec	r0
    1236:	e2 f7       	brpl	.-8      	; 0x1230 <LCD_12864_Draw_bitmap+0x7c>
    1238:	96 94       	lsr	r9
    123a:	98 2c       	mov	r9, r8
    123c:	88 24       	eor	r8, r8
    123e:	97 94       	ror	r9
    1240:	87 94       	ror	r8
    1242:	a9 80       	ldd	r10, Y+1	; 0x01
    1244:	b1 2c       	mov	r11, r1
    1246:	01 2e       	mov	r0, r17
    1248:	02 c0       	rjmp	.+4      	; 0x124e <LCD_12864_Draw_bitmap+0x9a>
    124a:	b5 94       	asr	r11
    124c:	a7 94       	ror	r10
    124e:	0a 94       	dec	r0
    1250:	e2 f7       	brpl	.-8      	; 0x124a <LCD_12864_Draw_bitmap+0x96>
    1252:	81 e0       	ldi	r24, 0x01	; 1
    1254:	a8 22       	and	r10, r24
    1256:	bb 24       	eor	r11, r11
    1258:	00 24       	eor	r0, r0
    125a:	b6 94       	lsr	r11
    125c:	a7 94       	ror	r10
    125e:	07 94       	ror	r0
    1260:	b6 94       	lsr	r11
    1262:	a7 94       	ror	r10
    1264:	07 94       	ror	r0
    1266:	ba 2c       	mov	r11, r10
    1268:	a0 2c       	mov	r10, r0
    126a:	aa 81       	ldd	r26, Y+2	; 0x02
    126c:	b0 e0       	ldi	r27, 0x00	; 0
    126e:	01 2e       	mov	r0, r17
    1270:	02 c0       	rjmp	.+4      	; 0x1276 <LCD_12864_Draw_bitmap+0xc2>
    1272:	b5 95       	asr	r27
    1274:	a7 95       	ror	r26
    1276:	0a 94       	dec	r0
    1278:	e2 f7       	brpl	.-8      	; 0x1272 <LCD_12864_Draw_bitmap+0xbe>
    127a:	a1 70       	andi	r26, 0x01	; 1
    127c:	bb 27       	eor	r27, r27
    127e:	aa 0f       	add	r26, r26
    1280:	bb 1f       	adc	r27, r27
    1282:	a2 95       	swap	r26
    1284:	b2 95       	swap	r27
    1286:	b0 7f       	andi	r27, 0xF0	; 240
    1288:	ba 27       	eor	r27, r26
    128a:	a0 7f       	andi	r26, 0xF0	; 240
    128c:	ba 27       	eor	r27, r26
    128e:	eb 81       	ldd	r30, Y+3	; 0x03
    1290:	f0 e0       	ldi	r31, 0x00	; 0
    1292:	01 2e       	mov	r0, r17
    1294:	02 c0       	rjmp	.+4      	; 0x129a <LCD_12864_Draw_bitmap+0xe6>
    1296:	f5 95       	asr	r31
    1298:	e7 95       	ror	r30
    129a:	0a 94       	dec	r0
    129c:	e2 f7       	brpl	.-8      	; 0x1296 <LCD_12864_Draw_bitmap+0xe2>
    129e:	e1 70       	andi	r30, 0x01	; 1
    12a0:	ff 27       	eor	r31, r31
    12a2:	e2 95       	swap	r30
    12a4:	f2 95       	swap	r31
    12a6:	f0 7f       	andi	r31, 0xF0	; 240
    12a8:	fe 27       	eor	r31, r30
    12aa:	e0 7f       	andi	r30, 0xF0	; 240
    12ac:	fe 27       	eor	r31, r30
    12ae:	6c 81       	ldd	r22, Y+4	; 0x04
    12b0:	70 e0       	ldi	r23, 0x00	; 0
    12b2:	01 2e       	mov	r0, r17
    12b4:	02 c0       	rjmp	.+4      	; 0x12ba <LCD_12864_Draw_bitmap+0x106>
    12b6:	75 95       	asr	r23
    12b8:	67 95       	ror	r22
    12ba:	0a 94       	dec	r0
    12bc:	e2 f7       	brpl	.-8      	; 0x12b6 <LCD_12864_Draw_bitmap+0x102>
    12be:	61 70       	andi	r22, 0x01	; 1
    12c0:	77 27       	eor	r23, r23
    12c2:	66 0f       	add	r22, r22
    12c4:	77 1f       	adc	r23, r23
    12c6:	66 0f       	add	r22, r22
    12c8:	77 1f       	adc	r23, r23
    12ca:	66 0f       	add	r22, r22
    12cc:	77 1f       	adc	r23, r23
    12ce:	4d 81       	ldd	r20, Y+5	; 0x05
    12d0:	50 e0       	ldi	r21, 0x00	; 0
    12d2:	01 2e       	mov	r0, r17
    12d4:	02 c0       	rjmp	.+4      	; 0x12da <LCD_12864_Draw_bitmap+0x126>
    12d6:	55 95       	asr	r21
    12d8:	47 95       	ror	r20
    12da:	0a 94       	dec	r0
    12dc:	e2 f7       	brpl	.-8      	; 0x12d6 <LCD_12864_Draw_bitmap+0x122>
    12de:	41 70       	andi	r20, 0x01	; 1
    12e0:	55 27       	eor	r21, r21
    12e2:	44 0f       	add	r20, r20
    12e4:	55 1f       	adc	r21, r21
    12e6:	44 0f       	add	r20, r20
    12e8:	55 1f       	adc	r21, r21
    12ea:	2e 81       	ldd	r18, Y+6	; 0x06
    12ec:	30 e0       	ldi	r19, 0x00	; 0
    12ee:	01 2e       	mov	r0, r17
    12f0:	02 c0       	rjmp	.+4      	; 0x12f6 <LCD_12864_Draw_bitmap+0x142>
    12f2:	35 95       	asr	r19
    12f4:	27 95       	ror	r18
    12f6:	0a 94       	dec	r0
    12f8:	e2 f7       	brpl	.-8      	; 0x12f2 <LCD_12864_Draw_bitmap+0x13e>
    12fa:	21 70       	andi	r18, 0x01	; 1
    12fc:	33 27       	eor	r19, r19
    12fe:	22 0f       	add	r18, r18
    1300:	33 1f       	adc	r19, r19
    1302:	8f 81       	ldd	r24, Y+7	; 0x07
    1304:	90 e0       	ldi	r25, 0x00	; 0
    1306:	01 2e       	mov	r0, r17
    1308:	02 c0       	rjmp	.+4      	; 0x130e <LCD_12864_Draw_bitmap+0x15a>
    130a:	95 95       	asr	r25
    130c:	87 95       	ror	r24
    130e:	0a 94       	dec	r0
    1310:	e2 f7       	brpl	.-8      	; 0x130a <LCD_12864_Draw_bitmap+0x156>
    1312:	a8 28       	or	r10, r8
    1314:	aa 29       	or	r26, r10
    1316:	ea 2b       	or	r30, r26
    1318:	6e 2b       	or	r22, r30
    131a:	46 2b       	or	r20, r22
    131c:	24 2b       	or	r18, r20
    131e:	81 70       	andi	r24, 0x01	; 1
    1320:	82 2b       	or	r24, r18
    1322:	0e 94 0d 08 	call	0x101a	; 0x101a <LCD_12864_send_data>
    1326:	88 84       	ldd	r8, Y+8	; 0x08
    1328:	91 2c       	mov	r9, r1
    132a:	01 2e       	mov	r0, r17
    132c:	02 c0       	rjmp	.+4      	; 0x1332 <LCD_12864_Draw_bitmap+0x17e>
    132e:	95 94       	asr	r9
    1330:	87 94       	ror	r8
    1332:	0a 94       	dec	r0
    1334:	e2 f7       	brpl	.-8      	; 0x132e <LCD_12864_Draw_bitmap+0x17a>
    1336:	96 94       	lsr	r9
    1338:	98 2c       	mov	r9, r8
    133a:	88 24       	eor	r8, r8
    133c:	97 94       	ror	r9
    133e:	87 94       	ror	r8
    1340:	a9 84       	ldd	r10, Y+9	; 0x09
    1342:	b1 2c       	mov	r11, r1
    1344:	01 2e       	mov	r0, r17
    1346:	02 c0       	rjmp	.+4      	; 0x134c <LCD_12864_Draw_bitmap+0x198>
    1348:	b5 94       	asr	r11
    134a:	a7 94       	ror	r10
    134c:	0a 94       	dec	r0
    134e:	e2 f7       	brpl	.-8      	; 0x1348 <LCD_12864_Draw_bitmap+0x194>
    1350:	81 e0       	ldi	r24, 0x01	; 1
    1352:	a8 22       	and	r10, r24
    1354:	bb 24       	eor	r11, r11
    1356:	00 24       	eor	r0, r0
    1358:	b6 94       	lsr	r11
    135a:	a7 94       	ror	r10
    135c:	07 94       	ror	r0
    135e:	b6 94       	lsr	r11
    1360:	a7 94       	ror	r10
    1362:	07 94       	ror	r0
    1364:	ba 2c       	mov	r11, r10
    1366:	a0 2c       	mov	r10, r0
    1368:	aa 85       	ldd	r26, Y+10	; 0x0a
    136a:	b0 e0       	ldi	r27, 0x00	; 0
    136c:	01 2e       	mov	r0, r17
    136e:	02 c0       	rjmp	.+4      	; 0x1374 <LCD_12864_Draw_bitmap+0x1c0>
    1370:	b5 95       	asr	r27
    1372:	a7 95       	ror	r26
    1374:	0a 94       	dec	r0
    1376:	e2 f7       	brpl	.-8      	; 0x1370 <LCD_12864_Draw_bitmap+0x1bc>
    1378:	a1 70       	andi	r26, 0x01	; 1
    137a:	bb 27       	eor	r27, r27
    137c:	aa 0f       	add	r26, r26
    137e:	bb 1f       	adc	r27, r27
    1380:	a2 95       	swap	r26
    1382:	b2 95       	swap	r27
    1384:	b0 7f       	andi	r27, 0xF0	; 240
    1386:	ba 27       	eor	r27, r26
    1388:	a0 7f       	andi	r26, 0xF0	; 240
    138a:	ba 27       	eor	r27, r26
    138c:	eb 85       	ldd	r30, Y+11	; 0x0b
    138e:	f0 e0       	ldi	r31, 0x00	; 0
    1390:	01 2e       	mov	r0, r17
    1392:	02 c0       	rjmp	.+4      	; 0x1398 <LCD_12864_Draw_bitmap+0x1e4>
    1394:	f5 95       	asr	r31
    1396:	e7 95       	ror	r30
    1398:	0a 94       	dec	r0
    139a:	e2 f7       	brpl	.-8      	; 0x1394 <LCD_12864_Draw_bitmap+0x1e0>
    139c:	e1 70       	andi	r30, 0x01	; 1
    139e:	ff 27       	eor	r31, r31
    13a0:	e2 95       	swap	r30
    13a2:	f2 95       	swap	r31
    13a4:	f0 7f       	andi	r31, 0xF0	; 240
    13a6:	fe 27       	eor	r31, r30
    13a8:	e0 7f       	andi	r30, 0xF0	; 240
    13aa:	fe 27       	eor	r31, r30
    13ac:	6c 85       	ldd	r22, Y+12	; 0x0c
    13ae:	70 e0       	ldi	r23, 0x00	; 0
    13b0:	01 2e       	mov	r0, r17
    13b2:	02 c0       	rjmp	.+4      	; 0x13b8 <LCD_12864_Draw_bitmap+0x204>
    13b4:	75 95       	asr	r23
    13b6:	67 95       	ror	r22
    13b8:	0a 94       	dec	r0
    13ba:	e2 f7       	brpl	.-8      	; 0x13b4 <LCD_12864_Draw_bitmap+0x200>
    13bc:	61 70       	andi	r22, 0x01	; 1
    13be:	77 27       	eor	r23, r23
    13c0:	66 0f       	add	r22, r22
    13c2:	77 1f       	adc	r23, r23
    13c4:	66 0f       	add	r22, r22
    13c6:	77 1f       	adc	r23, r23
    13c8:	66 0f       	add	r22, r22
    13ca:	77 1f       	adc	r23, r23
    13cc:	4d 85       	ldd	r20, Y+13	; 0x0d
    13ce:	50 e0       	ldi	r21, 0x00	; 0
    13d0:	01 2e       	mov	r0, r17
    13d2:	02 c0       	rjmp	.+4      	; 0x13d8 <LCD_12864_Draw_bitmap+0x224>
    13d4:	55 95       	asr	r21
    13d6:	47 95       	ror	r20
    13d8:	0a 94       	dec	r0
    13da:	e2 f7       	brpl	.-8      	; 0x13d4 <LCD_12864_Draw_bitmap+0x220>
    13dc:	41 70       	andi	r20, 0x01	; 1
    13de:	55 27       	eor	r21, r21
    13e0:	44 0f       	add	r20, r20
    13e2:	55 1f       	adc	r21, r21
    13e4:	44 0f       	add	r20, r20
    13e6:	55 1f       	adc	r21, r21
    13e8:	2e 85       	ldd	r18, Y+14	; 0x0e
    13ea:	30 e0       	ldi	r19, 0x00	; 0
    13ec:	01 2e       	mov	r0, r17
    13ee:	02 c0       	rjmp	.+4      	; 0x13f4 <LCD_12864_Draw_bitmap+0x240>
    13f0:	35 95       	asr	r19
    13f2:	27 95       	ror	r18
    13f4:	0a 94       	dec	r0
    13f6:	e2 f7       	brpl	.-8      	; 0x13f0 <LCD_12864_Draw_bitmap+0x23c>
    13f8:	21 70       	andi	r18, 0x01	; 1
    13fa:	33 27       	eor	r19, r19
    13fc:	22 0f       	add	r18, r18
    13fe:	33 1f       	adc	r19, r19
    1400:	cf 85       	ldd	r28, Y+15	; 0x0f
    1402:	d0 e0       	ldi	r29, 0x00	; 0
    1404:	02 c0       	rjmp	.+4      	; 0x140a <LCD_12864_Draw_bitmap+0x256>
    1406:	d5 95       	asr	r29
    1408:	c7 95       	ror	r28
    140a:	1a 95       	dec	r17
    140c:	e2 f7       	brpl	.-8      	; 0x1406 <LCD_12864_Draw_bitmap+0x252>
    140e:	88 2d       	mov	r24, r8
    1410:	8a 29       	or	r24, r10
    1412:	8a 2b       	or	r24, r26
    1414:	8e 2b       	or	r24, r30
    1416:	86 2b       	or	r24, r22
    1418:	84 2b       	or	r24, r20
    141a:	82 2b       	or	r24, r18
    141c:	c1 70       	andi	r28, 0x01	; 1
    141e:	8c 2b       	or	r24, r28
    1420:	0e 94 0d 08 	call	0x101a	; 0x101a <LCD_12864_send_data>
    1424:	0f 5f       	subi	r16, 0xFF	; 255
    1426:	01 c0       	rjmp	.+2      	; 0x142a <LCD_12864_Draw_bitmap+0x276>
    1428:	00 e0       	ldi	r16, 0x00	; 0
    142a:	08 30       	cpi	r16, 0x08	; 8
    142c:	08 f4       	brcc	.+2      	; 0x1430 <LCD_12864_Draw_bitmap+0x27c>
    142e:	d0 ce       	rjmp	.-608    	; 0x11d0 <LCD_12864_Draw_bitmap+0x1c>
    1430:	d3 94       	inc	r13
    1432:	8f e3       	ldi	r24, 0x3F	; 63
    1434:	8d 15       	cp	r24, r13
    1436:	c0 f7       	brcc	.-16     	; 0x1428 <LCD_12864_Draw_bitmap+0x274>
    1438:	df 91       	pop	r29
    143a:	cf 91       	pop	r28
    143c:	1f 91       	pop	r17
    143e:	0f 91       	pop	r16
    1440:	ff 90       	pop	r15
    1442:	ef 90       	pop	r14
    1444:	df 90       	pop	r13
    1446:	bf 90       	pop	r11
    1448:	af 90       	pop	r10
    144a:	9f 90       	pop	r9
    144c:	8f 90       	pop	r8
    144e:	08 95       	ret

00001450 <clear_LCD_12864>:
    1450:	81 e0       	ldi	r24, 0x01	; 1
    1452:	0e 94 64 08 	call	0x10c8	; 0x10c8 <LCD_12864_send_command>
    1456:	8f e1       	ldi	r24, 0x1F	; 31
    1458:	9e e4       	ldi	r25, 0x4E	; 78
    145a:	01 97       	sbiw	r24, 0x01	; 1
    145c:	f1 f7       	brne	.-4      	; 0x145a <clear_LCD_12864+0xa>
    145e:	00 c0       	rjmp	.+0      	; 0x1460 <clear_LCD_12864+0x10>
    1460:	00 00       	nop
    1462:	08 95       	ret

00001464 <LCD_12864_ini>:
    1464:	2f ef       	ldi	r18, 0xFF	; 255
    1466:	89 ef       	ldi	r24, 0xF9	; 249
    1468:	90 e0       	ldi	r25, 0x00	; 0
    146a:	21 50       	subi	r18, 0x01	; 1
    146c:	80 40       	sbci	r24, 0x00	; 0
    146e:	90 40       	sbci	r25, 0x00	; 0
    1470:	e1 f7       	brne	.-8      	; 0x146a <LCD_12864_ini+0x6>
    1472:	00 c0       	rjmp	.+0      	; 0x1474 <LCD_12864_ini+0x10>
    1474:	00 00       	nop
    1476:	8c e0       	ldi	r24, 0x0C	; 12
    1478:	0e 94 64 08 	call	0x10c8	; 0x10c8 <LCD_12864_send_command>
    147c:	87 ec       	ldi	r24, 0xC7	; 199
    147e:	90 e0       	ldi	r25, 0x00	; 0
    1480:	01 97       	sbiw	r24, 0x01	; 1
    1482:	f1 f7       	brne	.-4      	; 0x1480 <LCD_12864_ini+0x1c>
    1484:	00 c0       	rjmp	.+0      	; 0x1486 <LCD_12864_ini+0x22>
    1486:	00 00       	nop
    1488:	0e 94 28 0a 	call	0x1450	; 0x1450 <clear_LCD_12864>
    148c:	86 e0       	ldi	r24, 0x06	; 6
    148e:	0e 94 64 08 	call	0x10c8	; 0x10c8 <LCD_12864_send_command>
    1492:	8f e1       	ldi	r24, 0x1F	; 31
    1494:	9e e4       	ldi	r25, 0x4E	; 78
    1496:	01 97       	sbiw	r24, 0x01	; 1
    1498:	f1 f7       	brne	.-4      	; 0x1496 <LCD_12864_ini+0x32>
    149a:	00 c0       	rjmp	.+0      	; 0x149c <LCD_12864_ini+0x38>
    149c:	00 00       	nop
    149e:	08 95       	ret

000014a0 <LCD_12864_print_symbol>:
    14a0:	20 e0       	ldi	r18, 0x00	; 0
    14a2:	30 e0       	ldi	r19, 0x00	; 0
    14a4:	2a c0       	rjmp	.+84     	; 0x14fa <LCD_12864_print_symbol+0x5a>
    14a6:	44 23       	and	r20, r20
    14a8:	a1 f0       	breq	.+40     	; 0x14d2 <LCD_12864_print_symbol+0x32>
    14aa:	fb 01       	movw	r30, r22
    14ac:	ee 0f       	add	r30, r30
    14ae:	ff 1f       	adc	r31, r31
    14b0:	e6 0f       	add	r30, r22
    14b2:	f7 1f       	adc	r31, r23
    14b4:	ee 0f       	add	r30, r30
    14b6:	ff 1f       	adc	r31, r31
    14b8:	e2 0f       	add	r30, r18
    14ba:	f3 1f       	adc	r31, r19
    14bc:	ec 5a       	subi	r30, 0xAC	; 172
    14be:	fa 4f       	sbci	r31, 0xFA	; 250
    14c0:	54 91       	lpm	r21, Z
    14c2:	f9 01       	movw	r30, r18
    14c4:	e8 0f       	add	r30, r24
    14c6:	f9 1f       	adc	r31, r25
    14c8:	e5 57       	subi	r30, 0x75	; 117
    14ca:	fd 4f       	sbci	r31, 0xFD	; 253
    14cc:	50 95       	com	r21
    14ce:	50 83       	st	Z, r21
    14d0:	12 c0       	rjmp	.+36     	; 0x14f6 <LCD_12864_print_symbol+0x56>
    14d2:	fb 01       	movw	r30, r22
    14d4:	ee 0f       	add	r30, r30
    14d6:	ff 1f       	adc	r31, r31
    14d8:	e6 0f       	add	r30, r22
    14da:	f7 1f       	adc	r31, r23
    14dc:	ee 0f       	add	r30, r30
    14de:	ff 1f       	adc	r31, r31
    14e0:	e2 0f       	add	r30, r18
    14e2:	f3 1f       	adc	r31, r19
    14e4:	ec 5a       	subi	r30, 0xAC	; 172
    14e6:	fa 4f       	sbci	r31, 0xFA	; 250
    14e8:	54 91       	lpm	r21, Z
    14ea:	fc 01       	movw	r30, r24
    14ec:	e2 0f       	add	r30, r18
    14ee:	f3 1f       	adc	r31, r19
    14f0:	e5 57       	subi	r30, 0x75	; 117
    14f2:	fd 4f       	sbci	r31, 0xFD	; 253
    14f4:	50 83       	st	Z, r21
    14f6:	2f 5f       	subi	r18, 0xFF	; 255
    14f8:	3f 4f       	sbci	r19, 0xFF	; 255
    14fa:	27 30       	cpi	r18, 0x07	; 7
    14fc:	31 05       	cpc	r19, r1
    14fe:	9c f2       	brlt	.-90     	; 0x14a6 <LCD_12864_print_symbol+0x6>
    1500:	08 95       	ret

00001502 <LCD_12864_print_symbol_4_6>:
    1502:	20 e0       	ldi	r18, 0x00	; 0
    1504:	30 e0       	ldi	r19, 0x00	; 0
    1506:	26 c0       	rjmp	.+76     	; 0x1554 <LCD_12864_print_symbol_4_6+0x52>
    1508:	44 23       	and	r20, r20
    150a:	91 f0       	breq	.+36     	; 0x1530 <LCD_12864_print_symbol_4_6+0x2e>
    150c:	fb 01       	movw	r30, r22
    150e:	ee 0f       	add	r30, r30
    1510:	ff 1f       	adc	r31, r31
    1512:	ee 0f       	add	r30, r30
    1514:	ff 1f       	adc	r31, r31
    1516:	e2 0f       	add	r30, r18
    1518:	f3 1f       	adc	r31, r19
    151a:	e8 5d       	subi	r30, 0xD8	; 216
    151c:	fa 4f       	sbci	r31, 0xFA	; 250
    151e:	54 91       	lpm	r21, Z
    1520:	f9 01       	movw	r30, r18
    1522:	e8 0f       	add	r30, r24
    1524:	f9 1f       	adc	r31, r25
    1526:	e5 57       	subi	r30, 0x75	; 117
    1528:	fd 4f       	sbci	r31, 0xFD	; 253
    152a:	50 95       	com	r21
    152c:	50 83       	st	Z, r21
    152e:	10 c0       	rjmp	.+32     	; 0x1550 <LCD_12864_print_symbol_4_6+0x4e>
    1530:	fb 01       	movw	r30, r22
    1532:	ee 0f       	add	r30, r30
    1534:	ff 1f       	adc	r31, r31
    1536:	ee 0f       	add	r30, r30
    1538:	ff 1f       	adc	r31, r31
    153a:	e2 0f       	add	r30, r18
    153c:	f3 1f       	adc	r31, r19
    153e:	e8 5d       	subi	r30, 0xD8	; 216
    1540:	fa 4f       	sbci	r31, 0xFA	; 250
    1542:	54 91       	lpm	r21, Z
    1544:	fc 01       	movw	r30, r24
    1546:	e2 0f       	add	r30, r18
    1548:	f3 1f       	adc	r31, r19
    154a:	e5 57       	subi	r30, 0x75	; 117
    154c:	fd 4f       	sbci	r31, 0xFD	; 253
    154e:	50 83       	st	Z, r21
    1550:	2f 5f       	subi	r18, 0xFF	; 255
    1552:	3f 4f       	sbci	r19, 0xFF	; 255
    1554:	24 30       	cpi	r18, 0x04	; 4
    1556:	31 05       	cpc	r19, r1
    1558:	bc f2       	brlt	.-82     	; 0x1508 <LCD_12864_print_symbol_4_6+0x6>
    155a:	08 95       	ret

0000155c <LCD_12864_print_symbol_11_16>:
    155c:	20 e0       	ldi	r18, 0x00	; 0
    155e:	30 e0       	ldi	r19, 0x00	; 0
    1560:	28 c0       	rjmp	.+80     	; 0x15b2 <LCD_12864_print_symbol_11_16+0x56>
    1562:	44 23       	and	r20, r20
    1564:	99 f0       	breq	.+38     	; 0x158c <LCD_12864_print_symbol_11_16+0x30>
    1566:	56 e1       	ldi	r21, 0x16	; 22
    1568:	56 9f       	mul	r21, r22
    156a:	f0 01       	movw	r30, r0
    156c:	57 9f       	mul	r21, r23
    156e:	f0 0d       	add	r31, r0
    1570:	11 24       	eor	r1, r1
    1572:	e2 0f       	add	r30, r18
    1574:	f3 1f       	adc	r31, r19
    1576:	e4 56       	subi	r30, 0x64	; 100
    1578:	fc 4f       	sbci	r31, 0xFC	; 252
    157a:	54 91       	lpm	r21, Z
    157c:	f9 01       	movw	r30, r18
    157e:	e8 0f       	add	r30, r24
    1580:	f9 1f       	adc	r31, r25
    1582:	e5 57       	subi	r30, 0x75	; 117
    1584:	fd 4f       	sbci	r31, 0xFD	; 253
    1586:	50 95       	com	r21
    1588:	50 83       	st	Z, r21
    158a:	11 c0       	rjmp	.+34     	; 0x15ae <LCD_12864_print_symbol_11_16+0x52>
    158c:	56 e1       	ldi	r21, 0x16	; 22
    158e:	56 9f       	mul	r21, r22
    1590:	f0 01       	movw	r30, r0
    1592:	57 9f       	mul	r21, r23
    1594:	f0 0d       	add	r31, r0
    1596:	11 24       	eor	r1, r1
    1598:	e2 0f       	add	r30, r18
    159a:	f3 1f       	adc	r31, r19
    159c:	e4 56       	subi	r30, 0x64	; 100
    159e:	fc 4f       	sbci	r31, 0xFC	; 252
    15a0:	54 91       	lpm	r21, Z
    15a2:	fc 01       	movw	r30, r24
    15a4:	e2 0f       	add	r30, r18
    15a6:	f3 1f       	adc	r31, r19
    15a8:	e5 57       	subi	r30, 0x75	; 117
    15aa:	fd 4f       	sbci	r31, 0xFD	; 253
    15ac:	50 83       	st	Z, r21
    15ae:	2f 5f       	subi	r18, 0xFF	; 255
    15b0:	3f 4f       	sbci	r19, 0xFF	; 255
    15b2:	2b 30       	cpi	r18, 0x0B	; 11
    15b4:	31 05       	cpc	r19, r1
    15b6:	ac f2       	brlt	.-86     	; 0x1562 <LCD_12864_print_symbol_11_16+0x6>
    15b8:	8b 58       	subi	r24, 0x8B	; 139
    15ba:	9f 4f       	sbci	r25, 0xFF	; 255
    15bc:	2b e0       	ldi	r18, 0x0B	; 11
    15be:	30 e0       	ldi	r19, 0x00	; 0
    15c0:	28 c0       	rjmp	.+80     	; 0x1612 <LCD_12864_print_symbol_11_16+0xb6>
    15c2:	44 23       	and	r20, r20
    15c4:	99 f0       	breq	.+38     	; 0x15ec <LCD_12864_print_symbol_11_16+0x90>
    15c6:	56 e1       	ldi	r21, 0x16	; 22
    15c8:	56 9f       	mul	r21, r22
    15ca:	f0 01       	movw	r30, r0
    15cc:	57 9f       	mul	r21, r23
    15ce:	f0 0d       	add	r31, r0
    15d0:	11 24       	eor	r1, r1
    15d2:	e2 0f       	add	r30, r18
    15d4:	f3 1f       	adc	r31, r19
    15d6:	e4 56       	subi	r30, 0x64	; 100
    15d8:	fc 4f       	sbci	r31, 0xFC	; 252
    15da:	54 91       	lpm	r21, Z
    15dc:	fc 01       	movw	r30, r24
    15de:	e2 0f       	add	r30, r18
    15e0:	f3 1f       	adc	r31, r19
    15e2:	e5 57       	subi	r30, 0x75	; 117
    15e4:	fd 4f       	sbci	r31, 0xFD	; 253
    15e6:	50 95       	com	r21
    15e8:	50 83       	st	Z, r21
    15ea:	11 c0       	rjmp	.+34     	; 0x160e <LCD_12864_print_symbol_11_16+0xb2>
    15ec:	56 e1       	ldi	r21, 0x16	; 22
    15ee:	56 9f       	mul	r21, r22
    15f0:	f0 01       	movw	r30, r0
    15f2:	57 9f       	mul	r21, r23
    15f4:	f0 0d       	add	r31, r0
    15f6:	11 24       	eor	r1, r1
    15f8:	e2 0f       	add	r30, r18
    15fa:	f3 1f       	adc	r31, r19
    15fc:	e4 56       	subi	r30, 0x64	; 100
    15fe:	fc 4f       	sbci	r31, 0xFC	; 252
    1600:	54 91       	lpm	r21, Z
    1602:	fc 01       	movw	r30, r24
    1604:	e2 0f       	add	r30, r18
    1606:	f3 1f       	adc	r31, r19
    1608:	e5 57       	subi	r30, 0x75	; 117
    160a:	fd 4f       	sbci	r31, 0xFD	; 253
    160c:	50 83       	st	Z, r21
    160e:	2f 5f       	subi	r18, 0xFF	; 255
    1610:	3f 4f       	sbci	r19, 0xFF	; 255
    1612:	26 31       	cpi	r18, 0x16	; 22
    1614:	31 05       	cpc	r19, r1
    1616:	ac f2       	brlt	.-86     	; 0x15c2 <LCD_12864_print_symbol_11_16+0x66>
    1618:	08 95       	ret

0000161a <LCD_12864_print_symbol_7_11>:
    161a:	20 e0       	ldi	r18, 0x00	; 0
    161c:	30 e0       	ldi	r19, 0x00	; 0
    161e:	34 c0       	rjmp	.+104    	; 0x1688 <LCD_12864_print_symbol_7_11+0x6e>
    1620:	44 23       	and	r20, r20
    1622:	c9 f0       	breq	.+50     	; 0x1656 <LCD_12864_print_symbol_7_11+0x3c>
    1624:	db 01       	movw	r26, r22
    1626:	aa 0f       	add	r26, r26
    1628:	bb 1f       	adc	r27, r27
    162a:	fd 01       	movw	r30, r26
    162c:	ee 0f       	add	r30, r30
    162e:	ff 1f       	adc	r31, r31
    1630:	ee 0f       	add	r30, r30
    1632:	ff 1f       	adc	r31, r31
    1634:	ee 0f       	add	r30, r30
    1636:	ff 1f       	adc	r31, r31
    1638:	ea 1b       	sub	r30, r26
    163a:	fb 0b       	sbc	r31, r27
    163c:	e2 0f       	add	r30, r18
    163e:	f3 1f       	adc	r31, r19
    1640:	e2 57       	subi	r30, 0x72	; 114
    1642:	fb 4f       	sbci	r31, 0xFB	; 251
    1644:	54 91       	lpm	r21, Z
    1646:	f9 01       	movw	r30, r18
    1648:	e8 0f       	add	r30, r24
    164a:	f9 1f       	adc	r31, r25
    164c:	e5 57       	subi	r30, 0x75	; 117
    164e:	fd 4f       	sbci	r31, 0xFD	; 253
    1650:	50 95       	com	r21
    1652:	50 83       	st	Z, r21
    1654:	17 c0       	rjmp	.+46     	; 0x1684 <LCD_12864_print_symbol_7_11+0x6a>
    1656:	db 01       	movw	r26, r22
    1658:	aa 0f       	add	r26, r26
    165a:	bb 1f       	adc	r27, r27
    165c:	fd 01       	movw	r30, r26
    165e:	ee 0f       	add	r30, r30
    1660:	ff 1f       	adc	r31, r31
    1662:	ee 0f       	add	r30, r30
    1664:	ff 1f       	adc	r31, r31
    1666:	ee 0f       	add	r30, r30
    1668:	ff 1f       	adc	r31, r31
    166a:	ea 1b       	sub	r30, r26
    166c:	fb 0b       	sbc	r31, r27
    166e:	e2 0f       	add	r30, r18
    1670:	f3 1f       	adc	r31, r19
    1672:	e2 57       	subi	r30, 0x72	; 114
    1674:	fb 4f       	sbci	r31, 0xFB	; 251
    1676:	54 91       	lpm	r21, Z
    1678:	fc 01       	movw	r30, r24
    167a:	e2 0f       	add	r30, r18
    167c:	f3 1f       	adc	r31, r19
    167e:	e5 57       	subi	r30, 0x75	; 117
    1680:	fd 4f       	sbci	r31, 0xFD	; 253
    1682:	50 83       	st	Z, r21
    1684:	2f 5f       	subi	r18, 0xFF	; 255
    1686:	3f 4f       	sbci	r19, 0xFF	; 255
    1688:	27 30       	cpi	r18, 0x07	; 7
    168a:	31 05       	cpc	r19, r1
    168c:	4c f2       	brlt	.-110    	; 0x1620 <LCD_12864_print_symbol_7_11+0x6>
    168e:	87 58       	subi	r24, 0x87	; 135
    1690:	9f 4f       	sbci	r25, 0xFF	; 255
    1692:	27 e0       	ldi	r18, 0x07	; 7
    1694:	30 e0       	ldi	r19, 0x00	; 0
    1696:	34 c0       	rjmp	.+104    	; 0x1700 <LCD_12864_print_symbol_7_11+0xe6>
    1698:	44 23       	and	r20, r20
    169a:	c9 f0       	breq	.+50     	; 0x16ce <LCD_12864_print_symbol_7_11+0xb4>
    169c:	db 01       	movw	r26, r22
    169e:	aa 0f       	add	r26, r26
    16a0:	bb 1f       	adc	r27, r27
    16a2:	fd 01       	movw	r30, r26
    16a4:	ee 0f       	add	r30, r30
    16a6:	ff 1f       	adc	r31, r31
    16a8:	ee 0f       	add	r30, r30
    16aa:	ff 1f       	adc	r31, r31
    16ac:	ee 0f       	add	r30, r30
    16ae:	ff 1f       	adc	r31, r31
    16b0:	ea 1b       	sub	r30, r26
    16b2:	fb 0b       	sbc	r31, r27
    16b4:	e2 0f       	add	r30, r18
    16b6:	f3 1f       	adc	r31, r19
    16b8:	e2 57       	subi	r30, 0x72	; 114
    16ba:	fb 4f       	sbci	r31, 0xFB	; 251
    16bc:	54 91       	lpm	r21, Z
    16be:	fc 01       	movw	r30, r24
    16c0:	e2 0f       	add	r30, r18
    16c2:	f3 1f       	adc	r31, r19
    16c4:	e5 57       	subi	r30, 0x75	; 117
    16c6:	fd 4f       	sbci	r31, 0xFD	; 253
    16c8:	50 95       	com	r21
    16ca:	50 83       	st	Z, r21
    16cc:	17 c0       	rjmp	.+46     	; 0x16fc <LCD_12864_print_symbol_7_11+0xe2>
    16ce:	db 01       	movw	r26, r22
    16d0:	aa 0f       	add	r26, r26
    16d2:	bb 1f       	adc	r27, r27
    16d4:	fd 01       	movw	r30, r26
    16d6:	ee 0f       	add	r30, r30
    16d8:	ff 1f       	adc	r31, r31
    16da:	ee 0f       	add	r30, r30
    16dc:	ff 1f       	adc	r31, r31
    16de:	ee 0f       	add	r30, r30
    16e0:	ff 1f       	adc	r31, r31
    16e2:	ea 1b       	sub	r30, r26
    16e4:	fb 0b       	sbc	r31, r27
    16e6:	e2 0f       	add	r30, r18
    16e8:	f3 1f       	adc	r31, r19
    16ea:	e2 57       	subi	r30, 0x72	; 114
    16ec:	fb 4f       	sbci	r31, 0xFB	; 251
    16ee:	54 91       	lpm	r21, Z
    16f0:	fc 01       	movw	r30, r24
    16f2:	e2 0f       	add	r30, r18
    16f4:	f3 1f       	adc	r31, r19
    16f6:	e5 57       	subi	r30, 0x75	; 117
    16f8:	fd 4f       	sbci	r31, 0xFD	; 253
    16fa:	50 83       	st	Z, r21
    16fc:	2f 5f       	subi	r18, 0xFF	; 255
    16fe:	3f 4f       	sbci	r19, 0xFF	; 255
    1700:	2e 30       	cpi	r18, 0x0E	; 14
    1702:	31 05       	cpc	r19, r1
    1704:	4c f2       	brlt	.-110    	; 0x1698 <LCD_12864_print_symbol_7_11+0x7e>
    1706:	08 95       	ret

00001708 <LCD_12864_Print_7_11>:
    1708:	df 92       	push	r13
    170a:	ef 92       	push	r14
    170c:	ff 92       	push	r15
    170e:	0f 93       	push	r16
    1710:	1f 93       	push	r17
    1712:	cf 93       	push	r28
    1714:	df 93       	push	r29
    1716:	d4 2e       	mov	r13, r20
    1718:	79 01       	movw	r14, r18
    171a:	8c 01       	movw	r16, r24
    171c:	20 e8       	ldi	r18, 0x80	; 128
    171e:	62 9f       	mul	r22, r18
    1720:	00 0d       	add	r16, r0
    1722:	11 1d       	adc	r17, r1
    1724:	11 24       	eor	r1, r1
    1726:	c0 e0       	ldi	r28, 0x00	; 0
    1728:	d0 e0       	ldi	r29, 0x00	; 0
    172a:	2b c0       	rjmp	.+86     	; 0x1782 <LCD_12864_Print_7_11+0x7a>
    172c:	f7 01       	movw	r30, r14
    172e:	ec 0f       	add	r30, r28
    1730:	fd 1f       	adc	r31, r29
    1732:	60 81       	ld	r22, Z
    1734:	70 e0       	ldi	r23, 0x00	; 0
    1736:	dd 20       	and	r13, r13
    1738:	89 f0       	breq	.+34     	; 0x175c <LCD_12864_Print_7_11+0x54>
    173a:	6e 32       	cpi	r22, 0x2E	; 46
    173c:	71 05       	cpc	r23, r1
    173e:	39 f0       	breq	.+14     	; 0x174e <LCD_12864_Print_7_11+0x46>
    1740:	60 53       	subi	r22, 0x30	; 48
    1742:	71 09       	sbc	r23, r1
    1744:	41 e0       	ldi	r20, 0x01	; 1
    1746:	c8 01       	movw	r24, r16
    1748:	0e 94 0d 0b 	call	0x161a	; 0x161a <LCD_12864_print_symbol_7_11>
    174c:	17 c0       	rjmp	.+46     	; 0x177c <LCD_12864_Print_7_11+0x74>
    174e:	41 e0       	ldi	r20, 0x01	; 1
    1750:	6a e0       	ldi	r22, 0x0A	; 10
    1752:	70 e0       	ldi	r23, 0x00	; 0
    1754:	c8 01       	movw	r24, r16
    1756:	0e 94 0d 0b 	call	0x161a	; 0x161a <LCD_12864_print_symbol_7_11>
    175a:	10 c0       	rjmp	.+32     	; 0x177c <LCD_12864_Print_7_11+0x74>
    175c:	6e 32       	cpi	r22, 0x2E	; 46
    175e:	71 05       	cpc	r23, r1
    1760:	39 f0       	breq	.+14     	; 0x1770 <LCD_12864_Print_7_11+0x68>
    1762:	60 53       	subi	r22, 0x30	; 48
    1764:	71 09       	sbc	r23, r1
    1766:	40 e0       	ldi	r20, 0x00	; 0
    1768:	c8 01       	movw	r24, r16
    176a:	0e 94 0d 0b 	call	0x161a	; 0x161a <LCD_12864_print_symbol_7_11>
    176e:	06 c0       	rjmp	.+12     	; 0x177c <LCD_12864_Print_7_11+0x74>
    1770:	40 e0       	ldi	r20, 0x00	; 0
    1772:	6a e0       	ldi	r22, 0x0A	; 10
    1774:	70 e0       	ldi	r23, 0x00	; 0
    1776:	c8 01       	movw	r24, r16
    1778:	0e 94 0d 0b 	call	0x161a	; 0x161a <LCD_12864_print_symbol_7_11>
    177c:	08 5f       	subi	r16, 0xF8	; 248
    177e:	1f 4f       	sbci	r17, 0xFF	; 255
    1780:	21 96       	adiw	r28, 0x01	; 1
    1782:	f7 01       	movw	r30, r14
    1784:	01 90       	ld	r0, Z+
    1786:	00 20       	and	r0, r0
    1788:	e9 f7       	brne	.-6      	; 0x1784 <LCD_12864_Print_7_11+0x7c>
    178a:	31 97       	sbiw	r30, 0x01	; 1
    178c:	ee 19       	sub	r30, r14
    178e:	ff 09       	sbc	r31, r15
    1790:	ce 17       	cp	r28, r30
    1792:	df 07       	cpc	r29, r31
    1794:	58 f2       	brcs	.-106    	; 0x172c <LCD_12864_Print_7_11+0x24>
    1796:	df 91       	pop	r29
    1798:	cf 91       	pop	r28
    179a:	1f 91       	pop	r17
    179c:	0f 91       	pop	r16
    179e:	ff 90       	pop	r15
    17a0:	ef 90       	pop	r14
    17a2:	df 90       	pop	r13
    17a4:	08 95       	ret

000017a6 <LCD_12864_Print_4_6>:
    17a6:	df 92       	push	r13
    17a8:	ef 92       	push	r14
    17aa:	ff 92       	push	r15
    17ac:	0f 93       	push	r16
    17ae:	1f 93       	push	r17
    17b0:	cf 93       	push	r28
    17b2:	df 93       	push	r29
    17b4:	d4 2e       	mov	r13, r20
    17b6:	79 01       	movw	r14, r18
    17b8:	8c 01       	movw	r16, r24
    17ba:	20 e8       	ldi	r18, 0x80	; 128
    17bc:	62 9f       	mul	r22, r18
    17be:	00 0d       	add	r16, r0
    17c0:	11 1d       	adc	r17, r1
    17c2:	11 24       	eor	r1, r1
    17c4:	c0 e0       	ldi	r28, 0x00	; 0
    17c6:	d0 e0       	ldi	r29, 0x00	; 0
    17c8:	2b c0       	rjmp	.+86     	; 0x1820 <LCD_12864_Print_4_6+0x7a>
    17ca:	f7 01       	movw	r30, r14
    17cc:	ec 0f       	add	r30, r28
    17ce:	fd 1f       	adc	r31, r29
    17d0:	60 81       	ld	r22, Z
    17d2:	70 e0       	ldi	r23, 0x00	; 0
    17d4:	dd 20       	and	r13, r13
    17d6:	89 f0       	breq	.+34     	; 0x17fa <LCD_12864_Print_4_6+0x54>
    17d8:	6e 32       	cpi	r22, 0x2E	; 46
    17da:	71 05       	cpc	r23, r1
    17dc:	39 f0       	breq	.+14     	; 0x17ec <LCD_12864_Print_4_6+0x46>
    17de:	60 53       	subi	r22, 0x30	; 48
    17e0:	71 09       	sbc	r23, r1
    17e2:	41 e0       	ldi	r20, 0x01	; 1
    17e4:	c8 01       	movw	r24, r16
    17e6:	0e 94 81 0a 	call	0x1502	; 0x1502 <LCD_12864_print_symbol_4_6>
    17ea:	17 c0       	rjmp	.+46     	; 0x181a <LCD_12864_Print_4_6+0x74>
    17ec:	41 e0       	ldi	r20, 0x01	; 1
    17ee:	6a e0       	ldi	r22, 0x0A	; 10
    17f0:	70 e0       	ldi	r23, 0x00	; 0
    17f2:	c8 01       	movw	r24, r16
    17f4:	0e 94 81 0a 	call	0x1502	; 0x1502 <LCD_12864_print_symbol_4_6>
    17f8:	10 c0       	rjmp	.+32     	; 0x181a <LCD_12864_Print_4_6+0x74>
    17fa:	6e 32       	cpi	r22, 0x2E	; 46
    17fc:	71 05       	cpc	r23, r1
    17fe:	39 f0       	breq	.+14     	; 0x180e <LCD_12864_Print_4_6+0x68>
    1800:	60 53       	subi	r22, 0x30	; 48
    1802:	71 09       	sbc	r23, r1
    1804:	40 e0       	ldi	r20, 0x00	; 0
    1806:	c8 01       	movw	r24, r16
    1808:	0e 94 81 0a 	call	0x1502	; 0x1502 <LCD_12864_print_symbol_4_6>
    180c:	06 c0       	rjmp	.+12     	; 0x181a <LCD_12864_Print_4_6+0x74>
    180e:	40 e0       	ldi	r20, 0x00	; 0
    1810:	6a e0       	ldi	r22, 0x0A	; 10
    1812:	70 e0       	ldi	r23, 0x00	; 0
    1814:	c8 01       	movw	r24, r16
    1816:	0e 94 81 0a 	call	0x1502	; 0x1502 <LCD_12864_print_symbol_4_6>
    181a:	0b 5f       	subi	r16, 0xFB	; 251
    181c:	1f 4f       	sbci	r17, 0xFF	; 255
    181e:	21 96       	adiw	r28, 0x01	; 1
    1820:	f7 01       	movw	r30, r14
    1822:	01 90       	ld	r0, Z+
    1824:	00 20       	and	r0, r0
    1826:	e9 f7       	brne	.-6      	; 0x1822 <LCD_12864_Print_4_6+0x7c>
    1828:	31 97       	sbiw	r30, 0x01	; 1
    182a:	ee 19       	sub	r30, r14
    182c:	ff 09       	sbc	r31, r15
    182e:	ce 17       	cp	r28, r30
    1830:	df 07       	cpc	r29, r31
    1832:	58 f2       	brcs	.-106    	; 0x17ca <LCD_12864_Print_4_6+0x24>
    1834:	df 91       	pop	r29
    1836:	cf 91       	pop	r28
    1838:	1f 91       	pop	r17
    183a:	0f 91       	pop	r16
    183c:	ff 90       	pop	r15
    183e:	ef 90       	pop	r14
    1840:	df 90       	pop	r13
    1842:	08 95       	ret

00001844 <LCD_12864_Print_11_16>:
    1844:	df 92       	push	r13
    1846:	ef 92       	push	r14
    1848:	ff 92       	push	r15
    184a:	0f 93       	push	r16
    184c:	1f 93       	push	r17
    184e:	cf 93       	push	r28
    1850:	df 93       	push	r29
    1852:	d4 2e       	mov	r13, r20
    1854:	79 01       	movw	r14, r18
    1856:	8c 01       	movw	r16, r24
    1858:	20 e8       	ldi	r18, 0x80	; 128
    185a:	62 9f       	mul	r22, r18
    185c:	00 0d       	add	r16, r0
    185e:	11 1d       	adc	r17, r1
    1860:	11 24       	eor	r1, r1
    1862:	c0 e0       	ldi	r28, 0x00	; 0
    1864:	d0 e0       	ldi	r29, 0x00	; 0
    1866:	17 c0       	rjmp	.+46     	; 0x1896 <LCD_12864_Print_11_16+0x52>
    1868:	f7 01       	movw	r30, r14
    186a:	ec 0f       	add	r30, r28
    186c:	fd 1f       	adc	r31, r29
    186e:	60 81       	ld	r22, Z
    1870:	70 e0       	ldi	r23, 0x00	; 0
    1872:	dd 20       	and	r13, r13
    1874:	39 f0       	breq	.+14     	; 0x1884 <LCD_12864_Print_11_16+0x40>
    1876:	60 53       	subi	r22, 0x30	; 48
    1878:	71 09       	sbc	r23, r1
    187a:	41 e0       	ldi	r20, 0x01	; 1
    187c:	c8 01       	movw	r24, r16
    187e:	0e 94 ae 0a 	call	0x155c	; 0x155c <LCD_12864_print_symbol_11_16>
    1882:	06 c0       	rjmp	.+12     	; 0x1890 <LCD_12864_Print_11_16+0x4c>
    1884:	60 53       	subi	r22, 0x30	; 48
    1886:	71 09       	sbc	r23, r1
    1888:	40 e0       	ldi	r20, 0x00	; 0
    188a:	c8 01       	movw	r24, r16
    188c:	0e 94 ae 0a 	call	0x155c	; 0x155c <LCD_12864_print_symbol_11_16>
    1890:	04 5f       	subi	r16, 0xF4	; 244
    1892:	1f 4f       	sbci	r17, 0xFF	; 255
    1894:	21 96       	adiw	r28, 0x01	; 1
    1896:	f7 01       	movw	r30, r14
    1898:	01 90       	ld	r0, Z+
    189a:	00 20       	and	r0, r0
    189c:	e9 f7       	brne	.-6      	; 0x1898 <LCD_12864_Print_11_16+0x54>
    189e:	31 97       	sbiw	r30, 0x01	; 1
    18a0:	ee 19       	sub	r30, r14
    18a2:	ff 09       	sbc	r31, r15
    18a4:	ce 17       	cp	r28, r30
    18a6:	df 07       	cpc	r29, r31
    18a8:	f8 f2       	brcs	.-66     	; 0x1868 <LCD_12864_Print_11_16+0x24>
    18aa:	df 91       	pop	r29
    18ac:	cf 91       	pop	r28
    18ae:	1f 91       	pop	r17
    18b0:	0f 91       	pop	r16
    18b2:	ff 90       	pop	r15
    18b4:	ef 90       	pop	r14
    18b6:	df 90       	pop	r13
    18b8:	08 95       	ret

000018ba <LCD_12864_Decode_UTF8>:
    18ba:	bf 92       	push	r11
    18bc:	cf 92       	push	r12
    18be:	df 92       	push	r13
    18c0:	ef 92       	push	r14
    18c2:	ff 92       	push	r15
    18c4:	0f 93       	push	r16
    18c6:	1f 93       	push	r17
    18c8:	cf 93       	push	r28
    18ca:	df 93       	push	r29
    18cc:	b4 2e       	mov	r11, r20
    18ce:	79 01       	movw	r14, r18
    18d0:	8c 01       	movw	r16, r24
    18d2:	20 e8       	ldi	r18, 0x80	; 128
    18d4:	62 9f       	mul	r22, r18
    18d6:	00 0d       	add	r16, r0
    18d8:	11 1d       	adc	r17, r1
    18da:	11 24       	eor	r1, r1
    18dc:	c1 2c       	mov	r12, r1
    18de:	d1 2c       	mov	r13, r1
    18e0:	79 c0       	rjmp	.+242    	; 0x19d4 <LCD_12864_Decode_UTF8+0x11a>
    18e2:	f7 01       	movw	r30, r14
    18e4:	ec 0d       	add	r30, r12
    18e6:	fd 1d       	adc	r31, r13
    18e8:	c0 81       	ld	r28, Z
    18ea:	c0 3c       	cpi	r28, 0xC0	; 192
    18ec:	d0 f4       	brcc	.+52     	; 0x1922 <LCD_12864_Decode_UTF8+0x68>
    18ee:	c8 3a       	cpi	r28, 0xA8	; 168
    18f0:	c1 f0       	breq	.+48     	; 0x1922 <LCD_12864_Decode_UTF8+0x68>
    18f2:	c8 3b       	cpi	r28, 0xB8	; 184
    18f4:	b1 f0       	breq	.+44     	; 0x1922 <LCD_12864_Decode_UTF8+0x68>
    18f6:	c0 3b       	cpi	r28, 0xB0	; 176
    18f8:	a1 f0       	breq	.+40     	; 0x1922 <LCD_12864_Decode_UTF8+0x68>
    18fa:	6c 2f       	mov	r22, r28
    18fc:	70 e0       	ldi	r23, 0x00	; 0
    18fe:	bb 20       	and	r11, r11
    1900:	39 f0       	breq	.+14     	; 0x1910 <LCD_12864_Decode_UTF8+0x56>
    1902:	60 52       	subi	r22, 0x20	; 32
    1904:	71 09       	sbc	r23, r1
    1906:	41 e0       	ldi	r20, 0x01	; 1
    1908:	c8 01       	movw	r24, r16
    190a:	0e 94 50 0a 	call	0x14a0	; 0x14a0 <LCD_12864_print_symbol>
    190e:	06 c0       	rjmp	.+12     	; 0x191c <LCD_12864_Decode_UTF8+0x62>
    1910:	60 52       	subi	r22, 0x20	; 32
    1912:	71 09       	sbc	r23, r1
    1914:	40 e0       	ldi	r20, 0x00	; 0
    1916:	c8 01       	movw	r24, r16
    1918:	0e 94 50 0a 	call	0x14a0	; 0x14a0 <LCD_12864_print_symbol>
    191c:	0a 5f       	subi	r16, 0xFA	; 250
    191e:	1f 4f       	sbci	r17, 0xFF	; 255
    1920:	56 c0       	rjmp	.+172    	; 0x19ce <LCD_12864_Decode_UTF8+0x114>
    1922:	d0 e0       	ldi	r29, 0x00	; 0
    1924:	ce 01       	movw	r24, r28
    1926:	80 5c       	subi	r24, 0xC0	; 192
    1928:	91 09       	sbc	r25, r1
    192a:	80 34       	cpi	r24, 0x40	; 64
    192c:	91 05       	cpc	r25, r1
    192e:	98 f4       	brcc	.+38     	; 0x1956 <LCD_12864_Decode_UTF8+0x9c>
    1930:	bb 20       	and	r11, r11
    1932:	41 f0       	breq	.+16     	; 0x1944 <LCD_12864_Decode_UTF8+0x8a>
    1934:	41 e0       	ldi	r20, 0x01	; 1
    1936:	be 01       	movw	r22, r28
    1938:	61 56       	subi	r22, 0x61	; 97
    193a:	71 09       	sbc	r23, r1
    193c:	c8 01       	movw	r24, r16
    193e:	0e 94 50 0a 	call	0x14a0	; 0x14a0 <LCD_12864_print_symbol>
    1942:	07 c0       	rjmp	.+14     	; 0x1952 <LCD_12864_Decode_UTF8+0x98>
    1944:	40 e0       	ldi	r20, 0x00	; 0
    1946:	be 01       	movw	r22, r28
    1948:	61 56       	subi	r22, 0x61	; 97
    194a:	71 09       	sbc	r23, r1
    194c:	c8 01       	movw	r24, r16
    194e:	0e 94 50 0a 	call	0x14a0	; 0x14a0 <LCD_12864_print_symbol>
    1952:	0a 5f       	subi	r16, 0xFA	; 250
    1954:	1f 4f       	sbci	r17, 0xFF	; 255
    1956:	c8 3a       	cpi	r28, 0xA8	; 168
    1958:	d1 05       	cpc	r29, r1
    195a:	89 f4       	brne	.+34     	; 0x197e <LCD_12864_Decode_UTF8+0xc4>
    195c:	bb 20       	and	r11, r11
    195e:	39 f0       	breq	.+14     	; 0x196e <LCD_12864_Decode_UTF8+0xb4>
    1960:	41 e0       	ldi	r20, 0x01	; 1
    1962:	6f e9       	ldi	r22, 0x9F	; 159
    1964:	70 e0       	ldi	r23, 0x00	; 0
    1966:	c8 01       	movw	r24, r16
    1968:	0e 94 50 0a 	call	0x14a0	; 0x14a0 <LCD_12864_print_symbol>
    196c:	06 c0       	rjmp	.+12     	; 0x197a <LCD_12864_Decode_UTF8+0xc0>
    196e:	40 e0       	ldi	r20, 0x00	; 0
    1970:	6f e9       	ldi	r22, 0x9F	; 159
    1972:	70 e0       	ldi	r23, 0x00	; 0
    1974:	c8 01       	movw	r24, r16
    1976:	0e 94 50 0a 	call	0x14a0	; 0x14a0 <LCD_12864_print_symbol>
    197a:	0a 5f       	subi	r16, 0xFA	; 250
    197c:	1f 4f       	sbci	r17, 0xFF	; 255
    197e:	c8 3b       	cpi	r28, 0xB8	; 184
    1980:	d1 05       	cpc	r29, r1
    1982:	89 f4       	brne	.+34     	; 0x19a6 <LCD_12864_Decode_UTF8+0xec>
    1984:	bb 20       	and	r11, r11
    1986:	39 f0       	breq	.+14     	; 0x1996 <LCD_12864_Decode_UTF8+0xdc>
    1988:	41 e0       	ldi	r20, 0x01	; 1
    198a:	60 ea       	ldi	r22, 0xA0	; 160
    198c:	70 e0       	ldi	r23, 0x00	; 0
    198e:	c8 01       	movw	r24, r16
    1990:	0e 94 50 0a 	call	0x14a0	; 0x14a0 <LCD_12864_print_symbol>
    1994:	06 c0       	rjmp	.+12     	; 0x19a2 <LCD_12864_Decode_UTF8+0xe8>
    1996:	40 e0       	ldi	r20, 0x00	; 0
    1998:	60 ea       	ldi	r22, 0xA0	; 160
    199a:	70 e0       	ldi	r23, 0x00	; 0
    199c:	c8 01       	movw	r24, r16
    199e:	0e 94 50 0a 	call	0x14a0	; 0x14a0 <LCD_12864_print_symbol>
    19a2:	0a 5f       	subi	r16, 0xFA	; 250
    19a4:	1f 4f       	sbci	r17, 0xFF	; 255
    19a6:	c0 3b       	cpi	r28, 0xB0	; 176
    19a8:	d1 05       	cpc	r29, r1
    19aa:	89 f4       	brne	.+34     	; 0x19ce <LCD_12864_Decode_UTF8+0x114>
    19ac:	bb 20       	and	r11, r11
    19ae:	39 f0       	breq	.+14     	; 0x19be <LCD_12864_Decode_UTF8+0x104>
    19b0:	41 e0       	ldi	r20, 0x01	; 1
    19b2:	61 ea       	ldi	r22, 0xA1	; 161
    19b4:	70 e0       	ldi	r23, 0x00	; 0
    19b6:	c8 01       	movw	r24, r16
    19b8:	0e 94 50 0a 	call	0x14a0	; 0x14a0 <LCD_12864_print_symbol>
    19bc:	06 c0       	rjmp	.+12     	; 0x19ca <LCD_12864_Decode_UTF8+0x110>
    19be:	40 e0       	ldi	r20, 0x00	; 0
    19c0:	61 ea       	ldi	r22, 0xA1	; 161
    19c2:	70 e0       	ldi	r23, 0x00	; 0
    19c4:	c8 01       	movw	r24, r16
    19c6:	0e 94 50 0a 	call	0x14a0	; 0x14a0 <LCD_12864_print_symbol>
    19ca:	0a 5f       	subi	r16, 0xFA	; 250
    19cc:	1f 4f       	sbci	r17, 0xFF	; 255
    19ce:	8f ef       	ldi	r24, 0xFF	; 255
    19d0:	c8 1a       	sub	r12, r24
    19d2:	d8 0a       	sbc	r13, r24
    19d4:	f7 01       	movw	r30, r14
    19d6:	01 90       	ld	r0, Z+
    19d8:	00 20       	and	r0, r0
    19da:	e9 f7       	brne	.-6      	; 0x19d6 <LCD_12864_Decode_UTF8+0x11c>
    19dc:	31 97       	sbiw	r30, 0x01	; 1
    19de:	ee 19       	sub	r30, r14
    19e0:	ff 09       	sbc	r31, r15
    19e2:	ce 16       	cp	r12, r30
    19e4:	df 06       	cpc	r13, r31
    19e6:	08 f4       	brcc	.+2      	; 0x19ea <LCD_12864_Decode_UTF8+0x130>
    19e8:	7c cf       	rjmp	.-264    	; 0x18e2 <LCD_12864_Decode_UTF8+0x28>
    19ea:	df 91       	pop	r29
    19ec:	cf 91       	pop	r28
    19ee:	1f 91       	pop	r17
    19f0:	0f 91       	pop	r16
    19f2:	ff 90       	pop	r15
    19f4:	ef 90       	pop	r14
    19f6:	df 90       	pop	r13
    19f8:	cf 90       	pop	r12
    19fa:	bf 90       	pop	r11
    19fc:	08 95       	ret

000019fe <LCD_12864_Print_jpeg>:
    19fe:	a0 e0       	ldi	r26, 0x00	; 0
    1a00:	b0 e0       	ldi	r27, 0x00	; 0
    1a02:	20 e0       	ldi	r18, 0x00	; 0
    1a04:	30 e0       	ldi	r19, 0x00	; 0
    1a06:	1b c0       	rjmp	.+54     	; 0x1a3e <LCD_12864_Print_jpeg+0x40>
    1a08:	bd 01       	movw	r22, r26
    1a0a:	76 95       	lsr	r23
    1a0c:	76 2f       	mov	r23, r22
    1a0e:	66 27       	eor	r22, r22
    1a10:	77 95       	ror	r23
    1a12:	67 95       	ror	r22
    1a14:	cb 01       	movw	r24, r22
    1a16:	4f 96       	adiw	r24, 0x1f	; 31
    1a18:	0b c0       	rjmp	.+22     	; 0x1a30 <LCD_12864_Print_jpeg+0x32>
    1a1a:	f9 01       	movw	r30, r18
    1a1c:	e4 56       	subi	r30, 0x64	; 100
    1a1e:	fe 4f       	sbci	r31, 0xFE	; 254
    1a20:	44 91       	lpm	r20, Z
    1a22:	fc 01       	movw	r30, r24
    1a24:	e4 57       	subi	r30, 0x74	; 116
    1a26:	fd 4f       	sbci	r31, 0xFD	; 253
    1a28:	40 83       	st	Z, r20
    1a2a:	2f 5f       	subi	r18, 0xFF	; 255
    1a2c:	3f 4f       	sbci	r19, 0xFF	; 255
    1a2e:	01 96       	adiw	r24, 0x01	; 1
    1a30:	ab 01       	movw	r20, r22
    1a32:	41 5a       	subi	r20, 0xA1	; 161
    1a34:	5f 4f       	sbci	r21, 0xFF	; 255
    1a36:	84 17       	cp	r24, r20
    1a38:	95 07       	cpc	r25, r21
    1a3a:	7c f3       	brlt	.-34     	; 0x1a1a <LCD_12864_Print_jpeg+0x1c>
    1a3c:	11 96       	adiw	r26, 0x01	; 1
    1a3e:	a8 30       	cpi	r26, 0x08	; 8
    1a40:	b1 05       	cpc	r27, r1
    1a42:	14 f3       	brlt	.-60     	; 0x1a08 <LCD_12864_Print_jpeg+0xa>
    1a44:	08 95       	ret

00001a46 <LCD_12864_Clean_Frame_buffer>:
    1a46:	80 e0       	ldi	r24, 0x00	; 0
    1a48:	94 e0       	ldi	r25, 0x04	; 4
    1a4a:	ec e8       	ldi	r30, 0x8C	; 140
    1a4c:	f2 e0       	ldi	r31, 0x02	; 2
    1a4e:	df 01       	movw	r26, r30
    1a50:	9c 01       	movw	r18, r24
    1a52:	1d 92       	st	X+, r1
    1a54:	21 50       	subi	r18, 0x01	; 1
    1a56:	30 40       	sbci	r19, 0x00	; 0
    1a58:	e1 f7       	brne	.-8      	; 0x1a52 <LCD_12864_Clean_Frame_buffer+0xc>
    1a5a:	08 95       	ret

00001a5c <LCD_12864_Draw_line>:
	memset(Frame_buffer, 0x00, sizeof(Frame_buffer));
}
/*----------Различная графика--------------------*/
/*-----------------------------------------------*/
/*----------Линия--------------------*/
void LCD_12864_Draw_line(uint8_t x_start, uint8_t y_start, uint8_t x_end, uint8_t y_end) {
    1a5c:	8f 92       	push	r8
    1a5e:	9f 92       	push	r9
    1a60:	af 92       	push	r10
    1a62:	bf 92       	push	r11
    1a64:	cf 92       	push	r12
    1a66:	df 92       	push	r13
    1a68:	ef 92       	push	r14
    1a6a:	ff 92       	push	r15
    1a6c:	0f 93       	push	r16
    1a6e:	1f 93       	push	r17
    1a70:	cf 93       	push	r28
    1a72:	df 93       	push	r29
    1a74:	c8 2f       	mov	r28, r24
    1a76:	d6 2f       	mov	r29, r22
    1a78:	b4 2e       	mov	r11, r20
    1a7a:	82 2e       	mov	r8, r18
	int dx = (x_end >= x_start) ? x_end - x_start : x_start - x_end;
    1a7c:	48 17       	cp	r20, r24
    1a7e:	28 f0       	brcs	.+10     	; 0x1a8a <LCD_12864_Draw_line+0x2e>
    1a80:	c4 2e       	mov	r12, r20
    1a82:	d1 2c       	mov	r13, r1
    1a84:	c8 1a       	sub	r12, r24
    1a86:	d1 08       	sbc	r13, r1
    1a88:	04 c0       	rjmp	.+8      	; 0x1a92 <LCD_12864_Draw_line+0x36>
    1a8a:	c8 2e       	mov	r12, r24
    1a8c:	d1 2c       	mov	r13, r1
    1a8e:	c4 1a       	sub	r12, r20
    1a90:	d1 08       	sbc	r13, r1
	int dy = (y_end >= y_start) ? y_end - y_start : y_start - y_end;
    1a92:	8d 16       	cp	r8, r29
    1a94:	28 f0       	brcs	.+10     	; 0x1aa0 <LCD_12864_Draw_line+0x44>
    1a96:	e8 2c       	mov	r14, r8
    1a98:	f1 2c       	mov	r15, r1
    1a9a:	ed 1a       	sub	r14, r29
    1a9c:	f1 08       	sbc	r15, r1
    1a9e:	04 c0       	rjmp	.+8      	; 0x1aa8 <LCD_12864_Draw_line+0x4c>
    1aa0:	ed 2e       	mov	r14, r29
    1aa2:	f1 2c       	mov	r15, r1
    1aa4:	e8 18       	sub	r14, r8
    1aa6:	f1 08       	sbc	r15, r1
	int sx = (x_start < x_end) ? 1 : -1;
    1aa8:	cb 15       	cp	r28, r11
    1aaa:	18 f4       	brcc	.+6      	; 0x1ab2 <LCD_12864_Draw_line+0x56>
    1aac:	aa 24       	eor	r10, r10
    1aae:	a3 94       	inc	r10
    1ab0:	02 c0       	rjmp	.+4      	; 0x1ab6 <LCD_12864_Draw_line+0x5a>
    1ab2:	aa 24       	eor	r10, r10
    1ab4:	aa 94       	dec	r10
	int sy = (y_start < y_end) ? 1 : -1;
    1ab6:	d8 15       	cp	r29, r8
    1ab8:	18 f4       	brcc	.+6      	; 0x1ac0 <LCD_12864_Draw_line+0x64>
    1aba:	99 24       	eor	r9, r9
    1abc:	93 94       	inc	r9
    1abe:	02 c0       	rjmp	.+4      	; 0x1ac4 <LCD_12864_Draw_line+0x68>
    1ac0:	99 24       	eor	r9, r9
    1ac2:	9a 94       	dec	r9
	int err = dx - dy;
    1ac4:	86 01       	movw	r16, r12
    1ac6:	0e 19       	sub	r16, r14
    1ac8:	1f 09       	sbc	r17, r15

	for (;;) {
		LCD_12864_Draw_pixel(x_start, y_start);
    1aca:	6d 2f       	mov	r22, r29
    1acc:	8c 2f       	mov	r24, r28
    1ace:	0e 94 b8 07 	call	0xf70	; 0xf70 <LCD_12864_Draw_pixel>
		if (x_start == x_end && y_start == y_end)
    1ad2:	cb 11       	cpse	r28, r11
    1ad4:	02 c0       	rjmp	.+4      	; 0x1ada <LCD_12864_Draw_line+0x7e>
    1ad6:	d8 15       	cp	r29, r8
    1ad8:	a1 f0       	breq	.+40     	; 0x1b02 <LCD_12864_Draw_line+0xa6>
		break;
		int e2 = err + err;
    1ada:	c8 01       	movw	r24, r16
    1adc:	88 0f       	add	r24, r24
    1ade:	99 1f       	adc	r25, r25
		if (e2 > -dy) {
    1ae0:	22 27       	eor	r18, r18
    1ae2:	33 27       	eor	r19, r19
    1ae4:	2e 19       	sub	r18, r14
    1ae6:	3f 09       	sbc	r19, r15
    1ae8:	28 17       	cp	r18, r24
    1aea:	39 07       	cpc	r19, r25
    1aec:	1c f4       	brge	.+6      	; 0x1af4 <LCD_12864_Draw_line+0x98>
			err -= dy;
    1aee:	0e 19       	sub	r16, r14
    1af0:	1f 09       	sbc	r17, r15
			x_start += sx;
    1af2:	ca 0d       	add	r28, r10
		}
		if (e2 < dx) {
    1af4:	8c 15       	cp	r24, r12
    1af6:	9d 05       	cpc	r25, r13
    1af8:	44 f7       	brge	.-48     	; 0x1aca <LCD_12864_Draw_line+0x6e>
			err += dx;
    1afa:	0c 0d       	add	r16, r12
    1afc:	1d 1d       	adc	r17, r13
			y_start += sy;
    1afe:	d9 0d       	add	r29, r9
    1b00:	e4 cf       	rjmp	.-56     	; 0x1aca <LCD_12864_Draw_line+0x6e>
		}
	}
}
    1b02:	df 91       	pop	r29
    1b04:	cf 91       	pop	r28
    1b06:	1f 91       	pop	r17
    1b08:	0f 91       	pop	r16
    1b0a:	ff 90       	pop	r15
    1b0c:	ef 90       	pop	r14
    1b0e:	df 90       	pop	r13
    1b10:	cf 90       	pop	r12
    1b12:	bf 90       	pop	r11
    1b14:	af 90       	pop	r10
    1b16:	9f 90       	pop	r9
    1b18:	8f 90       	pop	r8
    1b1a:	08 95       	ret

00001b1c <LCD_12864_Draw_rectangle>:
/*----------Пустотелый прямоугольник--------------------*/
void LCD_12864_Draw_rectangle(uint16_t x, uint16_t y, uint16_t width, uint16_t height) {
    1b1c:	ef 92       	push	r14
    1b1e:	ff 92       	push	r15
    1b20:	0f 93       	push	r16
    1b22:	1f 93       	push	r17
    1b24:	cf 93       	push	r28
    1b26:	df 93       	push	r29
    1b28:	7c 01       	movw	r14, r24
    1b2a:	8b 01       	movw	r16, r22
    1b2c:	e9 01       	movw	r28, r18
	/// \param y - начальная точка по оси "y"
	/// \param width - ширина прямоугольника
	/// \param height - высота прямоугольника

	/*Проверка ширины и высоты*/
	if ((x + width) >= ST7920_width) {
    1b2e:	9c 01       	movw	r18, r24
    1b30:	24 0f       	add	r18, r20
    1b32:	35 1f       	adc	r19, r21
    1b34:	80 91 01 01 	lds	r24, 0x0101	; 0x800101 <ST7920_width>
    1b38:	90 e0       	ldi	r25, 0x00	; 0
    1b3a:	28 17       	cp	r18, r24
    1b3c:	39 07       	cpc	r19, r25
    1b3e:	18 f0       	brcs	.+6      	; 0x1b46 <LCD_12864_Draw_rectangle+0x2a>
		width = ST7920_width - x;
    1b40:	ac 01       	movw	r20, r24
    1b42:	4e 19       	sub	r20, r14
    1b44:	5f 09       	sbc	r21, r15
	}
	if ((y + height) >= ST7920_height) {
    1b46:	80 91 00 01 	lds	r24, 0x0100	; 0x800100 <__DATA_REGION_ORIGIN__>
    1b4a:	90 e0       	ldi	r25, 0x00	; 0
    1b4c:	98 01       	movw	r18, r16
    1b4e:	2c 0f       	add	r18, r28
    1b50:	3d 1f       	adc	r19, r29
    1b52:	28 17       	cp	r18, r24
    1b54:	39 07       	cpc	r19, r25
    1b56:	18 f0       	brcs	.+6      	; 0x1b5e <LCD_12864_Draw_rectangle+0x42>
		height = ST7920_height - y;
    1b58:	ec 01       	movw	r28, r24
    1b5a:	c0 1b       	sub	r28, r16
    1b5c:	d1 0b       	sbc	r29, r17
	}

	/*Рисуем линии*/
	LCD_12864_Draw_line(x, y, x + width, y); /*Верх прямоугольника*/
    1b5e:	de 2d       	mov	r29, r14
    1b60:	d4 0f       	add	r29, r20
    1b62:	20 2f       	mov	r18, r16
    1b64:	4d 2f       	mov	r20, r29
    1b66:	60 2f       	mov	r22, r16
    1b68:	8e 2d       	mov	r24, r14
    1b6a:	0e 94 2e 0d 	call	0x1a5c	; 0x1a5c <LCD_12864_Draw_line>
	LCD_12864_Draw_line(x, y + height, x + width, y + height); /*Низ прямоугольника*/
    1b6e:	c0 0f       	add	r28, r16
    1b70:	2c 2f       	mov	r18, r28
    1b72:	4d 2f       	mov	r20, r29
    1b74:	6c 2f       	mov	r22, r28
    1b76:	8e 2d       	mov	r24, r14
    1b78:	0e 94 2e 0d 	call	0x1a5c	; 0x1a5c <LCD_12864_Draw_line>
	LCD_12864_Draw_line(x, y, x, y + height); /*Левая сторона прямоугольника*/
    1b7c:	2c 2f       	mov	r18, r28
    1b7e:	4e 2d       	mov	r20, r14
    1b80:	60 2f       	mov	r22, r16
    1b82:	8e 2d       	mov	r24, r14
    1b84:	0e 94 2e 0d 	call	0x1a5c	; 0x1a5c <LCD_12864_Draw_line>
	LCD_12864_Draw_line(x + width, y, x + width, y + height); /*Правая сторона прямоугольника*/
    1b88:	2c 2f       	mov	r18, r28
    1b8a:	4d 2f       	mov	r20, r29
    1b8c:	60 2f       	mov	r22, r16
    1b8e:	8d 2f       	mov	r24, r29
    1b90:	0e 94 2e 0d 	call	0x1a5c	; 0x1a5c <LCD_12864_Draw_line>
}
    1b94:	df 91       	pop	r29
    1b96:	cf 91       	pop	r28
    1b98:	1f 91       	pop	r17
    1b9a:	0f 91       	pop	r16
    1b9c:	ff 90       	pop	r15
    1b9e:	ef 90       	pop	r14
    1ba0:	08 95       	ret

00001ba2 <LCD_12864_Draw_rectangle_filled>:
/*-------------------------------Закрашенный прямоугольник---------------------------------*/
void LCD_12864_Draw_rectangle_filled(uint16_t x, uint16_t y, uint16_t width, uint16_t height) {
    1ba2:	af 92       	push	r10
    1ba4:	bf 92       	push	r11
    1ba6:	cf 92       	push	r12
    1ba8:	df 92       	push	r13
    1baa:	ef 92       	push	r14
    1bac:	ff 92       	push	r15
    1bae:	0f 93       	push	r16
    1bb0:	1f 93       	push	r17
    1bb2:	cf 93       	push	r28
    1bb4:	8c 01       	movw	r16, r24
    1bb6:	6b 01       	movw	r12, r22
    1bb8:	5a 01       	movw	r10, r20
    1bba:	79 01       	movw	r14, r18
	/// \param y - начальная точка по оси "y"
	/// \param width - ширина прямоугольника
	/// \param height - высота прямоугольника

	/*Проверка ширины и высоты*/
	if ((x + width) >= ST7920_width) {
    1bbc:	9c 01       	movw	r18, r24
    1bbe:	24 0f       	add	r18, r20
    1bc0:	35 1f       	adc	r19, r21
    1bc2:	80 91 01 01 	lds	r24, 0x0101	; 0x800101 <ST7920_width>
    1bc6:	90 e0       	ldi	r25, 0x00	; 0
    1bc8:	28 17       	cp	r18, r24
    1bca:	39 07       	cpc	r19, r25
    1bcc:	18 f0       	brcs	.+6      	; 0x1bd4 <LCD_12864_Draw_rectangle_filled+0x32>
		width = ST7920_width - x;
    1bce:	5c 01       	movw	r10, r24
    1bd0:	a0 1a       	sub	r10, r16
    1bd2:	b1 0a       	sbc	r11, r17
	}
	if ((y + height) >= ST7920_height) {
    1bd4:	80 91 00 01 	lds	r24, 0x0100	; 0x800100 <__DATA_REGION_ORIGIN__>
    1bd8:	90 e0       	ldi	r25, 0x00	; 0
    1bda:	96 01       	movw	r18, r12
    1bdc:	2e 0d       	add	r18, r14
    1bde:	3f 1d       	adc	r19, r15
    1be0:	28 17       	cp	r18, r24
    1be2:	39 07       	cpc	r19, r25
    1be4:	18 f0       	brcs	.+6      	; 0x1bec <LCD_12864_Draw_rectangle_filled+0x4a>
		height = ST7920_height - y;
    1be6:	7c 01       	movw	r14, r24
    1be8:	ec 18       	sub	r14, r12
    1bea:	fd 08       	sbc	r15, r13
	}

	/*Рисуем линии*/
	for (uint8_t i = 0; i <= height; i++) {
    1bec:	c0 e0       	ldi	r28, 0x00	; 0
    1bee:	09 c0       	rjmp	.+18     	; 0x1c02 <LCD_12864_Draw_rectangle_filled+0x60>
		LCD_12864_Draw_line(x, y + i, x + width, y + i);
    1bf0:	6c 2f       	mov	r22, r28
    1bf2:	6c 0d       	add	r22, r12
    1bf4:	26 2f       	mov	r18, r22
    1bf6:	40 2f       	mov	r20, r16
    1bf8:	4a 0d       	add	r20, r10
    1bfa:	80 2f       	mov	r24, r16
    1bfc:	0e 94 2e 0d 	call	0x1a5c	; 0x1a5c <LCD_12864_Draw_line>
	if ((y + height) >= ST7920_height) {
		height = ST7920_height - y;
	}

	/*Рисуем линии*/
	for (uint8_t i = 0; i <= height; i++) {
    1c00:	cf 5f       	subi	r28, 0xFF	; 255
    1c02:	8c 2f       	mov	r24, r28
    1c04:	90 e0       	ldi	r25, 0x00	; 0
    1c06:	e8 16       	cp	r14, r24
    1c08:	f9 06       	cpc	r15, r25
    1c0a:	90 f7       	brcc	.-28     	; 0x1bf0 <LCD_12864_Draw_rectangle_filled+0x4e>
		LCD_12864_Draw_line(x, y + i, x + width, y + i);
	}
}
    1c0c:	cf 91       	pop	r28
    1c0e:	1f 91       	pop	r17
    1c10:	0f 91       	pop	r16
    1c12:	ff 90       	pop	r15
    1c14:	ef 90       	pop	r14
    1c16:	df 90       	pop	r13
    1c18:	cf 90       	pop	r12
    1c1a:	bf 90       	pop	r11
    1c1c:	af 90       	pop	r10
    1c1e:	08 95       	ret

00001c20 <LCD_12864_Draw_circle>:
/*---------------------------------Пустотелая окружность-----------------------------------*/
void LCD_12864_Draw_circle(uint8_t x, uint8_t y, uint8_t radius) {
    1c20:	5f 92       	push	r5
    1c22:	6f 92       	push	r6
    1c24:	7f 92       	push	r7
    1c26:	8f 92       	push	r8
    1c28:	9f 92       	push	r9
    1c2a:	af 92       	push	r10
    1c2c:	bf 92       	push	r11
    1c2e:	cf 92       	push	r12
    1c30:	df 92       	push	r13
    1c32:	ef 92       	push	r14
    1c34:	ff 92       	push	r15
    1c36:	0f 93       	push	r16
    1c38:	1f 93       	push	r17
    1c3a:	cf 93       	push	r28
    1c3c:	df 93       	push	r29
    1c3e:	78 2e       	mov	r7, r24
    1c40:	66 2e       	mov	r6, r22
    1c42:	c4 2f       	mov	r28, r20
	/// Вывести пустотелую окружность
	/// \param x - точка центра окружности по оси "x"
	/// \param y - точка центра окружности по оси "y"
	/// \param radius - радиус окружности

	int f = 1 - (int) radius;
    1c44:	04 2f       	mov	r16, r20
    1c46:	10 e0       	ldi	r17, 0x00	; 0
    1c48:	81 e0       	ldi	r24, 0x01	; 1
    1c4a:	90 e0       	ldi	r25, 0x00	; 0
    1c4c:	6c 01       	movw	r12, r24
    1c4e:	c0 1a       	sub	r12, r16
    1c50:	d1 0a       	sbc	r13, r17
	int ddF_x = 1;

	int ddF_y = -2 * (int) radius;
    1c52:	aa 24       	eor	r10, r10
    1c54:	bb 24       	eor	r11, r11
    1c56:	a0 1a       	sub	r10, r16
    1c58:	b1 0a       	sbc	r11, r17
    1c5a:	aa 0c       	add	r10, r10
    1c5c:	bb 1c       	adc	r11, r11
	int x_0 = 0;

	LCD_12864_Draw_pixel(x, y + radius);
    1c5e:	64 2f       	mov	r22, r20
    1c60:	66 0d       	add	r22, r6
    1c62:	87 2d       	mov	r24, r7
    1c64:	0e 94 b8 07 	call	0xf70	; 0xf70 <LCD_12864_Draw_pixel>
	LCD_12864_Draw_pixel(x, y - radius);
    1c68:	66 2d       	mov	r22, r6
    1c6a:	6c 1b       	sub	r22, r28
    1c6c:	87 2d       	mov	r24, r7
    1c6e:	0e 94 b8 07 	call	0xf70	; 0xf70 <LCD_12864_Draw_pixel>
	LCD_12864_Draw_pixel(x + radius, y);
    1c72:	66 2d       	mov	r22, r6
    1c74:	8c 2f       	mov	r24, r28
    1c76:	87 0d       	add	r24, r7
    1c78:	0e 94 b8 07 	call	0xf70	; 0xf70 <LCD_12864_Draw_pixel>
	LCD_12864_Draw_pixel(x - radius, y);
    1c7c:	66 2d       	mov	r22, r6
    1c7e:	87 2d       	mov	r24, r7
    1c80:	8c 1b       	sub	r24, r28
    1c82:	0e 94 b8 07 	call	0xf70	; 0xf70 <LCD_12864_Draw_pixel>

	int f = 1 - (int) radius;
	int ddF_x = 1;

	int ddF_y = -2 * (int) radius;
	int x_0 = 0;
    1c86:	c0 e0       	ldi	r28, 0x00	; 0
    1c88:	d0 e0       	ldi	r29, 0x00	; 0
	/// \param x - точка центра окружности по оси "x"
	/// \param y - точка центра окружности по оси "y"
	/// \param radius - радиус окружности

	int f = 1 - (int) radius;
	int ddF_x = 1;
    1c8a:	88 24       	eor	r8, r8
    1c8c:	83 94       	inc	r8
    1c8e:	91 2c       	mov	r9, r1
	LCD_12864_Draw_pixel(x, y - radius);
	LCD_12864_Draw_pixel(x + radius, y);
	LCD_12864_Draw_pixel(x - radius, y);

	int y_0 = radius;
	while (x_0 < y_0) {
    1c90:	3f c0       	rjmp	.+126    	; 0x1d10 <LCD_12864_Draw_circle+0xf0>
		if (f >= 0) {
    1c92:	dd 20       	and	r13, r13
    1c94:	3c f0       	brlt	.+14     	; 0x1ca4 <LCD_12864_Draw_circle+0x84>
			y_0--;
    1c96:	01 50       	subi	r16, 0x01	; 1
    1c98:	11 09       	sbc	r17, r1
			ddF_y += 2;
    1c9a:	82 e0       	ldi	r24, 0x02	; 2
    1c9c:	a8 0e       	add	r10, r24
    1c9e:	b1 1c       	adc	r11, r1
			f += ddF_y;
    1ca0:	ca 0c       	add	r12, r10
    1ca2:	db 1c       	adc	r13, r11
		}
		x_0++;
    1ca4:	21 96       	adiw	r28, 0x01	; 1
		ddF_x += 2;
    1ca6:	82 e0       	ldi	r24, 0x02	; 2
    1ca8:	88 0e       	add	r8, r24
    1caa:	91 1c       	adc	r9, r1
		f += ddF_x;
    1cac:	c8 0c       	add	r12, r8
    1cae:	d9 1c       	adc	r13, r9
		LCD_12864_Draw_pixel(x + x_0, y + y_0);
    1cb0:	5c 2e       	mov	r5, r28
    1cb2:	57 0c       	add	r5, r7
    1cb4:	f6 2c       	mov	r15, r6
    1cb6:	f0 0e       	add	r15, r16
    1cb8:	6f 2d       	mov	r22, r15
    1cba:	85 2d       	mov	r24, r5
    1cbc:	0e 94 b8 07 	call	0xf70	; 0xf70 <LCD_12864_Draw_pixel>
		LCD_12864_Draw_pixel(x - x_0, y + y_0);
    1cc0:	e7 2c       	mov	r14, r7
    1cc2:	ec 1a       	sub	r14, r28
    1cc4:	6f 2d       	mov	r22, r15
    1cc6:	8e 2d       	mov	r24, r14
    1cc8:	0e 94 b8 07 	call	0xf70	; 0xf70 <LCD_12864_Draw_pixel>
		LCD_12864_Draw_pixel(x + x_0, y - y_0);
    1ccc:	f6 2c       	mov	r15, r6
    1cce:	f0 1a       	sub	r15, r16
    1cd0:	6f 2d       	mov	r22, r15
    1cd2:	85 2d       	mov	r24, r5
    1cd4:	0e 94 b8 07 	call	0xf70	; 0xf70 <LCD_12864_Draw_pixel>
		LCD_12864_Draw_pixel(x - x_0, y - y_0);
    1cd8:	6f 2d       	mov	r22, r15
    1cda:	8e 2d       	mov	r24, r14
    1cdc:	0e 94 b8 07 	call	0xf70	; 0xf70 <LCD_12864_Draw_pixel>
		LCD_12864_Draw_pixel(x + y_0, y + x_0);
    1ce0:	fc 2e       	mov	r15, r28
    1ce2:	f6 0c       	add	r15, r6
    1ce4:	6f 2d       	mov	r22, r15
    1ce6:	e7 2c       	mov	r14, r7
    1ce8:	e0 0e       	add	r14, r16
    1cea:	8e 2d       	mov	r24, r14
    1cec:	0e 94 b8 07 	call	0xf70	; 0xf70 <LCD_12864_Draw_pixel>
		LCD_12864_Draw_pixel(x - y_0, y + x_0);
    1cf0:	6f 2d       	mov	r22, r15
    1cf2:	f7 2c       	mov	r15, r7
    1cf4:	f0 1a       	sub	r15, r16
    1cf6:	8f 2d       	mov	r24, r15
    1cf8:	0e 94 b8 07 	call	0xf70	; 0xf70 <LCD_12864_Draw_pixel>
		LCD_12864_Draw_pixel(x + y_0, y - x_0);
    1cfc:	56 2c       	mov	r5, r6
    1cfe:	5c 1a       	sub	r5, r28
    1d00:	65 2d       	mov	r22, r5
    1d02:	8e 2d       	mov	r24, r14
    1d04:	0e 94 b8 07 	call	0xf70	; 0xf70 <LCD_12864_Draw_pixel>
		LCD_12864_Draw_pixel(x - y_0, y - x_0);
    1d08:	65 2d       	mov	r22, r5
    1d0a:	8f 2d       	mov	r24, r15
    1d0c:	0e 94 b8 07 	call	0xf70	; 0xf70 <LCD_12864_Draw_pixel>
	LCD_12864_Draw_pixel(x, y - radius);
	LCD_12864_Draw_pixel(x + radius, y);
	LCD_12864_Draw_pixel(x - radius, y);

	int y_0 = radius;
	while (x_0 < y_0) {
    1d10:	c0 17       	cp	r28, r16
    1d12:	d1 07       	cpc	r29, r17
    1d14:	0c f4       	brge	.+2      	; 0x1d18 <LCD_12864_Draw_circle+0xf8>
    1d16:	bd cf       	rjmp	.-134    	; 0x1c92 <LCD_12864_Draw_circle+0x72>
		LCD_12864_Draw_pixel(x + y_0, y + x_0);
		LCD_12864_Draw_pixel(x - y_0, y + x_0);
		LCD_12864_Draw_pixel(x + y_0, y - x_0);
		LCD_12864_Draw_pixel(x - y_0, y - x_0);
	}
}
    1d18:	df 91       	pop	r29
    1d1a:	cf 91       	pop	r28
    1d1c:	1f 91       	pop	r17
    1d1e:	0f 91       	pop	r16
    1d20:	ff 90       	pop	r15
    1d22:	ef 90       	pop	r14
    1d24:	df 90       	pop	r13
    1d26:	cf 90       	pop	r12
    1d28:	bf 90       	pop	r11
    1d2a:	af 90       	pop	r10
    1d2c:	9f 90       	pop	r9
    1d2e:	8f 90       	pop	r8
    1d30:	7f 90       	pop	r7
    1d32:	6f 90       	pop	r6
    1d34:	5f 90       	pop	r5
    1d36:	08 95       	ret

00001d38 <timer1_ini>:
int8_t cnt=0;

//-------------------------------------------------------------
void timer1_ini(void)//период 4сек
{
	TCCR1B |= (1<<WGM12); // устанавливаем режим СТС (сброс по совпадению)
    1d38:	e1 e8       	ldi	r30, 0x81	; 129
    1d3a:	f0 e0       	ldi	r31, 0x00	; 0
    1d3c:	80 81       	ld	r24, Z
    1d3e:	88 60       	ori	r24, 0x08	; 8
    1d40:	80 83       	st	Z, r24
	TIMSK1 |= (1<<OCIE1A); //устанавливаем бит разрешения прерывания 1ого счетчика по совпадению с OCR1A(H и L)
    1d42:	af e6       	ldi	r26, 0x6F	; 111
    1d44:	b0 e0       	ldi	r27, 0x00	; 0
    1d46:	8c 91       	ld	r24, X
    1d48:	82 60       	ori	r24, 0x02	; 2
    1d4a:	8c 93       	st	X, r24
	OCR1AH = 0b01111010; //записываем в регистр число для сравнения
    1d4c:	8a e7       	ldi	r24, 0x7A	; 122
    1d4e:	80 93 89 00 	sts	0x0089, r24	; 0x800089 <__TEXT_REGION_LENGTH__+0x7f8089>
	OCR1AL = 0b00010010;
    1d52:	82 e1       	ldi	r24, 0x12	; 18
    1d54:	80 93 88 00 	sts	0x0088, r24	; 0x800088 <__TEXT_REGION_LENGTH__+0x7f8088>
	TCCR1B |= (1<<CS12)|(1<<CS10);//установим делитель 1024.
    1d58:	80 81       	ld	r24, Z
    1d5a:	85 60       	ori	r24, 0x05	; 5
    1d5c:	80 83       	st	Z, r24
    1d5e:	08 95       	ret

00001d60 <timer0_ini>:
}
//-------------------------------------------------------------
void timer0_ini(void) // период 100мкс
{
	TCCR0B |= (1<<WGM01); // устанавливаем режим СТС (сброс по совпадению)
    1d60:	85 b5       	in	r24, 0x25	; 37
    1d62:	82 60       	ori	r24, 0x02	; 2
    1d64:	85 bd       	out	0x25, r24	; 37
	OCR0A = 0b01100100; //записываем в регистр число для сравнения 100
    1d66:	84 e6       	ldi	r24, 0x64	; 100
    1d68:	87 bd       	out	0x27, r24	; 39
	TCCR0B |= (1<<CS01); //делитель 8
    1d6a:	85 b5       	in	r24, 0x25	; 37
    1d6c:	82 60       	ori	r24, 0x02	; 2
    1d6e:	85 bd       	out	0x25, r24	; 37
	TIMSK0 |= (1<<OCIE0A); //устанавливаем бит разрешения прерывания 0-ого счетчика по совпадению с OCR0A
    1d70:	ee e6       	ldi	r30, 0x6E	; 110
    1d72:	f0 e0       	ldi	r31, 0x00	; 0
    1d74:	80 81       	ld	r24, Z
    1d76:	82 60       	ori	r24, 0x02	; 2
    1d78:	80 83       	st	Z, r24
    1d7a:	08 95       	ret

00001d7c <__vector_11>:
}
//-------------------------------------------------------------
ISR (TIMER1_COMPA_vect)
{
    1d7c:	1f 92       	push	r1
    1d7e:	0f 92       	push	r0
    1d80:	0f b6       	in	r0, 0x3f	; 63
    1d82:	0f 92       	push	r0
    1d84:	11 24       	eor	r1, r1
    1d86:	2f 93       	push	r18
    1d88:	3f 93       	push	r19
    1d8a:	4f 93       	push	r20
    1d8c:	5f 93       	push	r21
    1d8e:	6f 93       	push	r22
    1d90:	7f 93       	push	r23
    1d92:	8f 93       	push	r24
    1d94:	9f 93       	push	r25
    1d96:	af 93       	push	r26
    1d98:	bf 93       	push	r27
    1d9a:	ef 93       	push	r30
    1d9c:	ff 93       	push	r31
	//if (menu_flag == 1) counter++;
	if((strlen(temp_street)!=0)&&(strlen(hum_street)!=0)&&(strlen(WIND_speed)!=0)&&(strlen(Rain)!=0)&&(strlen(Vbat)!=0)&&(strlen(wind_direction)!=0))
    1d9e:	80 91 82 02 	lds	r24, 0x0282	; 0x800282 <temp_street>
    1da2:	88 23       	and	r24, r24
    1da4:	09 f4       	brne	.+2      	; 0x1da8 <__vector_11+0x2c>
    1da6:	4c c0       	rjmp	.+152    	; 0x1e40 <__vector_11+0xc4>
    1da8:	80 91 78 02 	lds	r24, 0x0278	; 0x800278 <hum_street>
    1dac:	88 23       	and	r24, r24
    1dae:	09 f4       	brne	.+2      	; 0x1db2 <__vector_11+0x36>
    1db0:	47 c0       	rjmp	.+142    	; 0x1e40 <__vector_11+0xc4>
    1db2:	80 91 50 02 	lds	r24, 0x0250	; 0x800250 <WIND_speed>
    1db6:	88 23       	and	r24, r24
    1db8:	09 f4       	brne	.+2      	; 0x1dbc <__vector_11+0x40>
    1dba:	42 c0       	rjmp	.+132    	; 0x1e40 <__vector_11+0xc4>
    1dbc:	80 91 1e 02 	lds	r24, 0x021E	; 0x80021e <Rain>
    1dc0:	88 23       	and	r24, r24
    1dc2:	f1 f1       	breq	.+124    	; 0x1e40 <__vector_11+0xc4>
    1dc4:	80 91 28 02 	lds	r24, 0x0228	; 0x800228 <Vbat>
    1dc8:	88 23       	and	r24, r24
    1dca:	d1 f1       	breq	.+116    	; 0x1e40 <__vector_11+0xc4>
    1dcc:	80 91 46 02 	lds	r24, 0x0246	; 0x800246 <wind_direction>
    1dd0:	88 23       	and	r24, r24
    1dd2:	b1 f1       	breq	.+108    	; 0x1e40 <__vector_11+0xc4>
	{
		//отправка строки по UART в формате: ул.темп./скор.ветра/осадки/ул.влажность/заряд АКБ/направл.ветра
	    sprintf(DATA_TO_UART,"%s ",temp_street);
    1dd4:	82 e8       	ldi	r24, 0x82	; 130
    1dd6:	92 e0       	ldi	r25, 0x02	; 2
    1dd8:	9f 93       	push	r25
    1dda:	8f 93       	push	r24
    1ddc:	85 e0       	ldi	r24, 0x05	; 5
    1dde:	91 e0       	ldi	r25, 0x01	; 1
    1de0:	9f 93       	push	r25
    1de2:	8f 93       	push	r24
    1de4:	8c ee       	ldi	r24, 0xEC	; 236
    1de6:	91 e0       	ldi	r25, 0x01	; 1
    1de8:	9f 93       	push	r25
    1dea:	8f 93       	push	r24
    1dec:	0e 94 7f 26 	call	0x4cfe	; 0x4cfe <sprintf>
		strcat(DATA_TO_UART,WIND_speed);
    1df0:	60 e5       	ldi	r22, 0x50	; 80
    1df2:	72 e0       	ldi	r23, 0x02	; 2
    1df4:	8c ee       	ldi	r24, 0xEC	; 236
    1df6:	91 e0       	ldi	r25, 0x01	; 1
    1df8:	0e 94 24 26 	call	0x4c48	; 0x4c48 <strcat>
		strcat(DATA_TO_UART,Rain);
    1dfc:	6e e1       	ldi	r22, 0x1E	; 30
    1dfe:	72 e0       	ldi	r23, 0x02	; 2
    1e00:	8c ee       	ldi	r24, 0xEC	; 236
    1e02:	91 e0       	ldi	r25, 0x01	; 1
    1e04:	0e 94 24 26 	call	0x4c48	; 0x4c48 <strcat>
		strcat(DATA_TO_UART,hum_street);
    1e08:	68 e7       	ldi	r22, 0x78	; 120
    1e0a:	72 e0       	ldi	r23, 0x02	; 2
    1e0c:	8c ee       	ldi	r24, 0xEC	; 236
    1e0e:	91 e0       	ldi	r25, 0x01	; 1
    1e10:	0e 94 24 26 	call	0x4c48	; 0x4c48 <strcat>
		strcat(DATA_TO_UART,Vbat);
    1e14:	68 e2       	ldi	r22, 0x28	; 40
    1e16:	72 e0       	ldi	r23, 0x02	; 2
    1e18:	8c ee       	ldi	r24, 0xEC	; 236
    1e1a:	91 e0       	ldi	r25, 0x01	; 1
    1e1c:	0e 94 24 26 	call	0x4c48	; 0x4c48 <strcat>
		strcat(DATA_TO_UART,wind_direction);
    1e20:	66 e4       	ldi	r22, 0x46	; 70
    1e22:	72 e0       	ldi	r23, 0x02	; 2
    1e24:	8c ee       	ldi	r24, 0xEC	; 236
    1e26:	91 e0       	ldi	r25, 0x01	; 1
    1e28:	0e 94 24 26 	call	0x4c48	; 0x4c48 <strcat>
		USART_Transmit(DATA_TO_UART);
    1e2c:	8c ee       	ldi	r24, 0xEC	; 236
    1e2e:	91 e0       	ldi	r25, 0x01	; 1
    1e30:	0e 94 40 13 	call	0x2680	; 0x2680 <USART_Transmit>
    1e34:	0f 90       	pop	r0
    1e36:	0f 90       	pop	r0
    1e38:	0f 90       	pop	r0
    1e3a:	0f 90       	pop	r0
    1e3c:	0f 90       	pop	r0
    1e3e:	0f 90       	pop	r0
	/*if (counter == 3) 
	{
		menu_flag = 0;
		counter = 0;
	}*/
}
    1e40:	ff 91       	pop	r31
    1e42:	ef 91       	pop	r30
    1e44:	bf 91       	pop	r27
    1e46:	af 91       	pop	r26
    1e48:	9f 91       	pop	r25
    1e4a:	8f 91       	pop	r24
    1e4c:	7f 91       	pop	r23
    1e4e:	6f 91       	pop	r22
    1e50:	5f 91       	pop	r21
    1e52:	4f 91       	pop	r20
    1e54:	3f 91       	pop	r19
    1e56:	2f 91       	pop	r18
    1e58:	0f 90       	pop	r0
    1e5a:	0f be       	out	0x3f, r0	; 63
    1e5c:	0f 90       	pop	r0
    1e5e:	1f 90       	pop	r1
    1e60:	18 95       	reti

00001e62 <__vector_14>:
//-------------------------------------------------------------
ISR (TIMER0_COMPA_vect)
{
    1e62:	1f 92       	push	r1
    1e64:	0f 92       	push	r0
    1e66:	0f b6       	in	r0, 0x3f	; 63
    1e68:	0f 92       	push	r0
    1e6a:	11 24       	eor	r1, r1
    1e6c:	8f 93       	push	r24
    1e6e:	9f 93       	push	r25
	  static unsigned char new_state=0;
	  static unsigned char old_state=0;
	  
	  new_state = (PINB&0b11000000)>>6;
    1e70:	83 b1       	in	r24, 0x03	; 3
    1e72:	82 95       	swap	r24
    1e74:	86 95       	lsr	r24
    1e76:	86 95       	lsr	r24
    1e78:	83 70       	andi	r24, 0x03	; 3
	 /* if(!(PIND&0b00001000)) 
	  {
		   cnt=0;
	  }*/
	  switch(old_state | new_state)
    1e7a:	90 91 d0 01 	lds	r25, 0x01D0	; 0x8001d0 <old_state.2583>
    1e7e:	98 2b       	or	r25, r24
    1e80:	94 30       	cpi	r25, 0x04	; 4
    1e82:	71 f0       	breq	.+28     	; 0x1ea0 <__vector_14+0x3e>
    1e84:	18 f4       	brcc	.+6      	; 0x1e8c <__vector_14+0x2a>
    1e86:	91 30       	cpi	r25, 0x01	; 1
    1e88:	29 f0       	breq	.+10     	; 0x1e94 <__vector_14+0x32>
    1e8a:	0f c0       	rjmp	.+30     	; 0x1eaa <__vector_14+0x48>
    1e8c:	9b 30       	cpi	r25, 0x0B	; 11
    1e8e:	41 f0       	breq	.+16     	; 0x1ea0 <__vector_14+0x3e>
    1e90:	9e 30       	cpi	r25, 0x0E	; 14
    1e92:	59 f4       	brne	.+22     	; 0x1eaa <__vector_14+0x48>
	  {
		  case 0x01: case 0x0e:
		  cnt++;
    1e94:	90 91 d1 01 	lds	r25, 0x01D1	; 0x8001d1 <cnt>
    1e98:	9f 5f       	subi	r25, 0xFF	; 255
    1e9a:	90 93 d1 01 	sts	0x01D1, r25	; 0x8001d1 <cnt>
		  break;
    1e9e:	05 c0       	rjmp	.+10     	; 0x1eaa <__vector_14+0x48>
		  case 0x04: case 0x0b:
		  cnt--;
    1ea0:	90 91 d1 01 	lds	r25, 0x01D1	; 0x8001d1 <cnt>
    1ea4:	91 50       	subi	r25, 0x01	; 1
    1ea6:	90 93 d1 01 	sts	0x01D1, r25	; 0x8001d1 <cnt>
		  break;
	  }
	  old_state = new_state<<2;
    1eaa:	88 0f       	add	r24, r24
    1eac:	88 0f       	add	r24, r24
    1eae:	80 93 d0 01 	sts	0x01D0, r24	; 0x8001d0 <old_state.2583>
	  if (cnt >= 6){cnt = 0;}
    1eb2:	80 91 d1 01 	lds	r24, 0x01D1	; 0x8001d1 <cnt>
    1eb6:	86 30       	cpi	r24, 0x06	; 6
    1eb8:	1c f0       	brlt	.+6      	; 0x1ec0 <__vector_14+0x5e>
    1eba:	10 92 d1 01 	sts	0x01D1, r1	; 0x8001d1 <cnt>
    1ebe:	05 c0       	rjmp	.+10     	; 0x1eca <__vector_14+0x68>
	  else if (cnt <= -2 ){cnt = 4;}
    1ec0:	8f 3f       	cpi	r24, 0xFF	; 255
    1ec2:	1c f4       	brge	.+6      	; 0x1eca <__vector_14+0x68>
    1ec4:	84 e0       	ldi	r24, 0x04	; 4
    1ec6:	80 93 d1 01 	sts	0x01D1, r24	; 0x8001d1 <cnt>
	  else {} 
}
    1eca:	9f 91       	pop	r25
    1ecc:	8f 91       	pop	r24
    1ece:	0f 90       	pop	r0
    1ed0:	0f be       	out	0x3f, r0	; 63
    1ed2:	0f 90       	pop	r0
    1ed4:	1f 90       	pop	r1
    1ed6:	18 95       	reti

00001ed8 <enc_interrupt_ini>:
//-------------------------------------------------------------
//прерывания от кнопки энкодера для переключения в окно меню
void enc_interrupt_ini(void)
{
	//включим прерывания INT1 по нисходящему фронту
	MCUCR |= (1<<ISC11);
    1ed8:	85 b7       	in	r24, 0x35	; 53
    1eda:	88 60       	ori	r24, 0x08	; 8
    1edc:	85 bf       	out	0x35, r24	; 53
	//разрешим внешние прерывания INT1
	EIMSK |= (1<<INT1);
    1ede:	8d b3       	in	r24, 0x1d	; 29
    1ee0:	82 60       	ori	r24, 0x02	; 2
    1ee2:	8d bb       	out	0x1d, r24	; 29
    1ee4:	08 95       	ret

00001ee6 <__vector_2>:
}
//-------------------------------------------------------------
//обработчик внешн.прерываний от кнопки энкодера
ISR(INT1_vect)
{
    1ee6:	1f 92       	push	r1
    1ee8:	0f 92       	push	r0
    1eea:	0f b6       	in	r0, 0x3f	; 63
    1eec:	0f 92       	push	r0
    1eee:	11 24       	eor	r1, r1
    1ef0:	8f 93       	push	r24
	if ((menu_flag == 1) && (cnt == 4))
    1ef2:	80 91 d2 01 	lds	r24, 0x01D2	; 0x8001d2 <menu_flag>
    1ef6:	81 30       	cpi	r24, 0x01	; 1
    1ef8:	39 f4       	brne	.+14     	; 0x1f08 <__vector_2+0x22>
    1efa:	80 91 d1 01 	lds	r24, 0x01D1	; 0x8001d1 <cnt>
    1efe:	84 30       	cpi	r24, 0x04	; 4
    1f00:	19 f4       	brne	.+6      	; 0x1f08 <__vector_2+0x22>
	{
		menu_flag = 0;
    1f02:	10 92 d2 01 	sts	0x01D2, r1	; 0x8001d2 <menu_flag>
    1f06:	03 c0       	rjmp	.+6      	; 0x1f0e <__vector_2+0x28>
	}
	else 
	{
		menu_flag = 1;
    1f08:	81 e0       	ldi	r24, 0x01	; 1
    1f0a:	80 93 d2 01 	sts	0x01D2, r24	; 0x8001d2 <menu_flag>
	}
}
    1f0e:	8f 91       	pop	r24
    1f10:	0f 90       	pop	r0
    1f12:	0f be       	out	0x3f, r0	; 63
    1f14:	0f 90       	pop	r0
    1f16:	1f 90       	pop	r1
    1f18:	18 95       	reti

00001f1a <SPI_init>:
//-------------------------------------------------------------
void SPI_init(void) //инициализация SPI
{
	DDRB |= ((1<<SS)|(1<<MOSI)|(1<<CE)|(1<<SCK)); //ножки SPI на выход
    1f1a:	84 b1       	in	r24, 0x04	; 4
    1f1c:	8e 62       	ori	r24, 0x2E	; 46
    1f1e:	84 b9       	out	0x04, r24	; 4
	PORTB &= ~((1<<SS)|(1<<MOSI)|(1<<SCK)); //низкий уровень
    1f20:	85 b1       	in	r24, 0x05	; 5
    1f22:	83 7d       	andi	r24, 0xD3	; 211
    1f24:	85 b9       	out	0x05, r24	; 5
	DDRD &= ~(1<<IRQ);
    1f26:	8a b1       	in	r24, 0x0a	; 10
    1f28:	8b 7f       	andi	r24, 0xFB	; 251
    1f2a:	8a b9       	out	0x0a, r24	; 10
	PORTD |= (1<<IRQ);
    1f2c:	8b b1       	in	r24, 0x0b	; 11
    1f2e:	84 60       	ori	r24, 0x04	; 4
    1f30:	8b b9       	out	0x0b, r24	; 11
	HIGH_CSN;
    1f32:	85 b1       	in	r24, 0x05	; 5
    1f34:	84 60       	ori	r24, 0x04	; 4
    1f36:	85 b9       	out	0x05, r24	; 5
	SPCR = ((1<<SPE)|(1<<MSTR));//включим шину, объявим ведущим
    1f38:	80 e5       	ldi	r24, 0x50	; 80
    1f3a:	8c bd       	out	0x2c, r24	; 44
    1f3c:	08 95       	ret

00001f3e <port_init>:
}
//-------------------------------------------------------------
void port_init(void)
{
	//инициализация портов для светодиода
	DDRD |= (1 << LED);//led
    1f3e:	8a b1       	in	r24, 0x0a	; 10
    1f40:	80 61       	ori	r24, 0x10	; 16
    1f42:	8a b9       	out	0x0a, r24	; 10
	PORTD &= ~ (1 << LED);
    1f44:	8b b1       	in	r24, 0x0b	; 11
    1f46:	8f 7e       	andi	r24, 0xEF	; 239
    1f48:	8b b9       	out	0x0b, r24	; 11
	
	//инициализация портов для LCD12864
	DDRD |= (1<<RS);//ножка RS на выход для LCD12864
    1f4a:	8a b1       	in	r24, 0x0a	; 10
    1f4c:	80 68       	ori	r24, 0x80	; 128
    1f4e:	8a b9       	out	0x0a, r24	; 10
	PORTD &= ~(1<<RS);
    1f50:	8b b1       	in	r24, 0x0b	; 11
    1f52:	8f 77       	andi	r24, 0x7F	; 127
    1f54:	8b b9       	out	0x0b, r24	; 11
	DDRD |= (1<<E);
    1f56:	8a b1       	in	r24, 0x0a	; 10
    1f58:	80 62       	ori	r24, 0x20	; 32
    1f5a:	8a b9       	out	0x0a, r24	; 10
	PORTD &= ~(1<<E);
    1f5c:	8b b1       	in	r24, 0x0b	; 11
    1f5e:	8f 7d       	andi	r24, 0xDF	; 223
    1f60:	8b b9       	out	0x0b, r24	; 11
	DDRD |= (1<<RW);
    1f62:	8a b1       	in	r24, 0x0a	; 10
    1f64:	80 64       	ori	r24, 0x40	; 64
    1f66:	8a b9       	out	0x0a, r24	; 10
	PORTD &= ~(1<<RW);
    1f68:	8b b1       	in	r24, 0x0b	; 11
    1f6a:	8f 7b       	andi	r24, 0xBF	; 191
    1f6c:	8b b9       	out	0x0b, r24	; 11
	//DDRB |= (1<<PSB);//ножка PSB на выход для LCD12864
	//PORTB &= ~(1<<PSB);
	
	//Инициализация для энкодера
	DDRD &= ~(1<<SW_ENC);
    1f6e:	8a b1       	in	r24, 0x0a	; 10
    1f70:	87 7f       	andi	r24, 0xF7	; 247
    1f72:	8a b9       	out	0x0a, r24	; 10
	DDRB &= ~((1<<DT_ENC)||(1<<CLK_ENC));
    1f74:	84 b1       	in	r24, 0x04	; 4
    1f76:	8e 7f       	andi	r24, 0xFE	; 254
    1f78:	84 b9       	out	0x04, r24	; 4
	PORTD |= (1 << SW_ENC);
    1f7a:	8b b1       	in	r24, 0x0b	; 11
    1f7c:	88 60       	ori	r24, 0x08	; 8
    1f7e:	8b b9       	out	0x0b, r24	; 11
	PORTB &= ~((1 << DT_ENC)|(1 << CLK_ENC));
    1f80:	85 b1       	in	r24, 0x05	; 5
    1f82:	8f 73       	andi	r24, 0x3F	; 63
    1f84:	85 b9       	out	0x05, r24	; 5
    1f86:	08 95       	ret

00001f88 <spi_send_recv>:
	 DDRC|=(1<<MOSI_SD)|(1<<SCK_SD);*/
} 
//-------------------------------------------------------------
uint8_t spi_send_recv(uint8_t data) // Передаёт и принимает 1 байт по SPI, возвращает полученное значение
{
	SPDR = data;
    1f88:	8e bd       	out	0x2e, r24	; 46
	while (!(SPSR & (1 << SPIF)));
    1f8a:	0d b4       	in	r0, 0x2d	; 45
    1f8c:	07 fe       	sbrs	r0, 7
    1f8e:	fd cf       	rjmp	.-6      	; 0x1f8a <spi_send_recv+0x2>
	return SPDR;
    1f90:	8e b5       	in	r24, 0x2e	; 46
}
    1f92:	08 95       	ret

00001f94 <main>:
//-------------------------------------------------------------
void main(void)
{	
	port_init();
    1f94:	0e 94 9f 0f 	call	0x1f3e	; 0x1f3e <port_init>
	PORTD |= (1<<LED);
    1f98:	8b b1       	in	r24, 0x0b	; 11
    1f9a:	80 61       	ori	r24, 0x10	; 16
    1f9c:	8b b9       	out	0x0b, r24	; 11
	//Инициализация интерфейсов
	SPI_init();
    1f9e:	0e 94 8d 0f 	call	0x1f1a	; 0x1f1a <SPI_init>
	I2C_Init();
    1fa2:	0e 94 fc 12 	call	0x25f8	; 0x25f8 <I2C_Init>
	USART_Init(8);    //Инициализация модуля USART скорость 115200
    1fa6:	88 e0       	ldi	r24, 0x08	; 8
    1fa8:	90 e0       	ldi	r25, 0x00	; 0
    1faa:	0e 94 2a 13 	call	0x2654	; 0x2654 <USART_Init>
	LCD_12864_ini();
    1fae:	0e 94 32 0a 	call	0x1464	; 0x1464 <LCD_12864_ini>
	//очистка дисплея
	LCD_12864_GrapnicMode(1);
    1fb2:	81 e0       	ldi	r24, 0x01	; 1
    1fb4:	0e 94 bb 08 	call	0x1176	; 0x1176 <LCD_12864_GrapnicMode>
	LCD_12864_Clean_Frame_buffer();
    1fb8:	0e 94 23 0d 	call	0x1a46	; 0x1a46 <LCD_12864_Clean_Frame_buffer>
	LCD_12864_Draw_bitmap(Frame_buffer);
    1fbc:	8c e8       	ldi	r24, 0x8C	; 140
    1fbe:	92 e0       	ldi	r25, 0x02	; 2
    1fc0:	0e 94 da 08 	call	0x11b4	; 0x11b4 <LCD_12864_Draw_bitmap>
	LCD_12864_GrapnicMode(0);
    1fc4:	80 e0       	ldi	r24, 0x00	; 0
    1fc6:	0e 94 bb 08 	call	0x1176	; 0x1176 <LCD_12864_GrapnicMode>
	//Вывод приветствия
	Print_Hello_World(Frame_buffer);
    1fca:	8c e8       	ldi	r24, 0x8C	; 140
    1fcc:	92 e0       	ldi	r25, 0x02	; 2
    1fce:	0e 94 5b 13 	call	0x26b6	; 0x26b6 <Print_Hello_World>
	//Инициализация оборудования
	NRF24_ini();
    1fd2:	0e 94 94 12 	call	0x2528	; 0x2528 <NRF24_ini>
	RTC_init();
    1fd6:	0e 94 eb 12 	call	0x25d6	; 0x25d6 <RTC_init>
	dht22_init();
    1fda:	0e 94 46 07 	call	0xe8c	; 0xe8c <dht22_init>
	BMP180_Calibration();
    1fde:	0e 94 d6 04 	call	0x9ac	; 0x9ac <BMP180_Calibration>
	// Установка времени для DS3231(делается 1 разv)
	//RTC_write_time(13, 30, 0);
	//RTC_write_date(2, 28, 6, 22);
	//Вывод окна загрузки
	Print_Download(Frame_buffer);
    1fe2:	8c e8       	ldi	r24, 0x8C	; 140
    1fe4:	92 e0       	ldi	r25, 0x02	; 2
    1fe6:	0e 94 85 13 	call	0x270a	; 0x270a <Print_Download>
	PORTD &= ~(1<<LED);
    1fea:	8b b1       	in	r24, 0x0b	; 11
    1fec:	8f 7e       	andi	r24, 0xEF	; 239
    1fee:	8b b9       	out	0x0b, r24	; 11
	//Print_Static_Home_Page(Frame_buffer);
	//Инициализация таймеров и прерываний
	cli();
    1ff0:	f8 94       	cli
	timer1_ini();
    1ff2:	0e 94 9c 0e 	call	0x1d38	; 0x1d38 <timer1_ini>
	timer0_ini();
    1ff6:	0e 94 b0 0e 	call	0x1d60	; 0x1d60 <timer0_ini>
	// настраиваем параметры прерывания
	EICRA = (1<<ISC01) | (0<<ISC00);
    1ffa:	82 e0       	ldi	r24, 0x02	; 2
    1ffc:	80 93 69 00 	sts	0x0069, r24	; 0x800069 <__TEXT_REGION_LENGTH__+0x7f8069>
	EIMSK = (1<<INT0);
    2000:	81 e0       	ldi	r24, 0x01	; 1
    2002:	8d bb       	out	0x1d, r24	; 29
	enc_interrupt_ini();
    2004:	0e 94 6c 0f 	call	0x1ed8	; 0x1ed8 <enc_interrupt_ini>
	// и разрешаем его глобально
	sei();
    2008:	78 94       	sei
    while (1) 
    {
		if(!menu_flag) 
    200a:	80 91 d2 01 	lds	r24, 0x01D2	; 0x8001d2 <menu_flag>
    200e:	81 11       	cpse	r24, r1
    2010:	05 c0       	rjmp	.+10     	; 0x201c <main+0x88>
		{
			Print_Home_Page(Frame_buffer);
    2012:	8c e8       	ldi	r24, 0x8C	; 140
    2014:	92 e0       	ldi	r25, 0x02	; 2
    2016:	0e 94 92 1c 	call	0x3924	; 0x3924 <Print_Home_Page>
    201a:	f7 cf       	rjmp	.-18     	; 0x200a <main+0x76>
		}
		else 
		{
			Print_Menu_Page(Frame_buffer);
    201c:	8c e8       	ldi	r24, 0x8C	; 140
    201e:	92 e0       	ldi	r25, 0x02	; 2
    2020:	0e 94 cd 13 	call	0x279a	; 0x279a <Print_Menu_Page>
	#else
		//round up by default
		__ticks_dc = (uint32_t)(ceil(fabs(__tmp)));
	#endif

	__builtin_avr_delay_cycles(__ticks_dc);
    2024:	2f ef       	ldi	r18, 0xFF	; 255
    2026:	84 e3       	ldi	r24, 0x34	; 52
    2028:	9c e0       	ldi	r25, 0x0C	; 12
    202a:	21 50       	subi	r18, 0x01	; 1
    202c:	80 40       	sbci	r24, 0x00	; 0
    202e:	90 40       	sbci	r25, 0x00	; 0
    2030:	e1 f7       	brne	.-8      	; 0x202a <main+0x96>
    2032:	00 c0       	rjmp	.+0      	; 0x2034 <main+0xa0>
    2034:	00 00       	nop
    2036:	e9 cf       	rjmp	.-46     	; 0x200a <main+0x76>

00002038 <NRF24L01_Receive>:
//-------------------------------------------------------------
void nRF_command(uint8_t command)
{
	LOW_CSN;
	spi_send_recv(command);
	HIGH_CSN;
    2038:	cf 93       	push	r28
    203a:	df 93       	push	r29
    203c:	80 91 8c 06 	lds	r24, 0x068C	; 0x80068c <rx_flag>
    2040:	81 30       	cpi	r24, 0x01	; 1
    2042:	09 f0       	breq	.+2      	; 0x2046 <NRF24L01_Receive+0xe>
    2044:	63 c1       	rjmp	.+710    	; 0x230c <NRF24L01_Receive+0x2d4>
    2046:	80 91 8d 06 	lds	r24, 0x068D	; 0x80068d <RX_BUF>
    204a:	81 30       	cpi	r24, 0x01	; 1
    204c:	09 f0       	breq	.+2      	; 0x2050 <NRF24L01_Receive+0x18>
    204e:	59 c0       	rjmp	.+178    	; 0x2102 <NRF24L01_Receive+0xca>
    2050:	e2 e8       	ldi	r30, 0x82	; 130
    2052:	f2 e0       	ldi	r31, 0x02	; 2
    2054:	01 90       	ld	r0, Z+
    2056:	00 20       	and	r0, r0
    2058:	e9 f7       	brne	.-6      	; 0x2054 <NRF24L01_Receive+0x1c>
    205a:	31 97       	sbiw	r30, 0x01	; 1
    205c:	af 01       	movw	r20, r30
    205e:	42 58       	subi	r20, 0x82	; 130
    2060:	52 40       	sbci	r21, 0x02	; 2
    2062:	44 0f       	add	r20, r20
    2064:	55 1f       	adc	r21, r21
    2066:	60 e0       	ldi	r22, 0x00	; 0
    2068:	70 e0       	ldi	r23, 0x00	; 0
    206a:	82 e8       	ldi	r24, 0x82	; 130
    206c:	92 e0       	ldi	r25, 0x02	; 2
    206e:	0e 94 1d 26 	call	0x4c3a	; 0x4c3a <memset>
    2072:	ed e8       	ldi	r30, 0x8D	; 141
    2074:	f6 e0       	ldi	r31, 0x06	; 6
    2076:	81 81       	ldd	r24, Z+1	; 0x01
    2078:	c2 81       	ldd	r28, Z+2	; 0x02
    207a:	d0 e0       	ldi	r29, 0x00	; 0
    207c:	dc 2f       	mov	r29, r28
    207e:	cc 27       	eor	r28, r28
    2080:	c8 2b       	or	r28, r24
    2082:	be 01       	movw	r22, r28
    2084:	0d 2e       	mov	r0, r29
    2086:	00 0c       	add	r0, r0
    2088:	88 0b       	sbc	r24, r24
    208a:	99 0b       	sbc	r25, r25
    208c:	0e 94 eb 1f 	call	0x3fd6	; 0x3fd6 <__floatsisf>
    2090:	20 e0       	ldi	r18, 0x00	; 0
    2092:	30 e0       	ldi	r19, 0x00	; 0
    2094:	40 e2       	ldi	r20, 0x20	; 32
    2096:	51 e4       	ldi	r21, 0x41	; 65
    2098:	0e 94 41 1f 	call	0x3e82	; 0x3e82 <__divsf3>
    209c:	60 93 de 01 	sts	0x01DE, r22	; 0x8001de <temp>
    20a0:	70 93 df 01 	sts	0x01DF, r23	; 0x8001df <temp+0x1>
    20a4:	80 93 e0 01 	sts	0x01E0, r24	; 0x8001e0 <temp+0x2>
    20a8:	90 93 e1 01 	sts	0x01E1, r25	; 0x8001e1 <temp+0x3>
    20ac:	dd 23       	and	r29, r29
    20ae:	5c f4       	brge	.+22     	; 0x20c6 <NRF24L01_Receive+0x8e>
    20b0:	dc 01       	movw	r26, r24
    20b2:	cb 01       	movw	r24, r22
    20b4:	b0 58       	subi	r27, 0x80	; 128
    20b6:	80 93 de 01 	sts	0x01DE, r24	; 0x8001de <temp>
    20ba:	90 93 df 01 	sts	0x01DF, r25	; 0x8001df <temp+0x1>
    20be:	a0 93 e0 01 	sts	0x01E0, r26	; 0x8001e0 <temp+0x2>
    20c2:	b0 93 e1 01 	sts	0x01E1, r27	; 0x8001e1 <temp+0x3>
    20c6:	80 91 e1 01 	lds	r24, 0x01E1	; 0x8001e1 <temp+0x3>
    20ca:	8f 93       	push	r24
    20cc:	80 91 e0 01 	lds	r24, 0x01E0	; 0x8001e0 <temp+0x2>
    20d0:	8f 93       	push	r24
    20d2:	80 91 df 01 	lds	r24, 0x01DF	; 0x8001df <temp+0x1>
    20d6:	8f 93       	push	r24
    20d8:	80 91 de 01 	lds	r24, 0x01DE	; 0x8001de <temp>
    20dc:	8f 93       	push	r24
    20de:	89 e0       	ldi	r24, 0x09	; 9
    20e0:	91 e0       	ldi	r25, 0x01	; 1
    20e2:	9f 93       	push	r25
    20e4:	8f 93       	push	r24
    20e6:	82 e8       	ldi	r24, 0x82	; 130
    20e8:	92 e0       	ldi	r25, 0x02	; 2
    20ea:	9f 93       	push	r25
    20ec:	8f 93       	push	r24
    20ee:	0e 94 7f 26 	call	0x4cfe	; 0x4cfe <sprintf>
    20f2:	8d b7       	in	r24, 0x3d	; 61
    20f4:	9e b7       	in	r25, 0x3e	; 62
    20f6:	08 96       	adiw	r24, 0x08	; 8
    20f8:	0f b6       	in	r0, 0x3f	; 63
    20fa:	f8 94       	cli
    20fc:	9e bf       	out	0x3e, r25	; 62
    20fe:	0f be       	out	0x3f, r0	; 63
    2100:	8d bf       	out	0x3d, r24	; 61
    2102:	80 91 8d 06 	lds	r24, 0x068D	; 0x80068d <RX_BUF>
    2106:	85 30       	cpi	r24, 0x05	; 5
    2108:	09 f0       	breq	.+2      	; 0x210c <NRF24L01_Receive+0xd4>
    210a:	3f c0       	rjmp	.+126    	; 0x218a <NRF24L01_Receive+0x152>
    210c:	c8 e7       	ldi	r28, 0x78	; 120
    210e:	d2 e0       	ldi	r29, 0x02	; 2
    2110:	fe 01       	movw	r30, r28
    2112:	01 90       	ld	r0, Z+
    2114:	00 20       	and	r0, r0
    2116:	e9 f7       	brne	.-6      	; 0x2112 <NRF24L01_Receive+0xda>
    2118:	31 97       	sbiw	r30, 0x01	; 1
    211a:	af 01       	movw	r20, r30
    211c:	48 57       	subi	r20, 0x78	; 120
    211e:	52 40       	sbci	r21, 0x02	; 2
    2120:	44 0f       	add	r20, r20
    2122:	55 1f       	adc	r21, r21
    2124:	60 e0       	ldi	r22, 0x00	; 0
    2126:	70 e0       	ldi	r23, 0x00	; 0
    2128:	ce 01       	movw	r24, r28
    212a:	0e 94 1d 26 	call	0x4c3a	; 0x4c3a <memset>
    212e:	ed e8       	ldi	r30, 0x8D	; 141
    2130:	f6 e0       	ldi	r31, 0x06	; 6
    2132:	81 81       	ldd	r24, Z+1	; 0x01
    2134:	62 81       	ldd	r22, Z+2	; 0x02
    2136:	70 e0       	ldi	r23, 0x00	; 0
    2138:	76 2f       	mov	r23, r22
    213a:	66 27       	eor	r22, r22
    213c:	68 2b       	or	r22, r24
    213e:	07 2e       	mov	r0, r23
    2140:	00 0c       	add	r0, r0
    2142:	88 0b       	sbc	r24, r24
    2144:	99 0b       	sbc	r25, r25
    2146:	0e 94 eb 1f 	call	0x3fd6	; 0x3fd6 <__floatsisf>
    214a:	20 e0       	ldi	r18, 0x00	; 0
    214c:	30 e0       	ldi	r19, 0x00	; 0
    214e:	40 e2       	ldi	r20, 0x20	; 32
    2150:	51 e4       	ldi	r21, 0x41	; 65
    2152:	0e 94 41 1f 	call	0x3e82	; 0x3e82 <__divsf3>
    2156:	60 93 da 01 	sts	0x01DA, r22	; 0x8001da <hum>
    215a:	70 93 db 01 	sts	0x01DB, r23	; 0x8001db <hum+0x1>
    215e:	80 93 dc 01 	sts	0x01DC, r24	; 0x8001dc <hum+0x2>
    2162:	90 93 dd 01 	sts	0x01DD, r25	; 0x8001dd <hum+0x3>
    2166:	0e 94 b3 1f 	call	0x3f66	; 0x3f66 <__fixsfsi>
    216a:	7f 93       	push	r23
    216c:	6f 93       	push	r22
    216e:	8c ea       	ldi	r24, 0xAC	; 172
    2170:	91 e0       	ldi	r25, 0x01	; 1
    2172:	9f 93       	push	r25
    2174:	8f 93       	push	r24
    2176:	df 93       	push	r29
    2178:	cf 93       	push	r28
    217a:	0e 94 7f 26 	call	0x4cfe	; 0x4cfe <sprintf>
    217e:	0f 90       	pop	r0
    2180:	0f 90       	pop	r0
    2182:	0f 90       	pop	r0
    2184:	0f 90       	pop	r0
    2186:	0f 90       	pop	r0
    2188:	0f 90       	pop	r0
    218a:	c0 91 8d 06 	lds	r28, 0x068D	; 0x80068d <RX_BUF>
    218e:	c2 30       	cpi	r28, 0x02	; 2
    2190:	61 f5       	brne	.+88     	; 0x21ea <NRF24L01_Receive+0x1b2>
    2192:	ea e5       	ldi	r30, 0x5A	; 90
    2194:	f2 e0       	ldi	r31, 0x02	; 2
    2196:	01 90       	ld	r0, Z+
    2198:	00 20       	and	r0, r0
    219a:	e9 f7       	brne	.-6      	; 0x2196 <NRF24L01_Receive+0x15e>
    219c:	31 97       	sbiw	r30, 0x01	; 1
    219e:	af 01       	movw	r20, r30
    21a0:	4a 55       	subi	r20, 0x5A	; 90
    21a2:	52 40       	sbci	r21, 0x02	; 2
    21a4:	44 0f       	add	r20, r20
    21a6:	55 1f       	adc	r21, r21
    21a8:	60 e0       	ldi	r22, 0x00	; 0
    21aa:	70 e0       	ldi	r23, 0x00	; 0
    21ac:	8a e5       	ldi	r24, 0x5A	; 90
    21ae:	92 e0       	ldi	r25, 0x02	; 2
    21b0:	0e 94 1d 26 	call	0x4c3a	; 0x4c3a <memset>
    21b4:	20 e0       	ldi	r18, 0x00	; 0
    21b6:	0b c0       	rjmp	.+22     	; 0x21ce <NRF24L01_Receive+0x196>
    21b8:	82 2f       	mov	r24, r18
    21ba:	90 e0       	ldi	r25, 0x00	; 0
    21bc:	fc 01       	movw	r30, r24
    21be:	e2 57       	subi	r30, 0x72	; 114
    21c0:	f9 4f       	sbci	r31, 0xF9	; 249
    21c2:	30 81       	ld	r19, Z
    21c4:	fc 01       	movw	r30, r24
    21c6:	e6 5a       	subi	r30, 0xA6	; 166
    21c8:	fd 4f       	sbci	r31, 0xFD	; 253
    21ca:	30 83       	st	Z, r19
    21cc:	2f 5f       	subi	r18, 0xFF	; 255
    21ce:	82 2f       	mov	r24, r18
    21d0:	90 e0       	ldi	r25, 0x00	; 0
    21d2:	ed e8       	ldi	r30, 0x8D	; 141
    21d4:	f6 e0       	ldi	r31, 0x06	; 6
    21d6:	01 90       	ld	r0, Z+
    21d8:	00 20       	and	r0, r0
    21da:	e9 f7       	brne	.-6      	; 0x21d6 <NRF24L01_Receive+0x19e>
    21dc:	31 97       	sbiw	r30, 0x01	; 1
    21de:	ed 58       	subi	r30, 0x8D	; 141
    21e0:	f6 40       	sbci	r31, 0x06	; 6
    21e2:	31 97       	sbiw	r30, 0x01	; 1
    21e4:	8e 17       	cp	r24, r30
    21e6:	9f 07       	cpc	r25, r31
    21e8:	38 f3       	brcs	.-50     	; 0x21b8 <NRF24L01_Receive+0x180>
    21ea:	c3 30       	cpi	r28, 0x03	; 3
    21ec:	89 f5       	brne	.+98     	; 0x2250 <NRF24L01_Receive+0x218>
    21ee:	e6 e4       	ldi	r30, 0x46	; 70
    21f0:	f2 e0       	ldi	r31, 0x02	; 2
    21f2:	01 90       	ld	r0, Z+
    21f4:	00 20       	and	r0, r0
    21f6:	e9 f7       	brne	.-6      	; 0x21f2 <NRF24L01_Receive+0x1ba>
    21f8:	31 97       	sbiw	r30, 0x01	; 1
    21fa:	af 01       	movw	r20, r30
    21fc:	46 54       	subi	r20, 0x46	; 70
    21fe:	52 40       	sbci	r21, 0x02	; 2
    2200:	44 0f       	add	r20, r20
    2202:	55 1f       	adc	r21, r21
    2204:	60 e0       	ldi	r22, 0x00	; 0
    2206:	70 e0       	ldi	r23, 0x00	; 0
    2208:	86 e4       	ldi	r24, 0x46	; 70
    220a:	92 e0       	ldi	r25, 0x02	; 2
    220c:	0e 94 1d 26 	call	0x4c3a	; 0x4c3a <memset>
    2210:	20 e0       	ldi	r18, 0x00	; 0
    2212:	0b c0       	rjmp	.+22     	; 0x222a <NRF24L01_Receive+0x1f2>
    2214:	82 2f       	mov	r24, r18
    2216:	90 e0       	ldi	r25, 0x00	; 0
    2218:	fc 01       	movw	r30, r24
    221a:	e2 57       	subi	r30, 0x72	; 114
    221c:	f9 4f       	sbci	r31, 0xF9	; 249
    221e:	30 81       	ld	r19, Z
    2220:	fc 01       	movw	r30, r24
    2222:	ea 5b       	subi	r30, 0xBA	; 186
    2224:	fd 4f       	sbci	r31, 0xFD	; 253
    2226:	30 83       	st	Z, r19
    2228:	2f 5f       	subi	r18, 0xFF	; 255
    222a:	82 2f       	mov	r24, r18
    222c:	90 e0       	ldi	r25, 0x00	; 0
    222e:	ed e8       	ldi	r30, 0x8D	; 141
    2230:	f6 e0       	ldi	r31, 0x06	; 6
    2232:	01 90       	ld	r0, Z+
    2234:	00 20       	and	r0, r0
    2236:	e9 f7       	brne	.-6      	; 0x2232 <NRF24L01_Receive+0x1fa>
    2238:	31 97       	sbiw	r30, 0x01	; 1
    223a:	ed 58       	subi	r30, 0x8D	; 141
    223c:	f6 40       	sbci	r31, 0x06	; 6
    223e:	31 97       	sbiw	r30, 0x01	; 1
    2240:	8e 17       	cp	r24, r30
    2242:	9f 07       	cpc	r25, r31
    2244:	38 f3       	brcs	.-50     	; 0x2214 <NRF24L01_Receive+0x1dc>
    2246:	fc 01       	movw	r30, r24
    2248:	e9 5b       	subi	r30, 0xB9	; 185
    224a:	fd 4f       	sbci	r31, 0xFD	; 253
    224c:	80 e2       	ldi	r24, 0x20	; 32
    224e:	80 83       	st	Z, r24
    2250:	c4 30       	cpi	r28, 0x04	; 4
    2252:	61 f5       	brne	.+88     	; 0x22ac <NRF24L01_Receive+0x274>
    2254:	ec e3       	ldi	r30, 0x3C	; 60
    2256:	f2 e0       	ldi	r31, 0x02	; 2
    2258:	01 90       	ld	r0, Z+
    225a:	00 20       	and	r0, r0
    225c:	e9 f7       	brne	.-6      	; 0x2258 <NRF24L01_Receive+0x220>
    225e:	31 97       	sbiw	r30, 0x01	; 1
    2260:	af 01       	movw	r20, r30
    2262:	4c 53       	subi	r20, 0x3C	; 60
    2264:	52 40       	sbci	r21, 0x02	; 2
    2266:	44 0f       	add	r20, r20
    2268:	55 1f       	adc	r21, r21
    226a:	60 e0       	ldi	r22, 0x00	; 0
    226c:	70 e0       	ldi	r23, 0x00	; 0
    226e:	8c e3       	ldi	r24, 0x3C	; 60
    2270:	92 e0       	ldi	r25, 0x02	; 2
    2272:	0e 94 1d 26 	call	0x4c3a	; 0x4c3a <memset>
    2276:	20 e0       	ldi	r18, 0x00	; 0
    2278:	0b c0       	rjmp	.+22     	; 0x2290 <NRF24L01_Receive+0x258>
    227a:	82 2f       	mov	r24, r18
    227c:	90 e0       	ldi	r25, 0x00	; 0
    227e:	fc 01       	movw	r30, r24
    2280:	e2 57       	subi	r30, 0x72	; 114
    2282:	f9 4f       	sbci	r31, 0xF9	; 249
    2284:	30 81       	ld	r19, Z
    2286:	fc 01       	movw	r30, r24
    2288:	e4 5c       	subi	r30, 0xC4	; 196
    228a:	fd 4f       	sbci	r31, 0xFD	; 253
    228c:	30 83       	st	Z, r19
    228e:	2f 5f       	subi	r18, 0xFF	; 255
    2290:	82 2f       	mov	r24, r18
    2292:	90 e0       	ldi	r25, 0x00	; 0
    2294:	ed e8       	ldi	r30, 0x8D	; 141
    2296:	f6 e0       	ldi	r31, 0x06	; 6
    2298:	01 90       	ld	r0, Z+
    229a:	00 20       	and	r0, r0
    229c:	e9 f7       	brne	.-6      	; 0x2298 <NRF24L01_Receive+0x260>
    229e:	31 97       	sbiw	r30, 0x01	; 1
    22a0:	ed 58       	subi	r30, 0x8D	; 141
    22a2:	f6 40       	sbci	r31, 0x06	; 6
    22a4:	31 97       	sbiw	r30, 0x01	; 1
    22a6:	8e 17       	cp	r24, r30
    22a8:	9f 07       	cpc	r25, r31
    22aa:	38 f3       	brcs	.-50     	; 0x227a <NRF24L01_Receive+0x242>
    22ac:	c6 30       	cpi	r28, 0x06	; 6
    22ae:	61 f5       	brne	.+88     	; 0x2308 <NRF24L01_Receive+0x2d0>
    22b0:	e2 e3       	ldi	r30, 0x32	; 50
    22b2:	f2 e0       	ldi	r31, 0x02	; 2
    22b4:	01 90       	ld	r0, Z+
    22b6:	00 20       	and	r0, r0
    22b8:	e9 f7       	brne	.-6      	; 0x22b4 <NRF24L01_Receive+0x27c>
    22ba:	31 97       	sbiw	r30, 0x01	; 1
    22bc:	af 01       	movw	r20, r30
    22be:	42 53       	subi	r20, 0x32	; 50
    22c0:	52 40       	sbci	r21, 0x02	; 2
    22c2:	44 0f       	add	r20, r20
    22c4:	55 1f       	adc	r21, r21
    22c6:	60 e0       	ldi	r22, 0x00	; 0
    22c8:	70 e0       	ldi	r23, 0x00	; 0
    22ca:	82 e3       	ldi	r24, 0x32	; 50
    22cc:	92 e0       	ldi	r25, 0x02	; 2
    22ce:	0e 94 1d 26 	call	0x4c3a	; 0x4c3a <memset>
    22d2:	20 e0       	ldi	r18, 0x00	; 0
    22d4:	0b c0       	rjmp	.+22     	; 0x22ec <NRF24L01_Receive+0x2b4>
    22d6:	82 2f       	mov	r24, r18
    22d8:	90 e0       	ldi	r25, 0x00	; 0
    22da:	fc 01       	movw	r30, r24
    22dc:	e2 57       	subi	r30, 0x72	; 114
    22de:	f9 4f       	sbci	r31, 0xF9	; 249
    22e0:	30 81       	ld	r19, Z
    22e2:	fc 01       	movw	r30, r24
    22e4:	ee 5c       	subi	r30, 0xCE	; 206
    22e6:	fd 4f       	sbci	r31, 0xFD	; 253
    22e8:	30 83       	st	Z, r19
    22ea:	2f 5f       	subi	r18, 0xFF	; 255
    22ec:	82 2f       	mov	r24, r18
    22ee:	90 e0       	ldi	r25, 0x00	; 0
    22f0:	ed e8       	ldi	r30, 0x8D	; 141
    22f2:	f6 e0       	ldi	r31, 0x06	; 6
    22f4:	01 90       	ld	r0, Z+
    22f6:	00 20       	and	r0, r0
    22f8:	e9 f7       	brne	.-6      	; 0x22f4 <NRF24L01_Receive+0x2bc>
    22fa:	31 97       	sbiw	r30, 0x01	; 1
    22fc:	ed 58       	subi	r30, 0x8D	; 141
    22fe:	f6 40       	sbci	r31, 0x06	; 6
    2300:	31 97       	sbiw	r30, 0x01	; 1
    2302:	8e 17       	cp	r24, r30
    2304:	9f 07       	cpc	r25, r31
    2306:	38 f3       	brcs	.-50     	; 0x22d6 <NRF24L01_Receive+0x29e>
    2308:	10 92 8c 06 	sts	0x068C, r1	; 0x80068c <rx_flag>
    230c:	df 91       	pop	r29
    230e:	cf 91       	pop	r28
    2310:	08 95       	ret

00002312 <NRF24_FlushRX>:
    2312:	85 b1       	in	r24, 0x05	; 5
    2314:	8b 7f       	andi	r24, 0xFB	; 251
    2316:	85 b9       	out	0x05, r24	; 5
    2318:	82 ee       	ldi	r24, 0xE2	; 226
    231a:	90 e0       	ldi	r25, 0x00	; 0
    231c:	0e 94 c4 0f 	call	0x1f88	; 0x1f88 <spi_send_recv>
    2320:	82 e0       	ldi	r24, 0x02	; 2
    2322:	8a 95       	dec	r24
    2324:	f1 f7       	brne	.-4      	; 0x2322 <NRF24_FlushRX+0x10>
    2326:	00 c0       	rjmp	.+0      	; 0x2328 <NRF24_FlushRX+0x16>
    2328:	85 b1       	in	r24, 0x05	; 5
    232a:	84 60       	ori	r24, 0x04	; 4
    232c:	85 b9       	out	0x05, r24	; 5
    232e:	08 95       	ret

00002330 <NRF24_FlushTX>:
    2330:	85 b1       	in	r24, 0x05	; 5
    2332:	8b 7f       	andi	r24, 0xFB	; 251
    2334:	85 b9       	out	0x05, r24	; 5
    2336:	81 ee       	ldi	r24, 0xE1	; 225
    2338:	90 e0       	ldi	r25, 0x00	; 0
    233a:	0e 94 c4 0f 	call	0x1f88	; 0x1f88 <spi_send_recv>
    233e:	82 e0       	ldi	r24, 0x02	; 2
    2340:	8a 95       	dec	r24
    2342:	f1 f7       	brne	.-4      	; 0x2340 <NRF24_FlushTX+0x10>
    2344:	00 c0       	rjmp	.+0      	; 0x2346 <NRF24_FlushTX+0x16>
    2346:	85 b1       	in	r24, 0x05	; 5
    2348:	84 60       	ori	r24, 0x04	; 4
    234a:	85 b9       	out	0x05, r24	; 5
    234c:	08 95       	ret

0000234e <NRF24_ToggleFeatures>:
    234e:	85 b1       	in	r24, 0x05	; 5
    2350:	8b 7f       	andi	r24, 0xFB	; 251
    2352:	85 b9       	out	0x05, r24	; 5
    2354:	80 e5       	ldi	r24, 0x50	; 80
    2356:	90 e0       	ldi	r25, 0x00	; 0
    2358:	0e 94 c4 0f 	call	0x1f88	; 0x1f88 <spi_send_recv>
    235c:	82 e0       	ldi	r24, 0x02	; 2
    235e:	8a 95       	dec	r24
    2360:	f1 f7       	brne	.-4      	; 0x235e <NRF24_ToggleFeatures+0x10>
    2362:	00 c0       	rjmp	.+0      	; 0x2364 <NRF24_ToggleFeatures+0x16>
    2364:	83 e7       	ldi	r24, 0x73	; 115
    2366:	90 e0       	ldi	r25, 0x00	; 0
    2368:	0e 94 c4 0f 	call	0x1f88	; 0x1f88 <spi_send_recv>
    236c:	85 b1       	in	r24, 0x05	; 5
    236e:	84 60       	ori	r24, 0x04	; 4
    2370:	85 b9       	out	0x05, r24	; 5
    2372:	08 95       	ret

00002374 <NRF24_Read_Buf>:
    2374:	ef 92       	push	r14
    2376:	ff 92       	push	r15
    2378:	0f 93       	push	r16
    237a:	1f 93       	push	r17
    237c:	cf 93       	push	r28
    237e:	df 93       	push	r29
    2380:	8b 01       	movw	r16, r22
    2382:	c4 2f       	mov	r28, r20
    2384:	95 b1       	in	r25, 0x05	; 5
    2386:	9b 7f       	andi	r25, 0xFB	; 251
    2388:	95 b9       	out	0x05, r25	; 5
    238a:	90 e0       	ldi	r25, 0x00	; 0
    238c:	0e 94 c4 0f 	call	0x1f88	; 0x1f88 <spi_send_recv>
    2390:	0c c0       	rjmp	.+24     	; 0x23aa <NRF24_Read_Buf+0x36>
    2392:	78 01       	movw	r14, r16
    2394:	8f ef       	ldi	r24, 0xFF	; 255
    2396:	e8 1a       	sub	r14, r24
    2398:	f8 0a       	sbc	r15, r24
    239a:	8f ef       	ldi	r24, 0xFF	; 255
    239c:	90 e0       	ldi	r25, 0x00	; 0
    239e:	0e 94 c4 0f 	call	0x1f88	; 0x1f88 <spi_send_recv>
    23a2:	f8 01       	movw	r30, r16
    23a4:	80 83       	st	Z, r24
    23a6:	cd 2f       	mov	r28, r29
    23a8:	87 01       	movw	r16, r14
    23aa:	df ef       	ldi	r29, 0xFF	; 255
    23ac:	dc 0f       	add	r29, r28
    23ae:	c1 11       	cpse	r28, r1
    23b0:	f0 cf       	rjmp	.-32     	; 0x2392 <NRF24_Read_Buf+0x1e>
    23b2:	85 b1       	in	r24, 0x05	; 5
    23b4:	84 60       	ori	r24, 0x04	; 4
    23b6:	85 b9       	out	0x05, r24	; 5
    23b8:	df 91       	pop	r29
    23ba:	cf 91       	pop	r28
    23bc:	1f 91       	pop	r17
    23be:	0f 91       	pop	r16
    23c0:	ff 90       	pop	r15
    23c2:	ef 90       	pop	r14
    23c4:	08 95       	ret

000023c6 <NRF24_Write_Buf>:
    23c6:	ef 92       	push	r14
    23c8:	ff 92       	push	r15
    23ca:	0f 93       	push	r16
    23cc:	1f 93       	push	r17
    23ce:	cf 93       	push	r28
    23d0:	df 93       	push	r29
    23d2:	8b 01       	movw	r16, r22
    23d4:	c4 2f       	mov	r28, r20
    23d6:	80 62       	ori	r24, 0x20	; 32
    23d8:	95 b1       	in	r25, 0x05	; 5
    23da:	9b 7f       	andi	r25, 0xFB	; 251
    23dc:	95 b9       	out	0x05, r25	; 5
    23de:	90 e0       	ldi	r25, 0x00	; 0
    23e0:	0e 94 c4 0f 	call	0x1f88	; 0x1f88 <spi_send_recv>
    23e4:	82 e0       	ldi	r24, 0x02	; 2
    23e6:	8a 95       	dec	r24
    23e8:	f1 f7       	brne	.-4      	; 0x23e6 <NRF24_Write_Buf+0x20>
    23ea:	00 c0       	rjmp	.+0      	; 0x23ec <NRF24_Write_Buf+0x26>
    23ec:	0b c0       	rjmp	.+22     	; 0x2404 <NRF24_Write_Buf+0x3e>
    23ee:	78 01       	movw	r14, r16
    23f0:	ef ef       	ldi	r30, 0xFF	; 255
    23f2:	ee 1a       	sub	r14, r30
    23f4:	fe 0a       	sbc	r15, r30
    23f6:	f8 01       	movw	r30, r16
    23f8:	80 81       	ld	r24, Z
    23fa:	90 e0       	ldi	r25, 0x00	; 0
    23fc:	0e 94 c4 0f 	call	0x1f88	; 0x1f88 <spi_send_recv>
    2400:	cd 2f       	mov	r28, r29
    2402:	87 01       	movw	r16, r14
    2404:	df ef       	ldi	r29, 0xFF	; 255
    2406:	dc 0f       	add	r29, r28
    2408:	c1 11       	cpse	r28, r1
    240a:	f1 cf       	rjmp	.-30     	; 0x23ee <NRF24_Write_Buf+0x28>
    240c:	85 b1       	in	r24, 0x05	; 5
    240e:	84 60       	ori	r24, 0x04	; 4
    2410:	85 b9       	out	0x05, r24	; 5
    2412:	df 91       	pop	r29
    2414:	cf 91       	pop	r28
    2416:	1f 91       	pop	r17
    2418:	0f 91       	pop	r16
    241a:	ff 90       	pop	r15
    241c:	ef 90       	pop	r14
    241e:	08 95       	ret

00002420 <nRF_write_register>:
}
//-------------------------------------------------------------
void nRF_write_register(uint8_t reg, uint8_t data_out)
{
    2420:	cf 93       	push	r28
    2422:	c6 2f       	mov	r28, r22
	reg |= W_REGISTER;
    2424:	80 62       	ori	r24, 0x20	; 32
	LOW_CSN;
    2426:	95 b1       	in	r25, 0x05	; 5
    2428:	9b 7f       	andi	r25, 0xFB	; 251
    242a:	95 b9       	out	0x05, r25	; 5
	spi_send_recv(reg);
    242c:	90 e0       	ldi	r25, 0x00	; 0
    242e:	0e 94 c4 0f 	call	0x1f88	; 0x1f88 <spi_send_recv>
	spi_send_recv(data_out);
    2432:	8c 2f       	mov	r24, r28
    2434:	90 e0       	ldi	r25, 0x00	; 0
    2436:	0e 94 c4 0f 	call	0x1f88	; 0x1f88 <spi_send_recv>
	HIGH_CSN;
    243a:	85 b1       	in	r24, 0x05	; 5
    243c:	84 60       	ori	r24, 0x04	; 4
    243e:	85 b9       	out	0x05, r24	; 5
}
    2440:	cf 91       	pop	r28
    2442:	08 95       	ret

00002444 <nRF_read_register>:
//-------------------------------------------------------------
uint8_t nRF_read_register(uint8_t reg)
{
    2444:	cf 93       	push	r28
    2446:	c8 2f       	mov	r28, r24
	uint8_t data_in;
	LOW_CSN;
    2448:	85 b1       	in	r24, 0x05	; 5
    244a:	8b 7f       	andi	r24, 0xFB	; 251
    244c:	85 b9       	out	0x05, r24	; 5
	data_in = spi_send_recv(reg);
    244e:	8c 2f       	mov	r24, r28
    2450:	90 e0       	ldi	r25, 0x00	; 0
    2452:	0e 94 c4 0f 	call	0x1f88	; 0x1f88 <spi_send_recv>
	if(reg != STATUS)
    2456:	c7 30       	cpi	r28, 0x07	; 7
    2458:	21 f0       	breq	.+8      	; 0x2462 <nRF_read_register+0x1e>
	{
		data_in = spi_send_recv(NOP);
    245a:	8f ef       	ldi	r24, 0xFF	; 255
    245c:	90 e0       	ldi	r25, 0x00	; 0
    245e:	0e 94 c4 0f 	call	0x1f88	; 0x1f88 <spi_send_recv>
	}
	HIGH_CSN;
    2462:	95 b1       	in	r25, 0x05	; 5
    2464:	94 60       	ori	r25, 0x04	; 4
    2466:	95 b9       	out	0x05, r25	; 5
	return data_in;
}
    2468:	cf 91       	pop	r28
    246a:	08 95       	ret

0000246c <__vector_1>:
		//memset(RX_BUF, 0, sizeof(int) * strlen(RX_BUF));//очистка массива
		rx_flag = 0;
	}
}
ISR(INT0_vect)
{
    246c:	1f 92       	push	r1
    246e:	0f 92       	push	r0
    2470:	0f b6       	in	r0, 0x3f	; 63
    2472:	0f 92       	push	r0
    2474:	11 24       	eor	r1, r1
    2476:	2f 93       	push	r18
    2478:	3f 93       	push	r19
    247a:	4f 93       	push	r20
    247c:	5f 93       	push	r21
    247e:	6f 93       	push	r22
    2480:	7f 93       	push	r23
    2482:	8f 93       	push	r24
    2484:	9f 93       	push	r25
    2486:	af 93       	push	r26
    2488:	bf 93       	push	r27
    248a:	ef 93       	push	r30
    248c:	ff 93       	push	r31
	#else
		//round up by default
		__ticks_dc = (uint32_t)(ceil(fabs(__tmp)));
	#endif

	__builtin_avr_delay_cycles(__ticks_dc);
    248e:	87 e5       	ldi	r24, 0x57	; 87
    2490:	92 e0       	ldi	r25, 0x02	; 2
    2492:	01 97       	sbiw	r24, 0x01	; 1
    2494:	f1 f7       	brne	.-4      	; 0x2492 <__vector_1+0x26>
    2496:	00 c0       	rjmp	.+0      	; 0x2498 <__vector_1+0x2c>
    2498:	00 00       	nop
	uint8_t status=0x01;
	uint8_t pipe;
	_delay_us(300);
	PORTD |= (1<<LED);
    249a:	8b b1       	in	r24, 0x0b	; 11
    249c:	80 61       	ori	r24, 0x10	; 16
    249e:	8b b9       	out	0x0b, r24	; 11
    24a0:	87 e5       	ldi	r24, 0x57	; 87
    24a2:	92 e0       	ldi	r25, 0x02	; 2
    24a4:	01 97       	sbiw	r24, 0x01	; 1
    24a6:	f1 f7       	brne	.-4      	; 0x24a4 <__vector_1+0x38>
    24a8:	00 c0       	rjmp	.+0      	; 0x24aa <__vector_1+0x3e>
    24aa:	00 00       	nop
	_delay_us(300);
	PORTD &= ~(1<<LED);
    24ac:	8b b1       	in	r24, 0x0b	; 11
    24ae:	8f 7e       	andi	r24, 0xEF	; 239
    24b0:	8b b9       	out	0x0b, r24	; 11
	status = nRF_read_register(STATUS);
    24b2:	87 e0       	ldi	r24, 0x07	; 7
    24b4:	0e 94 22 12 	call	0x2444	; 0x2444 <nRF_read_register>
	if(status & 0x40)
    24b8:	86 ff       	sbrs	r24, 6
    24ba:	0a c0       	rjmp	.+20     	; 0x24d0 <__vector_1+0x64>
	{
		NRF24_Read_Buf(R_RX_PAYLOAD,RX_BUF,TX_PLOAD_WIDTH);
    24bc:	45 e0       	ldi	r20, 0x05	; 5
    24be:	6d e8       	ldi	r22, 0x8D	; 141
    24c0:	76 e0       	ldi	r23, 0x06	; 6
    24c2:	81 e6       	ldi	r24, 0x61	; 97
    24c4:	0e 94 ba 11 	call	0x2374	; 0x2374 <NRF24_Read_Buf>
		nRF_write_register(STATUS, 0x40);
    24c8:	60 e4       	ldi	r22, 0x40	; 64
    24ca:	87 e0       	ldi	r24, 0x07	; 7
    24cc:	0e 94 10 12 	call	0x2420	; 0x2420 <nRF_write_register>
	}
	 rx_flag = 1;
    24d0:	81 e0       	ldi	r24, 0x01	; 1
    24d2:	80 93 8c 06 	sts	0x068C, r24	; 0x80068c <rx_flag>
	 NRF24L01_Receive();
    24d6:	0e 94 1c 10 	call	0x2038	; 0x2038 <NRF24L01_Receive>
}
    24da:	ff 91       	pop	r31
    24dc:	ef 91       	pop	r30
    24de:	bf 91       	pop	r27
    24e0:	af 91       	pop	r26
    24e2:	9f 91       	pop	r25
    24e4:	8f 91       	pop	r24
    24e6:	7f 91       	pop	r23
    24e8:	6f 91       	pop	r22
    24ea:	5f 91       	pop	r21
    24ec:	4f 91       	pop	r20
    24ee:	3f 91       	pop	r19
    24f0:	2f 91       	pop	r18
    24f2:	0f 90       	pop	r0
    24f4:	0f be       	out	0x3f, r0	; 63
    24f6:	0f 90       	pop	r0
    24f8:	1f 90       	pop	r1
    24fa:	18 95       	reti

000024fc <NRF24L01_RX_Mode>:
}
//-------------------------------------------------------------
void NRF24L01_RX_Mode(void) // включение режима приема
{
	uint8_t regval = 0x00;
	regval = nRF_read_register(CONFIG);
    24fc:	80 e0       	ldi	r24, 0x00	; 0
    24fe:	0e 94 22 12 	call	0x2444	; 0x2444 <nRF_read_register>
	//разбудим модуль и переведём его в режим приёмника, включив биты PWR_UP и PRIM_RX
	regval |= (1<<PWR_UP)|(1<<PRIM_RX);
    2502:	68 2f       	mov	r22, r24
    2504:	63 60       	ori	r22, 0x03	; 3
	nRF_write_register(CONFIG,regval);
    2506:	80 e0       	ldi	r24, 0x00	; 0
    2508:	0e 94 10 12 	call	0x2420	; 0x2420 <nRF_write_register>
	HIGH_CE;
    250c:	85 b1       	in	r24, 0x05	; 5
    250e:	82 60       	ori	r24, 0x02	; 2
    2510:	85 b9       	out	0x05, r24	; 5
    2512:	8b e2       	ldi	r24, 0x2B	; 43
    2514:	91 e0       	ldi	r25, 0x01	; 1
    2516:	01 97       	sbiw	r24, 0x01	; 1
    2518:	f1 f7       	brne	.-4      	; 0x2516 <NRF24L01_RX_Mode+0x1a>
    251a:	00 c0       	rjmp	.+0      	; 0x251c <NRF24L01_RX_Mode+0x20>
    251c:	00 00       	nop
	_delay_us(150); //Задержка минимум 130 мкс
	// Flush buffers
	NRF24_FlushRX();
    251e:	0e 94 89 11 	call	0x2312	; 0x2312 <NRF24_FlushRX>
	NRF24_FlushTX();
    2522:	0e 94 98 11 	call	0x2330	; 0x2330 <NRF24_FlushTX>
    2526:	08 95       	ret

00002528 <NRF24_ini>:
volatile uint8_t rx_flag = 0;
extern uint8_t Frame_buffer[1024];
//-------------------------------------------------------------
void NRF24_ini(void)
{
	LOW_CE;
    2528:	85 b1       	in	r24, 0x05	; 5
    252a:	8d 7f       	andi	r24, 0xFD	; 253
    252c:	85 b9       	out	0x05, r24	; 5
	#else
		//round up by default
		__ticks_dc = (uint32_t)(ceil(fabs(__tmp)));
	#endif

	__builtin_avr_delay_cycles(__ticks_dc);
    252e:	8f e0       	ldi	r24, 0x0F	; 15
    2530:	97 e2       	ldi	r25, 0x27	; 39
    2532:	01 97       	sbiw	r24, 0x01	; 1
    2534:	f1 f7       	brne	.-4      	; 0x2532 <NRF24_ini+0xa>
    2536:	00 c0       	rjmp	.+0      	; 0x2538 <NRF24_ini+0x10>
    2538:	00 00       	nop
	_delay_ms(5);
	nRF_write_register(CONFIG, 0x0a); // Set PWR_UP bit, enable CRC(1 byte) &Prim_RX:0 (Transmitter)
    253a:	6a e0       	ldi	r22, 0x0A	; 10
    253c:	80 e0       	ldi	r24, 0x00	; 0
    253e:	0e 94 10 12 	call	0x2420	; 0x2420 <nRF_write_register>
    2542:	8f e0       	ldi	r24, 0x0F	; 15
    2544:	97 e2       	ldi	r25, 0x27	; 39
    2546:	01 97       	sbiw	r24, 0x01	; 1
    2548:	f1 f7       	brne	.-4      	; 0x2546 <NRF24_ini+0x1e>
    254a:	00 c0       	rjmp	.+0      	; 0x254c <NRF24_ini+0x24>
    254c:	00 00       	nop
	_delay_ms(5);
	nRF_write_register(EN_AA, 0x02); // Enable Pipe1
    254e:	62 e0       	ldi	r22, 0x02	; 2
    2550:	81 e0       	ldi	r24, 0x01	; 1
    2552:	0e 94 10 12 	call	0x2420	; 0x2420 <nRF_write_register>
	nRF_write_register(EN_RXADDR, 0x02); // Enable Pipe1
    2556:	62 e0       	ldi	r22, 0x02	; 2
    2558:	82 e0       	ldi	r24, 0x02	; 2
    255a:	0e 94 10 12 	call	0x2420	; 0x2420 <nRF_write_register>
	nRF_write_register(SETUP_AW, 0x01); // Setup address width=3 bytes
    255e:	61 e0       	ldi	r22, 0x01	; 1
    2560:	83 e0       	ldi	r24, 0x03	; 3
    2562:	0e 94 10 12 	call	0x2420	; 0x2420 <nRF_write_register>
	nRF_write_register(SETUP_RETR, 0x5F); // // 1500us, 15 retrans
    2566:	6f e5       	ldi	r22, 0x5F	; 95
    2568:	84 e0       	ldi	r24, 0x04	; 4
    256a:	0e 94 10 12 	call	0x2420	; 0x2420 <nRF_write_register>
	NRF24_ToggleFeatures();
    256e:	0e 94 a7 11 	call	0x234e	; 0x234e <NRF24_ToggleFeatures>
	nRF_write_register(FEATURE, 0);
    2572:	60 e0       	ldi	r22, 0x00	; 0
    2574:	8d e1       	ldi	r24, 0x1D	; 29
    2576:	0e 94 10 12 	call	0x2420	; 0x2420 <nRF_write_register>
	nRF_write_register(DYNPD, 0);
    257a:	60 e0       	ldi	r22, 0x00	; 0
    257c:	8c e1       	ldi	r24, 0x1C	; 28
    257e:	0e 94 10 12 	call	0x2420	; 0x2420 <nRF_write_register>
	nRF_write_register(STATUS, 0x70);//Reset flags for IRQ
    2582:	60 e7       	ldi	r22, 0x70	; 112
    2584:	87 e0       	ldi	r24, 0x07	; 7
    2586:	0e 94 10 12 	call	0x2420	; 0x2420 <nRF_write_register>
	nRF_write_register(RF_CH, 76); // частота 2476 MHz
    258a:	6c e4       	ldi	r22, 0x4C	; 76
    258c:	85 e0       	ldi	r24, 0x05	; 5
    258e:	0e 94 10 12 	call	0x2420	; 0x2420 <nRF_write_register>
	nRF_write_register(RF_SETUP, 0x06); //TX_PWR:0dBm, Datarate:1Mbps
    2592:	66 e0       	ldi	r22, 0x06	; 6
    2594:	86 e0       	ldi	r24, 0x06	; 6
    2596:	0e 94 10 12 	call	0x2420	; 0x2420 <nRF_write_register>
	NRF24_Write_Buf(TX_ADDR, TX_ADDRESS, TX_ADR_WIDTH);
    259a:	43 e0       	ldi	r20, 0x03	; 3
    259c:	62 e0       	ldi	r22, 0x02	; 2
    259e:	71 e0       	ldi	r23, 0x01	; 1
    25a0:	80 e1       	ldi	r24, 0x10	; 16
    25a2:	0e 94 e3 11 	call	0x23c6	; 0x23c6 <NRF24_Write_Buf>
	NRF24_Write_Buf(RX_ADDR_P1, TX_ADDRESS, TX_ADR_WIDTH);
    25a6:	43 e0       	ldi	r20, 0x03	; 3
    25a8:	62 e0       	ldi	r22, 0x02	; 2
    25aa:	71 e0       	ldi	r23, 0x01	; 1
    25ac:	8b e0       	ldi	r24, 0x0B	; 11
    25ae:	0e 94 e3 11 	call	0x23c6	; 0x23c6 <NRF24_Write_Buf>
	nRF_write_register(RX_PW_P1, TX_PLOAD_WIDTH); //Number of bytes in RX payload in data pipe 1
    25b2:	65 e0       	ldi	r22, 0x05	; 5
    25b4:	82 e1       	ldi	r24, 0x12	; 18
    25b6:	0e 94 10 12 	call	0x2420	; 0x2420 <nRF_write_register>
	//пока уходим в режим приёмника
	NRF24L01_RX_Mode();
    25ba:	0e 94 7e 12 	call	0x24fc	; 0x24fc <NRF24L01_RX_Mode>
    25be:	08 95       	ret

000025c0 <RTC_ConvertFromDec>:
	unsigned char ch = ((c/10)<<4)|(c%10);
	return ch;
}
unsigned char RTC_ConvertFromDec(unsigned char c)//перевод в десятичный формат
{
	unsigned char ch = ((c>>4)*10+(0b00001111&c));
    25c0:	98 2f       	mov	r25, r24
    25c2:	92 95       	swap	r25
    25c4:	9f 70       	andi	r25, 0x0F	; 15
    25c6:	99 0f       	add	r25, r25
    25c8:	29 2f       	mov	r18, r25
    25ca:	22 0f       	add	r18, r18
    25cc:	22 0f       	add	r18, r18
    25ce:	92 0f       	add	r25, r18
    25d0:	8f 70       	andi	r24, 0x0F	; 15
	return ch;
}
    25d2:	89 0f       	add	r24, r25
    25d4:	08 95       	ret

000025d6 <RTC_init>:
// инициализация начальных установок
void RTC_init(void){
	I2C_StartCondition();               // запуск i2c
    25d6:	0e 94 00 13 	call	0x2600	; 0x2600 <I2C_StartCondition>
	I2C_SendByte(0b11010000);   // передача адреса устройства, режим записи
    25da:	80 ed       	ldi	r24, 0xD0	; 208
    25dc:	0e 94 0c 13 	call	0x2618	; 0x2618 <I2C_SendByte>
	I2C_SendByte(0x0E);            // передача адреса памяти
    25e0:	8e e0       	ldi	r24, 0x0E	; 14
    25e2:	0e 94 0c 13 	call	0x2618	; 0x2618 <I2C_SendByte>
	I2C_SendByte(0b00100000);      // запустить преобразование температуры и выход на 1 Гц
    25e6:	80 e2       	ldi	r24, 0x20	; 32
    25e8:	0e 94 0c 13 	call	0x2618	; 0x2618 <I2C_SendByte>
	I2C_SendByte(0b00001000);      // разрешить выход 32 кГц
    25ec:	88 e0       	ldi	r24, 0x08	; 8
    25ee:	0e 94 0c 13 	call	0x2618	; 0x2618 <I2C_SendByte>
	I2C_StopCondition();                // остановка i2c
    25f2:	0e 94 08 13 	call	0x2610	; 0x2610 <I2C_StopCondition>
    25f6:	08 95       	ret

000025f8 <I2C_Init>:
{
    I2C_StartCondition(); // Отправим условие START
	I2C_SendByte(addr); // Отправим в шину адрес устройства + бит чтения-записи
	I2C_SendByte(c);// Отправим байт данных
	I2C_StopCondition();// Отправим условие STOP
}
    25f8:	80 e2       	ldi	r24, 0x20	; 32
    25fa:	80 93 b8 00 	sts	0x00B8, r24	; 0x8000b8 <__TEXT_REGION_LENGTH__+0x7f80b8>
    25fe:	08 95       	ret

00002600 <I2C_StartCondition>:
    2600:	84 ea       	ldi	r24, 0xA4	; 164
    2602:	80 93 bc 00 	sts	0x00BC, r24	; 0x8000bc <__TEXT_REGION_LENGTH__+0x7f80bc>
    2606:	80 91 bc 00 	lds	r24, 0x00BC	; 0x8000bc <__TEXT_REGION_LENGTH__+0x7f80bc>
    260a:	88 23       	and	r24, r24
    260c:	e4 f7       	brge	.-8      	; 0x2606 <I2C_StartCondition+0x6>
    260e:	08 95       	ret

00002610 <I2C_StopCondition>:
    2610:	84 e9       	ldi	r24, 0x94	; 148
    2612:	80 93 bc 00 	sts	0x00BC, r24	; 0x8000bc <__TEXT_REGION_LENGTH__+0x7f80bc>
    2616:	08 95       	ret

00002618 <I2C_SendByte>:
    2618:	80 93 bb 00 	sts	0x00BB, r24	; 0x8000bb <__TEXT_REGION_LENGTH__+0x7f80bb>
    261c:	84 e8       	ldi	r24, 0x84	; 132
    261e:	80 93 bc 00 	sts	0x00BC, r24	; 0x8000bc <__TEXT_REGION_LENGTH__+0x7f80bc>
    2622:	80 91 bc 00 	lds	r24, 0x00BC	; 0x8000bc <__TEXT_REGION_LENGTH__+0x7f80bc>
    2626:	88 23       	and	r24, r24
    2628:	e4 f7       	brge	.-8      	; 0x2622 <I2C_SendByte+0xa>
    262a:	08 95       	ret

0000262c <I2C_ReadByte>:
unsigned char I2C_ReadByte(void)
{
	TWCR = (1<<TWINT)|(1<<TWEN)|(1<<TWEA);
    262c:	84 ec       	ldi	r24, 0xC4	; 196
    262e:	80 93 bc 00 	sts	0x00BC, r24	; 0x8000bc <__TEXT_REGION_LENGTH__+0x7f80bc>
	while (!(TWCR & (1<<TWINT)));//ожидание установки бита TWIN
    2632:	80 91 bc 00 	lds	r24, 0x00BC	; 0x8000bc <__TEXT_REGION_LENGTH__+0x7f80bc>
    2636:	88 23       	and	r24, r24
    2638:	e4 f7       	brge	.-8      	; 0x2632 <I2C_ReadByte+0x6>
	return TWDR;//читаем регистр данных
    263a:	80 91 bb 00 	lds	r24, 0x00BB	; 0x8000bb <__TEXT_REGION_LENGTH__+0x7f80bb>
}
    263e:	08 95       	ret

00002640 <I2C_ReadLastByte>:
unsigned char I2C_ReadLastByte(void)
{
	TWCR = (1<<TWINT)|(1<<TWEN);
    2640:	84 e8       	ldi	r24, 0x84	; 132
    2642:	80 93 bc 00 	sts	0x00BC, r24	; 0x8000bc <__TEXT_REGION_LENGTH__+0x7f80bc>
	while (!(TWCR & (1<<TWINT)));//ожидание установки бита TWIN
    2646:	80 91 bc 00 	lds	r24, 0x00BC	; 0x8000bc <__TEXT_REGION_LENGTH__+0x7f80bc>
    264a:	88 23       	and	r24, r24
    264c:	e4 f7       	brge	.-8      	; 0x2646 <I2C_ReadLastByte+0x6>
	return TWDR;//читаем регистр данных
    264e:	80 91 bb 00 	lds	r24, 0x00BB	; 0x8000bb <__TEXT_REGION_LENGTH__+0x7f80bb>
    2652:	08 95       	ret

00002654 <USART_Init>:
 */ 
#include "usart.h"

void USART_Init( unsigned int speed)//Инициализация модуля USART
{	
  UBRR0H = (unsigned char)(speed>>8);
    2654:	90 93 c5 00 	sts	0x00C5, r25	; 0x8000c5 <__TEXT_REGION_LENGTH__+0x7f80c5>
  UBRR0L = (unsigned char)speed;
    2658:	80 93 c4 00 	sts	0x00C4, r24	; 0x8000c4 <__TEXT_REGION_LENGTH__+0x7f80c4>
  UCSR0B=(1<<RXEN0)|( 1<<TXEN0); //Включаем прием и передачу по USART
    265c:	e1 ec       	ldi	r30, 0xC1	; 193
    265e:	f0 e0       	ldi	r31, 0x00	; 0
    2660:	88 e1       	ldi	r24, 0x18	; 24
    2662:	80 83       	st	Z, r24
  UCSR0B |= (1<<RXCIE0); //Разрешаем прерывание при приеме
    2664:	80 81       	ld	r24, Z
    2666:	80 68       	ori	r24, 0x80	; 128
    2668:	80 83       	st	Z, r24
  UCSR0A |= (1<<U2X0); // Для 8 мгц, удвоение скорости
    266a:	e0 ec       	ldi	r30, 0xC0	; 192
    266c:	f0 e0       	ldi	r31, 0x00	; 0
    266e:	80 81       	ld	r24, Z
    2670:	82 60       	ori	r24, 0x02	; 2
    2672:	80 83       	st	Z, r24
  UCSR0C |= (1<<USBS0)|(1<<UCSZ01)|(1<<UCSZ00);// Обращаемся именно к регистру UCSRC (URSEL=1),
    2674:	e2 ec       	ldi	r30, 0xC2	; 194
    2676:	f0 e0       	ldi	r31, 0x00	; 0
    2678:	80 81       	ld	r24, Z
    267a:	8e 60       	ori	r24, 0x0E	; 14
    267c:	80 83       	st	Z, r24
    267e:	08 95       	ret

00002680 <USART_Transmit>:
  //ассинхронный режим (UMSEL=0), без контроля четности (UPM1=0 и UPM0=0),
  //2 стоп-бит (USBS=1), 8-бит посылка (UCSZ1=1 и UCSZ0=1)
  //UCSRC |= (1<<UPM1);//четность
}
void USART_Transmit( char* data ) //Функция отправки данных
{
    2680:	dc 01       	movw	r26, r24
  uint8_t i;
  for (i = 0; i < strlen(data); i++)
    2682:	80 e0       	ldi	r24, 0x00	; 0
    2684:	0b c0       	rjmp	.+22     	; 0x269c <USART_Transmit+0x1c>
  {
	  while ( !(UCSR0A & (1<<UDRE0)) ); //Ожидание опустошения буфера приема
    2686:	90 91 c0 00 	lds	r25, 0x00C0	; 0x8000c0 <__TEXT_REGION_LENGTH__+0x7f80c0>
    268a:	95 ff       	sbrs	r25, 5
    268c:	fc cf       	rjmp	.-8      	; 0x2686 <USART_Transmit+0x6>
	  UDR0 = data[i]; //Начало передачи данных
    268e:	fd 01       	movw	r30, r26
    2690:	e2 0f       	add	r30, r18
    2692:	f3 1f       	adc	r31, r19
    2694:	90 81       	ld	r25, Z
    2696:	90 93 c6 00 	sts	0x00C6, r25	; 0x8000c6 <__TEXT_REGION_LENGTH__+0x7f80c6>
  //UCSRC |= (1<<UPM1);//четность
}
void USART_Transmit( char* data ) //Функция отправки данных
{
  uint8_t i;
  for (i = 0; i < strlen(data); i++)
    269a:	8f 5f       	subi	r24, 0xFF	; 255
    269c:	28 2f       	mov	r18, r24
    269e:	30 e0       	ldi	r19, 0x00	; 0
    26a0:	fd 01       	movw	r30, r26
    26a2:	01 90       	ld	r0, Z+
    26a4:	00 20       	and	r0, r0
    26a6:	e9 f7       	brne	.-6      	; 0x26a2 <USART_Transmit+0x22>
    26a8:	31 97       	sbiw	r30, 0x01	; 1
    26aa:	ea 1b       	sub	r30, r26
    26ac:	fb 0b       	sbc	r31, r27
    26ae:	2e 17       	cp	r18, r30
    26b0:	3f 07       	cpc	r19, r31
    26b2:	48 f3       	brcs	.-46     	; 0x2686 <USART_Transmit+0x6>
  {
	  while ( !(UCSR0A & (1<<UDRE0)) ); //Ожидание опустошения буфера приема
	  UDR0 = data[i]; //Начало передачи данных
  }

}
    26b4:	08 95       	ret

000026b6 <Print_Hello_World>:
	LCD_12864_Draw_pixel(113, 48);
	LCD_12864_Draw_pixel(113, 49);
	LCD_12864_Draw_pixel(114, 50);
	LCD_12864_Draw_pixel(112, 49);
	LCD_12864_Draw_pixel(111, 49);
	LCD_12864_Draw_pixel(110, 50);
    26b6:	cf 93       	push	r28
    26b8:	df 93       	push	r29
    26ba:	ec 01       	movw	r28, r24
    26bc:	81 e0       	ldi	r24, 0x01	; 1
    26be:	0e 94 bb 08 	call	0x1176	; 0x1176 <LCD_12864_GrapnicMode>
    26c2:	0e 94 ff 0c 	call	0x19fe	; 0x19fe <LCD_12864_Print_jpeg>
    26c6:	2e e0       	ldi	r18, 0x0E	; 14
    26c8:	31 e0       	ldi	r19, 0x01	; 1
    26ca:	40 e0       	ldi	r20, 0x00	; 0
    26cc:	60 e0       	ldi	r22, 0x00	; 0
    26ce:	88 e2       	ldi	r24, 0x28	; 40
    26d0:	90 e0       	ldi	r25, 0x00	; 0
    26d2:	0e 94 5d 0c 	call	0x18ba	; 0x18ba <LCD_12864_Decode_UTF8>
    26d6:	27 e1       	ldi	r18, 0x17	; 23
    26d8:	31 e0       	ldi	r19, 0x01	; 1
    26da:	40 e0       	ldi	r20, 0x00	; 0
    26dc:	67 e0       	ldi	r22, 0x07	; 7
    26de:	8e e1       	ldi	r24, 0x1E	; 30
    26e0:	90 e0       	ldi	r25, 0x00	; 0
    26e2:	0e 94 5d 0c 	call	0x18ba	; 0x18ba <LCD_12864_Decode_UTF8>
    26e6:	ce 01       	movw	r24, r28
    26e8:	0e 94 da 08 	call	0x11b4	; 0x11b4 <LCD_12864_Draw_bitmap>
    26ec:	80 e0       	ldi	r24, 0x00	; 0
    26ee:	0e 94 bb 08 	call	0x1176	; 0x1176 <LCD_12864_GrapnicMode>
    26f2:	2f ef       	ldi	r18, 0xFF	; 255
    26f4:	8d e3       	ldi	r24, 0x3D	; 61
    26f6:	99 e4       	ldi	r25, 0x49	; 73
    26f8:	21 50       	subi	r18, 0x01	; 1
    26fa:	80 40       	sbci	r24, 0x00	; 0
    26fc:	90 40       	sbci	r25, 0x00	; 0
    26fe:	e1 f7       	brne	.-8      	; 0x26f8 <Print_Hello_World+0x42>
    2700:	00 c0       	rjmp	.+0      	; 0x2702 <Print_Hello_World+0x4c>
    2702:	00 00       	nop
    2704:	df 91       	pop	r29
    2706:	cf 91       	pop	r28
    2708:	08 95       	ret

0000270a <Print_Download>:
    270a:	0f 93       	push	r16
    270c:	1f 93       	push	r17
    270e:	cf 93       	push	r28
    2710:	8c 01       	movw	r16, r24
    2712:	81 e0       	ldi	r24, 0x01	; 1
    2714:	0e 94 bb 08 	call	0x1176	; 0x1176 <LCD_12864_GrapnicMode>
    2718:	0e 94 23 0d 	call	0x1a46	; 0x1a46 <LCD_12864_Clean_Frame_buffer>
    271c:	2f e0       	ldi	r18, 0x0F	; 15
    271e:	30 e0       	ldi	r19, 0x00	; 0
    2720:	40 e7       	ldi	r20, 0x70	; 112
    2722:	50 e0       	ldi	r21, 0x00	; 0
    2724:	63 e2       	ldi	r22, 0x23	; 35
    2726:	70 e0       	ldi	r23, 0x00	; 0
    2728:	86 e0       	ldi	r24, 0x06	; 6
    272a:	90 e0       	ldi	r25, 0x00	; 0
    272c:	0e 94 8e 0d 	call	0x1b1c	; 0x1b1c <LCD_12864_Draw_rectangle>
    2730:	24 e2       	ldi	r18, 0x24	; 36
    2732:	31 e0       	ldi	r19, 0x01	; 1
    2734:	40 e0       	ldi	r20, 0x00	; 0
    2736:	61 e0       	ldi	r22, 0x01	; 1
    2738:	83 e0       	ldi	r24, 0x03	; 3
    273a:	90 e0       	ldi	r25, 0x00	; 0
    273c:	0e 94 5d 0c 	call	0x18ba	; 0x18ba <LCD_12864_Decode_UTF8>
    2740:	2a e3       	ldi	r18, 0x3A	; 58
    2742:	31 e0       	ldi	r19, 0x01	; 1
    2744:	40 e0       	ldi	r20, 0x00	; 0
    2746:	63 e0       	ldi	r22, 0x03	; 3
    2748:	80 e1       	ldi	r24, 0x10	; 16
    274a:	90 e0       	ldi	r25, 0x00	; 0
    274c:	0e 94 5d 0c 	call	0x18ba	; 0x18ba <LCD_12864_Decode_UTF8>
    2750:	c8 01       	movw	r24, r16
    2752:	0e 94 da 08 	call	0x11b4	; 0x11b4 <LCD_12864_Draw_bitmap>
    2756:	c8 e0       	ldi	r28, 0x08	; 8
    2758:	17 c0       	rjmp	.+46     	; 0x2788 <Print_Download+0x7e>
    275a:	2b e0       	ldi	r18, 0x0B	; 11
    275c:	30 e0       	ldi	r19, 0x00	; 0
    275e:	49 e0       	ldi	r20, 0x09	; 9
    2760:	50 e0       	ldi	r21, 0x00	; 0
    2762:	65 e2       	ldi	r22, 0x25	; 37
    2764:	70 e0       	ldi	r23, 0x00	; 0
    2766:	8c 2f       	mov	r24, r28
    2768:	90 e0       	ldi	r25, 0x00	; 0
    276a:	0e 94 d1 0d 	call	0x1ba2	; 0x1ba2 <LCD_12864_Draw_rectangle_filled>
    276e:	c8 01       	movw	r24, r16
    2770:	0e 94 da 08 	call	0x11b4	; 0x11b4 <LCD_12864_Draw_bitmap>
    2774:	2f ef       	ldi	r18, 0xFF	; 255
    2776:	84 e3       	ldi	r24, 0x34	; 52
    2778:	9c e0       	ldi	r25, 0x0C	; 12
    277a:	21 50       	subi	r18, 0x01	; 1
    277c:	80 40       	sbci	r24, 0x00	; 0
    277e:	90 40       	sbci	r25, 0x00	; 0
    2780:	e1 f7       	brne	.-8      	; 0x277a <Print_Download+0x70>
    2782:	00 c0       	rjmp	.+0      	; 0x2784 <Print_Download+0x7a>
    2784:	00 00       	nop
    2786:	c5 5f       	subi	r28, 0xF5	; 245
    2788:	c5 37       	cpi	r28, 0x75	; 117
    278a:	38 f3       	brcs	.-50     	; 0x275a <Print_Download+0x50>
    278c:	80 e0       	ldi	r24, 0x00	; 0
    278e:	0e 94 bb 08 	call	0x1176	; 0x1176 <LCD_12864_GrapnicMode>
    2792:	cf 91       	pop	r28
    2794:	1f 91       	pop	r17
    2796:	0f 91       	pop	r16
    2798:	08 95       	ret

0000279a <Print_Menu_Page>:
    279a:	cf 93       	push	r28
    279c:	df 93       	push	r29
    279e:	ec 01       	movw	r28, r24
    27a0:	81 e0       	ldi	r24, 0x01	; 1
    27a2:	0e 94 bb 08 	call	0x1176	; 0x1176 <LCD_12864_GrapnicMode>
    27a6:	0e 94 23 0d 	call	0x1a46	; 0x1a46 <LCD_12864_Clean_Frame_buffer>
    27aa:	80 91 d1 01 	lds	r24, 0x01D1	; 0x8001d1 <cnt>
    27ae:	82 30       	cpi	r24, 0x02	; 2
    27b0:	e9 f0       	breq	.+58     	; 0x27ec <Print_Menu_Page+0x52>
    27b2:	84 30       	cpi	r24, 0x04	; 4
    27b4:	a1 f1       	breq	.+104    	; 0x281e <Print_Menu_Page+0x84>
    27b6:	81 11       	cpse	r24, r1
    27b8:	4a c0       	rjmp	.+148    	; 0x284e <Print_Menu_Page+0xb4>
    27ba:	2b e6       	ldi	r18, 0x6B	; 107
    27bc:	31 e0       	ldi	r19, 0x01	; 1
    27be:	41 e0       	ldi	r20, 0x01	; 1
    27c0:	60 e0       	ldi	r22, 0x00	; 0
    27c2:	8f e0       	ldi	r24, 0x0F	; 15
    27c4:	90 e0       	ldi	r25, 0x00	; 0
    27c6:	0e 94 5d 0c 	call	0x18ba	; 0x18ba <LCD_12864_Decode_UTF8>
    27ca:	23 e7       	ldi	r18, 0x73	; 115
    27cc:	31 e0       	ldi	r19, 0x01	; 1
    27ce:	40 e0       	ldi	r20, 0x00	; 0
    27d0:	61 e0       	ldi	r22, 0x01	; 1
    27d2:	8f e0       	ldi	r24, 0x0F	; 15
    27d4:	90 e0       	ldi	r25, 0x00	; 0
    27d6:	0e 94 5d 0c 	call	0x18ba	; 0x18ba <LCD_12864_Decode_UTF8>
    27da:	25 e8       	ldi	r18, 0x85	; 133
    27dc:	31 e0       	ldi	r19, 0x01	; 1
    27de:	40 e0       	ldi	r20, 0x00	; 0
    27e0:	62 e0       	ldi	r22, 0x02	; 2
    27e2:	8f e0       	ldi	r24, 0x0F	; 15
    27e4:	90 e0       	ldi	r25, 0x00	; 0
    27e6:	0e 94 5d 0c 	call	0x18ba	; 0x18ba <LCD_12864_Decode_UTF8>
    27ea:	31 c0       	rjmp	.+98     	; 0x284e <Print_Menu_Page+0xb4>
    27ec:	2b e6       	ldi	r18, 0x6B	; 107
    27ee:	31 e0       	ldi	r19, 0x01	; 1
    27f0:	40 e0       	ldi	r20, 0x00	; 0
    27f2:	60 e0       	ldi	r22, 0x00	; 0
    27f4:	8f e0       	ldi	r24, 0x0F	; 15
    27f6:	90 e0       	ldi	r25, 0x00	; 0
    27f8:	0e 94 5d 0c 	call	0x18ba	; 0x18ba <LCD_12864_Decode_UTF8>
    27fc:	23 e7       	ldi	r18, 0x73	; 115
    27fe:	31 e0       	ldi	r19, 0x01	; 1
    2800:	41 e0       	ldi	r20, 0x01	; 1
    2802:	61 e0       	ldi	r22, 0x01	; 1
    2804:	8f e0       	ldi	r24, 0x0F	; 15
    2806:	90 e0       	ldi	r25, 0x00	; 0
    2808:	0e 94 5d 0c 	call	0x18ba	; 0x18ba <LCD_12864_Decode_UTF8>
    280c:	25 e8       	ldi	r18, 0x85	; 133
    280e:	31 e0       	ldi	r19, 0x01	; 1
    2810:	40 e0       	ldi	r20, 0x00	; 0
    2812:	62 e0       	ldi	r22, 0x02	; 2
    2814:	8f e0       	ldi	r24, 0x0F	; 15
    2816:	90 e0       	ldi	r25, 0x00	; 0
    2818:	0e 94 5d 0c 	call	0x18ba	; 0x18ba <LCD_12864_Decode_UTF8>
    281c:	18 c0       	rjmp	.+48     	; 0x284e <Print_Menu_Page+0xb4>
    281e:	2b e6       	ldi	r18, 0x6B	; 107
    2820:	31 e0       	ldi	r19, 0x01	; 1
    2822:	40 e0       	ldi	r20, 0x00	; 0
    2824:	60 e0       	ldi	r22, 0x00	; 0
    2826:	8f e0       	ldi	r24, 0x0F	; 15
    2828:	90 e0       	ldi	r25, 0x00	; 0
    282a:	0e 94 5d 0c 	call	0x18ba	; 0x18ba <LCD_12864_Decode_UTF8>
    282e:	23 e7       	ldi	r18, 0x73	; 115
    2830:	31 e0       	ldi	r19, 0x01	; 1
    2832:	40 e0       	ldi	r20, 0x00	; 0
    2834:	61 e0       	ldi	r22, 0x01	; 1
    2836:	8f e0       	ldi	r24, 0x0F	; 15
    2838:	90 e0       	ldi	r25, 0x00	; 0
    283a:	0e 94 5d 0c 	call	0x18ba	; 0x18ba <LCD_12864_Decode_UTF8>
    283e:	25 e8       	ldi	r18, 0x85	; 133
    2840:	31 e0       	ldi	r19, 0x01	; 1
    2842:	41 e0       	ldi	r20, 0x01	; 1
    2844:	62 e0       	ldi	r22, 0x02	; 2
    2846:	8f e0       	ldi	r24, 0x0F	; 15
    2848:	90 e0       	ldi	r25, 0x00	; 0
    284a:	0e 94 5d 0c 	call	0x18ba	; 0x18ba <LCD_12864_Decode_UTF8>
    284e:	ce 01       	movw	r24, r28
    2850:	0e 94 da 08 	call	0x11b4	; 0x11b4 <LCD_12864_Draw_bitmap>
    2854:	80 e0       	ldi	r24, 0x00	; 0
    2856:	0e 94 bb 08 	call	0x1176	; 0x1176 <LCD_12864_GrapnicMode>
    285a:	df 91       	pop	r29
    285c:	cf 91       	pop	r28
    285e:	08 95       	ret

00002860 <DrawCloudsWithRain>:

}
void DrawCloudsWithRain(void)
{
	//облако№1
	LCD_12864_Draw_line(90, 57, 106, 57);
    2860:	29 e3       	ldi	r18, 0x39	; 57
    2862:	4a e6       	ldi	r20, 0x6A	; 106
    2864:	69 e3       	ldi	r22, 0x39	; 57
    2866:	8a e5       	ldi	r24, 0x5A	; 90
    2868:	0e 94 2e 0d 	call	0x1a5c	; 0x1a5c <LCD_12864_Draw_line>
	LCD_12864_Draw_pixel(89, 56);
    286c:	68 e3       	ldi	r22, 0x38	; 56
    286e:	89 e5       	ldi	r24, 0x59	; 89
    2870:	0e 94 b8 07 	call	0xf70	; 0xf70 <LCD_12864_Draw_pixel>
	LCD_12864_Draw_pixel(88, 55);
    2874:	67 e3       	ldi	r22, 0x37	; 55
    2876:	88 e5       	ldi	r24, 0x58	; 88
    2878:	0e 94 b8 07 	call	0xf70	; 0xf70 <LCD_12864_Draw_pixel>
	LCD_12864_Draw_pixel(87, 54);
    287c:	66 e3       	ldi	r22, 0x36	; 54
    287e:	87 e5       	ldi	r24, 0x57	; 87
    2880:	0e 94 b8 07 	call	0xf70	; 0xf70 <LCD_12864_Draw_pixel>
	LCD_12864_Draw_pixel(87, 53);
    2884:	65 e3       	ldi	r22, 0x35	; 53
    2886:	87 e5       	ldi	r24, 0x57	; 87
    2888:	0e 94 b8 07 	call	0xf70	; 0xf70 <LCD_12864_Draw_pixel>
	LCD_12864_Draw_pixel(87, 52);
    288c:	64 e3       	ldi	r22, 0x34	; 52
    288e:	87 e5       	ldi	r24, 0x57	; 87
    2890:	0e 94 b8 07 	call	0xf70	; 0xf70 <LCD_12864_Draw_pixel>
	LCD_12864_Draw_pixel(88, 51);
    2894:	63 e3       	ldi	r22, 0x33	; 51
    2896:	88 e5       	ldi	r24, 0x58	; 88
    2898:	0e 94 b8 07 	call	0xf70	; 0xf70 <LCD_12864_Draw_pixel>
	LCD_12864_Draw_pixel(89, 50);
    289c:	62 e3       	ldi	r22, 0x32	; 50
    289e:	89 e5       	ldi	r24, 0x59	; 89
    28a0:	0e 94 b8 07 	call	0xf70	; 0xf70 <LCD_12864_Draw_pixel>
	LCD_12864_Draw_pixel(90, 50);
    28a4:	62 e3       	ldi	r22, 0x32	; 50
    28a6:	8a e5       	ldi	r24, 0x5A	; 90
    28a8:	0e 94 b8 07 	call	0xf70	; 0xf70 <LCD_12864_Draw_pixel>
	LCD_12864_Draw_pixel(91, 50);
    28ac:	62 e3       	ldi	r22, 0x32	; 50
    28ae:	8b e5       	ldi	r24, 0x5B	; 91
    28b0:	0e 94 b8 07 	call	0xf70	; 0xf70 <LCD_12864_Draw_pixel>
	LCD_12864_Draw_pixel(92, 50);
    28b4:	62 e3       	ldi	r22, 0x32	; 50
    28b6:	8c e5       	ldi	r24, 0x5C	; 92
    28b8:	0e 94 b8 07 	call	0xf70	; 0xf70 <LCD_12864_Draw_pixel>
	LCD_12864_Draw_pixel(94, 51);
    28bc:	63 e3       	ldi	r22, 0x33	; 51
    28be:	8e e5       	ldi	r24, 0x5E	; 94
    28c0:	0e 94 b8 07 	call	0xf70	; 0xf70 <LCD_12864_Draw_pixel>
	LCD_12864_Draw_pixel(93, 50);
    28c4:	62 e3       	ldi	r22, 0x32	; 50
    28c6:	8d e5       	ldi	r24, 0x5D	; 93
    28c8:	0e 94 b8 07 	call	0xf70	; 0xf70 <LCD_12864_Draw_pixel>
	LCD_12864_Draw_pixel(92, 49);
    28cc:	61 e3       	ldi	r22, 0x31	; 49
    28ce:	8c e5       	ldi	r24, 0x5C	; 92
    28d0:	0e 94 b8 07 	call	0xf70	; 0xf70 <LCD_12864_Draw_pixel>
	LCD_12864_Draw_pixel(92, 48);
    28d4:	60 e3       	ldi	r22, 0x30	; 48
    28d6:	8c e5       	ldi	r24, 0x5C	; 92
    28d8:	0e 94 b8 07 	call	0xf70	; 0xf70 <LCD_12864_Draw_pixel>
	LCD_12864_Draw_pixel(92, 47);
    28dc:	6f e2       	ldi	r22, 0x2F	; 47
    28de:	8c e5       	ldi	r24, 0x5C	; 92
    28e0:	0e 94 b8 07 	call	0xf70	; 0xf70 <LCD_12864_Draw_pixel>
	LCD_12864_Draw_pixel(92, 46);
    28e4:	6e e2       	ldi	r22, 0x2E	; 46
    28e6:	8c e5       	ldi	r24, 0x5C	; 92
    28e8:	0e 94 b8 07 	call	0xf70	; 0xf70 <LCD_12864_Draw_pixel>
	LCD_12864_Draw_pixel(93, 45);
    28ec:	6d e2       	ldi	r22, 0x2D	; 45
    28ee:	8d e5       	ldi	r24, 0x5D	; 93
    28f0:	0e 94 b8 07 	call	0xf70	; 0xf70 <LCD_12864_Draw_pixel>
	LCD_12864_Draw_pixel(94, 44);
    28f4:	6c e2       	ldi	r22, 0x2C	; 44
    28f6:	8e e5       	ldi	r24, 0x5E	; 94
    28f8:	0e 94 b8 07 	call	0xf70	; 0xf70 <LCD_12864_Draw_pixel>
	LCD_12864_Draw_pixel(95, 44);
    28fc:	6c e2       	ldi	r22, 0x2C	; 44
    28fe:	8f e5       	ldi	r24, 0x5F	; 95
    2900:	0e 94 b8 07 	call	0xf70	; 0xf70 <LCD_12864_Draw_pixel>
	LCD_12864_Draw_pixel(96, 44);
    2904:	6c e2       	ldi	r22, 0x2C	; 44
    2906:	80 e6       	ldi	r24, 0x60	; 96
    2908:	0e 94 b8 07 	call	0xf70	; 0xf70 <LCD_12864_Draw_pixel>
	LCD_12864_Draw_pixel(97, 44);
    290c:	6c e2       	ldi	r22, 0x2C	; 44
    290e:	81 e6       	ldi	r24, 0x61	; 97
    2910:	0e 94 b8 07 	call	0xf70	; 0xf70 <LCD_12864_Draw_pixel>
	LCD_12864_Draw_pixel(98, 44);
    2914:	6c e2       	ldi	r22, 0x2C	; 44
    2916:	82 e6       	ldi	r24, 0x62	; 98
    2918:	0e 94 b8 07 	call	0xf70	; 0xf70 <LCD_12864_Draw_pixel>
	LCD_12864_Draw_pixel(99, 44);
    291c:	6c e2       	ldi	r22, 0x2C	; 44
    291e:	83 e6       	ldi	r24, 0x63	; 99
    2920:	0e 94 b8 07 	call	0xf70	; 0xf70 <LCD_12864_Draw_pixel>
	LCD_12864_Draw_pixel(100, 44);
    2924:	6c e2       	ldi	r22, 0x2C	; 44
    2926:	84 e6       	ldi	r24, 0x64	; 100
    2928:	0e 94 b8 07 	call	0xf70	; 0xf70 <LCD_12864_Draw_pixel>
	LCD_12864_Draw_pixel(101, 45);
    292c:	6d e2       	ldi	r22, 0x2D	; 45
    292e:	85 e6       	ldi	r24, 0x65	; 101
    2930:	0e 94 b8 07 	call	0xf70	; 0xf70 <LCD_12864_Draw_pixel>
	LCD_12864_Draw_pixel(102, 46);
    2934:	6e e2       	ldi	r22, 0x2E	; 46
    2936:	86 e6       	ldi	r24, 0x66	; 102
    2938:	0e 94 b8 07 	call	0xf70	; 0xf70 <LCD_12864_Draw_pixel>
	LCD_12864_Draw_pixel(102, 47);
    293c:	6f e2       	ldi	r22, 0x2F	; 47
    293e:	86 e6       	ldi	r24, 0x66	; 102
    2940:	0e 94 b8 07 	call	0xf70	; 0xf70 <LCD_12864_Draw_pixel>
	LCD_12864_Draw_pixel(102, 48);
    2944:	60 e3       	ldi	r22, 0x30	; 48
    2946:	86 e6       	ldi	r24, 0x66	; 102
    2948:	0e 94 b8 07 	call	0xf70	; 0xf70 <LCD_12864_Draw_pixel>
	LCD_12864_Draw_pixel(101, 49);
    294c:	61 e3       	ldi	r22, 0x31	; 49
    294e:	85 e6       	ldi	r24, 0x65	; 101
    2950:	0e 94 b8 07 	call	0xf70	; 0xf70 <LCD_12864_Draw_pixel>
	LCD_12864_Draw_pixel(102, 48);
    2954:	60 e3       	ldi	r22, 0x30	; 48
    2956:	86 e6       	ldi	r24, 0x66	; 102
    2958:	0e 94 b8 07 	call	0xf70	; 0xf70 <LCD_12864_Draw_pixel>
	LCD_12864_Draw_pixel(103, 48);
    295c:	60 e3       	ldi	r22, 0x30	; 48
    295e:	87 e6       	ldi	r24, 0x67	; 103
    2960:	0e 94 b8 07 	call	0xf70	; 0xf70 <LCD_12864_Draw_pixel>
	LCD_12864_Draw_pixel(104, 48);
    2964:	60 e3       	ldi	r22, 0x30	; 48
    2966:	88 e6       	ldi	r24, 0x68	; 104
    2968:	0e 94 b8 07 	call	0xf70	; 0xf70 <LCD_12864_Draw_pixel>
	LCD_12864_Draw_pixel(105, 48);
    296c:	60 e3       	ldi	r22, 0x30	; 48
    296e:	89 e6       	ldi	r24, 0x69	; 105
    2970:	0e 94 b8 07 	call	0xf70	; 0xf70 <LCD_12864_Draw_pixel>
	
	LCD_12864_Draw_pixel(107, 56);
    2974:	68 e3       	ldi	r22, 0x38	; 56
    2976:	8b e6       	ldi	r24, 0x6B	; 107
    2978:	0e 94 b8 07 	call	0xf70	; 0xf70 <LCD_12864_Draw_pixel>
	LCD_12864_Draw_pixel(108, 55);
    297c:	67 e3       	ldi	r22, 0x37	; 55
    297e:	8c e6       	ldi	r24, 0x6C	; 108
    2980:	0e 94 b8 07 	call	0xf70	; 0xf70 <LCD_12864_Draw_pixel>
	LCD_12864_Draw_pixel(109, 54);
    2984:	66 e3       	ldi	r22, 0x36	; 54
    2986:	8d e6       	ldi	r24, 0x6D	; 109
    2988:	0e 94 b8 07 	call	0xf70	; 0xf70 <LCD_12864_Draw_pixel>
	LCD_12864_Draw_pixel(109, 53);
    298c:	65 e3       	ldi	r22, 0x35	; 53
    298e:	8d e6       	ldi	r24, 0x6D	; 109
    2990:	0e 94 b8 07 	call	0xf70	; 0xf70 <LCD_12864_Draw_pixel>
	LCD_12864_Draw_pixel(109, 52);
    2994:	64 e3       	ldi	r22, 0x34	; 52
    2996:	8d e6       	ldi	r24, 0x6D	; 109
    2998:	0e 94 b8 07 	call	0xf70	; 0xf70 <LCD_12864_Draw_pixel>
	LCD_12864_Draw_pixel(109, 51);
    299c:	63 e3       	ldi	r22, 0x33	; 51
    299e:	8d e6       	ldi	r24, 0x6D	; 109
    29a0:	0e 94 b8 07 	call	0xf70	; 0xf70 <LCD_12864_Draw_pixel>
	LCD_12864_Draw_pixel(108, 50);
    29a4:	62 e3       	ldi	r22, 0x32	; 50
    29a6:	8c e6       	ldi	r24, 0x6C	; 108
    29a8:	0e 94 b8 07 	call	0xf70	; 0xf70 <LCD_12864_Draw_pixel>
	LCD_12864_Draw_pixel(107, 49);
    29ac:	61 e3       	ldi	r22, 0x31	; 49
    29ae:	8b e6       	ldi	r24, 0x6B	; 107
    29b0:	0e 94 b8 07 	call	0xf70	; 0xf70 <LCD_12864_Draw_pixel>
	LCD_12864_Draw_pixel(106, 48);
    29b4:	60 e3       	ldi	r22, 0x30	; 48
    29b6:	8a e6       	ldi	r24, 0x6A	; 106
    29b8:	0e 94 b8 07 	call	0xf70	; 0xf70 <LCD_12864_Draw_pixel>
	//облако№2
	LCD_12864_Draw_line(110, 55, 121, 55);
    29bc:	27 e3       	ldi	r18, 0x37	; 55
    29be:	49 e7       	ldi	r20, 0x79	; 121
    29c0:	67 e3       	ldi	r22, 0x37	; 55
    29c2:	8e e6       	ldi	r24, 0x6E	; 110
    29c4:	0e 94 2e 0d 	call	0x1a5c	; 0x1a5c <LCD_12864_Draw_line>
	LCD_12864_Draw_pixel(122, 54);
    29c8:	66 e3       	ldi	r22, 0x36	; 54
    29ca:	8a e7       	ldi	r24, 0x7A	; 122
    29cc:	0e 94 b8 07 	call	0xf70	; 0xf70 <LCD_12864_Draw_pixel>
	LCD_12864_Draw_pixel(122, 53);
    29d0:	65 e3       	ldi	r22, 0x35	; 53
    29d2:	8a e7       	ldi	r24, 0x7A	; 122
    29d4:	0e 94 b8 07 	call	0xf70	; 0xf70 <LCD_12864_Draw_pixel>
	LCD_12864_Draw_pixel(122, 52);
    29d8:	64 e3       	ldi	r22, 0x34	; 52
    29da:	8a e7       	ldi	r24, 0x7A	; 122
    29dc:	0e 94 b8 07 	call	0xf70	; 0xf70 <LCD_12864_Draw_pixel>
	LCD_12864_Draw_pixel(122, 51);
    29e0:	63 e3       	ldi	r22, 0x33	; 51
    29e2:	8a e7       	ldi	r24, 0x7A	; 122
    29e4:	0e 94 b8 07 	call	0xf70	; 0xf70 <LCD_12864_Draw_pixel>
	LCD_12864_Draw_pixel(121, 50);
    29e8:	62 e3       	ldi	r22, 0x32	; 50
    29ea:	89 e7       	ldi	r24, 0x79	; 121
    29ec:	0e 94 b8 07 	call	0xf70	; 0xf70 <LCD_12864_Draw_pixel>
	LCD_12864_Draw_pixel(120, 49);
    29f0:	61 e3       	ldi	r22, 0x31	; 49
    29f2:	88 e7       	ldi	r24, 0x78	; 120
    29f4:	0e 94 b8 07 	call	0xf70	; 0xf70 <LCD_12864_Draw_pixel>
	LCD_12864_Draw_pixel(119, 49);
    29f8:	61 e3       	ldi	r22, 0x31	; 49
    29fa:	87 e7       	ldi	r24, 0x77	; 119
    29fc:	0e 94 b8 07 	call	0xf70	; 0xf70 <LCD_12864_Draw_pixel>
	LCD_12864_Draw_pixel(118, 49);
    2a00:	61 e3       	ldi	r22, 0x31	; 49
    2a02:	86 e7       	ldi	r24, 0x76	; 118
    2a04:	0e 94 b8 07 	call	0xf70	; 0xf70 <LCD_12864_Draw_pixel>
	LCD_12864_Draw_pixel(117, 50);
    2a08:	62 e3       	ldi	r22, 0x32	; 50
    2a0a:	85 e7       	ldi	r24, 0x75	; 117
    2a0c:	0e 94 b8 07 	call	0xf70	; 0xf70 <LCD_12864_Draw_pixel>
	LCD_12864_Draw_pixel(118, 48);
    2a10:	60 e3       	ldi	r22, 0x30	; 48
    2a12:	86 e7       	ldi	r24, 0x76	; 118
    2a14:	0e 94 b8 07 	call	0xf70	; 0xf70 <LCD_12864_Draw_pixel>
	LCD_12864_Draw_pixel(118, 47);
    2a18:	6f e2       	ldi	r22, 0x2F	; 47
    2a1a:	86 e7       	ldi	r24, 0x76	; 118
    2a1c:	0e 94 b8 07 	call	0xf70	; 0xf70 <LCD_12864_Draw_pixel>
	LCD_12864_Draw_pixel(117, 46);
    2a20:	6e e2       	ldi	r22, 0x2E	; 46
    2a22:	85 e7       	ldi	r24, 0x75	; 117
    2a24:	0e 94 b8 07 	call	0xf70	; 0xf70 <LCD_12864_Draw_pixel>
	LCD_12864_Draw_pixel(116, 46);
    2a28:	6e e2       	ldi	r22, 0x2E	; 46
    2a2a:	84 e7       	ldi	r24, 0x74	; 116
    2a2c:	0e 94 b8 07 	call	0xf70	; 0xf70 <LCD_12864_Draw_pixel>
	
	LCD_12864_Draw_pixel(115, 46);
    2a30:	6e e2       	ldi	r22, 0x2E	; 46
    2a32:	83 e7       	ldi	r24, 0x73	; 115
    2a34:	0e 94 b8 07 	call	0xf70	; 0xf70 <LCD_12864_Draw_pixel>
	LCD_12864_Draw_pixel(114, 46);
    2a38:	6e e2       	ldi	r22, 0x2E	; 46
    2a3a:	82 e7       	ldi	r24, 0x72	; 114
    2a3c:	0e 94 b8 07 	call	0xf70	; 0xf70 <LCD_12864_Draw_pixel>
	LCD_12864_Draw_pixel(113, 47);
    2a40:	6f e2       	ldi	r22, 0x2F	; 47
    2a42:	81 e7       	ldi	r24, 0x71	; 113
    2a44:	0e 94 b8 07 	call	0xf70	; 0xf70 <LCD_12864_Draw_pixel>
	LCD_12864_Draw_pixel(113, 48);
    2a48:	60 e3       	ldi	r22, 0x30	; 48
    2a4a:	81 e7       	ldi	r24, 0x71	; 113
    2a4c:	0e 94 b8 07 	call	0xf70	; 0xf70 <LCD_12864_Draw_pixel>
	LCD_12864_Draw_pixel(113, 49);
    2a50:	61 e3       	ldi	r22, 0x31	; 49
    2a52:	81 e7       	ldi	r24, 0x71	; 113
    2a54:	0e 94 b8 07 	call	0xf70	; 0xf70 <LCD_12864_Draw_pixel>
	LCD_12864_Draw_pixel(114, 50);
    2a58:	62 e3       	ldi	r22, 0x32	; 50
    2a5a:	82 e7       	ldi	r24, 0x72	; 114
    2a5c:	0e 94 b8 07 	call	0xf70	; 0xf70 <LCD_12864_Draw_pixel>
	LCD_12864_Draw_pixel(112, 49);
    2a60:	61 e3       	ldi	r22, 0x31	; 49
    2a62:	80 e7       	ldi	r24, 0x70	; 112
    2a64:	0e 94 b8 07 	call	0xf70	; 0xf70 <LCD_12864_Draw_pixel>
	LCD_12864_Draw_pixel(111, 49);
    2a68:	61 e3       	ldi	r22, 0x31	; 49
    2a6a:	8f e6       	ldi	r24, 0x6F	; 111
    2a6c:	0e 94 b8 07 	call	0xf70	; 0xf70 <LCD_12864_Draw_pixel>
	LCD_12864_Draw_pixel(110, 50);
    2a70:	62 e3       	ldi	r22, 0x32	; 50
    2a72:	8e e6       	ldi	r24, 0x6E	; 110
    2a74:	0e 94 b8 07 	call	0xf70	; 0xf70 <LCD_12864_Draw_pixel>

	LCD_12864_Draw_line(91, 59, 89, 61);
    2a78:	2d e3       	ldi	r18, 0x3D	; 61
    2a7a:	49 e5       	ldi	r20, 0x59	; 89
    2a7c:	6b e3       	ldi	r22, 0x3B	; 59
    2a7e:	8b e5       	ldi	r24, 0x5B	; 91
    2a80:	0e 94 2e 0d 	call	0x1a5c	; 0x1a5c <LCD_12864_Draw_line>
	LCD_12864_Draw_line(94, 59, 92, 61);
    2a84:	2d e3       	ldi	r18, 0x3D	; 61
    2a86:	4c e5       	ldi	r20, 0x5C	; 92
    2a88:	6b e3       	ldi	r22, 0x3B	; 59
    2a8a:	8e e5       	ldi	r24, 0x5E	; 94
    2a8c:	0e 94 2e 0d 	call	0x1a5c	; 0x1a5c <LCD_12864_Draw_line>
	LCD_12864_Draw_line(97, 59, 95, 61);
    2a90:	2d e3       	ldi	r18, 0x3D	; 61
    2a92:	4f e5       	ldi	r20, 0x5F	; 95
    2a94:	6b e3       	ldi	r22, 0x3B	; 59
    2a96:	81 e6       	ldi	r24, 0x61	; 97
    2a98:	0e 94 2e 0d 	call	0x1a5c	; 0x1a5c <LCD_12864_Draw_line>
	LCD_12864_Draw_line(100, 59, 98, 61);
    2a9c:	2d e3       	ldi	r18, 0x3D	; 61
    2a9e:	42 e6       	ldi	r20, 0x62	; 98
    2aa0:	6b e3       	ldi	r22, 0x3B	; 59
    2aa2:	84 e6       	ldi	r24, 0x64	; 100
    2aa4:	0e 94 2e 0d 	call	0x1a5c	; 0x1a5c <LCD_12864_Draw_line>
	LCD_12864_Draw_line(103, 59, 101, 61);
    2aa8:	2d e3       	ldi	r18, 0x3D	; 61
    2aaa:	45 e6       	ldi	r20, 0x65	; 101
    2aac:	6b e3       	ldi	r22, 0x3B	; 59
    2aae:	87 e6       	ldi	r24, 0x67	; 103
    2ab0:	0e 94 2e 0d 	call	0x1a5c	; 0x1a5c <LCD_12864_Draw_line>
	LCD_12864_Draw_line(106, 59, 104, 61);
    2ab4:	2d e3       	ldi	r18, 0x3D	; 61
    2ab6:	48 e6       	ldi	r20, 0x68	; 104
    2ab8:	6b e3       	ldi	r22, 0x3B	; 59
    2aba:	8a e6       	ldi	r24, 0x6A	; 106
    2abc:	0e 94 2e 0d 	call	0x1a5c	; 0x1a5c <LCD_12864_Draw_line>
	
	LCD_12864_Draw_line(111, 57, 110, 58);
    2ac0:	2a e3       	ldi	r18, 0x3A	; 58
    2ac2:	4e e6       	ldi	r20, 0x6E	; 110
    2ac4:	69 e3       	ldi	r22, 0x39	; 57
    2ac6:	8f e6       	ldi	r24, 0x6F	; 111
    2ac8:	0e 94 2e 0d 	call	0x1a5c	; 0x1a5c <LCD_12864_Draw_line>
	LCD_12864_Draw_line(114, 57, 113, 58);
    2acc:	2a e3       	ldi	r18, 0x3A	; 58
    2ace:	41 e7       	ldi	r20, 0x71	; 113
    2ad0:	69 e3       	ldi	r22, 0x39	; 57
    2ad2:	82 e7       	ldi	r24, 0x72	; 114
    2ad4:	0e 94 2e 0d 	call	0x1a5c	; 0x1a5c <LCD_12864_Draw_line>
	LCD_12864_Draw_line(117, 57, 116, 58);
    2ad8:	2a e3       	ldi	r18, 0x3A	; 58
    2ada:	44 e7       	ldi	r20, 0x74	; 116
    2adc:	69 e3       	ldi	r22, 0x39	; 57
    2ade:	85 e7       	ldi	r24, 0x75	; 117
    2ae0:	0e 94 2e 0d 	call	0x1a5c	; 0x1a5c <LCD_12864_Draw_line>
	LCD_12864_Draw_line(120, 57, 119, 58);
    2ae4:	2a e3       	ldi	r18, 0x3A	; 58
    2ae6:	47 e7       	ldi	r20, 0x77	; 119
    2ae8:	69 e3       	ldi	r22, 0x39	; 57
    2aea:	88 e7       	ldi	r24, 0x78	; 120
    2aec:	0e 94 2e 0d 	call	0x1a5c	; 0x1a5c <LCD_12864_Draw_line>
    2af0:	08 95       	ret

00002af2 <DrawWeatherVane>:
}
void DrawWeatherVane(void)
{
	LCD_12864_Draw_circle(11, 52, 9);
    2af2:	49 e0       	ldi	r20, 0x09	; 9
    2af4:	64 e3       	ldi	r22, 0x34	; 52
    2af6:	8b e0       	ldi	r24, 0x0B	; 11
    2af8:	0e 94 10 0e 	call	0x1c20	; 0x1c20 <LCD_12864_Draw_circle>
	//---------N-----------------
	LCD_12864_Clean_pixel(11, 44);
    2afc:	6c e2       	ldi	r22, 0x2C	; 44
    2afe:	8b e0       	ldi	r24, 0x0B	; 11
    2b00:	0e 94 d9 07 	call	0xfb2	; 0xfb2 <LCD_12864_Clean_pixel>
	LCD_12864_Clean_pixel(10, 44);
    2b04:	6c e2       	ldi	r22, 0x2C	; 44
    2b06:	8a e0       	ldi	r24, 0x0A	; 10
    2b08:	0e 94 d9 07 	call	0xfb2	; 0xfb2 <LCD_12864_Clean_pixel>
	LCD_12864_Clean_pixel(9, 44);
    2b0c:	6c e2       	ldi	r22, 0x2C	; 44
    2b0e:	89 e0       	ldi	r24, 0x09	; 9
    2b10:	0e 94 d9 07 	call	0xfb2	; 0xfb2 <LCD_12864_Clean_pixel>
	LCD_12864_Clean_pixel(8, 44);
    2b14:	6c e2       	ldi	r22, 0x2C	; 44
    2b16:	88 e0       	ldi	r24, 0x08	; 8
    2b18:	0e 94 d9 07 	call	0xfb2	; 0xfb2 <LCD_12864_Clean_pixel>
	LCD_12864_Clean_pixel(12, 44);
    2b1c:	6c e2       	ldi	r22, 0x2C	; 44
    2b1e:	8c e0       	ldi	r24, 0x0C	; 12
    2b20:	0e 94 d9 07 	call	0xfb2	; 0xfb2 <LCD_12864_Clean_pixel>
	LCD_12864_Clean_pixel(13, 44);
    2b24:	6c e2       	ldi	r22, 0x2C	; 44
    2b26:	8d e0       	ldi	r24, 0x0D	; 13
    2b28:	0e 94 d9 07 	call	0xfb2	; 0xfb2 <LCD_12864_Clean_pixel>
	LCD_12864_Clean_pixel(14, 44);
    2b2c:	6c e2       	ldi	r22, 0x2C	; 44
    2b2e:	8e e0       	ldi	r24, 0x0E	; 14
    2b30:	0e 94 d9 07 	call	0xfb2	; 0xfb2 <LCD_12864_Clean_pixel>
	LCD_12864_Draw_pixel(9, 43);
    2b34:	6b e2       	ldi	r22, 0x2B	; 43
    2b36:	89 e0       	ldi	r24, 0x09	; 9
    2b38:	0e 94 b8 07 	call	0xf70	; 0xf70 <LCD_12864_Draw_pixel>
	LCD_12864_Draw_pixel(9, 44);
    2b3c:	6c e2       	ldi	r22, 0x2C	; 44
    2b3e:	89 e0       	ldi	r24, 0x09	; 9
    2b40:	0e 94 b8 07 	call	0xf70	; 0xf70 <LCD_12864_Draw_pixel>
	LCD_12864_Draw_pixel(9, 45);
    2b44:	6d e2       	ldi	r22, 0x2D	; 45
    2b46:	89 e0       	ldi	r24, 0x09	; 9
    2b48:	0e 94 b8 07 	call	0xf70	; 0xf70 <LCD_12864_Draw_pixel>
	LCD_12864_Draw_pixel(9, 42);
    2b4c:	6a e2       	ldi	r22, 0x2A	; 42
    2b4e:	89 e0       	ldi	r24, 0x09	; 9
    2b50:	0e 94 b8 07 	call	0xf70	; 0xf70 <LCD_12864_Draw_pixel>
	LCD_12864_Draw_pixel(9, 41);
    2b54:	69 e2       	ldi	r22, 0x29	; 41
    2b56:	89 e0       	ldi	r24, 0x09	; 9
    2b58:	0e 94 b8 07 	call	0xf70	; 0xf70 <LCD_12864_Draw_pixel>
	LCD_12864_Draw_pixel(10, 42);
    2b5c:	6a e2       	ldi	r22, 0x2A	; 42
    2b5e:	8a e0       	ldi	r24, 0x0A	; 10
    2b60:	0e 94 b8 07 	call	0xf70	; 0xf70 <LCD_12864_Draw_pixel>
	LCD_12864_Draw_pixel(11, 43);
    2b64:	6b e2       	ldi	r22, 0x2B	; 43
    2b66:	8b e0       	ldi	r24, 0x0B	; 11
    2b68:	0e 94 b8 07 	call	0xf70	; 0xf70 <LCD_12864_Draw_pixel>
	LCD_12864_Draw_pixel(12, 44);
    2b6c:	6c e2       	ldi	r22, 0x2C	; 44
    2b6e:	8c e0       	ldi	r24, 0x0C	; 12
    2b70:	0e 94 b8 07 	call	0xf70	; 0xf70 <LCD_12864_Draw_pixel>
	LCD_12864_Draw_pixel(13, 43);
    2b74:	6b e2       	ldi	r22, 0x2B	; 43
    2b76:	8d e0       	ldi	r24, 0x0D	; 13
    2b78:	0e 94 b8 07 	call	0xf70	; 0xf70 <LCD_12864_Draw_pixel>
	LCD_12864_Draw_pixel(13, 44);
    2b7c:	6c e2       	ldi	r22, 0x2C	; 44
    2b7e:	8d e0       	ldi	r24, 0x0D	; 13
    2b80:	0e 94 b8 07 	call	0xf70	; 0xf70 <LCD_12864_Draw_pixel>
	LCD_12864_Draw_pixel(13, 45);
    2b84:	6d e2       	ldi	r22, 0x2D	; 45
    2b86:	8d e0       	ldi	r24, 0x0D	; 13
    2b88:	0e 94 b8 07 	call	0xf70	; 0xf70 <LCD_12864_Draw_pixel>
	LCD_12864_Draw_pixel(13, 42);
    2b8c:	6a e2       	ldi	r22, 0x2A	; 42
    2b8e:	8d e0       	ldi	r24, 0x0D	; 13
    2b90:	0e 94 b8 07 	call	0xf70	; 0xf70 <LCD_12864_Draw_pixel>
	LCD_12864_Draw_pixel(13, 41);
    2b94:	69 e2       	ldi	r22, 0x29	; 41
    2b96:	8d e0       	ldi	r24, 0x0D	; 13
    2b98:	0e 94 b8 07 	call	0xf70	; 0xf70 <LCD_12864_Draw_pixel>
	//---------S-----------------
	LCD_12864_Clean_pixel(11, 61);
    2b9c:	6d e3       	ldi	r22, 0x3D	; 61
    2b9e:	8b e0       	ldi	r24, 0x0B	; 11
    2ba0:	0e 94 d9 07 	call	0xfb2	; 0xfb2 <LCD_12864_Clean_pixel>
	LCD_12864_Clean_pixel(10, 61);
    2ba4:	6d e3       	ldi	r22, 0x3D	; 61
    2ba6:	8a e0       	ldi	r24, 0x0A	; 10
    2ba8:	0e 94 d9 07 	call	0xfb2	; 0xfb2 <LCD_12864_Clean_pixel>
	LCD_12864_Clean_pixel(9, 61);
    2bac:	6d e3       	ldi	r22, 0x3D	; 61
    2bae:	89 e0       	ldi	r24, 0x09	; 9
    2bb0:	0e 94 d9 07 	call	0xfb2	; 0xfb2 <LCD_12864_Clean_pixel>
	LCD_12864_Clean_pixel(8, 61);
    2bb4:	6d e3       	ldi	r22, 0x3D	; 61
    2bb6:	88 e0       	ldi	r24, 0x08	; 8
    2bb8:	0e 94 d9 07 	call	0xfb2	; 0xfb2 <LCD_12864_Clean_pixel>
	LCD_12864_Clean_pixel(12, 61);
    2bbc:	6d e3       	ldi	r22, 0x3D	; 61
    2bbe:	8c e0       	ldi	r24, 0x0C	; 12
    2bc0:	0e 94 d9 07 	call	0xfb2	; 0xfb2 <LCD_12864_Clean_pixel>
	LCD_12864_Clean_pixel(13, 61);
    2bc4:	6d e3       	ldi	r22, 0x3D	; 61
    2bc6:	8d e0       	ldi	r24, 0x0D	; 13
    2bc8:	0e 94 d9 07 	call	0xfb2	; 0xfb2 <LCD_12864_Clean_pixel>
	LCD_12864_Clean_pixel(14, 61);
    2bcc:	6d e3       	ldi	r22, 0x3D	; 61
    2bce:	8e e0       	ldi	r24, 0x0E	; 14
    2bd0:	0e 94 d9 07 	call	0xfb2	; 0xfb2 <LCD_12864_Clean_pixel>
	LCD_12864_Draw_pixel(9, 60);
    2bd4:	6c e3       	ldi	r22, 0x3C	; 60
    2bd6:	89 e0       	ldi	r24, 0x09	; 9
    2bd8:	0e 94 b8 07 	call	0xf70	; 0xf70 <LCD_12864_Draw_pixel>
	LCD_12864_Draw_pixel(9, 63);
    2bdc:	6f e3       	ldi	r22, 0x3F	; 63
    2bde:	89 e0       	ldi	r24, 0x09	; 9
    2be0:	0e 94 b8 07 	call	0xf70	; 0xf70 <LCD_12864_Draw_pixel>
	LCD_12864_Draw_pixel(10, 61);
    2be4:	6d e3       	ldi	r22, 0x3D	; 61
    2be6:	8a e0       	ldi	r24, 0x0A	; 10
    2be8:	0e 94 b8 07 	call	0xf70	; 0xf70 <LCD_12864_Draw_pixel>
	LCD_12864_Draw_pixel(10, 59);
    2bec:	6b e3       	ldi	r22, 0x3B	; 59
    2bee:	8a e0       	ldi	r24, 0x0A	; 10
    2bf0:	0e 94 b8 07 	call	0xf70	; 0xf70 <LCD_12864_Draw_pixel>
	LCD_12864_Draw_pixel(10, 63);
    2bf4:	6f e3       	ldi	r22, 0x3F	; 63
    2bf6:	8a e0       	ldi	r24, 0x0A	; 10
    2bf8:	0e 94 b8 07 	call	0xf70	; 0xf70 <LCD_12864_Draw_pixel>
	LCD_12864_Draw_pixel(11, 61);
    2bfc:	6d e3       	ldi	r22, 0x3D	; 61
    2bfe:	8b e0       	ldi	r24, 0x0B	; 11
    2c00:	0e 94 b8 07 	call	0xf70	; 0xf70 <LCD_12864_Draw_pixel>
	LCD_12864_Draw_pixel(11, 59);
    2c04:	6b e3       	ldi	r22, 0x3B	; 59
    2c06:	8b e0       	ldi	r24, 0x0B	; 11
    2c08:	0e 94 b8 07 	call	0xf70	; 0xf70 <LCD_12864_Draw_pixel>
	LCD_12864_Draw_pixel(11, 63);
    2c0c:	6f e3       	ldi	r22, 0x3F	; 63
    2c0e:	8b e0       	ldi	r24, 0x0B	; 11
    2c10:	0e 94 b8 07 	call	0xf70	; 0xf70 <LCD_12864_Draw_pixel>
	LCD_12864_Draw_pixel(12, 61);
    2c14:	6d e3       	ldi	r22, 0x3D	; 61
    2c16:	8c e0       	ldi	r24, 0x0C	; 12
    2c18:	0e 94 b8 07 	call	0xf70	; 0xf70 <LCD_12864_Draw_pixel>
	LCD_12864_Draw_pixel(12, 59);
    2c1c:	6b e3       	ldi	r22, 0x3B	; 59
    2c1e:	8c e0       	ldi	r24, 0x0C	; 12
    2c20:	0e 94 b8 07 	call	0xf70	; 0xf70 <LCD_12864_Draw_pixel>
	LCD_12864_Draw_pixel(12, 63);
    2c24:	6f e3       	ldi	r22, 0x3F	; 63
    2c26:	8c e0       	ldi	r24, 0x0C	; 12
    2c28:	0e 94 b8 07 	call	0xf70	; 0xf70 <LCD_12864_Draw_pixel>
	LCD_12864_Draw_pixel(13, 62);
    2c2c:	6e e3       	ldi	r22, 0x3E	; 62
    2c2e:	8d e0       	ldi	r24, 0x0D	; 13
    2c30:	0e 94 b8 07 	call	0xf70	; 0xf70 <LCD_12864_Draw_pixel>
	LCD_12864_Draw_pixel(13, 59);
    2c34:	6b e3       	ldi	r22, 0x3B	; 59
    2c36:	8d e0       	ldi	r24, 0x0D	; 13
    2c38:	0e 94 b8 07 	call	0xf70	; 0xf70 <LCD_12864_Draw_pixel>
	//---------E-----------------
	LCD_12864_Clean_pixel(20, 52);
    2c3c:	64 e3       	ldi	r22, 0x34	; 52
    2c3e:	84 e1       	ldi	r24, 0x14	; 20
    2c40:	0e 94 d9 07 	call	0xfb2	; 0xfb2 <LCD_12864_Clean_pixel>
	LCD_12864_Clean_pixel(20, 53);
    2c44:	65 e3       	ldi	r22, 0x35	; 53
    2c46:	84 e1       	ldi	r24, 0x14	; 20
    2c48:	0e 94 d9 07 	call	0xfb2	; 0xfb2 <LCD_12864_Clean_pixel>
	LCD_12864_Clean_pixel(20, 54);
    2c4c:	66 e3       	ldi	r22, 0x36	; 54
    2c4e:	84 e1       	ldi	r24, 0x14	; 20
    2c50:	0e 94 d9 07 	call	0xfb2	; 0xfb2 <LCD_12864_Clean_pixel>
	LCD_12864_Clean_pixel(19, 55);
    2c54:	67 e3       	ldi	r22, 0x37	; 55
    2c56:	83 e1       	ldi	r24, 0x13	; 19
    2c58:	0e 94 d9 07 	call	0xfb2	; 0xfb2 <LCD_12864_Clean_pixel>
	LCD_12864_Draw_pixel(19, 48);
    2c5c:	60 e3       	ldi	r22, 0x30	; 48
    2c5e:	83 e1       	ldi	r24, 0x13	; 19
    2c60:	0e 94 b8 07 	call	0xf70	; 0xf70 <LCD_12864_Draw_pixel>
	LCD_12864_Clean_pixel(20, 51);
    2c64:	63 e3       	ldi	r22, 0x33	; 51
    2c66:	84 e1       	ldi	r24, 0x14	; 20
    2c68:	0e 94 d9 07 	call	0xfb2	; 0xfb2 <LCD_12864_Clean_pixel>
	LCD_12864_Clean_pixel(20, 50);
    2c6c:	62 e3       	ldi	r22, 0x32	; 50
    2c6e:	84 e1       	ldi	r24, 0x14	; 20
    2c70:	0e 94 d9 07 	call	0xfb2	; 0xfb2 <LCD_12864_Clean_pixel>
	LCD_12864_Draw_pixel(20, 52);
    2c74:	64 e3       	ldi	r22, 0x34	; 52
    2c76:	84 e1       	ldi	r24, 0x14	; 20
    2c78:	0e 94 b8 07 	call	0xf70	; 0xf70 <LCD_12864_Draw_pixel>
	LCD_12864_Draw_pixel(20, 50);
    2c7c:	62 e3       	ldi	r22, 0x32	; 50
    2c7e:	84 e1       	ldi	r24, 0x14	; 20
    2c80:	0e 94 b8 07 	call	0xf70	; 0xf70 <LCD_12864_Draw_pixel>
	LCD_12864_Draw_pixel(20, 54);
    2c84:	66 e3       	ldi	r22, 0x36	; 54
    2c86:	84 e1       	ldi	r24, 0x14	; 20
    2c88:	0e 94 b8 07 	call	0xf70	; 0xf70 <LCD_12864_Draw_pixel>
	LCD_12864_Draw_pixel(21, 52);
    2c8c:	64 e3       	ldi	r22, 0x34	; 52
    2c8e:	85 e1       	ldi	r24, 0x15	; 21
    2c90:	0e 94 b8 07 	call	0xf70	; 0xf70 <LCD_12864_Draw_pixel>
	LCD_12864_Draw_pixel(21, 50);
    2c94:	62 e3       	ldi	r22, 0x32	; 50
    2c96:	85 e1       	ldi	r24, 0x15	; 21
    2c98:	0e 94 b8 07 	call	0xf70	; 0xf70 <LCD_12864_Draw_pixel>
	LCD_12864_Draw_pixel(21, 54);
    2c9c:	66 e3       	ldi	r22, 0x36	; 54
    2c9e:	85 e1       	ldi	r24, 0x15	; 21
    2ca0:	0e 94 b8 07 	call	0xf70	; 0xf70 <LCD_12864_Draw_pixel>
	LCD_12864_Draw_pixel(22, 52);
    2ca4:	64 e3       	ldi	r22, 0x34	; 52
    2ca6:	86 e1       	ldi	r24, 0x16	; 22
    2ca8:	0e 94 b8 07 	call	0xf70	; 0xf70 <LCD_12864_Draw_pixel>
	LCD_12864_Draw_pixel(22, 50);
    2cac:	62 e3       	ldi	r22, 0x32	; 50
    2cae:	86 e1       	ldi	r24, 0x16	; 22
    2cb0:	0e 94 b8 07 	call	0xf70	; 0xf70 <LCD_12864_Draw_pixel>
	LCD_12864_Draw_pixel(22, 54);
    2cb4:	66 e3       	ldi	r22, 0x36	; 54
    2cb6:	86 e1       	ldi	r24, 0x16	; 22
    2cb8:	0e 94 b8 07 	call	0xf70	; 0xf70 <LCD_12864_Draw_pixel>
	LCD_12864_Draw_pixel(19, 52);
    2cbc:	64 e3       	ldi	r22, 0x34	; 52
    2cbe:	83 e1       	ldi	r24, 0x13	; 19
    2cc0:	0e 94 b8 07 	call	0xf70	; 0xf70 <LCD_12864_Draw_pixel>
	LCD_12864_Draw_pixel(19, 50);
    2cc4:	62 e3       	ldi	r22, 0x32	; 50
    2cc6:	83 e1       	ldi	r24, 0x13	; 19
    2cc8:	0e 94 b8 07 	call	0xf70	; 0xf70 <LCD_12864_Draw_pixel>
	LCD_12864_Draw_pixel(19, 54);
    2ccc:	66 e3       	ldi	r22, 0x36	; 54
    2cce:	83 e1       	ldi	r24, 0x13	; 19
    2cd0:	0e 94 b8 07 	call	0xf70	; 0xf70 <LCD_12864_Draw_pixel>
	LCD_12864_Draw_pixel(18, 52);
    2cd4:	64 e3       	ldi	r22, 0x34	; 52
    2cd6:	82 e1       	ldi	r24, 0x12	; 18
    2cd8:	0e 94 b8 07 	call	0xf70	; 0xf70 <LCD_12864_Draw_pixel>
	LCD_12864_Draw_pixel(18, 53);
    2cdc:	65 e3       	ldi	r22, 0x35	; 53
    2cde:	82 e1       	ldi	r24, 0x12	; 18
    2ce0:	0e 94 b8 07 	call	0xf70	; 0xf70 <LCD_12864_Draw_pixel>
	LCD_12864_Draw_pixel(18, 54);
    2ce4:	66 e3       	ldi	r22, 0x36	; 54
    2ce6:	82 e1       	ldi	r24, 0x12	; 18
    2ce8:	0e 94 b8 07 	call	0xf70	; 0xf70 <LCD_12864_Draw_pixel>
	LCD_12864_Draw_pixel(18, 51);
    2cec:	63 e3       	ldi	r22, 0x33	; 51
    2cee:	82 e1       	ldi	r24, 0x12	; 18
    2cf0:	0e 94 b8 07 	call	0xf70	; 0xf70 <LCD_12864_Draw_pixel>
	LCD_12864_Draw_pixel(18, 50);
    2cf4:	62 e3       	ldi	r22, 0x32	; 50
    2cf6:	82 e1       	ldi	r24, 0x12	; 18
    2cf8:	0e 94 b8 07 	call	0xf70	; 0xf70 <LCD_12864_Draw_pixel>
	//---------W-----------------
	LCD_12864_Clean_pixel(2, 52);
    2cfc:	64 e3       	ldi	r22, 0x34	; 52
    2cfe:	82 e0       	ldi	r24, 0x02	; 2
    2d00:	0e 94 d9 07 	call	0xfb2	; 0xfb2 <LCD_12864_Clean_pixel>
	LCD_12864_Clean_pixel(2, 53);
    2d04:	65 e3       	ldi	r22, 0x35	; 53
    2d06:	82 e0       	ldi	r24, 0x02	; 2
    2d08:	0e 94 d9 07 	call	0xfb2	; 0xfb2 <LCD_12864_Clean_pixel>
	LCD_12864_Clean_pixel(2, 54);
    2d0c:	66 e3       	ldi	r22, 0x36	; 54
    2d0e:	82 e0       	ldi	r24, 0x02	; 2
    2d10:	0e 94 d9 07 	call	0xfb2	; 0xfb2 <LCD_12864_Clean_pixel>
	LCD_12864_Clean_pixel(3, 55);
    2d14:	67 e3       	ldi	r22, 0x37	; 55
    2d16:	83 e0       	ldi	r24, 0x03	; 3
    2d18:	0e 94 d9 07 	call	0xfb2	; 0xfb2 <LCD_12864_Clean_pixel>
	LCD_12864_Draw_pixel(3, 48);
    2d1c:	60 e3       	ldi	r22, 0x30	; 48
    2d1e:	83 e0       	ldi	r24, 0x03	; 3
    2d20:	0e 94 b8 07 	call	0xf70	; 0xf70 <LCD_12864_Draw_pixel>
	LCD_12864_Clean_pixel(2, 51);
    2d24:	63 e3       	ldi	r22, 0x33	; 51
    2d26:	82 e0       	ldi	r24, 0x02	; 2
    2d28:	0e 94 d9 07 	call	0xfb2	; 0xfb2 <LCD_12864_Clean_pixel>
	LCD_12864_Clean_pixel(2, 50);
    2d2c:	62 e3       	ldi	r22, 0x32	; 50
    2d2e:	82 e0       	ldi	r24, 0x02	; 2
    2d30:	0e 94 d9 07 	call	0xfb2	; 0xfb2 <LCD_12864_Clean_pixel>
	LCD_12864_Draw_pixel(2, 52);
    2d34:	64 e3       	ldi	r22, 0x34	; 52
    2d36:	82 e0       	ldi	r24, 0x02	; 2
    2d38:	0e 94 b8 07 	call	0xf70	; 0xf70 <LCD_12864_Draw_pixel>
	LCD_12864_Draw_pixel(2, 53);
    2d3c:	65 e3       	ldi	r22, 0x35	; 53
    2d3e:	82 e0       	ldi	r24, 0x02	; 2
    2d40:	0e 94 b8 07 	call	0xf70	; 0xf70 <LCD_12864_Draw_pixel>
	LCD_12864_Draw_pixel(3, 54);
    2d44:	66 e3       	ldi	r22, 0x36	; 54
    2d46:	83 e0       	ldi	r24, 0x03	; 3
    2d48:	0e 94 b8 07 	call	0xf70	; 0xf70 <LCD_12864_Draw_pixel>
	LCD_12864_Draw_pixel(4, 52);
    2d4c:	64 e3       	ldi	r22, 0x34	; 52
    2d4e:	84 e0       	ldi	r24, 0x04	; 4
    2d50:	0e 94 b8 07 	call	0xf70	; 0xf70 <LCD_12864_Draw_pixel>
	LCD_12864_Draw_pixel(4, 53);
    2d54:	65 e3       	ldi	r22, 0x35	; 53
    2d56:	84 e0       	ldi	r24, 0x04	; 4
    2d58:	0e 94 b8 07 	call	0xf70	; 0xf70 <LCD_12864_Draw_pixel>
	LCD_12864_Draw_pixel(4, 51);
    2d5c:	63 e3       	ldi	r22, 0x33	; 51
    2d5e:	84 e0       	ldi	r24, 0x04	; 4
    2d60:	0e 94 b8 07 	call	0xf70	; 0xf70 <LCD_12864_Draw_pixel>
	LCD_12864_Draw_pixel(4, 50);
    2d64:	62 e3       	ldi	r22, 0x32	; 50
    2d66:	84 e0       	ldi	r24, 0x04	; 4
    2d68:	0e 94 b8 07 	call	0xf70	; 0xf70 <LCD_12864_Draw_pixel>
	LCD_12864_Draw_pixel(1, 54);
    2d6c:	66 e3       	ldi	r22, 0x36	; 54
    2d6e:	81 e0       	ldi	r24, 0x01	; 1
    2d70:	0e 94 b8 07 	call	0xf70	; 0xf70 <LCD_12864_Draw_pixel>
	LCD_12864_Draw_pixel(0, 52);
    2d74:	64 e3       	ldi	r22, 0x34	; 52
    2d76:	80 e0       	ldi	r24, 0x00	; 0
    2d78:	0e 94 b8 07 	call	0xf70	; 0xf70 <LCD_12864_Draw_pixel>
	LCD_12864_Draw_pixel(0, 53);
    2d7c:	65 e3       	ldi	r22, 0x35	; 53
    2d7e:	80 e0       	ldi	r24, 0x00	; 0
    2d80:	0e 94 b8 07 	call	0xf70	; 0xf70 <LCD_12864_Draw_pixel>
	LCD_12864_Draw_pixel(0, 51);
    2d84:	63 e3       	ldi	r22, 0x33	; 51
    2d86:	80 e0       	ldi	r24, 0x00	; 0
    2d88:	0e 94 b8 07 	call	0xf70	; 0xf70 <LCD_12864_Draw_pixel>
	LCD_12864_Draw_pixel(0, 50);
    2d8c:	62 e3       	ldi	r22, 0x32	; 50
    2d8e:	80 e0       	ldi	r24, 0x00	; 0
    2d90:	0e 94 b8 07 	call	0xf70	; 0xf70 <LCD_12864_Draw_pixel>
	//---------Стрелка-----------------
	//--точка в центре---
	LCD_12864_Draw_pixel(11, 52);
    2d94:	64 e3       	ldi	r22, 0x34	; 52
    2d96:	8b e0       	ldi	r24, 0x0B	; 11
    2d98:	0e 94 b8 07 	call	0xf70	; 0xf70 <LCD_12864_Draw_pixel>
	if (!strcmp(wind_direction, "N"))
    2d9c:	67 e9       	ldi	r22, 0x97	; 151
    2d9e:	71 e0       	ldi	r23, 0x01	; 1
    2da0:	86 e4       	ldi	r24, 0x46	; 70
    2da2:	92 e0       	ldi	r25, 0x02	; 2
    2da4:	0e 94 2f 26 	call	0x4c5e	; 0x4c5e <strcmp>
    2da8:	89 2b       	or	r24, r25
    2daa:	09 f0       	breq	.+2      	; 0x2dae <DrawWeatherVane+0x2bc>
    2dac:	41 c0       	rjmp	.+130    	; 0x2e30 <DrawWeatherVane+0x33e>
	{
		LCD_12864_Draw_pixel(10, 53);
    2dae:	65 e3       	ldi	r22, 0x35	; 53
    2db0:	8a e0       	ldi	r24, 0x0A	; 10
    2db2:	0e 94 b8 07 	call	0xf70	; 0xf70 <LCD_12864_Draw_pixel>
		LCD_12864_Draw_pixel(10, 54);
    2db6:	66 e3       	ldi	r22, 0x36	; 54
    2db8:	8a e0       	ldi	r24, 0x0A	; 10
    2dba:	0e 94 b8 07 	call	0xf70	; 0xf70 <LCD_12864_Draw_pixel>
		LCD_12864_Draw_pixel(12, 53);
    2dbe:	65 e3       	ldi	r22, 0x35	; 53
    2dc0:	8c e0       	ldi	r24, 0x0C	; 12
    2dc2:	0e 94 b8 07 	call	0xf70	; 0xf70 <LCD_12864_Draw_pixel>
		LCD_12864_Draw_pixel(12, 54);
    2dc6:	66 e3       	ldi	r22, 0x36	; 54
    2dc8:	8c e0       	ldi	r24, 0x0C	; 12
    2dca:	0e 94 b8 07 	call	0xf70	; 0xf70 <LCD_12864_Draw_pixel>
		LCD_12864_Draw_pixel(11, 51);
    2dce:	63 e3       	ldi	r22, 0x33	; 51
    2dd0:	8b e0       	ldi	r24, 0x0B	; 11
    2dd2:	0e 94 b8 07 	call	0xf70	; 0xf70 <LCD_12864_Draw_pixel>
		LCD_12864_Draw_pixel(11, 50);
    2dd6:	62 e3       	ldi	r22, 0x32	; 50
    2dd8:	8b e0       	ldi	r24, 0x0B	; 11
    2dda:	0e 94 b8 07 	call	0xf70	; 0xf70 <LCD_12864_Draw_pixel>
		LCD_12864_Draw_pixel(11, 49);
    2dde:	61 e3       	ldi	r22, 0x31	; 49
    2de0:	8b e0       	ldi	r24, 0x0B	; 11
    2de2:	0e 94 b8 07 	call	0xf70	; 0xf70 <LCD_12864_Draw_pixel>
		LCD_12864_Draw_pixel(11, 48);
    2de6:	60 e3       	ldi	r22, 0x30	; 48
    2de8:	8b e0       	ldi	r24, 0x0B	; 11
    2dea:	0e 94 b8 07 	call	0xf70	; 0xf70 <LCD_12864_Draw_pixel>
		LCD_12864_Draw_pixel(11, 47);
    2dee:	6f e2       	ldi	r22, 0x2F	; 47
    2df0:	8b e0       	ldi	r24, 0x0B	; 11
    2df2:	0e 94 b8 07 	call	0xf70	; 0xf70 <LCD_12864_Draw_pixel>
		LCD_12864_Draw_pixel(11, 46);
    2df6:	6e e2       	ldi	r22, 0x2E	; 46
    2df8:	8b e0       	ldi	r24, 0x0B	; 11
    2dfa:	0e 94 b8 07 	call	0xf70	; 0xf70 <LCD_12864_Draw_pixel>
		LCD_12864_Draw_pixel(10, 47);
    2dfe:	6f e2       	ldi	r22, 0x2F	; 47
    2e00:	8a e0       	ldi	r24, 0x0A	; 10
    2e02:	0e 94 b8 07 	call	0xf70	; 0xf70 <LCD_12864_Draw_pixel>
		LCD_12864_Draw_pixel(12, 47);
    2e06:	6f e2       	ldi	r22, 0x2F	; 47
    2e08:	8c e0       	ldi	r24, 0x0C	; 12
    2e0a:	0e 94 b8 07 	call	0xf70	; 0xf70 <LCD_12864_Draw_pixel>
		LCD_12864_Draw_pixel(10, 48);
    2e0e:	60 e3       	ldi	r22, 0x30	; 48
    2e10:	8a e0       	ldi	r24, 0x0A	; 10
    2e12:	0e 94 b8 07 	call	0xf70	; 0xf70 <LCD_12864_Draw_pixel>
		LCD_12864_Draw_pixel(9, 48);
    2e16:	60 e3       	ldi	r22, 0x30	; 48
    2e18:	89 e0       	ldi	r24, 0x09	; 9
    2e1a:	0e 94 b8 07 	call	0xf70	; 0xf70 <LCD_12864_Draw_pixel>
		LCD_12864_Draw_pixel(12, 48);
    2e1e:	60 e3       	ldi	r22, 0x30	; 48
    2e20:	8c e0       	ldi	r24, 0x0C	; 12
    2e22:	0e 94 b8 07 	call	0xf70	; 0xf70 <LCD_12864_Draw_pixel>
		LCD_12864_Draw_pixel(13, 48);
    2e26:	60 e3       	ldi	r22, 0x30	; 48
    2e28:	8d e0       	ldi	r24, 0x0D	; 13
    2e2a:	0e 94 b8 07 	call	0xf70	; 0xf70 <LCD_12864_Draw_pixel>
    2e2e:	08 95       	ret
	}
	else if (!strcmp(wind_direction, "S"))
    2e30:	69 e9       	ldi	r22, 0x99	; 153
    2e32:	71 e0       	ldi	r23, 0x01	; 1
    2e34:	86 e4       	ldi	r24, 0x46	; 70
    2e36:	92 e0       	ldi	r25, 0x02	; 2
    2e38:	0e 94 2f 26 	call	0x4c5e	; 0x4c5e <strcmp>
    2e3c:	89 2b       	or	r24, r25
    2e3e:	09 f0       	breq	.+2      	; 0x2e42 <DrawWeatherVane+0x350>
    2e40:	41 c0       	rjmp	.+130    	; 0x2ec4 <DrawWeatherVane+0x3d2>
	{
		LCD_12864_Draw_pixel(10, 50);
    2e42:	62 e3       	ldi	r22, 0x32	; 50
    2e44:	8a e0       	ldi	r24, 0x0A	; 10
    2e46:	0e 94 b8 07 	call	0xf70	; 0xf70 <LCD_12864_Draw_pixel>
		LCD_12864_Draw_pixel(10, 51);
    2e4a:	63 e3       	ldi	r22, 0x33	; 51
    2e4c:	8a e0       	ldi	r24, 0x0A	; 10
    2e4e:	0e 94 b8 07 	call	0xf70	; 0xf70 <LCD_12864_Draw_pixel>
		LCD_12864_Draw_pixel(12, 50);
    2e52:	62 e3       	ldi	r22, 0x32	; 50
    2e54:	8c e0       	ldi	r24, 0x0C	; 12
    2e56:	0e 94 b8 07 	call	0xf70	; 0xf70 <LCD_12864_Draw_pixel>
		LCD_12864_Draw_pixel(12, 51);
    2e5a:	63 e3       	ldi	r22, 0x33	; 51
    2e5c:	8c e0       	ldi	r24, 0x0C	; 12
    2e5e:	0e 94 b8 07 	call	0xf70	; 0xf70 <LCD_12864_Draw_pixel>
		LCD_12864_Draw_pixel(11, 53);
    2e62:	65 e3       	ldi	r22, 0x35	; 53
    2e64:	8b e0       	ldi	r24, 0x0B	; 11
    2e66:	0e 94 b8 07 	call	0xf70	; 0xf70 <LCD_12864_Draw_pixel>
		LCD_12864_Draw_pixel(11, 54);
    2e6a:	66 e3       	ldi	r22, 0x36	; 54
    2e6c:	8b e0       	ldi	r24, 0x0B	; 11
    2e6e:	0e 94 b8 07 	call	0xf70	; 0xf70 <LCD_12864_Draw_pixel>
		LCD_12864_Draw_pixel(11, 55);
    2e72:	67 e3       	ldi	r22, 0x37	; 55
    2e74:	8b e0       	ldi	r24, 0x0B	; 11
    2e76:	0e 94 b8 07 	call	0xf70	; 0xf70 <LCD_12864_Draw_pixel>
		LCD_12864_Draw_pixel(11, 56);
    2e7a:	68 e3       	ldi	r22, 0x38	; 56
    2e7c:	8b e0       	ldi	r24, 0x0B	; 11
    2e7e:	0e 94 b8 07 	call	0xf70	; 0xf70 <LCD_12864_Draw_pixel>
		LCD_12864_Draw_pixel(11, 57);
    2e82:	69 e3       	ldi	r22, 0x39	; 57
    2e84:	8b e0       	ldi	r24, 0x0B	; 11
    2e86:	0e 94 b8 07 	call	0xf70	; 0xf70 <LCD_12864_Draw_pixel>
		LCD_12864_Draw_pixel(11, 58);
    2e8a:	6a e3       	ldi	r22, 0x3A	; 58
    2e8c:	8b e0       	ldi	r24, 0x0B	; 11
    2e8e:	0e 94 b8 07 	call	0xf70	; 0xf70 <LCD_12864_Draw_pixel>
		LCD_12864_Draw_pixel(10, 57);
    2e92:	69 e3       	ldi	r22, 0x39	; 57
    2e94:	8a e0       	ldi	r24, 0x0A	; 10
    2e96:	0e 94 b8 07 	call	0xf70	; 0xf70 <LCD_12864_Draw_pixel>
		LCD_12864_Draw_pixel(12, 57);
    2e9a:	69 e3       	ldi	r22, 0x39	; 57
    2e9c:	8c e0       	ldi	r24, 0x0C	; 12
    2e9e:	0e 94 b8 07 	call	0xf70	; 0xf70 <LCD_12864_Draw_pixel>
		LCD_12864_Draw_pixel(10, 56);
    2ea2:	68 e3       	ldi	r22, 0x38	; 56
    2ea4:	8a e0       	ldi	r24, 0x0A	; 10
    2ea6:	0e 94 b8 07 	call	0xf70	; 0xf70 <LCD_12864_Draw_pixel>
		LCD_12864_Draw_pixel(9, 56);
    2eaa:	68 e3       	ldi	r22, 0x38	; 56
    2eac:	89 e0       	ldi	r24, 0x09	; 9
    2eae:	0e 94 b8 07 	call	0xf70	; 0xf70 <LCD_12864_Draw_pixel>
		LCD_12864_Draw_pixel(12, 56);
    2eb2:	68 e3       	ldi	r22, 0x38	; 56
    2eb4:	8c e0       	ldi	r24, 0x0C	; 12
    2eb6:	0e 94 b8 07 	call	0xf70	; 0xf70 <LCD_12864_Draw_pixel>
		LCD_12864_Draw_pixel(13, 56);
    2eba:	68 e3       	ldi	r22, 0x38	; 56
    2ebc:	8d e0       	ldi	r24, 0x0D	; 13
    2ebe:	0e 94 b8 07 	call	0xf70	; 0xf70 <LCD_12864_Draw_pixel>
    2ec2:	08 95       	ret
	}
	else if (!strcmp(wind_direction, "E"))
    2ec4:	6d e9       	ldi	r22, 0x9D	; 157
    2ec6:	71 e0       	ldi	r23, 0x01	; 1
    2ec8:	86 e4       	ldi	r24, 0x46	; 70
    2eca:	92 e0       	ldi	r25, 0x02	; 2
    2ecc:	0e 94 2f 26 	call	0x4c5e	; 0x4c5e <strcmp>
    2ed0:	89 2b       	or	r24, r25
    2ed2:	09 f0       	breq	.+2      	; 0x2ed6 <DrawWeatherVane+0x3e4>
    2ed4:	41 c0       	rjmp	.+130    	; 0x2f58 <DrawWeatherVane+0x466>
	{
		LCD_12864_Draw_pixel(9, 51);
    2ed6:	63 e3       	ldi	r22, 0x33	; 51
    2ed8:	89 e0       	ldi	r24, 0x09	; 9
    2eda:	0e 94 b8 07 	call	0xf70	; 0xf70 <LCD_12864_Draw_pixel>
		LCD_12864_Draw_pixel(10, 51);
    2ede:	63 e3       	ldi	r22, 0x33	; 51
    2ee0:	8a e0       	ldi	r24, 0x0A	; 10
    2ee2:	0e 94 b8 07 	call	0xf70	; 0xf70 <LCD_12864_Draw_pixel>
		LCD_12864_Draw_pixel(9, 53);
    2ee6:	65 e3       	ldi	r22, 0x35	; 53
    2ee8:	89 e0       	ldi	r24, 0x09	; 9
    2eea:	0e 94 b8 07 	call	0xf70	; 0xf70 <LCD_12864_Draw_pixel>
		LCD_12864_Draw_pixel(10, 53);
    2eee:	65 e3       	ldi	r22, 0x35	; 53
    2ef0:	8a e0       	ldi	r24, 0x0A	; 10
    2ef2:	0e 94 b8 07 	call	0xf70	; 0xf70 <LCD_12864_Draw_pixel>
		LCD_12864_Draw_pixel(12, 52);
    2ef6:	64 e3       	ldi	r22, 0x34	; 52
    2ef8:	8c e0       	ldi	r24, 0x0C	; 12
    2efa:	0e 94 b8 07 	call	0xf70	; 0xf70 <LCD_12864_Draw_pixel>
		LCD_12864_Draw_pixel(13, 52);
    2efe:	64 e3       	ldi	r22, 0x34	; 52
    2f00:	8d e0       	ldi	r24, 0x0D	; 13
    2f02:	0e 94 b8 07 	call	0xf70	; 0xf70 <LCD_12864_Draw_pixel>
		LCD_12864_Draw_pixel(14, 52);
    2f06:	64 e3       	ldi	r22, 0x34	; 52
    2f08:	8e e0       	ldi	r24, 0x0E	; 14
    2f0a:	0e 94 b8 07 	call	0xf70	; 0xf70 <LCD_12864_Draw_pixel>
		LCD_12864_Draw_pixel(15, 52);
    2f0e:	64 e3       	ldi	r22, 0x34	; 52
    2f10:	8f e0       	ldi	r24, 0x0F	; 15
    2f12:	0e 94 b8 07 	call	0xf70	; 0xf70 <LCD_12864_Draw_pixel>
		LCD_12864_Draw_pixel(16, 52);
    2f16:	64 e3       	ldi	r22, 0x34	; 52
    2f18:	80 e1       	ldi	r24, 0x10	; 16
    2f1a:	0e 94 b8 07 	call	0xf70	; 0xf70 <LCD_12864_Draw_pixel>
		LCD_12864_Draw_pixel(17, 52);
    2f1e:	64 e3       	ldi	r22, 0x34	; 52
    2f20:	81 e1       	ldi	r24, 0x11	; 17
    2f22:	0e 94 b8 07 	call	0xf70	; 0xf70 <LCD_12864_Draw_pixel>
		LCD_12864_Draw_pixel(16, 51);
    2f26:	63 e3       	ldi	r22, 0x33	; 51
    2f28:	80 e1       	ldi	r24, 0x10	; 16
    2f2a:	0e 94 b8 07 	call	0xf70	; 0xf70 <LCD_12864_Draw_pixel>
		LCD_12864_Draw_pixel(16, 53);
    2f2e:	65 e3       	ldi	r22, 0x35	; 53
    2f30:	80 e1       	ldi	r24, 0x10	; 16
    2f32:	0e 94 b8 07 	call	0xf70	; 0xf70 <LCD_12864_Draw_pixel>
		LCD_12864_Draw_pixel(15, 53);
    2f36:	65 e3       	ldi	r22, 0x35	; 53
    2f38:	8f e0       	ldi	r24, 0x0F	; 15
    2f3a:	0e 94 b8 07 	call	0xf70	; 0xf70 <LCD_12864_Draw_pixel>
		LCD_12864_Draw_pixel(15, 54);
    2f3e:	66 e3       	ldi	r22, 0x36	; 54
    2f40:	8f e0       	ldi	r24, 0x0F	; 15
    2f42:	0e 94 b8 07 	call	0xf70	; 0xf70 <LCD_12864_Draw_pixel>
		LCD_12864_Draw_pixel(15, 51);
    2f46:	63 e3       	ldi	r22, 0x33	; 51
    2f48:	8f e0       	ldi	r24, 0x0F	; 15
    2f4a:	0e 94 b8 07 	call	0xf70	; 0xf70 <LCD_12864_Draw_pixel>
		LCD_12864_Draw_pixel(15, 50);
    2f4e:	62 e3       	ldi	r22, 0x32	; 50
    2f50:	8f e0       	ldi	r24, 0x0F	; 15
    2f52:	0e 94 b8 07 	call	0xf70	; 0xf70 <LCD_12864_Draw_pixel>
    2f56:	08 95       	ret
	}
	else if (!strcmp(wind_direction, "W"))
    2f58:	61 ea       	ldi	r22, 0xA1	; 161
    2f5a:	71 e0       	ldi	r23, 0x01	; 1
    2f5c:	86 e4       	ldi	r24, 0x46	; 70
    2f5e:	92 e0       	ldi	r25, 0x02	; 2
    2f60:	0e 94 2f 26 	call	0x4c5e	; 0x4c5e <strcmp>
    2f64:	89 2b       	or	r24, r25
    2f66:	09 f0       	breq	.+2      	; 0x2f6a <DrawWeatherVane+0x478>
    2f68:	41 c0       	rjmp	.+130    	; 0x2fec <DrawWeatherVane+0x4fa>
	{
		LCD_12864_Draw_pixel(13, 51);
    2f6a:	63 e3       	ldi	r22, 0x33	; 51
    2f6c:	8d e0       	ldi	r24, 0x0D	; 13
    2f6e:	0e 94 b8 07 	call	0xf70	; 0xf70 <LCD_12864_Draw_pixel>
		LCD_12864_Draw_pixel(12, 51);
    2f72:	63 e3       	ldi	r22, 0x33	; 51
    2f74:	8c e0       	ldi	r24, 0x0C	; 12
    2f76:	0e 94 b8 07 	call	0xf70	; 0xf70 <LCD_12864_Draw_pixel>
		LCD_12864_Draw_pixel(13, 53);
    2f7a:	65 e3       	ldi	r22, 0x35	; 53
    2f7c:	8d e0       	ldi	r24, 0x0D	; 13
    2f7e:	0e 94 b8 07 	call	0xf70	; 0xf70 <LCD_12864_Draw_pixel>
		LCD_12864_Draw_pixel(12, 53);
    2f82:	65 e3       	ldi	r22, 0x35	; 53
    2f84:	8c e0       	ldi	r24, 0x0C	; 12
    2f86:	0e 94 b8 07 	call	0xf70	; 0xf70 <LCD_12864_Draw_pixel>
		LCD_12864_Draw_pixel(10, 52);
    2f8a:	64 e3       	ldi	r22, 0x34	; 52
    2f8c:	8a e0       	ldi	r24, 0x0A	; 10
    2f8e:	0e 94 b8 07 	call	0xf70	; 0xf70 <LCD_12864_Draw_pixel>
		LCD_12864_Draw_pixel(9, 52);
    2f92:	64 e3       	ldi	r22, 0x34	; 52
    2f94:	89 e0       	ldi	r24, 0x09	; 9
    2f96:	0e 94 b8 07 	call	0xf70	; 0xf70 <LCD_12864_Draw_pixel>
		LCD_12864_Draw_pixel(8, 52);
    2f9a:	64 e3       	ldi	r22, 0x34	; 52
    2f9c:	88 e0       	ldi	r24, 0x08	; 8
    2f9e:	0e 94 b8 07 	call	0xf70	; 0xf70 <LCD_12864_Draw_pixel>
		LCD_12864_Draw_pixel(7, 52);
    2fa2:	64 e3       	ldi	r22, 0x34	; 52
    2fa4:	87 e0       	ldi	r24, 0x07	; 7
    2fa6:	0e 94 b8 07 	call	0xf70	; 0xf70 <LCD_12864_Draw_pixel>
		LCD_12864_Draw_pixel(6, 52);
    2faa:	64 e3       	ldi	r22, 0x34	; 52
    2fac:	86 e0       	ldi	r24, 0x06	; 6
    2fae:	0e 94 b8 07 	call	0xf70	; 0xf70 <LCD_12864_Draw_pixel>
		LCD_12864_Draw_pixel(5, 52);
    2fb2:	64 e3       	ldi	r22, 0x34	; 52
    2fb4:	85 e0       	ldi	r24, 0x05	; 5
    2fb6:	0e 94 b8 07 	call	0xf70	; 0xf70 <LCD_12864_Draw_pixel>
		LCD_12864_Draw_pixel(6, 51);
    2fba:	63 e3       	ldi	r22, 0x33	; 51
    2fbc:	86 e0       	ldi	r24, 0x06	; 6
    2fbe:	0e 94 b8 07 	call	0xf70	; 0xf70 <LCD_12864_Draw_pixel>
		LCD_12864_Draw_pixel(6, 53);
    2fc2:	65 e3       	ldi	r22, 0x35	; 53
    2fc4:	86 e0       	ldi	r24, 0x06	; 6
    2fc6:	0e 94 b8 07 	call	0xf70	; 0xf70 <LCD_12864_Draw_pixel>
		LCD_12864_Draw_pixel(7, 53);
    2fca:	65 e3       	ldi	r22, 0x35	; 53
    2fcc:	87 e0       	ldi	r24, 0x07	; 7
    2fce:	0e 94 b8 07 	call	0xf70	; 0xf70 <LCD_12864_Draw_pixel>
		LCD_12864_Draw_pixel(7, 54);
    2fd2:	66 e3       	ldi	r22, 0x36	; 54
    2fd4:	87 e0       	ldi	r24, 0x07	; 7
    2fd6:	0e 94 b8 07 	call	0xf70	; 0xf70 <LCD_12864_Draw_pixel>
		LCD_12864_Draw_pixel(7, 51);
    2fda:	63 e3       	ldi	r22, 0x33	; 51
    2fdc:	87 e0       	ldi	r24, 0x07	; 7
    2fde:	0e 94 b8 07 	call	0xf70	; 0xf70 <LCD_12864_Draw_pixel>
		LCD_12864_Draw_pixel(7, 50);
    2fe2:	62 e3       	ldi	r22, 0x32	; 50
    2fe4:	87 e0       	ldi	r24, 0x07	; 7
    2fe6:	0e 94 b8 07 	call	0xf70	; 0xf70 <LCD_12864_Draw_pixel>
    2fea:	08 95       	ret
	}
	else if (!strcmp(wind_direction, "N-E"))
    2fec:	6b e9       	ldi	r22, 0x9B	; 155
    2fee:	71 e0       	ldi	r23, 0x01	; 1
    2ff0:	86 e4       	ldi	r24, 0x46	; 70
    2ff2:	92 e0       	ldi	r25, 0x02	; 2
    2ff4:	0e 94 2f 26 	call	0x4c5e	; 0x4c5e <strcmp>
    2ff8:	89 2b       	or	r24, r25
    2ffa:	b9 f5       	brne	.+110    	; 0x306a <DrawWeatherVane+0x578>
	{
		LCD_12864_Draw_pixel(10, 51);
    2ffc:	63 e3       	ldi	r22, 0x33	; 51
    2ffe:	8a e0       	ldi	r24, 0x0A	; 10
    3000:	0e 94 b8 07 	call	0xf70	; 0xf70 <LCD_12864_Draw_pixel>
		LCD_12864_Draw_pixel(9, 52);
    3004:	64 e3       	ldi	r22, 0x34	; 52
    3006:	89 e0       	ldi	r24, 0x09	; 9
    3008:	0e 94 b8 07 	call	0xf70	; 0xf70 <LCD_12864_Draw_pixel>
		LCD_12864_Draw_pixel(12, 53);
    300c:	65 e3       	ldi	r22, 0x35	; 53
    300e:	8c e0       	ldi	r24, 0x0C	; 12
    3010:	0e 94 b8 07 	call	0xf70	; 0xf70 <LCD_12864_Draw_pixel>
		LCD_12864_Draw_pixel(11, 54);
    3014:	66 e3       	ldi	r22, 0x36	; 54
    3016:	8b e0       	ldi	r24, 0x0B	; 11
    3018:	0e 94 b8 07 	call	0xf70	; 0xf70 <LCD_12864_Draw_pixel>
		LCD_12864_Draw_line(11, 52, 16, 47);
    301c:	2f e2       	ldi	r18, 0x2F	; 47
    301e:	40 e1       	ldi	r20, 0x10	; 16
    3020:	64 e3       	ldi	r22, 0x34	; 52
    3022:	8b e0       	ldi	r24, 0x0B	; 11
    3024:	0e 94 2e 0d 	call	0x1a5c	; 0x1a5c <LCD_12864_Draw_line>
		LCD_12864_Draw_pixel(15, 47);
    3028:	6f e2       	ldi	r22, 0x2F	; 47
    302a:	8f e0       	ldi	r24, 0x0F	; 15
    302c:	0e 94 b8 07 	call	0xf70	; 0xf70 <LCD_12864_Draw_pixel>
		LCD_12864_Draw_pixel(14, 47);
    3030:	6f e2       	ldi	r22, 0x2F	; 47
    3032:	8e e0       	ldi	r24, 0x0E	; 14
    3034:	0e 94 b8 07 	call	0xf70	; 0xf70 <LCD_12864_Draw_pixel>
		LCD_12864_Draw_pixel(13, 47);
    3038:	6f e2       	ldi	r22, 0x2F	; 47
    303a:	8d e0       	ldi	r24, 0x0D	; 13
    303c:	0e 94 b8 07 	call	0xf70	; 0xf70 <LCD_12864_Draw_pixel>
		LCD_12864_Draw_pixel(14, 48);
    3040:	60 e3       	ldi	r22, 0x30	; 48
    3042:	8e e0       	ldi	r24, 0x0E	; 14
    3044:	0e 94 b8 07 	call	0xf70	; 0xf70 <LCD_12864_Draw_pixel>
		LCD_12864_Draw_pixel(16, 48);
    3048:	60 e3       	ldi	r22, 0x30	; 48
    304a:	80 e1       	ldi	r24, 0x10	; 16
    304c:	0e 94 b8 07 	call	0xf70	; 0xf70 <LCD_12864_Draw_pixel>
		LCD_12864_Draw_pixel(16, 49);
    3050:	61 e3       	ldi	r22, 0x31	; 49
    3052:	80 e1       	ldi	r24, 0x10	; 16
    3054:	0e 94 b8 07 	call	0xf70	; 0xf70 <LCD_12864_Draw_pixel>
		LCD_12864_Draw_pixel(15, 49);
    3058:	61 e3       	ldi	r22, 0x31	; 49
    305a:	8f e0       	ldi	r24, 0x0F	; 15
    305c:	0e 94 b8 07 	call	0xf70	; 0xf70 <LCD_12864_Draw_pixel>
		LCD_12864_Draw_pixel(16, 50);
    3060:	62 e3       	ldi	r22, 0x32	; 50
    3062:	80 e1       	ldi	r24, 0x10	; 16
    3064:	0e 94 b8 07 	call	0xf70	; 0xf70 <LCD_12864_Draw_pixel>
    3068:	08 95       	ret
	}
	else if (!strcmp(wind_direction, "N-W"))
    306a:	6f e9       	ldi	r22, 0x9F	; 159
    306c:	71 e0       	ldi	r23, 0x01	; 1
    306e:	86 e4       	ldi	r24, 0x46	; 70
    3070:	92 e0       	ldi	r25, 0x02	; 2
    3072:	0e 94 2f 26 	call	0x4c5e	; 0x4c5e <strcmp>
    3076:	89 2b       	or	r24, r25
    3078:	b9 f5       	brne	.+110    	; 0x30e8 <DrawWeatherVane+0x5f6>
	{
		LCD_12864_Draw_pixel(12, 51);
    307a:	63 e3       	ldi	r22, 0x33	; 51
    307c:	8c e0       	ldi	r24, 0x0C	; 12
    307e:	0e 94 b8 07 	call	0xf70	; 0xf70 <LCD_12864_Draw_pixel>
		LCD_12864_Draw_pixel(13, 52);
    3082:	64 e3       	ldi	r22, 0x34	; 52
    3084:	8d e0       	ldi	r24, 0x0D	; 13
    3086:	0e 94 b8 07 	call	0xf70	; 0xf70 <LCD_12864_Draw_pixel>
		LCD_12864_Draw_pixel(10, 53);
    308a:	65 e3       	ldi	r22, 0x35	; 53
    308c:	8a e0       	ldi	r24, 0x0A	; 10
    308e:	0e 94 b8 07 	call	0xf70	; 0xf70 <LCD_12864_Draw_pixel>
		LCD_12864_Draw_pixel(11, 54);
    3092:	66 e3       	ldi	r22, 0x36	; 54
    3094:	8b e0       	ldi	r24, 0x0B	; 11
    3096:	0e 94 b8 07 	call	0xf70	; 0xf70 <LCD_12864_Draw_pixel>
		LCD_12864_Draw_line(11, 52, 6, 47);
    309a:	2f e2       	ldi	r18, 0x2F	; 47
    309c:	46 e0       	ldi	r20, 0x06	; 6
    309e:	64 e3       	ldi	r22, 0x34	; 52
    30a0:	8b e0       	ldi	r24, 0x0B	; 11
    30a2:	0e 94 2e 0d 	call	0x1a5c	; 0x1a5c <LCD_12864_Draw_line>
		LCD_12864_Draw_pixel(7, 47);
    30a6:	6f e2       	ldi	r22, 0x2F	; 47
    30a8:	87 e0       	ldi	r24, 0x07	; 7
    30aa:	0e 94 b8 07 	call	0xf70	; 0xf70 <LCD_12864_Draw_pixel>
		LCD_12864_Draw_pixel(8, 47);
    30ae:	6f e2       	ldi	r22, 0x2F	; 47
    30b0:	88 e0       	ldi	r24, 0x08	; 8
    30b2:	0e 94 b8 07 	call	0xf70	; 0xf70 <LCD_12864_Draw_pixel>
		LCD_12864_Draw_pixel(9, 47);
    30b6:	6f e2       	ldi	r22, 0x2F	; 47
    30b8:	89 e0       	ldi	r24, 0x09	; 9
    30ba:	0e 94 b8 07 	call	0xf70	; 0xf70 <LCD_12864_Draw_pixel>
		LCD_12864_Draw_pixel(8, 48);
    30be:	60 e3       	ldi	r22, 0x30	; 48
    30c0:	88 e0       	ldi	r24, 0x08	; 8
    30c2:	0e 94 b8 07 	call	0xf70	; 0xf70 <LCD_12864_Draw_pixel>
		LCD_12864_Draw_pixel(6, 48);
    30c6:	60 e3       	ldi	r22, 0x30	; 48
    30c8:	86 e0       	ldi	r24, 0x06	; 6
    30ca:	0e 94 b8 07 	call	0xf70	; 0xf70 <LCD_12864_Draw_pixel>
		LCD_12864_Draw_pixel(6, 49);
    30ce:	61 e3       	ldi	r22, 0x31	; 49
    30d0:	86 e0       	ldi	r24, 0x06	; 6
    30d2:	0e 94 b8 07 	call	0xf70	; 0xf70 <LCD_12864_Draw_pixel>
		LCD_12864_Draw_pixel(6, 50);
    30d6:	62 e3       	ldi	r22, 0x32	; 50
    30d8:	86 e0       	ldi	r24, 0x06	; 6
    30da:	0e 94 b8 07 	call	0xf70	; 0xf70 <LCD_12864_Draw_pixel>
		LCD_12864_Draw_pixel(7, 49);
    30de:	61 e3       	ldi	r22, 0x31	; 49
    30e0:	87 e0       	ldi	r24, 0x07	; 7
    30e2:	0e 94 b8 07 	call	0xf70	; 0xf70 <LCD_12864_Draw_pixel>
    30e6:	08 95       	ret
	}
	else if (!strcmp(wind_direction, "S-E"))
    30e8:	63 ea       	ldi	r22, 0xA3	; 163
    30ea:	71 e0       	ldi	r23, 0x01	; 1
    30ec:	86 e4       	ldi	r24, 0x46	; 70
    30ee:	92 e0       	ldi	r25, 0x02	; 2
    30f0:	0e 94 2f 26 	call	0x4c5e	; 0x4c5e <strcmp>
    30f4:	89 2b       	or	r24, r25
    30f6:	b9 f5       	brne	.+110    	; 0x3166 <DrawWeatherVane+0x674>
	{
		LCD_12864_Draw_pixel(11, 50);
    30f8:	62 e3       	ldi	r22, 0x32	; 50
    30fa:	8b e0       	ldi	r24, 0x0B	; 11
    30fc:	0e 94 b8 07 	call	0xf70	; 0xf70 <LCD_12864_Draw_pixel>
		LCD_12864_Draw_pixel(12, 51);
    3100:	63 e3       	ldi	r22, 0x33	; 51
    3102:	8c e0       	ldi	r24, 0x0C	; 12
    3104:	0e 94 b8 07 	call	0xf70	; 0xf70 <LCD_12864_Draw_pixel>
		LCD_12864_Draw_pixel(10, 53);
    3108:	65 e3       	ldi	r22, 0x35	; 53
    310a:	8a e0       	ldi	r24, 0x0A	; 10
    310c:	0e 94 b8 07 	call	0xf70	; 0xf70 <LCD_12864_Draw_pixel>
		LCD_12864_Draw_pixel(9, 52);
    3110:	64 e3       	ldi	r22, 0x34	; 52
    3112:	89 e0       	ldi	r24, 0x09	; 9
    3114:	0e 94 b8 07 	call	0xf70	; 0xf70 <LCD_12864_Draw_pixel>
		LCD_12864_Draw_line(11, 52, 16, 57);
    3118:	29 e3       	ldi	r18, 0x39	; 57
    311a:	40 e1       	ldi	r20, 0x10	; 16
    311c:	64 e3       	ldi	r22, 0x34	; 52
    311e:	8b e0       	ldi	r24, 0x0B	; 11
    3120:	0e 94 2e 0d 	call	0x1a5c	; 0x1a5c <LCD_12864_Draw_line>
		LCD_12864_Draw_pixel(16, 56);
    3124:	68 e3       	ldi	r22, 0x38	; 56
    3126:	80 e1       	ldi	r24, 0x10	; 16
    3128:	0e 94 b8 07 	call	0xf70	; 0xf70 <LCD_12864_Draw_pixel>
		LCD_12864_Draw_pixel(15, 57);
    312c:	69 e3       	ldi	r22, 0x39	; 57
    312e:	8f e0       	ldi	r24, 0x0F	; 15
    3130:	0e 94 b8 07 	call	0xf70	; 0xf70 <LCD_12864_Draw_pixel>
		LCD_12864_Draw_pixel(15, 55);
    3134:	67 e3       	ldi	r22, 0x37	; 55
    3136:	8f e0       	ldi	r24, 0x0F	; 15
    3138:	0e 94 b8 07 	call	0xf70	; 0xf70 <LCD_12864_Draw_pixel>
		LCD_12864_Draw_pixel(16, 55);
    313c:	67 e3       	ldi	r22, 0x37	; 55
    313e:	80 e1       	ldi	r24, 0x10	; 16
    3140:	0e 94 b8 07 	call	0xf70	; 0xf70 <LCD_12864_Draw_pixel>
		LCD_12864_Draw_pixel(16, 54);
    3144:	66 e3       	ldi	r22, 0x36	; 54
    3146:	80 e1       	ldi	r24, 0x10	; 16
    3148:	0e 94 b8 07 	call	0xf70	; 0xf70 <LCD_12864_Draw_pixel>
		LCD_12864_Draw_pixel(14, 56);
    314c:	68 e3       	ldi	r22, 0x38	; 56
    314e:	8e e0       	ldi	r24, 0x0E	; 14
    3150:	0e 94 b8 07 	call	0xf70	; 0xf70 <LCD_12864_Draw_pixel>
		LCD_12864_Draw_pixel(14, 57);
    3154:	69 e3       	ldi	r22, 0x39	; 57
    3156:	8e e0       	ldi	r24, 0x0E	; 14
    3158:	0e 94 b8 07 	call	0xf70	; 0xf70 <LCD_12864_Draw_pixel>
		LCD_12864_Draw_pixel(13, 57);
    315c:	69 e3       	ldi	r22, 0x39	; 57
    315e:	8d e0       	ldi	r24, 0x0D	; 13
    3160:	0e 94 b8 07 	call	0xf70	; 0xf70 <LCD_12864_Draw_pixel>
    3164:	08 95       	ret
	}
	else if (!strcmp(wind_direction, "S-W"))
    3166:	67 ea       	ldi	r22, 0xA7	; 167
    3168:	71 e0       	ldi	r23, 0x01	; 1
    316a:	86 e4       	ldi	r24, 0x46	; 70
    316c:	92 e0       	ldi	r25, 0x02	; 2
    316e:	0e 94 2f 26 	call	0x4c5e	; 0x4c5e <strcmp>
    3172:	89 2b       	or	r24, r25
    3174:	b1 f5       	brne	.+108    	; 0x31e2 <DrawWeatherVane+0x6f0>
	{
		LCD_12864_Draw_pixel(11, 50);
    3176:	62 e3       	ldi	r22, 0x32	; 50
    3178:	8b e0       	ldi	r24, 0x0B	; 11
    317a:	0e 94 b8 07 	call	0xf70	; 0xf70 <LCD_12864_Draw_pixel>
		LCD_12864_Draw_pixel(10, 51);
    317e:	63 e3       	ldi	r22, 0x33	; 51
    3180:	8a e0       	ldi	r24, 0x0A	; 10
    3182:	0e 94 b8 07 	call	0xf70	; 0xf70 <LCD_12864_Draw_pixel>
		LCD_12864_Draw_pixel(13, 52);
    3186:	64 e3       	ldi	r22, 0x34	; 52
    3188:	8d e0       	ldi	r24, 0x0D	; 13
    318a:	0e 94 b8 07 	call	0xf70	; 0xf70 <LCD_12864_Draw_pixel>
		LCD_12864_Draw_pixel(12, 53);
    318e:	65 e3       	ldi	r22, 0x35	; 53
    3190:	8c e0       	ldi	r24, 0x0C	; 12
    3192:	0e 94 b8 07 	call	0xf70	; 0xf70 <LCD_12864_Draw_pixel>
		LCD_12864_Draw_line(11, 52, 6, 57);
    3196:	29 e3       	ldi	r18, 0x39	; 57
    3198:	46 e0       	ldi	r20, 0x06	; 6
    319a:	64 e3       	ldi	r22, 0x34	; 52
    319c:	8b e0       	ldi	r24, 0x0B	; 11
    319e:	0e 94 2e 0d 	call	0x1a5c	; 0x1a5c <LCD_12864_Draw_line>
		LCD_12864_Draw_pixel(6, 56);
    31a2:	68 e3       	ldi	r22, 0x38	; 56
    31a4:	86 e0       	ldi	r24, 0x06	; 6
    31a6:	0e 94 b8 07 	call	0xf70	; 0xf70 <LCD_12864_Draw_pixel>
		LCD_12864_Draw_pixel(6, 55);
    31aa:	67 e3       	ldi	r22, 0x37	; 55
    31ac:	86 e0       	ldi	r24, 0x06	; 6
    31ae:	0e 94 b8 07 	call	0xf70	; 0xf70 <LCD_12864_Draw_pixel>
		LCD_12864_Draw_pixel(7, 55);
    31b2:	67 e3       	ldi	r22, 0x37	; 55
    31b4:	87 e0       	ldi	r24, 0x07	; 7
    31b6:	0e 94 b8 07 	call	0xf70	; 0xf70 <LCD_12864_Draw_pixel>
		LCD_12864_Draw_pixel(6, 54);
    31ba:	66 e3       	ldi	r22, 0x36	; 54
    31bc:	86 e0       	ldi	r24, 0x06	; 6
    31be:	0e 94 b8 07 	call	0xf70	; 0xf70 <LCD_12864_Draw_pixel>
		LCD_12864_Draw_pixel(7, 57);
    31c2:	69 e3       	ldi	r22, 0x39	; 57
    31c4:	87 e0       	ldi	r24, 0x07	; 7
    31c6:	0e 94 b8 07 	call	0xf70	; 0xf70 <LCD_12864_Draw_pixel>
		LCD_12864_Draw_pixel(8, 57);
    31ca:	69 e3       	ldi	r22, 0x39	; 57
    31cc:	88 e0       	ldi	r24, 0x08	; 8
    31ce:	0e 94 b8 07 	call	0xf70	; 0xf70 <LCD_12864_Draw_pixel>
		LCD_12864_Draw_pixel(8, 56);
    31d2:	68 e3       	ldi	r22, 0x38	; 56
    31d4:	88 e0       	ldi	r24, 0x08	; 8
    31d6:	0e 94 b8 07 	call	0xf70	; 0xf70 <LCD_12864_Draw_pixel>
		LCD_12864_Draw_pixel(9, 57);
    31da:	69 e3       	ldi	r22, 0x39	; 57
    31dc:	89 e0       	ldi	r24, 0x09	; 9
    31de:	0e 94 b8 07 	call	0xf70	; 0xf70 <LCD_12864_Draw_pixel>
    31e2:	08 95       	ret

000031e4 <Clock>:
	else {}
}
void Clock (void)
{		
	//Читаем время (для DS3231) - по сути функция RTC_read_time
	I2C_StartCondition();               // запуск i2c
    31e4:	0e 94 00 13 	call	0x2600	; 0x2600 <I2C_StartCondition>
	I2C_SendByte(0b11010000);			// передача адреса устройства, режим записи
    31e8:	80 ed       	ldi	r24, 0xD0	; 208
    31ea:	0e 94 0c 13 	call	0x2618	; 0x2618 <I2C_SendByte>
	I2C_SendByte(0x00);				    // передача адреса памяти
    31ee:	80 e0       	ldi	r24, 0x00	; 0
    31f0:	0e 94 0c 13 	call	0x2618	; 0x2618 <I2C_SendByte>
	I2C_StopCondition();                // остановка i2c
    31f4:	0e 94 08 13 	call	0x2610	; 0x2610 <I2C_StopCondition>
	
	I2C_StartCondition();               // запуск i2c
    31f8:	0e 94 00 13 	call	0x2600	; 0x2600 <I2C_StartCondition>
	I2C_SendByte(0b11010001);			// передача адреса устройства, режим чтения
    31fc:	81 ed       	ldi	r24, 0xD1	; 209
    31fe:	0e 94 0c 13 	call	0x2618	; 0x2618 <I2C_SendByte>
	sec = RTC_ConvertFromDec(I2C_ReadByte());     // чтение секунд, ACK
    3202:	0e 94 16 13 	call	0x262c	; 0x262c <I2C_ReadByte>
    3206:	0e 94 e0 12 	call	0x25c0	; 0x25c0 <RTC_ConvertFromDec>
    320a:	80 93 e0 06 	sts	0x06E0, r24	; 0x8006e0 <sec>
	min = RTC_ConvertFromDec(I2C_ReadByte());     // чтение минут, ACK
    320e:	0e 94 16 13 	call	0x262c	; 0x262c <I2C_ReadByte>
    3212:	0e 94 e0 12 	call	0x25c0	; 0x25c0 <RTC_ConvertFromDec>
    3216:	80 93 da 06 	sts	0x06DA, r24	; 0x8006da <min>
	hour = RTC_ConvertFromDec(I2C_ReadByte());    // чтение часов, ACK
    321a:	0e 94 16 13 	call	0x262c	; 0x262c <I2C_ReadByte>
    321e:	0e 94 e0 12 	call	0x25c0	; 0x25c0 <RTC_ConvertFromDec>
    3222:	80 93 d3 06 	sts	0x06D3, r24	; 0x8006d3 <hour>
	day = RTC_ConvertFromDec(I2C_ReadByte());     // чтение день недели, ACK
    3226:	0e 94 16 13 	call	0x262c	; 0x262c <I2C_ReadByte>
    322a:	0e 94 e0 12 	call	0x25c0	; 0x25c0 <RTC_ConvertFromDec>
    322e:	80 93 e4 06 	sts	0x06E4, r24	; 0x8006e4 <day>
	date = RTC_ConvertFromDec(I2C_ReadByte());    // чтение число, ACK
    3232:	0e 94 16 13 	call	0x262c	; 0x262c <I2C_ReadByte>
    3236:	0e 94 e0 12 	call	0x25c0	; 0x25c0 <RTC_ConvertFromDec>
    323a:	80 93 e6 06 	sts	0x06E6, r24	; 0x8006e6 <date>
	month = RTC_ConvertFromDec(I2C_ReadByte());   // чтение месяц, ACK
    323e:	0e 94 16 13 	call	0x262c	; 0x262c <I2C_ReadByte>
    3242:	0e 94 e0 12 	call	0x25c0	; 0x25c0 <RTC_ConvertFromDec>
    3246:	80 93 d2 06 	sts	0x06D2, r24	; 0x8006d2 <month>
	year = RTC_ConvertFromDec(I2C_ReadLastByte());// чтение год, NACK
    324a:	0e 94 20 13 	call	0x2640	; 0x2640 <I2C_ReadLastByte>
    324e:	0e 94 e0 12 	call	0x25c0	; 0x25c0 <RTC_ConvertFromDec>
    3252:	80 93 df 06 	sts	0x06DF, r24	; 0x8006df <year>
	I2C_StopCondition();                // остановка i2c
    3256:	0e 94 08 13 	call	0x2610	; 0x2610 <I2C_StopCondition>
	
	if ((sec >= 0) && (sec <= 9)) {
    325a:	80 91 e0 06 	lds	r24, 0x06E0	; 0x8006e0 <sec>
    325e:	8a 30       	cpi	r24, 0x0A	; 10
    3260:	98 f4       	brcc	.+38     	; 0x3288 <Clock+0xa4>
		sprintf(seconds,"0%d",sec);
    3262:	1f 92       	push	r1
    3264:	8f 93       	push	r24
    3266:	8b ea       	ldi	r24, 0xAB	; 171
    3268:	91 e0       	ldi	r25, 0x01	; 1
    326a:	9f 93       	push	r25
    326c:	8f 93       	push	r24
    326e:	81 ec       	ldi	r24, 0xC1	; 193
    3270:	96 e0       	ldi	r25, 0x06	; 6
    3272:	9f 93       	push	r25
    3274:	8f 93       	push	r24
    3276:	0e 94 7f 26 	call	0x4cfe	; 0x4cfe <sprintf>
    327a:	0f 90       	pop	r0
    327c:	0f 90       	pop	r0
    327e:	0f 90       	pop	r0
    3280:	0f 90       	pop	r0
    3282:	0f 90       	pop	r0
    3284:	0f 90       	pop	r0
    3286:	12 c0       	rjmp	.+36     	; 0x32ac <Clock+0xc8>
	}
	else {
		sprintf(seconds,"%d",sec);
    3288:	1f 92       	push	r1
    328a:	8f 93       	push	r24
    328c:	8c ea       	ldi	r24, 0xAC	; 172
    328e:	91 e0       	ldi	r25, 0x01	; 1
    3290:	9f 93       	push	r25
    3292:	8f 93       	push	r24
    3294:	81 ec       	ldi	r24, 0xC1	; 193
    3296:	96 e0       	ldi	r25, 0x06	; 6
    3298:	9f 93       	push	r25
    329a:	8f 93       	push	r24
    329c:	0e 94 7f 26 	call	0x4cfe	; 0x4cfe <sprintf>
    32a0:	0f 90       	pop	r0
    32a2:	0f 90       	pop	r0
    32a4:	0f 90       	pop	r0
    32a6:	0f 90       	pop	r0
    32a8:	0f 90       	pop	r0
    32aa:	0f 90       	pop	r0
	}
	if ((min >= 0) && (min <= 9)) {
    32ac:	80 91 da 06 	lds	r24, 0x06DA	; 0x8006da <min>
    32b0:	8a 30       	cpi	r24, 0x0A	; 10
    32b2:	98 f4       	brcc	.+38     	; 0x32da <Clock+0xf6>
		sprintf(minutes,"0%d",min);
    32b4:	1f 92       	push	r1
    32b6:	8f 93       	push	r24
    32b8:	8b ea       	ldi	r24, 0xAB	; 171
    32ba:	91 e0       	ldi	r25, 0x01	; 1
    32bc:	9f 93       	push	r25
    32be:	8f 93       	push	r24
    32c0:	86 ec       	ldi	r24, 0xC6	; 198
    32c2:	96 e0       	ldi	r25, 0x06	; 6
    32c4:	9f 93       	push	r25
    32c6:	8f 93       	push	r24
    32c8:	0e 94 7f 26 	call	0x4cfe	; 0x4cfe <sprintf>
    32cc:	0f 90       	pop	r0
    32ce:	0f 90       	pop	r0
    32d0:	0f 90       	pop	r0
    32d2:	0f 90       	pop	r0
    32d4:	0f 90       	pop	r0
    32d6:	0f 90       	pop	r0
    32d8:	12 c0       	rjmp	.+36     	; 0x32fe <Clock+0x11a>
	}
	else {
		sprintf(minutes,"%d",min);
    32da:	1f 92       	push	r1
    32dc:	8f 93       	push	r24
    32de:	8c ea       	ldi	r24, 0xAC	; 172
    32e0:	91 e0       	ldi	r25, 0x01	; 1
    32e2:	9f 93       	push	r25
    32e4:	8f 93       	push	r24
    32e6:	86 ec       	ldi	r24, 0xC6	; 198
    32e8:	96 e0       	ldi	r25, 0x06	; 6
    32ea:	9f 93       	push	r25
    32ec:	8f 93       	push	r24
    32ee:	0e 94 7f 26 	call	0x4cfe	; 0x4cfe <sprintf>
    32f2:	0f 90       	pop	r0
    32f4:	0f 90       	pop	r0
    32f6:	0f 90       	pop	r0
    32f8:	0f 90       	pop	r0
    32fa:	0f 90       	pop	r0
    32fc:	0f 90       	pop	r0
	}
	if ((hour >= 0) && (hour <= 9)) {
    32fe:	80 91 d3 06 	lds	r24, 0x06D3	; 0x8006d3 <hour>
    3302:	8a 30       	cpi	r24, 0x0A	; 10
    3304:	98 f4       	brcc	.+38     	; 0x332c <Clock+0x148>
		sprintf(hours,"0%d",hour);
    3306:	1f 92       	push	r1
    3308:	8f 93       	push	r24
    330a:	8b ea       	ldi	r24, 0xAB	; 171
    330c:	91 e0       	ldi	r25, 0x01	; 1
    330e:	9f 93       	push	r25
    3310:	8f 93       	push	r24
    3312:	8a ec       	ldi	r24, 0xCA	; 202
    3314:	96 e0       	ldi	r25, 0x06	; 6
    3316:	9f 93       	push	r25
    3318:	8f 93       	push	r24
    331a:	0e 94 7f 26 	call	0x4cfe	; 0x4cfe <sprintf>
    331e:	0f 90       	pop	r0
    3320:	0f 90       	pop	r0
    3322:	0f 90       	pop	r0
    3324:	0f 90       	pop	r0
    3326:	0f 90       	pop	r0
    3328:	0f 90       	pop	r0
    332a:	12 c0       	rjmp	.+36     	; 0x3350 <Clock+0x16c>
	}
	else {
		sprintf(hours,"%d",hour);
    332c:	1f 92       	push	r1
    332e:	8f 93       	push	r24
    3330:	8c ea       	ldi	r24, 0xAC	; 172
    3332:	91 e0       	ldi	r25, 0x01	; 1
    3334:	9f 93       	push	r25
    3336:	8f 93       	push	r24
    3338:	8a ec       	ldi	r24, 0xCA	; 202
    333a:	96 e0       	ldi	r25, 0x06	; 6
    333c:	9f 93       	push	r25
    333e:	8f 93       	push	r24
    3340:	0e 94 7f 26 	call	0x4cfe	; 0x4cfe <sprintf>
    3344:	0f 90       	pop	r0
    3346:	0f 90       	pop	r0
    3348:	0f 90       	pop	r0
    334a:	0f 90       	pop	r0
    334c:	0f 90       	pop	r0
    334e:	0f 90       	pop	r0
	}
	if ((date >= 0) && (date <= 9)) {
    3350:	80 91 e6 06 	lds	r24, 0x06E6	; 0x8006e6 <date>
    3354:	8a 30       	cpi	r24, 0x0A	; 10
    3356:	98 f4       	brcc	.+38     	; 0x337e <Clock+0x19a>
		sprintf(mounthday,"0%d",date);
    3358:	1f 92       	push	r1
    335a:	8f 93       	push	r24
    335c:	8b ea       	ldi	r24, 0xAB	; 171
    335e:	91 e0       	ldi	r25, 0x01	; 1
    3360:	9f 93       	push	r25
    3362:	8f 93       	push	r24
    3364:	8b ed       	ldi	r24, 0xDB	; 219
    3366:	96 e0       	ldi	r25, 0x06	; 6
    3368:	9f 93       	push	r25
    336a:	8f 93       	push	r24
    336c:	0e 94 7f 26 	call	0x4cfe	; 0x4cfe <sprintf>
    3370:	0f 90       	pop	r0
    3372:	0f 90       	pop	r0
    3374:	0f 90       	pop	r0
    3376:	0f 90       	pop	r0
    3378:	0f 90       	pop	r0
    337a:	0f 90       	pop	r0
    337c:	12 c0       	rjmp	.+36     	; 0x33a2 <Clock+0x1be>
	}
	else {
		sprintf(mounthday,"%d",date);
    337e:	1f 92       	push	r1
    3380:	8f 93       	push	r24
    3382:	8c ea       	ldi	r24, 0xAC	; 172
    3384:	91 e0       	ldi	r25, 0x01	; 1
    3386:	9f 93       	push	r25
    3388:	8f 93       	push	r24
    338a:	8b ed       	ldi	r24, 0xDB	; 219
    338c:	96 e0       	ldi	r25, 0x06	; 6
    338e:	9f 93       	push	r25
    3390:	8f 93       	push	r24
    3392:	0e 94 7f 26 	call	0x4cfe	; 0x4cfe <sprintf>
    3396:	0f 90       	pop	r0
    3398:	0f 90       	pop	r0
    339a:	0f 90       	pop	r0
    339c:	0f 90       	pop	r0
    339e:	0f 90       	pop	r0
    33a0:	0f 90       	pop	r0
	}
	switch (day)
    33a2:	e0 91 e4 06 	lds	r30, 0x06E4	; 0x8006e4 <day>
    33a6:	8e 2f       	mov	r24, r30
    33a8:	90 e0       	ldi	r25, 0x00	; 0
    33aa:	fc 01       	movw	r30, r24
    33ac:	31 97       	sbiw	r30, 0x01	; 1
    33ae:	e7 30       	cpi	r30, 0x07	; 7
    33b0:	f1 05       	cpc	r31, r1
    33b2:	d8 f5       	brcc	.+118    	; 0x342a <Clock+0x246>
    33b4:	ec 5c       	subi	r30, 0xCC	; 204
    33b6:	ff 4f       	sbci	r31, 0xFF	; 255
    33b8:	0c 94 db 24 	jmp	0x49b6	; 0x49b6 <__tablejump2__>
	{
		case 1:
			sprintf(weakday,"Пн");
    33bc:	ee ec       	ldi	r30, 0xCE	; 206
    33be:	f6 e0       	ldi	r31, 0x06	; 6
    33c0:	8f ec       	ldi	r24, 0xCF	; 207
    33c2:	9d ee       	ldi	r25, 0xED	; 237
    33c4:	91 83       	std	Z+1, r25	; 0x01
    33c6:	80 83       	st	Z, r24
    33c8:	12 82       	std	Z+2, r1	; 0x02
			break;
    33ca:	2f c0       	rjmp	.+94     	; 0x342a <Clock+0x246>
		case 2:
			sprintf(weakday,"Вт");
    33cc:	ee ec       	ldi	r30, 0xCE	; 206
    33ce:	f6 e0       	ldi	r31, 0x06	; 6
    33d0:	82 ec       	ldi	r24, 0xC2	; 194
    33d2:	92 ef       	ldi	r25, 0xF2	; 242
    33d4:	91 83       	std	Z+1, r25	; 0x01
    33d6:	80 83       	st	Z, r24
    33d8:	12 82       	std	Z+2, r1	; 0x02
			break;
    33da:	27 c0       	rjmp	.+78     	; 0x342a <Clock+0x246>
		case 3:
			sprintf(weakday,"Ср");
    33dc:	ee ec       	ldi	r30, 0xCE	; 206
    33de:	f6 e0       	ldi	r31, 0x06	; 6
    33e0:	81 ed       	ldi	r24, 0xD1	; 209
    33e2:	90 ef       	ldi	r25, 0xF0	; 240
    33e4:	91 83       	std	Z+1, r25	; 0x01
    33e6:	80 83       	st	Z, r24
    33e8:	12 82       	std	Z+2, r1	; 0x02
			break;
    33ea:	1f c0       	rjmp	.+62     	; 0x342a <Clock+0x246>
		case 4:
			sprintf(weakday,"Чт");
    33ec:	ee ec       	ldi	r30, 0xCE	; 206
    33ee:	f6 e0       	ldi	r31, 0x06	; 6
    33f0:	87 ed       	ldi	r24, 0xD7	; 215
    33f2:	92 ef       	ldi	r25, 0xF2	; 242
    33f4:	91 83       	std	Z+1, r25	; 0x01
    33f6:	80 83       	st	Z, r24
    33f8:	12 82       	std	Z+2, r1	; 0x02
			break;
    33fa:	17 c0       	rjmp	.+46     	; 0x342a <Clock+0x246>
		case 5:
			sprintf(weakday,"Пт");
    33fc:	ee ec       	ldi	r30, 0xCE	; 206
    33fe:	f6 e0       	ldi	r31, 0x06	; 6
    3400:	8f ec       	ldi	r24, 0xCF	; 207
    3402:	92 ef       	ldi	r25, 0xF2	; 242
    3404:	91 83       	std	Z+1, r25	; 0x01
    3406:	80 83       	st	Z, r24
    3408:	12 82       	std	Z+2, r1	; 0x02
			break;
    340a:	0f c0       	rjmp	.+30     	; 0x342a <Clock+0x246>
		case 6:
			sprintf(weakday,"Сб");
    340c:	ee ec       	ldi	r30, 0xCE	; 206
    340e:	f6 e0       	ldi	r31, 0x06	; 6
    3410:	81 ed       	ldi	r24, 0xD1	; 209
    3412:	91 ee       	ldi	r25, 0xE1	; 225
    3414:	91 83       	std	Z+1, r25	; 0x01
    3416:	80 83       	st	Z, r24
    3418:	12 82       	std	Z+2, r1	; 0x02
			break;
    341a:	07 c0       	rjmp	.+14     	; 0x342a <Clock+0x246>
		case 7:
			sprintf(weakday,"Вс");
    341c:	ee ec       	ldi	r30, 0xCE	; 206
    341e:	f6 e0       	ldi	r31, 0x06	; 6
    3420:	82 ec       	ldi	r24, 0xC2	; 194
    3422:	91 ef       	ldi	r25, 0xF1	; 241
    3424:	91 83       	std	Z+1, r25	; 0x01
    3426:	80 83       	st	Z, r24
    3428:	12 82       	std	Z+2, r1	; 0x02
			break;
		default:
			break;
	}
	switch (month)
    342a:	e0 91 d2 06 	lds	r30, 0x06D2	; 0x8006d2 <month>
    342e:	8e 2f       	mov	r24, r30
    3430:	90 e0       	ldi	r25, 0x00	; 0
    3432:	fc 01       	movw	r30, r24
    3434:	31 97       	sbiw	r30, 0x01	; 1
    3436:	ec 30       	cpi	r30, 0x0C	; 12
    3438:	f1 05       	cpc	r31, r1
    343a:	08 f0       	brcs	.+2      	; 0x343e <Clock+0x25a>
    343c:	87 c0       	rjmp	.+270    	; 0x354c <Clock+0x368>
    343e:	e5 5c       	subi	r30, 0xC5	; 197
    3440:	ff 4f       	sbci	r31, 0xFF	; 255
    3442:	0c 94 db 24 	jmp	0x49b6	; 0x49b6 <__tablejump2__>
	{
		case 1:
		sprintf(Mounth,"Янв");
    3446:	e4 ed       	ldi	r30, 0xD4	; 212
    3448:	f6 e0       	ldi	r31, 0x06	; 6
    344a:	8f ed       	ldi	r24, 0xDF	; 223
    344c:	9d ee       	ldi	r25, 0xED	; 237
    344e:	91 83       	std	Z+1, r25	; 0x01
    3450:	80 83       	st	Z, r24
    3452:	82 ee       	ldi	r24, 0xE2	; 226
    3454:	90 e0       	ldi	r25, 0x00	; 0
    3456:	93 83       	std	Z+3, r25	; 0x03
    3458:	82 83       	std	Z+2, r24	; 0x02
		break;
    345a:	08 95       	ret
		case 2:
		sprintf(Mounth,"Фев");
    345c:	e4 ed       	ldi	r30, 0xD4	; 212
    345e:	f6 e0       	ldi	r31, 0x06	; 6
    3460:	84 ed       	ldi	r24, 0xD4	; 212
    3462:	95 ee       	ldi	r25, 0xE5	; 229
    3464:	91 83       	std	Z+1, r25	; 0x01
    3466:	80 83       	st	Z, r24
    3468:	82 ee       	ldi	r24, 0xE2	; 226
    346a:	90 e0       	ldi	r25, 0x00	; 0
    346c:	93 83       	std	Z+3, r25	; 0x03
    346e:	82 83       	std	Z+2, r24	; 0x02
		break;
    3470:	08 95       	ret
		case 3:
		sprintf(Mounth,"Мар");
    3472:	e4 ed       	ldi	r30, 0xD4	; 212
    3474:	f6 e0       	ldi	r31, 0x06	; 6
    3476:	8c ec       	ldi	r24, 0xCC	; 204
    3478:	90 ee       	ldi	r25, 0xE0	; 224
    347a:	91 83       	std	Z+1, r25	; 0x01
    347c:	80 83       	st	Z, r24
    347e:	80 ef       	ldi	r24, 0xF0	; 240
    3480:	90 e0       	ldi	r25, 0x00	; 0
    3482:	93 83       	std	Z+3, r25	; 0x03
    3484:	82 83       	std	Z+2, r24	; 0x02
		break;
    3486:	08 95       	ret
		case 4:
		sprintf(Mounth,"Апр");
    3488:	e4 ed       	ldi	r30, 0xD4	; 212
    348a:	f6 e0       	ldi	r31, 0x06	; 6
    348c:	80 ec       	ldi	r24, 0xC0	; 192
    348e:	9f ee       	ldi	r25, 0xEF	; 239
    3490:	91 83       	std	Z+1, r25	; 0x01
    3492:	80 83       	st	Z, r24
    3494:	80 ef       	ldi	r24, 0xF0	; 240
    3496:	90 e0       	ldi	r25, 0x00	; 0
    3498:	93 83       	std	Z+3, r25	; 0x03
    349a:	82 83       	std	Z+2, r24	; 0x02
		break;
    349c:	08 95       	ret
		case 5:
		sprintf(Mounth,"Май");
    349e:	e4 ed       	ldi	r30, 0xD4	; 212
    34a0:	f6 e0       	ldi	r31, 0x06	; 6
    34a2:	8c ec       	ldi	r24, 0xCC	; 204
    34a4:	90 ee       	ldi	r25, 0xE0	; 224
    34a6:	91 83       	std	Z+1, r25	; 0x01
    34a8:	80 83       	st	Z, r24
    34aa:	89 ee       	ldi	r24, 0xE9	; 233
    34ac:	90 e0       	ldi	r25, 0x00	; 0
    34ae:	93 83       	std	Z+3, r25	; 0x03
    34b0:	82 83       	std	Z+2, r24	; 0x02
		break;
    34b2:	08 95       	ret
		case 6:
		sprintf(Mounth,"Июн");
    34b4:	e4 ed       	ldi	r30, 0xD4	; 212
    34b6:	f6 e0       	ldi	r31, 0x06	; 6
    34b8:	88 ec       	ldi	r24, 0xC8	; 200
    34ba:	9e ef       	ldi	r25, 0xFE	; 254
    34bc:	91 83       	std	Z+1, r25	; 0x01
    34be:	80 83       	st	Z, r24
    34c0:	8d ee       	ldi	r24, 0xED	; 237
    34c2:	90 e0       	ldi	r25, 0x00	; 0
    34c4:	93 83       	std	Z+3, r25	; 0x03
    34c6:	82 83       	std	Z+2, r24	; 0x02
		break;
    34c8:	08 95       	ret
		case 7:
		sprintf(Mounth,"Июл");
    34ca:	e4 ed       	ldi	r30, 0xD4	; 212
    34cc:	f6 e0       	ldi	r31, 0x06	; 6
    34ce:	88 ec       	ldi	r24, 0xC8	; 200
    34d0:	9e ef       	ldi	r25, 0xFE	; 254
    34d2:	91 83       	std	Z+1, r25	; 0x01
    34d4:	80 83       	st	Z, r24
    34d6:	8b ee       	ldi	r24, 0xEB	; 235
    34d8:	90 e0       	ldi	r25, 0x00	; 0
    34da:	93 83       	std	Z+3, r25	; 0x03
    34dc:	82 83       	std	Z+2, r24	; 0x02
		break;
    34de:	08 95       	ret
		case 8:
		sprintf(Mounth,"Авг");
    34e0:	e4 ed       	ldi	r30, 0xD4	; 212
    34e2:	f6 e0       	ldi	r31, 0x06	; 6
    34e4:	80 ec       	ldi	r24, 0xC0	; 192
    34e6:	92 ee       	ldi	r25, 0xE2	; 226
    34e8:	91 83       	std	Z+1, r25	; 0x01
    34ea:	80 83       	st	Z, r24
    34ec:	83 ee       	ldi	r24, 0xE3	; 227
    34ee:	90 e0       	ldi	r25, 0x00	; 0
    34f0:	93 83       	std	Z+3, r25	; 0x03
    34f2:	82 83       	std	Z+2, r24	; 0x02
		break;
    34f4:	08 95       	ret
		case 9:
		sprintf(Mounth,"Сен");
    34f6:	e4 ed       	ldi	r30, 0xD4	; 212
    34f8:	f6 e0       	ldi	r31, 0x06	; 6
    34fa:	81 ed       	ldi	r24, 0xD1	; 209
    34fc:	95 ee       	ldi	r25, 0xE5	; 229
    34fe:	91 83       	std	Z+1, r25	; 0x01
    3500:	80 83       	st	Z, r24
    3502:	8d ee       	ldi	r24, 0xED	; 237
    3504:	90 e0       	ldi	r25, 0x00	; 0
    3506:	93 83       	std	Z+3, r25	; 0x03
    3508:	82 83       	std	Z+2, r24	; 0x02
		break;
    350a:	08 95       	ret
		case 10:
		sprintf(Mounth,"Окт");
    350c:	e4 ed       	ldi	r30, 0xD4	; 212
    350e:	f6 e0       	ldi	r31, 0x06	; 6
    3510:	8e ec       	ldi	r24, 0xCE	; 206
    3512:	9a ee       	ldi	r25, 0xEA	; 234
    3514:	91 83       	std	Z+1, r25	; 0x01
    3516:	80 83       	st	Z, r24
    3518:	82 ef       	ldi	r24, 0xF2	; 242
    351a:	90 e0       	ldi	r25, 0x00	; 0
    351c:	93 83       	std	Z+3, r25	; 0x03
    351e:	82 83       	std	Z+2, r24	; 0x02
		break;
    3520:	08 95       	ret
		case 11:
		sprintf(Mounth,"Ноя");
    3522:	e4 ed       	ldi	r30, 0xD4	; 212
    3524:	f6 e0       	ldi	r31, 0x06	; 6
    3526:	8d ec       	ldi	r24, 0xCD	; 205
    3528:	9e ee       	ldi	r25, 0xEE	; 238
    352a:	91 83       	std	Z+1, r25	; 0x01
    352c:	80 83       	st	Z, r24
    352e:	8f ef       	ldi	r24, 0xFF	; 255
    3530:	90 e0       	ldi	r25, 0x00	; 0
    3532:	93 83       	std	Z+3, r25	; 0x03
    3534:	82 83       	std	Z+2, r24	; 0x02
		break;
    3536:	08 95       	ret
		case 12:
		sprintf(Mounth,"Дек");
    3538:	e4 ed       	ldi	r30, 0xD4	; 212
    353a:	f6 e0       	ldi	r31, 0x06	; 6
    353c:	84 ec       	ldi	r24, 0xC4	; 196
    353e:	95 ee       	ldi	r25, 0xE5	; 229
    3540:	91 83       	std	Z+1, r25	; 0x01
    3542:	80 83       	st	Z, r24
    3544:	8a ee       	ldi	r24, 0xEA	; 234
    3546:	90 e0       	ldi	r25, 0x00	; 0
    3548:	93 83       	std	Z+3, r25	; 0x03
    354a:	82 83       	std	Z+2, r24	; 0x02
    354c:	08 95       	ret

0000354e <RAIN_AMOUNT>:
	}
	
}
//Вычисление кол-ва осадков
float RAIN_AMOUNT(char *adc_value)
{
    354e:	cf 93       	push	r28
    3550:	df 93       	push	r29
    3552:	00 d0       	rcall	.+0      	; 0x3554 <RAIN_AMOUNT+0x6>
    3554:	cd b7       	in	r28, 0x3d	; 61
    3556:	de b7       	in	r29, 0x3e	; 62
	float RAIN;
	int R;
	if (strlen(adc_value) != 0)
    3558:	fc 01       	movw	r30, r24
    355a:	20 81       	ld	r18, Z
    355c:	22 23       	and	r18, r18
    355e:	a1 f0       	breq	.+40     	; 0x3588 <RAIN_AMOUNT+0x3a>
	{
		sscanf(adc_value, "%d", &R);
    3560:	9e 01       	movw	r18, r28
    3562:	2f 5f       	subi	r18, 0xFF	; 255
    3564:	3f 4f       	sbci	r19, 0xFF	; 255
    3566:	3f 93       	push	r19
    3568:	2f 93       	push	r18
    356a:	2c ea       	ldi	r18, 0xAC	; 172
    356c:	31 e0       	ldi	r19, 0x01	; 1
    356e:	3f 93       	push	r19
    3570:	2f 93       	push	r18
    3572:	9f 93       	push	r25
    3574:	8f 93       	push	r24
    3576:	0e 94 a1 26 	call	0x4d42	; 0x4d42 <sscanf>
    357a:	0f 90       	pop	r0
    357c:	0f 90       	pop	r0
    357e:	0f 90       	pop	r0
    3580:	0f 90       	pop	r0
    3582:	0f 90       	pop	r0
    3584:	0f 90       	pop	r0
    3586:	02 c0       	rjmp	.+4      	; 0x358c <RAIN_AMOUNT+0x3e>
	}
	else
	{
		R = 0;
    3588:	1a 82       	std	Y+2, r1	; 0x02
    358a:	19 82       	std	Y+1, r1	; 0x01
	}
	RAIN = 3*R*2.45/5120;
    358c:	69 81       	ldd	r22, Y+1	; 0x01
    358e:	7a 81       	ldd	r23, Y+2	; 0x02
    3590:	cb 01       	movw	r24, r22
    3592:	88 0f       	add	r24, r24
    3594:	99 1f       	adc	r25, r25
    3596:	68 0f       	add	r22, r24
    3598:	79 1f       	adc	r23, r25
    359a:	07 2e       	mov	r0, r23
    359c:	00 0c       	add	r0, r0
    359e:	88 0b       	sbc	r24, r24
    35a0:	99 0b       	sbc	r25, r25
    35a2:	0e 94 eb 1f 	call	0x3fd6	; 0x3fd6 <__floatsisf>
    35a6:	2d ec       	ldi	r18, 0xCD	; 205
    35a8:	3c ec       	ldi	r19, 0xCC	; 204
    35aa:	4c e1       	ldi	r20, 0x1C	; 28
    35ac:	50 e4       	ldi	r21, 0x40	; 64
    35ae:	0e 94 a0 20 	call	0x4140	; 0x4140 <__mulsf3>
    35b2:	20 e0       	ldi	r18, 0x00	; 0
    35b4:	30 e0       	ldi	r19, 0x00	; 0
    35b6:	40 ea       	ldi	r20, 0xA0	; 160
    35b8:	55 e4       	ldi	r21, 0x45	; 69
    35ba:	0e 94 41 1f 	call	0x3e82	; 0x3e82 <__divsf3>
	
	return RAIN;
}
    35be:	0f 90       	pop	r0
    35c0:	0f 90       	pop	r0
    35c2:	df 91       	pop	r29
    35c4:	cf 91       	pop	r28
    35c6:	08 95       	ret

000035c8 <V_BAT>:
//Вычисление уровня заряда АКБ
float V_BAT (char *adc_value)
{
    35c8:	cf 93       	push	r28
    35ca:	df 93       	push	r29
    35cc:	00 d0       	rcall	.+0      	; 0x35ce <V_BAT+0x6>
    35ce:	cd b7       	in	r28, 0x3d	; 61
    35d0:	de b7       	in	r29, 0x3e	; 62
	float VBAT;
	int V;
	if (strlen(adc_value) != 0)
    35d2:	fc 01       	movw	r30, r24
    35d4:	20 81       	ld	r18, Z
    35d6:	22 23       	and	r18, r18
    35d8:	a1 f0       	breq	.+40     	; 0x3602 <V_BAT+0x3a>
	{
		sscanf(adc_value, "%d", &V);
    35da:	9e 01       	movw	r18, r28
    35dc:	2f 5f       	subi	r18, 0xFF	; 255
    35de:	3f 4f       	sbci	r19, 0xFF	; 255
    35e0:	3f 93       	push	r19
    35e2:	2f 93       	push	r18
    35e4:	2c ea       	ldi	r18, 0xAC	; 172
    35e6:	31 e0       	ldi	r19, 0x01	; 1
    35e8:	3f 93       	push	r19
    35ea:	2f 93       	push	r18
    35ec:	9f 93       	push	r25
    35ee:	8f 93       	push	r24
    35f0:	0e 94 a1 26 	call	0x4d42	; 0x4d42 <sscanf>
    35f4:	0f 90       	pop	r0
    35f6:	0f 90       	pop	r0
    35f8:	0f 90       	pop	r0
    35fa:	0f 90       	pop	r0
    35fc:	0f 90       	pop	r0
    35fe:	0f 90       	pop	r0
    3600:	02 c0       	rjmp	.+4      	; 0x3606 <V_BAT+0x3e>
	}
	else
	{
		V = 0;
    3602:	1a 82       	std	Y+2, r1	; 0x02
    3604:	19 82       	std	Y+1, r1	; 0x01
	}
	VBAT = V*2.45*3/1024;
    3606:	69 81       	ldd	r22, Y+1	; 0x01
    3608:	7a 81       	ldd	r23, Y+2	; 0x02
    360a:	07 2e       	mov	r0, r23
    360c:	00 0c       	add	r0, r0
    360e:	88 0b       	sbc	r24, r24
    3610:	99 0b       	sbc	r25, r25
    3612:	0e 94 eb 1f 	call	0x3fd6	; 0x3fd6 <__floatsisf>
    3616:	2d ec       	ldi	r18, 0xCD	; 205
    3618:	3c ec       	ldi	r19, 0xCC	; 204
    361a:	4c e1       	ldi	r20, 0x1C	; 28
    361c:	50 e4       	ldi	r21, 0x40	; 64
    361e:	0e 94 a0 20 	call	0x4140	; 0x4140 <__mulsf3>
    3622:	20 e0       	ldi	r18, 0x00	; 0
    3624:	30 e0       	ldi	r19, 0x00	; 0
    3626:	40 e4       	ldi	r20, 0x40	; 64
    3628:	50 e4       	ldi	r21, 0x40	; 64
    362a:	0e 94 a0 20 	call	0x4140	; 0x4140 <__mulsf3>
    362e:	20 e0       	ldi	r18, 0x00	; 0
    3630:	30 e0       	ldi	r19, 0x00	; 0
    3632:	40 e8       	ldi	r20, 0x80	; 128
    3634:	5a e3       	ldi	r21, 0x3A	; 58
    3636:	0e 94 a0 20 	call	0x4140	; 0x4140 <__mulsf3>
	
	return VBAT;
}
    363a:	0f 90       	pop	r0
    363c:	0f 90       	pop	r0
    363e:	df 91       	pop	r29
    3640:	cf 91       	pop	r28
    3642:	08 95       	ret

00003644 <DrawBattery>:
	}
	else {}
}
void DrawBattery(void)
{
	LCD_12864_Draw_line(34, 28, 40, 28);
    3644:	2c e1       	ldi	r18, 0x1C	; 28
    3646:	48 e2       	ldi	r20, 0x28	; 40
    3648:	6c e1       	ldi	r22, 0x1C	; 28
    364a:	82 e2       	ldi	r24, 0x22	; 34
    364c:	0e 94 2e 0d 	call	0x1a5c	; 0x1a5c <LCD_12864_Draw_line>
	LCD_12864_Draw_line(34, 19, 34, 27);
    3650:	2b e1       	ldi	r18, 0x1B	; 27
    3652:	42 e2       	ldi	r20, 0x22	; 34
    3654:	63 e1       	ldi	r22, 0x13	; 19
    3656:	82 e2       	ldi	r24, 0x22	; 34
    3658:	0e 94 2e 0d 	call	0x1a5c	; 0x1a5c <LCD_12864_Draw_line>
	LCD_12864_Draw_line(40, 19, 40, 27);
    365c:	2b e1       	ldi	r18, 0x1B	; 27
    365e:	48 e2       	ldi	r20, 0x28	; 40
    3660:	63 e1       	ldi	r22, 0x13	; 19
    3662:	88 e2       	ldi	r24, 0x28	; 40
    3664:	0e 94 2e 0d 	call	0x1a5c	; 0x1a5c <LCD_12864_Draw_line>
	LCD_12864_Draw_line(34, 19, 36, 19);
    3668:	23 e1       	ldi	r18, 0x13	; 19
    366a:	44 e2       	ldi	r20, 0x24	; 36
    366c:	63 e1       	ldi	r22, 0x13	; 19
    366e:	82 e2       	ldi	r24, 0x22	; 34
    3670:	0e 94 2e 0d 	call	0x1a5c	; 0x1a5c <LCD_12864_Draw_line>
	LCD_12864_Draw_line(38, 19, 40, 19);
    3674:	23 e1       	ldi	r18, 0x13	; 19
    3676:	48 e2       	ldi	r20, 0x28	; 40
    3678:	63 e1       	ldi	r22, 0x13	; 19
    367a:	86 e2       	ldi	r24, 0x26	; 38
    367c:	0e 94 2e 0d 	call	0x1a5c	; 0x1a5c <LCD_12864_Draw_line>
	LCD_12864_Draw_line(36, 18, 36, 19);
    3680:	23 e1       	ldi	r18, 0x13	; 19
    3682:	44 e2       	ldi	r20, 0x24	; 36
    3684:	62 e1       	ldi	r22, 0x12	; 18
    3686:	84 e2       	ldi	r24, 0x24	; 36
    3688:	0e 94 2e 0d 	call	0x1a5c	; 0x1a5c <LCD_12864_Draw_line>
	LCD_12864_Draw_line(38, 18, 38, 19);
    368c:	23 e1       	ldi	r18, 0x13	; 19
    368e:	46 e2       	ldi	r20, 0x26	; 38
    3690:	62 e1       	ldi	r22, 0x12	; 18
    3692:	86 e2       	ldi	r24, 0x26	; 38
    3694:	0e 94 2e 0d 	call	0x1a5c	; 0x1a5c <LCD_12864_Draw_line>
	LCD_12864_Draw_line(36, 18, 38, 18);
    3698:	22 e1       	ldi	r18, 0x12	; 18
    369a:	46 e2       	ldi	r20, 0x26	; 38
    369c:	62 e1       	ldi	r22, 0x12	; 18
    369e:	84 e2       	ldi	r24, 0x24	; 36
    36a0:	0e 94 2e 0d 	call	0x1a5c	; 0x1a5c <LCD_12864_Draw_line>
	if (V_BAT(adc_value1) >= 4.0f) {
    36a4:	8c e3       	ldi	r24, 0x3C	; 60
    36a6:	92 e0       	ldi	r25, 0x02	; 2
    36a8:	0e 94 e4 1a 	call	0x35c8	; 0x35c8 <V_BAT>
    36ac:	20 e0       	ldi	r18, 0x00	; 0
    36ae:	30 e0       	ldi	r19, 0x00	; 0
    36b0:	40 e8       	ldi	r20, 0x80	; 128
    36b2:	50 e4       	ldi	r21, 0x40	; 64
    36b4:	0e 94 9b 20 	call	0x4136	; 0x4136 <__gesf2>
    36b8:	88 23       	and	r24, r24
    36ba:	2c f1       	brlt	.+74     	; 0x3706 <DrawBattery+0xc2>
		LCD_12864_Draw_line(36, 26, 38, 26);
    36bc:	2a e1       	ldi	r18, 0x1A	; 26
    36be:	46 e2       	ldi	r20, 0x26	; 38
    36c0:	6a e1       	ldi	r22, 0x1A	; 26
    36c2:	84 e2       	ldi	r24, 0x24	; 36
    36c4:	0e 94 2e 0d 	call	0x1a5c	; 0x1a5c <LCD_12864_Draw_line>
		LCD_12864_Draw_line(36, 25, 38, 25);
    36c8:	29 e1       	ldi	r18, 0x19	; 25
    36ca:	46 e2       	ldi	r20, 0x26	; 38
    36cc:	69 e1       	ldi	r22, 0x19	; 25
    36ce:	84 e2       	ldi	r24, 0x24	; 36
    36d0:	0e 94 2e 0d 	call	0x1a5c	; 0x1a5c <LCD_12864_Draw_line>
		LCD_12864_Draw_line(36, 24, 38, 24);
    36d4:	28 e1       	ldi	r18, 0x18	; 24
    36d6:	46 e2       	ldi	r20, 0x26	; 38
    36d8:	68 e1       	ldi	r22, 0x18	; 24
    36da:	84 e2       	ldi	r24, 0x24	; 36
    36dc:	0e 94 2e 0d 	call	0x1a5c	; 0x1a5c <LCD_12864_Draw_line>
		LCD_12864_Draw_line(36, 23, 38, 23);
    36e0:	27 e1       	ldi	r18, 0x17	; 23
    36e2:	46 e2       	ldi	r20, 0x26	; 38
    36e4:	67 e1       	ldi	r22, 0x17	; 23
    36e6:	84 e2       	ldi	r24, 0x24	; 36
    36e8:	0e 94 2e 0d 	call	0x1a5c	; 0x1a5c <LCD_12864_Draw_line>
		LCD_12864_Draw_line(36, 22, 38, 22);
    36ec:	26 e1       	ldi	r18, 0x16	; 22
    36ee:	46 e2       	ldi	r20, 0x26	; 38
    36f0:	66 e1       	ldi	r22, 0x16	; 22
    36f2:	84 e2       	ldi	r24, 0x24	; 36
    36f4:	0e 94 2e 0d 	call	0x1a5c	; 0x1a5c <LCD_12864_Draw_line>
		LCD_12864_Draw_line(36, 21, 38, 21);
    36f8:	25 e1       	ldi	r18, 0x15	; 21
    36fa:	46 e2       	ldi	r20, 0x26	; 38
    36fc:	65 e1       	ldi	r22, 0x15	; 21
    36fe:	84 e2       	ldi	r24, 0x24	; 36
    3700:	0e 94 2e 0d 	call	0x1a5c	; 0x1a5c <LCD_12864_Draw_line>
    3704:	08 95       	ret
	}
	else if ((V_BAT(adc_value1) >= 3.9f) && (V_BAT(adc_value1) < 4.0f)) {
    3706:	8c e3       	ldi	r24, 0x3C	; 60
    3708:	92 e0       	ldi	r25, 0x02	; 2
    370a:	0e 94 e4 1a 	call	0x35c8	; 0x35c8 <V_BAT>
    370e:	2a e9       	ldi	r18, 0x9A	; 154
    3710:	39 e9       	ldi	r19, 0x99	; 153
    3712:	49 e7       	ldi	r20, 0x79	; 121
    3714:	50 e4       	ldi	r21, 0x40	; 64
    3716:	0e 94 9b 20 	call	0x4136	; 0x4136 <__gesf2>
    371a:	88 23       	and	r24, r24
    371c:	5c f1       	brlt	.+86     	; 0x3774 <DrawBattery+0x130>
    371e:	8c e3       	ldi	r24, 0x3C	; 60
    3720:	92 e0       	ldi	r25, 0x02	; 2
    3722:	0e 94 e4 1a 	call	0x35c8	; 0x35c8 <V_BAT>
    3726:	20 e0       	ldi	r18, 0x00	; 0
    3728:	30 e0       	ldi	r19, 0x00	; 0
    372a:	40 e8       	ldi	r20, 0x80	; 128
    372c:	50 e4       	ldi	r21, 0x40	; 64
    372e:	0e 94 3c 1f 	call	0x3e78	; 0x3e78 <__cmpsf2>
    3732:	88 23       	and	r24, r24
    3734:	fc f4       	brge	.+62     	; 0x3774 <DrawBattery+0x130>
		LCD_12864_Draw_line(36, 26, 38, 26);
    3736:	2a e1       	ldi	r18, 0x1A	; 26
    3738:	46 e2       	ldi	r20, 0x26	; 38
    373a:	6a e1       	ldi	r22, 0x1A	; 26
    373c:	84 e2       	ldi	r24, 0x24	; 36
    373e:	0e 94 2e 0d 	call	0x1a5c	; 0x1a5c <LCD_12864_Draw_line>
		LCD_12864_Draw_line(36, 25, 38, 25);
    3742:	29 e1       	ldi	r18, 0x19	; 25
    3744:	46 e2       	ldi	r20, 0x26	; 38
    3746:	69 e1       	ldi	r22, 0x19	; 25
    3748:	84 e2       	ldi	r24, 0x24	; 36
    374a:	0e 94 2e 0d 	call	0x1a5c	; 0x1a5c <LCD_12864_Draw_line>
		LCD_12864_Draw_line(36, 24, 38, 24);
    374e:	28 e1       	ldi	r18, 0x18	; 24
    3750:	46 e2       	ldi	r20, 0x26	; 38
    3752:	68 e1       	ldi	r22, 0x18	; 24
    3754:	84 e2       	ldi	r24, 0x24	; 36
    3756:	0e 94 2e 0d 	call	0x1a5c	; 0x1a5c <LCD_12864_Draw_line>
		LCD_12864_Draw_line(36, 23, 38, 23);
    375a:	27 e1       	ldi	r18, 0x17	; 23
    375c:	46 e2       	ldi	r20, 0x26	; 38
    375e:	67 e1       	ldi	r22, 0x17	; 23
    3760:	84 e2       	ldi	r24, 0x24	; 36
    3762:	0e 94 2e 0d 	call	0x1a5c	; 0x1a5c <LCD_12864_Draw_line>
		LCD_12864_Draw_line(36, 22, 38, 22);
    3766:	26 e1       	ldi	r18, 0x16	; 22
    3768:	46 e2       	ldi	r20, 0x26	; 38
    376a:	66 e1       	ldi	r22, 0x16	; 22
    376c:	84 e2       	ldi	r24, 0x24	; 36
    376e:	0e 94 2e 0d 	call	0x1a5c	; 0x1a5c <LCD_12864_Draw_line>
    3772:	08 95       	ret
	}
	else if ((V_BAT(adc_value1) >= 3.8f) && (V_BAT(adc_value1) < 3.9f)) {
    3774:	8c e3       	ldi	r24, 0x3C	; 60
    3776:	92 e0       	ldi	r25, 0x02	; 2
    3778:	0e 94 e4 1a 	call	0x35c8	; 0x35c8 <V_BAT>
    377c:	23 e3       	ldi	r18, 0x33	; 51
    377e:	33 e3       	ldi	r19, 0x33	; 51
    3780:	43 e7       	ldi	r20, 0x73	; 115
    3782:	50 e4       	ldi	r21, 0x40	; 64
    3784:	0e 94 9b 20 	call	0x4136	; 0x4136 <__gesf2>
    3788:	88 23       	and	r24, r24
    378a:	2c f1       	brlt	.+74     	; 0x37d6 <DrawBattery+0x192>
    378c:	8c e3       	ldi	r24, 0x3C	; 60
    378e:	92 e0       	ldi	r25, 0x02	; 2
    3790:	0e 94 e4 1a 	call	0x35c8	; 0x35c8 <V_BAT>
    3794:	2a e9       	ldi	r18, 0x9A	; 154
    3796:	39 e9       	ldi	r19, 0x99	; 153
    3798:	49 e7       	ldi	r20, 0x79	; 121
    379a:	50 e4       	ldi	r21, 0x40	; 64
    379c:	0e 94 3c 1f 	call	0x3e78	; 0x3e78 <__cmpsf2>
    37a0:	88 23       	and	r24, r24
    37a2:	cc f4       	brge	.+50     	; 0x37d6 <DrawBattery+0x192>
		LCD_12864_Draw_line(36, 26, 38, 26);
    37a4:	2a e1       	ldi	r18, 0x1A	; 26
    37a6:	46 e2       	ldi	r20, 0x26	; 38
    37a8:	6a e1       	ldi	r22, 0x1A	; 26
    37aa:	84 e2       	ldi	r24, 0x24	; 36
    37ac:	0e 94 2e 0d 	call	0x1a5c	; 0x1a5c <LCD_12864_Draw_line>
		LCD_12864_Draw_line(36, 25, 38, 25);
    37b0:	29 e1       	ldi	r18, 0x19	; 25
    37b2:	46 e2       	ldi	r20, 0x26	; 38
    37b4:	69 e1       	ldi	r22, 0x19	; 25
    37b6:	84 e2       	ldi	r24, 0x24	; 36
    37b8:	0e 94 2e 0d 	call	0x1a5c	; 0x1a5c <LCD_12864_Draw_line>
		LCD_12864_Draw_line(36, 24, 38, 24);
    37bc:	28 e1       	ldi	r18, 0x18	; 24
    37be:	46 e2       	ldi	r20, 0x26	; 38
    37c0:	68 e1       	ldi	r22, 0x18	; 24
    37c2:	84 e2       	ldi	r24, 0x24	; 36
    37c4:	0e 94 2e 0d 	call	0x1a5c	; 0x1a5c <LCD_12864_Draw_line>
		LCD_12864_Draw_line(36, 23, 38, 23);
    37c8:	27 e1       	ldi	r18, 0x17	; 23
    37ca:	46 e2       	ldi	r20, 0x26	; 38
    37cc:	67 e1       	ldi	r22, 0x17	; 23
    37ce:	84 e2       	ldi	r24, 0x24	; 36
    37d0:	0e 94 2e 0d 	call	0x1a5c	; 0x1a5c <LCD_12864_Draw_line>
    37d4:	08 95       	ret
	}
	else if ((V_BAT(adc_value1) >= 3.7f) && (V_BAT(adc_value1) < 3.8f)) {
    37d6:	8c e3       	ldi	r24, 0x3C	; 60
    37d8:	92 e0       	ldi	r25, 0x02	; 2
    37da:	0e 94 e4 1a 	call	0x35c8	; 0x35c8 <V_BAT>
    37de:	2d ec       	ldi	r18, 0xCD	; 205
    37e0:	3c ec       	ldi	r19, 0xCC	; 204
    37e2:	4c e6       	ldi	r20, 0x6C	; 108
    37e4:	50 e4       	ldi	r21, 0x40	; 64
    37e6:	0e 94 9b 20 	call	0x4136	; 0x4136 <__gesf2>
    37ea:	88 23       	and	r24, r24
    37ec:	fc f0       	brlt	.+62     	; 0x382c <DrawBattery+0x1e8>
    37ee:	8c e3       	ldi	r24, 0x3C	; 60
    37f0:	92 e0       	ldi	r25, 0x02	; 2
    37f2:	0e 94 e4 1a 	call	0x35c8	; 0x35c8 <V_BAT>
    37f6:	23 e3       	ldi	r18, 0x33	; 51
    37f8:	33 e3       	ldi	r19, 0x33	; 51
    37fa:	43 e7       	ldi	r20, 0x73	; 115
    37fc:	50 e4       	ldi	r21, 0x40	; 64
    37fe:	0e 94 3c 1f 	call	0x3e78	; 0x3e78 <__cmpsf2>
    3802:	88 23       	and	r24, r24
    3804:	9c f4       	brge	.+38     	; 0x382c <DrawBattery+0x1e8>
		LCD_12864_Draw_line(36, 26, 38, 26);
    3806:	2a e1       	ldi	r18, 0x1A	; 26
    3808:	46 e2       	ldi	r20, 0x26	; 38
    380a:	6a e1       	ldi	r22, 0x1A	; 26
    380c:	84 e2       	ldi	r24, 0x24	; 36
    380e:	0e 94 2e 0d 	call	0x1a5c	; 0x1a5c <LCD_12864_Draw_line>
		LCD_12864_Draw_line(36, 25, 38, 25);
    3812:	29 e1       	ldi	r18, 0x19	; 25
    3814:	46 e2       	ldi	r20, 0x26	; 38
    3816:	69 e1       	ldi	r22, 0x19	; 25
    3818:	84 e2       	ldi	r24, 0x24	; 36
    381a:	0e 94 2e 0d 	call	0x1a5c	; 0x1a5c <LCD_12864_Draw_line>
		LCD_12864_Draw_line(36, 24, 38, 24);
    381e:	28 e1       	ldi	r18, 0x18	; 24
    3820:	46 e2       	ldi	r20, 0x26	; 38
    3822:	68 e1       	ldi	r22, 0x18	; 24
    3824:	84 e2       	ldi	r24, 0x24	; 36
    3826:	0e 94 2e 0d 	call	0x1a5c	; 0x1a5c <LCD_12864_Draw_line>
    382a:	08 95       	ret
	}
	else if ((V_BAT(adc_value1) >= 3.6f) && (V_BAT(adc_value1) < 3.7f)) {
    382c:	8c e3       	ldi	r24, 0x3C	; 60
    382e:	92 e0       	ldi	r25, 0x02	; 2
    3830:	0e 94 e4 1a 	call	0x35c8	; 0x35c8 <V_BAT>
    3834:	26 e6       	ldi	r18, 0x66	; 102
    3836:	36 e6       	ldi	r19, 0x66	; 102
    3838:	46 e6       	ldi	r20, 0x66	; 102
    383a:	50 e4       	ldi	r21, 0x40	; 64
    383c:	0e 94 9b 20 	call	0x4136	; 0x4136 <__gesf2>
    3840:	88 23       	and	r24, r24
    3842:	cc f0       	brlt	.+50     	; 0x3876 <DrawBattery+0x232>
    3844:	8c e3       	ldi	r24, 0x3C	; 60
    3846:	92 e0       	ldi	r25, 0x02	; 2
    3848:	0e 94 e4 1a 	call	0x35c8	; 0x35c8 <V_BAT>
    384c:	2d ec       	ldi	r18, 0xCD	; 205
    384e:	3c ec       	ldi	r19, 0xCC	; 204
    3850:	4c e6       	ldi	r20, 0x6C	; 108
    3852:	50 e4       	ldi	r21, 0x40	; 64
    3854:	0e 94 3c 1f 	call	0x3e78	; 0x3e78 <__cmpsf2>
    3858:	88 23       	and	r24, r24
    385a:	6c f4       	brge	.+26     	; 0x3876 <DrawBattery+0x232>
		LCD_12864_Draw_line(36, 26, 38, 26);
    385c:	2a e1       	ldi	r18, 0x1A	; 26
    385e:	46 e2       	ldi	r20, 0x26	; 38
    3860:	6a e1       	ldi	r22, 0x1A	; 26
    3862:	84 e2       	ldi	r24, 0x24	; 36
    3864:	0e 94 2e 0d 	call	0x1a5c	; 0x1a5c <LCD_12864_Draw_line>
		LCD_12864_Draw_line(36, 25, 38, 25);
    3868:	29 e1       	ldi	r18, 0x19	; 25
    386a:	46 e2       	ldi	r20, 0x26	; 38
    386c:	69 e1       	ldi	r22, 0x19	; 25
    386e:	84 e2       	ldi	r24, 0x24	; 36
    3870:	0e 94 2e 0d 	call	0x1a5c	; 0x1a5c <LCD_12864_Draw_line>
    3874:	08 95       	ret
	}
	else if ((V_BAT(adc_value1) >= 3.5f) && (V_BAT(adc_value1) < 3.6f)) {
    3876:	8c e3       	ldi	r24, 0x3C	; 60
    3878:	92 e0       	ldi	r25, 0x02	; 2
    387a:	0e 94 e4 1a 	call	0x35c8	; 0x35c8 <V_BAT>
    387e:	20 e0       	ldi	r18, 0x00	; 0
    3880:	30 e0       	ldi	r19, 0x00	; 0
    3882:	40 e6       	ldi	r20, 0x60	; 96
    3884:	50 e4       	ldi	r21, 0x40	; 64
    3886:	0e 94 9b 20 	call	0x4136	; 0x4136 <__gesf2>
    388a:	88 23       	and	r24, r24
    388c:	94 f0       	brlt	.+36     	; 0x38b2 <DrawBattery+0x26e>
    388e:	8c e3       	ldi	r24, 0x3C	; 60
    3890:	92 e0       	ldi	r25, 0x02	; 2
    3892:	0e 94 e4 1a 	call	0x35c8	; 0x35c8 <V_BAT>
    3896:	26 e6       	ldi	r18, 0x66	; 102
    3898:	36 e6       	ldi	r19, 0x66	; 102
    389a:	46 e6       	ldi	r20, 0x66	; 102
    389c:	50 e4       	ldi	r21, 0x40	; 64
    389e:	0e 94 3c 1f 	call	0x3e78	; 0x3e78 <__cmpsf2>
    38a2:	88 23       	and	r24, r24
    38a4:	34 f4       	brge	.+12     	; 0x38b2 <DrawBattery+0x26e>
		LCD_12864_Draw_line(36, 26, 38, 26);
    38a6:	2a e1       	ldi	r18, 0x1A	; 26
    38a8:	46 e2       	ldi	r20, 0x26	; 38
    38aa:	6a e1       	ldi	r22, 0x1A	; 26
    38ac:	84 e2       	ldi	r24, 0x24	; 36
    38ae:	0e 94 2e 0d 	call	0x1a5c	; 0x1a5c <LCD_12864_Draw_line>
    38b2:	08 95       	ret

000038b4 <wind_speed>:
	
	return VBAT;
}
//Вычисление скорости ветра
float wind_speed (char *counter)
{
    38b4:	cf 93       	push	r28
    38b6:	df 93       	push	r29
    38b8:	00 d0       	rcall	.+0      	; 0x38ba <wind_speed+0x6>
    38ba:	cd b7       	in	r28, 0x3d	; 61
    38bc:	de b7       	in	r29, 0x3e	; 62
	float RADIUS = 0.09;
	float speed = 0;
	int n;
	if (strlen(counter) != 0)
    38be:	fc 01       	movw	r30, r24
    38c0:	20 81       	ld	r18, Z
    38c2:	22 23       	and	r18, r18
    38c4:	a1 f0       	breq	.+40     	; 0x38ee <wind_speed+0x3a>
	{
		sscanf(counter, "%d", &n);
    38c6:	9e 01       	movw	r18, r28
    38c8:	2f 5f       	subi	r18, 0xFF	; 255
    38ca:	3f 4f       	sbci	r19, 0xFF	; 255
    38cc:	3f 93       	push	r19
    38ce:	2f 93       	push	r18
    38d0:	2c ea       	ldi	r18, 0xAC	; 172
    38d2:	31 e0       	ldi	r19, 0x01	; 1
    38d4:	3f 93       	push	r19
    38d6:	2f 93       	push	r18
    38d8:	9f 93       	push	r25
    38da:	8f 93       	push	r24
    38dc:	0e 94 a1 26 	call	0x4d42	; 0x4d42 <sscanf>
    38e0:	0f 90       	pop	r0
    38e2:	0f 90       	pop	r0
    38e4:	0f 90       	pop	r0
    38e6:	0f 90       	pop	r0
    38e8:	0f 90       	pop	r0
    38ea:	0f 90       	pop	r0
    38ec:	02 c0       	rjmp	.+4      	; 0x38f2 <wind_speed+0x3e>
	}
	else
	{
		n = 0;
    38ee:	1a 82       	std	Y+2, r1	; 0x02
    38f0:	19 82       	std	Y+1, r1	; 0x01
	}
	speed = 2*3.14*RADIUS*n/4; //период 2 сек+2 магнита
    38f2:	69 81       	ldd	r22, Y+1	; 0x01
    38f4:	7a 81       	ldd	r23, Y+2	; 0x02
    38f6:	07 2e       	mov	r0, r23
    38f8:	00 0c       	add	r0, r0
    38fa:	88 0b       	sbc	r24, r24
    38fc:	99 0b       	sbc	r25, r25
    38fe:	0e 94 eb 1f 	call	0x3fd6	; 0x3fd6 <__floatsisf>
    3902:	23 ef       	ldi	r18, 0xF3	; 243
    3904:	30 eb       	ldi	r19, 0xB0	; 176
    3906:	40 e1       	ldi	r20, 0x10	; 16
    3908:	5f e3       	ldi	r21, 0x3F	; 63
    390a:	0e 94 a0 20 	call	0x4140	; 0x4140 <__mulsf3>
    390e:	20 e0       	ldi	r18, 0x00	; 0
    3910:	30 e0       	ldi	r19, 0x00	; 0
    3912:	40 e8       	ldi	r20, 0x80	; 128
    3914:	5e e3       	ldi	r21, 0x3E	; 62
    3916:	0e 94 a0 20 	call	0x4140	; 0x4140 <__mulsf3>
	
	return speed;
    391a:	0f 90       	pop	r0
    391c:	0f 90       	pop	r0
    391e:	df 91       	pop	r29
    3920:	cf 91       	pop	r28
    3922:	08 95       	ret

00003924 <Print_Home_Page>:
	}	
	LCD_12864_GrapnicMode(0);
}
//Главное окно
void Print_Home_Page(uint8_t *Frame_buffer)
{
    3924:	0f 93       	push	r16
    3926:	1f 93       	push	r17
    3928:	cf 93       	push	r28
    392a:	df 93       	push	r29
    392c:	ec 01       	movw	r28, r24
	LCD_12864_GrapnicMode(1);
    392e:	81 e0       	ldi	r24, 0x01	; 1
    3930:	0e 94 bb 08 	call	0x1176	; 0x1176 <LCD_12864_GrapnicMode>
	LCD_12864_Clean_Frame_buffer();
    3934:	0e 94 23 0d 	call	0x1a46	; 0x1a46 <LCD_12864_Clean_Frame_buffer>
	//-----------Вывод времени/даты-------------------------------//
	Clock();
    3938:	0e 94 f2 18 	call	0x31e4	; 0x31e4 <Clock>
	sprintf(TIME,"%s:%s",hours, minutes);
    393c:	86 ec       	ldi	r24, 0xC6	; 198
    393e:	96 e0       	ldi	r25, 0x06	; 6
    3940:	9f 93       	push	r25
    3942:	8f 93       	push	r24
    3944:	8a ec       	ldi	r24, 0xCA	; 202
    3946:	96 e0       	ldi	r25, 0x06	; 6
    3948:	9f 93       	push	r25
    394a:	8f 93       	push	r24
    394c:	8f ea       	ldi	r24, 0xAF	; 175
    394e:	91 e0       	ldi	r25, 0x01	; 1
    3950:	9f 93       	push	r25
    3952:	8f 93       	push	r24
    3954:	84 eb       	ldi	r24, 0xB4	; 180
    3956:	96 e0       	ldi	r25, 0x06	; 6
    3958:	9f 93       	push	r25
    395a:	8f 93       	push	r24
    395c:	0e 94 7f 26 	call	0x4cfe	; 0x4cfe <sprintf>
	LCD_12864_Print_11_16(2, 0, 0, TIME);
    3960:	24 eb       	ldi	r18, 0xB4	; 180
    3962:	36 e0       	ldi	r19, 0x06	; 6
    3964:	40 e0       	ldi	r20, 0x00	; 0
    3966:	60 e0       	ldi	r22, 0x00	; 0
    3968:	82 e0       	ldi	r24, 0x02	; 2
    396a:	90 e0       	ldi	r25, 0x00	; 0
    396c:	0e 94 22 0c 	call	0x1844	; 0x1844 <LCD_12864_Print_11_16>
	LCD_12864_Decode_UTF8(61, 1, 0, weakday);
    3970:	2e ec       	ldi	r18, 0xCE	; 206
    3972:	36 e0       	ldi	r19, 0x06	; 6
    3974:	40 e0       	ldi	r20, 0x00	; 0
    3976:	61 e0       	ldi	r22, 0x01	; 1
    3978:	8d e3       	ldi	r24, 0x3D	; 61
    397a:	90 e0       	ldi	r25, 0x00	; 0
    397c:	0e 94 5d 0c 	call	0x18ba	; 0x18ba <LCD_12864_Decode_UTF8>
	LCD_12864_Decode_UTF8(73, 1, 0, ",");
    3980:	25 eb       	ldi	r18, 0xB5	; 181
    3982:	31 e0       	ldi	r19, 0x01	; 1
    3984:	40 e0       	ldi	r20, 0x00	; 0
    3986:	61 e0       	ldi	r22, 0x01	; 1
    3988:	89 e4       	ldi	r24, 0x49	; 73
    398a:	90 e0       	ldi	r25, 0x00	; 0
    398c:	0e 94 5d 0c 	call	0x18ba	; 0x18ba <LCD_12864_Decode_UTF8>
	LCD_12864_Decode_UTF8(76, 1, 0, mounthday);
    3990:	2b ed       	ldi	r18, 0xDB	; 219
    3992:	36 e0       	ldi	r19, 0x06	; 6
    3994:	40 e0       	ldi	r20, 0x00	; 0
    3996:	61 e0       	ldi	r22, 0x01	; 1
    3998:	8c e4       	ldi	r24, 0x4C	; 76
    399a:	90 e0       	ldi	r25, 0x00	; 0
    399c:	0e 94 5d 0c 	call	0x18ba	; 0x18ba <LCD_12864_Decode_UTF8>
	LCD_12864_Decode_UTF8(88, 1, 0, "/");
    39a0:	27 eb       	ldi	r18, 0xB7	; 183
    39a2:	31 e0       	ldi	r19, 0x01	; 1
    39a4:	40 e0       	ldi	r20, 0x00	; 0
    39a6:	61 e0       	ldi	r22, 0x01	; 1
    39a8:	88 e5       	ldi	r24, 0x58	; 88
    39aa:	90 e0       	ldi	r25, 0x00	; 0
    39ac:	0e 94 5d 0c 	call	0x18ba	; 0x18ba <LCD_12864_Decode_UTF8>
	LCD_12864_Decode_UTF8(93, 1, 0, Mounth);
    39b0:	24 ed       	ldi	r18, 0xD4	; 212
    39b2:	36 e0       	ldi	r19, 0x06	; 6
    39b4:	40 e0       	ldi	r20, 0x00	; 0
    39b6:	61 e0       	ldi	r22, 0x01	; 1
    39b8:	8d e5       	ldi	r24, 0x5D	; 93
    39ba:	90 e0       	ldi	r25, 0x00	; 0
    39bc:	0e 94 5d 0c 	call	0x18ba	; 0x18ba <LCD_12864_Decode_UTF8>
	LCD_12864_Decode_UTF8(111, 1, 0, "/");
    39c0:	27 eb       	ldi	r18, 0xB7	; 183
    39c2:	31 e0       	ldi	r19, 0x01	; 1
    39c4:	40 e0       	ldi	r20, 0x00	; 0
    39c6:	61 e0       	ldi	r22, 0x01	; 1
    39c8:	8f e6       	ldi	r24, 0x6F	; 111
    39ca:	90 e0       	ldi	r25, 0x00	; 0
    39cc:	0e 94 5d 0c 	call	0x18ba	; 0x18ba <LCD_12864_Decode_UTF8>
	LCD_12864_Decode_UTF8(116, 1, 0, "22");
    39d0:	29 eb       	ldi	r18, 0xB9	; 185
    39d2:	31 e0       	ldi	r19, 0x01	; 1
    39d4:	40 e0       	ldi	r20, 0x00	; 0
    39d6:	61 e0       	ldi	r22, 0x01	; 1
    39d8:	84 e7       	ldi	r24, 0x74	; 116
    39da:	90 e0       	ldi	r25, 0x00	; 0
    39dc:	0e 94 5d 0c 	call	0x18ba	; 0x18ba <LCD_12864_Decode_UTF8>
	
	sprintf(CNT,"%d",cnt);
    39e0:	80 91 d1 01 	lds	r24, 0x01D1	; 0x8001d1 <cnt>
    39e4:	28 2f       	mov	r18, r24
    39e6:	08 2e       	mov	r0, r24
    39e8:	00 0c       	add	r0, r0
    39ea:	33 0b       	sbc	r19, r19
    39ec:	3f 93       	push	r19
    39ee:	8f 93       	push	r24
    39f0:	8c ea       	ldi	r24, 0xAC	; 172
    39f2:	91 e0       	ldi	r25, 0x01	; 1
    39f4:	9f 93       	push	r25
    39f6:	8f 93       	push	r24
    39f8:	81 ee       	ldi	r24, 0xE1	; 225
    39fa:	96 e0       	ldi	r25, 0x06	; 6
    39fc:	9f 93       	push	r25
    39fe:	8f 93       	push	r24
    3a00:	0e 94 7f 26 	call	0x4cfe	; 0x4cfe <sprintf>
	LCD_12864_Decode_UTF8(116, 0, 0, CNT);
    3a04:	21 ee       	ldi	r18, 0xE1	; 225
    3a06:	36 e0       	ldi	r19, 0x06	; 6
    3a08:	40 e0       	ldi	r20, 0x00	; 0
    3a0a:	60 e0       	ldi	r22, 0x00	; 0
    3a0c:	84 e7       	ldi	r24, 0x74	; 116
    3a0e:	90 e0       	ldi	r25, 0x00	; 0
    3a10:	0e 94 5d 0c 	call	0x18ba	; 0x18ba <LCD_12864_Decode_UTF8>
	
	//-----------Вывод уличных показателей-----------------------//
	LCD_12864_Decode_UTF8(30, 4, 0, "°C");
    3a14:	2b e4       	ldi	r18, 0x4B	; 75
    3a16:	31 e0       	ldi	r19, 0x01	; 1
    3a18:	40 e0       	ldi	r20, 0x00	; 0
    3a1a:	64 e0       	ldi	r22, 0x04	; 4
    3a1c:	8e e1       	ldi	r24, 0x1E	; 30
    3a1e:	90 e0       	ldi	r25, 0x00	; 0
    3a20:	0e 94 5d 0c 	call	0x18ba	; 0x18ba <LCD_12864_Decode_UTF8>
	LCD_12864_Decode_UTF8(58, 4, 0, "%");
    3a24:	2e e4       	ldi	r18, 0x4E	; 78
    3a26:	31 e0       	ldi	r19, 0x01	; 1
    3a28:	40 e0       	ldi	r20, 0x00	; 0
    3a2a:	64 e0       	ldi	r22, 0x04	; 4
    3a2c:	8a e3       	ldi	r24, 0x3A	; 58
    3a2e:	90 e0       	ldi	r25, 0x00	; 0
    3a30:	0e 94 5d 0c 	call	0x18ba	; 0x18ba <LCD_12864_Decode_UTF8>
	LCD_12864_Print_7_11(1, 3, 0, temp_street);
    3a34:	22 e8       	ldi	r18, 0x82	; 130
    3a36:	32 e0       	ldi	r19, 0x02	; 2
    3a38:	40 e0       	ldi	r20, 0x00	; 0
    3a3a:	63 e0       	ldi	r22, 0x03	; 3
    3a3c:	81 e0       	ldi	r24, 0x01	; 1
    3a3e:	90 e0       	ldi	r25, 0x00	; 0
    3a40:	0e 94 84 0b 	call	0x1708	; 0x1708 <LCD_12864_Print_7_11>
	LCD_12864_Print_7_11(43, 3, 0, hum_street);
    3a44:	28 e7       	ldi	r18, 0x78	; 120
    3a46:	32 e0       	ldi	r19, 0x02	; 2
    3a48:	40 e0       	ldi	r20, 0x00	; 0
    3a4a:	63 e0       	ldi	r22, 0x03	; 3
    3a4c:	8b e2       	ldi	r24, 0x2B	; 43
    3a4e:	90 e0       	ldi	r25, 0x00	; 0
    3a50:	0e 94 84 0b 	call	0x1708	; 0x1708 <LCD_12864_Print_7_11>
	sprintf(Vbat,"%.2f",V_BAT(adc_value1));
    3a54:	8c e3       	ldi	r24, 0x3C	; 60
    3a56:	92 e0       	ldi	r25, 0x02	; 2
    3a58:	0e 94 e4 1a 	call	0x35c8	; 0x35c8 <V_BAT>
    3a5c:	9f 93       	push	r25
    3a5e:	8f 93       	push	r24
    3a60:	7f 93       	push	r23
    3a62:	6f 93       	push	r22
    3a64:	0c eb       	ldi	r16, 0xBC	; 188
    3a66:	11 e0       	ldi	r17, 0x01	; 1
    3a68:	1f 93       	push	r17
    3a6a:	0f 93       	push	r16
    3a6c:	88 e2       	ldi	r24, 0x28	; 40
    3a6e:	92 e0       	ldi	r25, 0x02	; 2
    3a70:	9f 93       	push	r25
    3a72:	8f 93       	push	r24
    3a74:	0e 94 7f 26 	call	0x4cfe	; 0x4cfe <sprintf>
	LCD_12864_Print_4_6(44, 2, 0, Vbat);
    3a78:	28 e2       	ldi	r18, 0x28	; 40
    3a7a:	32 e0       	ldi	r19, 0x02	; 2
    3a7c:	40 e0       	ldi	r20, 0x00	; 0
    3a7e:	62 e0       	ldi	r22, 0x02	; 2
    3a80:	8c e2       	ldi	r24, 0x2C	; 44
    3a82:	90 e0       	ldi	r25, 0x00	; 0
    3a84:	0e 94 d3 0b 	call	0x17a6	; 0x17a6 <LCD_12864_Print_4_6>
	sprintf(WIND_speed,"%.2f", wind_speed (HALL_counter));
    3a88:	8a e5       	ldi	r24, 0x5A	; 90
    3a8a:	92 e0       	ldi	r25, 0x02	; 2
    3a8c:	0e 94 5a 1c 	call	0x38b4	; 0x38b4 <wind_speed>
    3a90:	9f 93       	push	r25
    3a92:	8f 93       	push	r24
    3a94:	7f 93       	push	r23
    3a96:	6f 93       	push	r22
    3a98:	1f 93       	push	r17
    3a9a:	0f 93       	push	r16
    3a9c:	80 e5       	ldi	r24, 0x50	; 80
    3a9e:	92 e0       	ldi	r25, 0x02	; 2
    3aa0:	9f 93       	push	r25
    3aa2:	8f 93       	push	r24
    3aa4:	0e 94 7f 26 	call	0x4cfe	; 0x4cfe <sprintf>
	LCD_12864_Print_4_6(26, 5, 0, WIND_speed);
    3aa8:	20 e5       	ldi	r18, 0x50	; 80
    3aaa:	32 e0       	ldi	r19, 0x02	; 2
    3aac:	40 e0       	ldi	r20, 0x00	; 0
    3aae:	65 e0       	ldi	r22, 0x05	; 5
    3ab0:	8a e1       	ldi	r24, 0x1A	; 26
    3ab2:	90 e0       	ldi	r25, 0x00	; 0
    3ab4:	0e 94 d3 0b 	call	0x17a6	; 0x17a6 <LCD_12864_Print_4_6>
	LCD_12864_Decode_UTF8(45, 5, 0, "м/с");
    3ab8:	20 e5       	ldi	r18, 0x50	; 80
    3aba:	31 e0       	ldi	r19, 0x01	; 1
    3abc:	40 e0       	ldi	r20, 0x00	; 0
    3abe:	65 e0       	ldi	r22, 0x05	; 5
    3ac0:	8d e2       	ldi	r24, 0x2D	; 45
    3ac2:	90 e0       	ldi	r25, 0x00	; 0
    3ac4:	0e 94 5d 0c 	call	0x18ba	; 0x18ba <LCD_12864_Decode_UTF8>
	LCD_12864_Decode_UTF8(30, 6, 0, "осадки");
    3ac8:	24 e5       	ldi	r18, 0x54	; 84
    3aca:	31 e0       	ldi	r19, 0x01	; 1
    3acc:	40 e0       	ldi	r20, 0x00	; 0
    3ace:	66 e0       	ldi	r22, 0x06	; 6
    3ad0:	8e e1       	ldi	r24, 0x1E	; 30
    3ad2:	90 e0       	ldi	r25, 0x00	; 0
    3ad4:	0e 94 5d 0c 	call	0x18ba	; 0x18ba <LCD_12864_Decode_UTF8>
	LCD_12864_Draw_line(27, 52, 24, 52);
    3ad8:	24 e3       	ldi	r18, 0x34	; 52
    3ada:	48 e1       	ldi	r20, 0x18	; 24
    3adc:	64 e3       	ldi	r22, 0x34	; 52
    3ade:	8b e1       	ldi	r24, 0x1B	; 27
    3ae0:	0e 94 2e 0d 	call	0x1a5c	; 0x1a5c <LCD_12864_Draw_line>
	LCD_12864_Draw_line(24, 52, 24, 59);
    3ae4:	2b e3       	ldi	r18, 0x3B	; 59
    3ae6:	48 e1       	ldi	r20, 0x18	; 24
    3ae8:	64 e3       	ldi	r22, 0x34	; 52
    3aea:	88 e1       	ldi	r24, 0x18	; 24
    3aec:	0e 94 2e 0d 	call	0x1a5c	; 0x1a5c <LCD_12864_Draw_line>
	LCD_12864_Draw_line(24, 59, 28, 59);
    3af0:	2b e3       	ldi	r18, 0x3B	; 59
    3af2:	4c e1       	ldi	r20, 0x1C	; 28
    3af4:	6b e3       	ldi	r22, 0x3B	; 59
    3af6:	88 e1       	ldi	r24, 0x18	; 24
    3af8:	0e 94 2e 0d 	call	0x1a5c	; 0x1a5c <LCD_12864_Draw_line>
	LCD_12864_Draw_pixel(27, 58);
    3afc:	6a e3       	ldi	r22, 0x3A	; 58
    3afe:	8b e1       	ldi	r24, 0x1B	; 27
    3b00:	0e 94 b8 07 	call	0xf70	; 0xf70 <LCD_12864_Draw_pixel>
	LCD_12864_Draw_pixel(27, 60);
    3b04:	6c e3       	ldi	r22, 0x3C	; 60
    3b06:	8b e1       	ldi	r24, 0x1B	; 27
    3b08:	0e 94 b8 07 	call	0xf70	; 0xf70 <LCD_12864_Draw_pixel>
	LCD_12864_Draw_pixel(26, 57);
    3b0c:	69 e3       	ldi	r22, 0x39	; 57
    3b0e:	8a e1       	ldi	r24, 0x1A	; 26
    3b10:	0e 94 b8 07 	call	0xf70	; 0xf70 <LCD_12864_Draw_pixel>
	LCD_12864_Draw_pixel(26, 61);
    3b14:	6d e3       	ldi	r22, 0x3D	; 61
    3b16:	8a e1       	ldi	r24, 0x1A	; 26
    3b18:	0e 94 b8 07 	call	0xf70	; 0xf70 <LCD_12864_Draw_pixel>
	if (RAIN_AMOUNT(adc_value2) >= 0.9f)  LCD_12864_Decode_UTF8(30, 7, 0, "отсутств.");
    3b1c:	82 e3       	ldi	r24, 0x32	; 50
    3b1e:	92 e0       	ldi	r25, 0x02	; 2
    3b20:	0e 94 a7 1a 	call	0x354e	; 0x354e <RAIN_AMOUNT>
    3b24:	2d b7       	in	r18, 0x3d	; 61
    3b26:	3e b7       	in	r19, 0x3e	; 62
    3b28:	22 5e       	subi	r18, 0xE2	; 226
    3b2a:	3f 4f       	sbci	r19, 0xFF	; 255
    3b2c:	0f b6       	in	r0, 0x3f	; 63
    3b2e:	f8 94       	cli
    3b30:	3e bf       	out	0x3e, r19	; 62
    3b32:	0f be       	out	0x3f, r0	; 63
    3b34:	2d bf       	out	0x3d, r18	; 61
    3b36:	26 e6       	ldi	r18, 0x66	; 102
    3b38:	36 e6       	ldi	r19, 0x66	; 102
    3b3a:	46 e6       	ldi	r20, 0x66	; 102
    3b3c:	5f e3       	ldi	r21, 0x3F	; 63
    3b3e:	0e 94 9b 20 	call	0x4136	; 0x4136 <__gesf2>
    3b42:	88 23       	and	r24, r24
    3b44:	44 f0       	brlt	.+16     	; 0x3b56 <Print_Home_Page+0x232>
    3b46:	21 ec       	ldi	r18, 0xC1	; 193
    3b48:	31 e0       	ldi	r19, 0x01	; 1
    3b4a:	40 e0       	ldi	r20, 0x00	; 0
    3b4c:	67 e0       	ldi	r22, 0x07	; 7
    3b4e:	8e e1       	ldi	r24, 0x1E	; 30
    3b50:	90 e0       	ldi	r25, 0x00	; 0
    3b52:	0e 94 5d 0c 	call	0x18ba	; 0x18ba <LCD_12864_Decode_UTF8>
	

	//-----------Вывод показателей в доме-----------------------//
	if (dht22_GetData(data))
    3b56:	83 ed       	ldi	r24, 0xD3	; 211
    3b58:	91 e0       	ldi	r25, 0x01	; 1
    3b5a:	0e 94 57 07 	call	0xeae	; 0xeae <dht22_GetData>
    3b5e:	88 23       	and	r24, r24
    3b60:	09 f4       	brne	.+2      	; 0x3b64 <Print_Home_Page+0x240>
    3b62:	72 c0       	rjmp	.+228    	; 0x3c48 <Print_Home_Page+0x324>
	{
		 //data[1]-младший бит температуры
		 //data[2]-старший бит температуры
		 //data[3]-младший бит влажности
		 //data[4]-старший бит влажности
		 temp = (float)(((data[2]<<8)|data[1]) / 10.0);
    3b64:	e3 ed       	ldi	r30, 0xD3	; 211
    3b66:	f1 e0       	ldi	r31, 0x01	; 1
    3b68:	02 81       	ldd	r16, Z+2	; 0x02
    3b6a:	10 e0       	ldi	r17, 0x00	; 0
    3b6c:	10 2f       	mov	r17, r16
    3b6e:	00 27       	eor	r16, r16
    3b70:	81 81       	ldd	r24, Z+1	; 0x01
    3b72:	08 2b       	or	r16, r24
    3b74:	b8 01       	movw	r22, r16
    3b76:	01 2e       	mov	r0, r17
    3b78:	00 0c       	add	r0, r0
    3b7a:	88 0b       	sbc	r24, r24
    3b7c:	99 0b       	sbc	r25, r25
    3b7e:	0e 94 eb 1f 	call	0x3fd6	; 0x3fd6 <__floatsisf>
    3b82:	20 e0       	ldi	r18, 0x00	; 0
    3b84:	30 e0       	ldi	r19, 0x00	; 0
    3b86:	40 e2       	ldi	r20, 0x20	; 32
    3b88:	51 e4       	ldi	r21, 0x41	; 65
    3b8a:	0e 94 41 1f 	call	0x3e82	; 0x3e82 <__divsf3>
    3b8e:	60 93 de 01 	sts	0x01DE, r22	; 0x8001de <temp>
    3b92:	70 93 df 01 	sts	0x01DF, r23	; 0x8001df <temp+0x1>
    3b96:	80 93 e0 01 	sts	0x01E0, r24	; 0x8001e0 <temp+0x2>
    3b9a:	90 93 e1 01 	sts	0x01E1, r25	; 0x8001e1 <temp+0x3>
		 if (((data[2]<<8)|data[1]) & 0x8000) temp *= -1.0;
    3b9e:	11 23       	and	r17, r17
    3ba0:	5c f4       	brge	.+22     	; 0x3bb8 <Print_Home_Page+0x294>
    3ba2:	dc 01       	movw	r26, r24
    3ba4:	cb 01       	movw	r24, r22
    3ba6:	b0 58       	subi	r27, 0x80	; 128
    3ba8:	80 93 de 01 	sts	0x01DE, r24	; 0x8001de <temp>
    3bac:	90 93 df 01 	sts	0x01DF, r25	; 0x8001df <temp+0x1>
    3bb0:	a0 93 e0 01 	sts	0x01E0, r26	; 0x8001e0 <temp+0x2>
    3bb4:	b0 93 e1 01 	sts	0x01E1, r27	; 0x8001e1 <temp+0x3>
		 sprintf(temp_home,"%.1f",temp);
    3bb8:	80 91 e1 01 	lds	r24, 0x01E1	; 0x8001e1 <temp+0x3>
    3bbc:	8f 93       	push	r24
    3bbe:	80 91 e0 01 	lds	r24, 0x01E0	; 0x8001e0 <temp+0x2>
    3bc2:	8f 93       	push	r24
    3bc4:	80 91 df 01 	lds	r24, 0x01DF	; 0x8001df <temp+0x1>
    3bc8:	8f 93       	push	r24
    3bca:	80 91 de 01 	lds	r24, 0x01DE	; 0x8001de <temp>
    3bce:	8f 93       	push	r24
    3bd0:	89 e0       	ldi	r24, 0x09	; 9
    3bd2:	91 e0       	ldi	r25, 0x01	; 1
    3bd4:	9f 93       	push	r25
    3bd6:	8f 93       	push	r24
    3bd8:	8e e6       	ldi	r24, 0x6E	; 110
    3bda:	92 e0       	ldi	r25, 0x02	; 2
    3bdc:	9f 93       	push	r25
    3bde:	8f 93       	push	r24
    3be0:	0e 94 7f 26 	call	0x4cfe	; 0x4cfe <sprintf>
		 hum = (float)(((data[4]<<8)|data[3]) / 10.0);
    3be4:	e3 ed       	ldi	r30, 0xD3	; 211
    3be6:	f1 e0       	ldi	r31, 0x01	; 1
    3be8:	64 81       	ldd	r22, Z+4	; 0x04
    3bea:	70 e0       	ldi	r23, 0x00	; 0
    3bec:	76 2f       	mov	r23, r22
    3bee:	66 27       	eor	r22, r22
    3bf0:	83 81       	ldd	r24, Z+3	; 0x03
    3bf2:	68 2b       	or	r22, r24
    3bf4:	07 2e       	mov	r0, r23
    3bf6:	00 0c       	add	r0, r0
    3bf8:	88 0b       	sbc	r24, r24
    3bfa:	99 0b       	sbc	r25, r25
    3bfc:	0e 94 eb 1f 	call	0x3fd6	; 0x3fd6 <__floatsisf>
    3c00:	20 e0       	ldi	r18, 0x00	; 0
    3c02:	30 e0       	ldi	r19, 0x00	; 0
    3c04:	40 e2       	ldi	r20, 0x20	; 32
    3c06:	51 e4       	ldi	r21, 0x41	; 65
    3c08:	0e 94 41 1f 	call	0x3e82	; 0x3e82 <__divsf3>
    3c0c:	60 93 da 01 	sts	0x01DA, r22	; 0x8001da <hum>
    3c10:	70 93 db 01 	sts	0x01DB, r23	; 0x8001db <hum+0x1>
    3c14:	80 93 dc 01 	sts	0x01DC, r24	; 0x8001dc <hum+0x2>
    3c18:	90 93 dd 01 	sts	0x01DD, r25	; 0x8001dd <hum+0x3>
		 sprintf(hum_home,"%d",(int)hum);
    3c1c:	0e 94 b3 1f 	call	0x3f66	; 0x3f66 <__fixsfsi>
    3c20:	7f 93       	push	r23
    3c22:	6f 93       	push	r22
    3c24:	8c ea       	ldi	r24, 0xAC	; 172
    3c26:	91 e0       	ldi	r25, 0x01	; 1
    3c28:	9f 93       	push	r25
    3c2a:	8f 93       	push	r24
    3c2c:	84 e6       	ldi	r24, 0x64	; 100
    3c2e:	92 e0       	ldi	r25, 0x02	; 2
    3c30:	9f 93       	push	r25
    3c32:	8f 93       	push	r24
    3c34:	0e 94 7f 26 	call	0x4cfe	; 0x4cfe <sprintf>
    3c38:	8d b7       	in	r24, 0x3d	; 61
    3c3a:	9e b7       	in	r25, 0x3e	; 62
    3c3c:	0e 96       	adiw	r24, 0x0e	; 14
    3c3e:	0f b6       	in	r0, 0x3f	; 63
    3c40:	f8 94       	cli
    3c42:	9e bf       	out	0x3e, r25	; 62
    3c44:	0f be       	out	0x3f, r0	; 63
    3c46:	8d bf       	out	0x3d, r24	; 61
	}
	pressure_home = BMP180_calculation()*0.0075;
    3c48:	0e 94 bb 05 	call	0xb76	; 0xb76 <BMP180_calculation>
    3c4c:	0e 94 eb 1f 	call	0x3fd6	; 0x3fd6 <__floatsisf>
    3c50:	2f e8       	ldi	r18, 0x8F	; 143
    3c52:	32 ec       	ldi	r19, 0xC2	; 194
    3c54:	45 ef       	ldi	r20, 0xF5	; 245
    3c56:	5b e3       	ldi	r21, 0x3B	; 59
    3c58:	0e 94 a0 20 	call	0x4140	; 0x4140 <__mulsf3>
    3c5c:	0e 94 b3 1f 	call	0x3f66	; 0x3f66 <__fixsfsi>
    3c60:	60 93 d8 01 	sts	0x01D8, r22	; 0x8001d8 <pressure_home>
    3c64:	70 93 d9 01 	sts	0x01D9, r23	; 0x8001d9 <pressure_home+0x1>
	sprintf(Press_home,"%d",pressure_home);
    3c68:	7f 93       	push	r23
    3c6a:	6f 93       	push	r22
    3c6c:	8c ea       	ldi	r24, 0xAC	; 172
    3c6e:	91 e0       	ldi	r25, 0x01	; 1
    3c70:	9f 93       	push	r25
    3c72:	8f 93       	push	r24
    3c74:	82 ee       	ldi	r24, 0xE2	; 226
    3c76:	91 e0       	ldi	r25, 0x01	; 1
    3c78:	9f 93       	push	r25
    3c7a:	8f 93       	push	r24
    3c7c:	0e 94 7f 26 	call	0x4cfe	; 0x4cfe <sprintf>
	LCD_12864_Decode_UTF8(95, 4, 0, "°C");
    3c80:	2b e4       	ldi	r18, 0x4B	; 75
    3c82:	31 e0       	ldi	r19, 0x01	; 1
    3c84:	40 e0       	ldi	r20, 0x00	; 0
    3c86:	64 e0       	ldi	r22, 0x04	; 4
    3c88:	8f e5       	ldi	r24, 0x5F	; 95
    3c8a:	90 e0       	ldi	r25, 0x00	; 0
    3c8c:	0e 94 5d 0c 	call	0x18ba	; 0x18ba <LCD_12864_Decode_UTF8>
	LCD_12864_Print_7_11(66, 3, 0, temp_home);
    3c90:	2e e6       	ldi	r18, 0x6E	; 110
    3c92:	32 e0       	ldi	r19, 0x02	; 2
    3c94:	40 e0       	ldi	r20, 0x00	; 0
    3c96:	63 e0       	ldi	r22, 0x03	; 3
    3c98:	82 e4       	ldi	r24, 0x42	; 66
    3c9a:	90 e0       	ldi	r25, 0x00	; 0
    3c9c:	0e 94 84 0b 	call	0x1708	; 0x1708 <LCD_12864_Print_7_11>
	LCD_12864_Decode_UTF8(123, 4, 0, "%");
    3ca0:	2e e4       	ldi	r18, 0x4E	; 78
    3ca2:	31 e0       	ldi	r19, 0x01	; 1
    3ca4:	40 e0       	ldi	r20, 0x00	; 0
    3ca6:	64 e0       	ldi	r22, 0x04	; 4
    3ca8:	8b e7       	ldi	r24, 0x7B	; 123
    3caa:	90 e0       	ldi	r25, 0x00	; 0
    3cac:	0e 94 5d 0c 	call	0x18ba	; 0x18ba <LCD_12864_Decode_UTF8>
	LCD_12864_Print_7_11(108, 3, 0, hum_home);
    3cb0:	24 e6       	ldi	r18, 0x64	; 100
    3cb2:	32 e0       	ldi	r19, 0x02	; 2
    3cb4:	40 e0       	ldi	r20, 0x00	; 0
    3cb6:	63 e0       	ldi	r22, 0x03	; 3
    3cb8:	8c e6       	ldi	r24, 0x6C	; 108
    3cba:	90 e0       	ldi	r25, 0x00	; 0
    3cbc:	0e 94 84 0b 	call	0x1708	; 0x1708 <LCD_12864_Print_7_11>
	LCD_12864_Print_4_6(86, 2, 0, Press_home);
    3cc0:	22 ee       	ldi	r18, 0xE2	; 226
    3cc2:	31 e0       	ldi	r19, 0x01	; 1
    3cc4:	40 e0       	ldi	r20, 0x00	; 0
    3cc6:	62 e0       	ldi	r22, 0x02	; 2
    3cc8:	86 e5       	ldi	r24, 0x56	; 86
    3cca:	90 e0       	ldi	r25, 0x00	; 0
    3ccc:	0e 94 d3 0b 	call	0x17a6	; 0x17a6 <LCD_12864_Print_4_6>
	LCD_12864_Decode_UTF8(101, 2, 0, "мм");
    3cd0:	2b e5       	ldi	r18, 0x5B	; 91
    3cd2:	31 e0       	ldi	r19, 0x01	; 1
    3cd4:	40 e0       	ldi	r20, 0x00	; 0
    3cd6:	62 e0       	ldi	r22, 0x02	; 2
    3cd8:	85 e6       	ldi	r24, 0x65	; 101
    3cda:	90 e0       	ldi	r25, 0x00	; 0
    3cdc:	0e 94 5d 0c 	call	0x18ba	; 0x18ba <LCD_12864_Decode_UTF8>
	LCD_12864_Decode_UTF8(114, 2, 0, "Hg");
    3ce0:	2e e5       	ldi	r18, 0x5E	; 94
    3ce2:	31 e0       	ldi	r19, 0x01	; 1
    3ce4:	40 e0       	ldi	r20, 0x00	; 0
    3ce6:	62 e0       	ldi	r22, 0x02	; 2
    3ce8:	82 e7       	ldi	r24, 0x72	; 114
    3cea:	90 e0       	ldi	r25, 0x00	; 0
    3cec:	0e 94 5d 0c 	call	0x18ba	; 0x18ba <LCD_12864_Decode_UTF8>
	
	//-----------Вывод разделительных линий-----------------------//
	LCD_12864_Decode_UTF8(2, 2, 0, "улица");
    3cf0:	21 e6       	ldi	r18, 0x61	; 97
    3cf2:	31 e0       	ldi	r19, 0x01	; 1
    3cf4:	40 e0       	ldi	r20, 0x00	; 0
    3cf6:	62 e0       	ldi	r22, 0x02	; 2
    3cf8:	82 e0       	ldi	r24, 0x02	; 2
    3cfa:	90 e0       	ldi	r25, 0x00	; 0
    3cfc:	0e 94 5d 0c 	call	0x18ba	; 0x18ba <LCD_12864_Decode_UTF8>
	LCD_12864_Decode_UTF8(65, 2, 0, "дом");
    3d00:	27 e6       	ldi	r18, 0x67	; 103
    3d02:	31 e0       	ldi	r19, 0x01	; 1
    3d04:	40 e0       	ldi	r20, 0x00	; 0
    3d06:	62 e0       	ldi	r22, 0x02	; 2
    3d08:	81 e4       	ldi	r24, 0x41	; 65
    3d0a:	90 e0       	ldi	r25, 0x00	; 0
    3d0c:	0e 94 5d 0c 	call	0x18ba	; 0x18ba <LCD_12864_Decode_UTF8>
	LCD_12864_Draw_line(0, 16, 128, 16);
    3d10:	20 e1       	ldi	r18, 0x10	; 16
    3d12:	40 e8       	ldi	r20, 0x80	; 128
    3d14:	60 e1       	ldi	r22, 0x10	; 16
    3d16:	80 e0       	ldi	r24, 0x00	; 0
    3d18:	0e 94 2e 0d 	call	0x1a5c	; 0x1a5c <LCD_12864_Draw_line>
	LCD_12864_Draw_line(0, 24, 32, 24);
    3d1c:	28 e1       	ldi	r18, 0x18	; 24
    3d1e:	40 e2       	ldi	r20, 0x20	; 32
    3d20:	68 e1       	ldi	r22, 0x18	; 24
    3d22:	80 e0       	ldi	r24, 0x00	; 0
    3d24:	0e 94 2e 0d 	call	0x1a5c	; 0x1a5c <LCD_12864_Draw_line>
	LCD_12864_Draw_line(32, 17, 32, 24);
    3d28:	28 e1       	ldi	r18, 0x18	; 24
    3d2a:	40 e2       	ldi	r20, 0x20	; 32
    3d2c:	61 e1       	ldi	r22, 0x11	; 17
    3d2e:	80 e2       	ldi	r24, 0x20	; 32
    3d30:	0e 94 2e 0d 	call	0x1a5c	; 0x1a5c <LCD_12864_Draw_line>
	LCD_12864_Draw_line(0, 17, 0, 24);
    3d34:	28 e1       	ldi	r18, 0x18	; 24
    3d36:	40 e0       	ldi	r20, 0x00	; 0
    3d38:	61 e1       	ldi	r22, 0x11	; 17
    3d3a:	80 e0       	ldi	r24, 0x00	; 0
    3d3c:	0e 94 2e 0d 	call	0x1a5c	; 0x1a5c <LCD_12864_Draw_line>
	LCD_12864_Draw_line(64, 24, 83, 24);
    3d40:	28 e1       	ldi	r18, 0x18	; 24
    3d42:	43 e5       	ldi	r20, 0x53	; 83
    3d44:	68 e1       	ldi	r22, 0x18	; 24
    3d46:	80 e4       	ldi	r24, 0x40	; 64
    3d48:	0e 94 2e 0d 	call	0x1a5c	; 0x1a5c <LCD_12864_Draw_line>
	LCD_12864_Draw_line(83, 17, 83, 24);
    3d4c:	28 e1       	ldi	r18, 0x18	; 24
    3d4e:	43 e5       	ldi	r20, 0x53	; 83
    3d50:	61 e1       	ldi	r22, 0x11	; 17
    3d52:	83 e5       	ldi	r24, 0x53	; 83
    3d54:	0e 94 2e 0d 	call	0x1a5c	; 0x1a5c <LCD_12864_Draw_line>
	LCD_12864_Draw_line(63, 17, 63, 41);
    3d58:	29 e2       	ldi	r18, 0x29	; 41
    3d5a:	4f e3       	ldi	r20, 0x3F	; 63
    3d5c:	61 e1       	ldi	r22, 0x11	; 17
    3d5e:	8f e3       	ldi	r24, 0x3F	; 63
    3d60:	0e 94 2e 0d 	call	0x1a5c	; 0x1a5c <LCD_12864_Draw_line>
	LCD_12864_Draw_line(63, 41, 128, 41);
    3d64:	29 e2       	ldi	r18, 0x29	; 41
    3d66:	40 e8       	ldi	r20, 0x80	; 128
    3d68:	69 e2       	ldi	r22, 0x29	; 41
    3d6a:	8f e3       	ldi	r24, 0x3F	; 63
    3d6c:	0e 94 2e 0d 	call	0x1a5c	; 0x1a5c <LCD_12864_Draw_line>
	//-----------Вывод индикатора АКБ-----------------------//
	DrawBattery();
    3d70:	0e 94 22 1b 	call	0x3644	; 0x3644 <DrawBattery>
	//-----------Вывод индикатора флюгера-----------------------//
	DrawWeatherVane();
    3d74:	0e 94 79 15 	call	0x2af2	; 0x2af2 <DrawWeatherVane>
	//-----------Вывод прогноза погоды-----------------------//
	DrawCloudsWithRain();
    3d78:	0e 94 30 14 	call	0x2860	; 0x2860 <DrawCloudsWithRain>
	
	LCD_12864_Draw_bitmap(Frame_buffer);
    3d7c:	ce 01       	movw	r24, r28
    3d7e:	0e 94 da 08 	call	0x11b4	; 0x11b4 <LCD_12864_Draw_bitmap>
	LCD_12864_GrapnicMode(0);
    3d82:	80 e0       	ldi	r24, 0x00	; 0
    3d84:	0e 94 bb 08 	call	0x1176	; 0x1176 <LCD_12864_GrapnicMode>
}
    3d88:	0f 90       	pop	r0
    3d8a:	0f 90       	pop	r0
    3d8c:	0f 90       	pop	r0
    3d8e:	0f 90       	pop	r0
    3d90:	0f 90       	pop	r0
    3d92:	0f 90       	pop	r0
    3d94:	df 91       	pop	r29
    3d96:	cf 91       	pop	r28
    3d98:	1f 91       	pop	r17
    3d9a:	0f 91       	pop	r16
    3d9c:	08 95       	ret

00003d9e <__subsf3>:
    3d9e:	50 58       	subi	r21, 0x80	; 128

00003da0 <__addsf3>:
    3da0:	bb 27       	eor	r27, r27
    3da2:	aa 27       	eor	r26, r26
    3da4:	0e 94 e7 1e 	call	0x3dce	; 0x3dce <__addsf3x>
    3da8:	0c 94 61 20 	jmp	0x40c2	; 0x40c2 <__fp_round>
    3dac:	0e 94 53 20 	call	0x40a6	; 0x40a6 <__fp_pscA>
    3db0:	38 f0       	brcs	.+14     	; 0x3dc0 <__addsf3+0x20>
    3db2:	0e 94 5a 20 	call	0x40b4	; 0x40b4 <__fp_pscB>
    3db6:	20 f0       	brcs	.+8      	; 0x3dc0 <__addsf3+0x20>
    3db8:	39 f4       	brne	.+14     	; 0x3dc8 <__addsf3+0x28>
    3dba:	9f 3f       	cpi	r25, 0xFF	; 255
    3dbc:	19 f4       	brne	.+6      	; 0x3dc4 <__addsf3+0x24>
    3dbe:	26 f4       	brtc	.+8      	; 0x3dc8 <__addsf3+0x28>
    3dc0:	0c 94 50 20 	jmp	0x40a0	; 0x40a0 <__fp_nan>
    3dc4:	0e f4       	brtc	.+2      	; 0x3dc8 <__addsf3+0x28>
    3dc6:	e0 95       	com	r30
    3dc8:	e7 fb       	bst	r30, 7
    3dca:	0c 94 4a 20 	jmp	0x4094	; 0x4094 <__fp_inf>

00003dce <__addsf3x>:
    3dce:	e9 2f       	mov	r30, r25
    3dd0:	0e 94 72 20 	call	0x40e4	; 0x40e4 <__fp_split3>
    3dd4:	58 f3       	brcs	.-42     	; 0x3dac <__addsf3+0xc>
    3dd6:	ba 17       	cp	r27, r26
    3dd8:	62 07       	cpc	r22, r18
    3dda:	73 07       	cpc	r23, r19
    3ddc:	84 07       	cpc	r24, r20
    3dde:	95 07       	cpc	r25, r21
    3de0:	20 f0       	brcs	.+8      	; 0x3dea <__addsf3x+0x1c>
    3de2:	79 f4       	brne	.+30     	; 0x3e02 <__addsf3x+0x34>
    3de4:	a6 f5       	brtc	.+104    	; 0x3e4e <__addsf3x+0x80>
    3de6:	0c 94 94 20 	jmp	0x4128	; 0x4128 <__fp_zero>
    3dea:	0e f4       	brtc	.+2      	; 0x3dee <__addsf3x+0x20>
    3dec:	e0 95       	com	r30
    3dee:	0b 2e       	mov	r0, r27
    3df0:	ba 2f       	mov	r27, r26
    3df2:	a0 2d       	mov	r26, r0
    3df4:	0b 01       	movw	r0, r22
    3df6:	b9 01       	movw	r22, r18
    3df8:	90 01       	movw	r18, r0
    3dfa:	0c 01       	movw	r0, r24
    3dfc:	ca 01       	movw	r24, r20
    3dfe:	a0 01       	movw	r20, r0
    3e00:	11 24       	eor	r1, r1
    3e02:	ff 27       	eor	r31, r31
    3e04:	59 1b       	sub	r21, r25
    3e06:	99 f0       	breq	.+38     	; 0x3e2e <__addsf3x+0x60>
    3e08:	59 3f       	cpi	r21, 0xF9	; 249
    3e0a:	50 f4       	brcc	.+20     	; 0x3e20 <__addsf3x+0x52>
    3e0c:	50 3e       	cpi	r21, 0xE0	; 224
    3e0e:	68 f1       	brcs	.+90     	; 0x3e6a <__addsf3x+0x9c>
    3e10:	1a 16       	cp	r1, r26
    3e12:	f0 40       	sbci	r31, 0x00	; 0
    3e14:	a2 2f       	mov	r26, r18
    3e16:	23 2f       	mov	r18, r19
    3e18:	34 2f       	mov	r19, r20
    3e1a:	44 27       	eor	r20, r20
    3e1c:	58 5f       	subi	r21, 0xF8	; 248
    3e1e:	f3 cf       	rjmp	.-26     	; 0x3e06 <__addsf3x+0x38>
    3e20:	46 95       	lsr	r20
    3e22:	37 95       	ror	r19
    3e24:	27 95       	ror	r18
    3e26:	a7 95       	ror	r26
    3e28:	f0 40       	sbci	r31, 0x00	; 0
    3e2a:	53 95       	inc	r21
    3e2c:	c9 f7       	brne	.-14     	; 0x3e20 <__addsf3x+0x52>
    3e2e:	7e f4       	brtc	.+30     	; 0x3e4e <__addsf3x+0x80>
    3e30:	1f 16       	cp	r1, r31
    3e32:	ba 0b       	sbc	r27, r26
    3e34:	62 0b       	sbc	r22, r18
    3e36:	73 0b       	sbc	r23, r19
    3e38:	84 0b       	sbc	r24, r20
    3e3a:	ba f0       	brmi	.+46     	; 0x3e6a <__addsf3x+0x9c>
    3e3c:	91 50       	subi	r25, 0x01	; 1
    3e3e:	a1 f0       	breq	.+40     	; 0x3e68 <__addsf3x+0x9a>
    3e40:	ff 0f       	add	r31, r31
    3e42:	bb 1f       	adc	r27, r27
    3e44:	66 1f       	adc	r22, r22
    3e46:	77 1f       	adc	r23, r23
    3e48:	88 1f       	adc	r24, r24
    3e4a:	c2 f7       	brpl	.-16     	; 0x3e3c <__addsf3x+0x6e>
    3e4c:	0e c0       	rjmp	.+28     	; 0x3e6a <__addsf3x+0x9c>
    3e4e:	ba 0f       	add	r27, r26
    3e50:	62 1f       	adc	r22, r18
    3e52:	73 1f       	adc	r23, r19
    3e54:	84 1f       	adc	r24, r20
    3e56:	48 f4       	brcc	.+18     	; 0x3e6a <__addsf3x+0x9c>
    3e58:	87 95       	ror	r24
    3e5a:	77 95       	ror	r23
    3e5c:	67 95       	ror	r22
    3e5e:	b7 95       	ror	r27
    3e60:	f7 95       	ror	r31
    3e62:	9e 3f       	cpi	r25, 0xFE	; 254
    3e64:	08 f0       	brcs	.+2      	; 0x3e68 <__addsf3x+0x9a>
    3e66:	b0 cf       	rjmp	.-160    	; 0x3dc8 <__addsf3+0x28>
    3e68:	93 95       	inc	r25
    3e6a:	88 0f       	add	r24, r24
    3e6c:	08 f0       	brcs	.+2      	; 0x3e70 <__addsf3x+0xa2>
    3e6e:	99 27       	eor	r25, r25
    3e70:	ee 0f       	add	r30, r30
    3e72:	97 95       	ror	r25
    3e74:	87 95       	ror	r24
    3e76:	08 95       	ret

00003e78 <__cmpsf2>:
    3e78:	0e 94 26 20 	call	0x404c	; 0x404c <__fp_cmp>
    3e7c:	08 f4       	brcc	.+2      	; 0x3e80 <__cmpsf2+0x8>
    3e7e:	81 e0       	ldi	r24, 0x01	; 1
    3e80:	08 95       	ret

00003e82 <__divsf3>:
    3e82:	0e 94 55 1f 	call	0x3eaa	; 0x3eaa <__divsf3x>
    3e86:	0c 94 61 20 	jmp	0x40c2	; 0x40c2 <__fp_round>
    3e8a:	0e 94 5a 20 	call	0x40b4	; 0x40b4 <__fp_pscB>
    3e8e:	58 f0       	brcs	.+22     	; 0x3ea6 <__divsf3+0x24>
    3e90:	0e 94 53 20 	call	0x40a6	; 0x40a6 <__fp_pscA>
    3e94:	40 f0       	brcs	.+16     	; 0x3ea6 <__divsf3+0x24>
    3e96:	29 f4       	brne	.+10     	; 0x3ea2 <__divsf3+0x20>
    3e98:	5f 3f       	cpi	r21, 0xFF	; 255
    3e9a:	29 f0       	breq	.+10     	; 0x3ea6 <__divsf3+0x24>
    3e9c:	0c 94 4a 20 	jmp	0x4094	; 0x4094 <__fp_inf>
    3ea0:	51 11       	cpse	r21, r1
    3ea2:	0c 94 95 20 	jmp	0x412a	; 0x412a <__fp_szero>
    3ea6:	0c 94 50 20 	jmp	0x40a0	; 0x40a0 <__fp_nan>

00003eaa <__divsf3x>:
    3eaa:	0e 94 72 20 	call	0x40e4	; 0x40e4 <__fp_split3>
    3eae:	68 f3       	brcs	.-38     	; 0x3e8a <__divsf3+0x8>

00003eb0 <__divsf3_pse>:
    3eb0:	99 23       	and	r25, r25
    3eb2:	b1 f3       	breq	.-20     	; 0x3ea0 <__divsf3+0x1e>
    3eb4:	55 23       	and	r21, r21
    3eb6:	91 f3       	breq	.-28     	; 0x3e9c <__divsf3+0x1a>
    3eb8:	95 1b       	sub	r25, r21
    3eba:	55 0b       	sbc	r21, r21
    3ebc:	bb 27       	eor	r27, r27
    3ebe:	aa 27       	eor	r26, r26
    3ec0:	62 17       	cp	r22, r18
    3ec2:	73 07       	cpc	r23, r19
    3ec4:	84 07       	cpc	r24, r20
    3ec6:	38 f0       	brcs	.+14     	; 0x3ed6 <__divsf3_pse+0x26>
    3ec8:	9f 5f       	subi	r25, 0xFF	; 255
    3eca:	5f 4f       	sbci	r21, 0xFF	; 255
    3ecc:	22 0f       	add	r18, r18
    3ece:	33 1f       	adc	r19, r19
    3ed0:	44 1f       	adc	r20, r20
    3ed2:	aa 1f       	adc	r26, r26
    3ed4:	a9 f3       	breq	.-22     	; 0x3ec0 <__divsf3_pse+0x10>
    3ed6:	35 d0       	rcall	.+106    	; 0x3f42 <__divsf3_pse+0x92>
    3ed8:	0e 2e       	mov	r0, r30
    3eda:	3a f0       	brmi	.+14     	; 0x3eea <__divsf3_pse+0x3a>
    3edc:	e0 e8       	ldi	r30, 0x80	; 128
    3ede:	32 d0       	rcall	.+100    	; 0x3f44 <__divsf3_pse+0x94>
    3ee0:	91 50       	subi	r25, 0x01	; 1
    3ee2:	50 40       	sbci	r21, 0x00	; 0
    3ee4:	e6 95       	lsr	r30
    3ee6:	00 1c       	adc	r0, r0
    3ee8:	ca f7       	brpl	.-14     	; 0x3edc <__divsf3_pse+0x2c>
    3eea:	2b d0       	rcall	.+86     	; 0x3f42 <__divsf3_pse+0x92>
    3eec:	fe 2f       	mov	r31, r30
    3eee:	29 d0       	rcall	.+82     	; 0x3f42 <__divsf3_pse+0x92>
    3ef0:	66 0f       	add	r22, r22
    3ef2:	77 1f       	adc	r23, r23
    3ef4:	88 1f       	adc	r24, r24
    3ef6:	bb 1f       	adc	r27, r27
    3ef8:	26 17       	cp	r18, r22
    3efa:	37 07       	cpc	r19, r23
    3efc:	48 07       	cpc	r20, r24
    3efe:	ab 07       	cpc	r26, r27
    3f00:	b0 e8       	ldi	r27, 0x80	; 128
    3f02:	09 f0       	breq	.+2      	; 0x3f06 <__divsf3_pse+0x56>
    3f04:	bb 0b       	sbc	r27, r27
    3f06:	80 2d       	mov	r24, r0
    3f08:	bf 01       	movw	r22, r30
    3f0a:	ff 27       	eor	r31, r31
    3f0c:	93 58       	subi	r25, 0x83	; 131
    3f0e:	5f 4f       	sbci	r21, 0xFF	; 255
    3f10:	3a f0       	brmi	.+14     	; 0x3f20 <__divsf3_pse+0x70>
    3f12:	9e 3f       	cpi	r25, 0xFE	; 254
    3f14:	51 05       	cpc	r21, r1
    3f16:	78 f0       	brcs	.+30     	; 0x3f36 <__divsf3_pse+0x86>
    3f18:	0c 94 4a 20 	jmp	0x4094	; 0x4094 <__fp_inf>
    3f1c:	0c 94 95 20 	jmp	0x412a	; 0x412a <__fp_szero>
    3f20:	5f 3f       	cpi	r21, 0xFF	; 255
    3f22:	e4 f3       	brlt	.-8      	; 0x3f1c <__divsf3_pse+0x6c>
    3f24:	98 3e       	cpi	r25, 0xE8	; 232
    3f26:	d4 f3       	brlt	.-12     	; 0x3f1c <__divsf3_pse+0x6c>
    3f28:	86 95       	lsr	r24
    3f2a:	77 95       	ror	r23
    3f2c:	67 95       	ror	r22
    3f2e:	b7 95       	ror	r27
    3f30:	f7 95       	ror	r31
    3f32:	9f 5f       	subi	r25, 0xFF	; 255
    3f34:	c9 f7       	brne	.-14     	; 0x3f28 <__divsf3_pse+0x78>
    3f36:	88 0f       	add	r24, r24
    3f38:	91 1d       	adc	r25, r1
    3f3a:	96 95       	lsr	r25
    3f3c:	87 95       	ror	r24
    3f3e:	97 f9       	bld	r25, 7
    3f40:	08 95       	ret
    3f42:	e1 e0       	ldi	r30, 0x01	; 1
    3f44:	66 0f       	add	r22, r22
    3f46:	77 1f       	adc	r23, r23
    3f48:	88 1f       	adc	r24, r24
    3f4a:	bb 1f       	adc	r27, r27
    3f4c:	62 17       	cp	r22, r18
    3f4e:	73 07       	cpc	r23, r19
    3f50:	84 07       	cpc	r24, r20
    3f52:	ba 07       	cpc	r27, r26
    3f54:	20 f0       	brcs	.+8      	; 0x3f5e <__divsf3_pse+0xae>
    3f56:	62 1b       	sub	r22, r18
    3f58:	73 0b       	sbc	r23, r19
    3f5a:	84 0b       	sbc	r24, r20
    3f5c:	ba 0b       	sbc	r27, r26
    3f5e:	ee 1f       	adc	r30, r30
    3f60:	88 f7       	brcc	.-30     	; 0x3f44 <__divsf3_pse+0x94>
    3f62:	e0 95       	com	r30
    3f64:	08 95       	ret

00003f66 <__fixsfsi>:
    3f66:	0e 94 ba 1f 	call	0x3f74	; 0x3f74 <__fixunssfsi>
    3f6a:	68 94       	set
    3f6c:	b1 11       	cpse	r27, r1
    3f6e:	0c 94 95 20 	jmp	0x412a	; 0x412a <__fp_szero>
    3f72:	08 95       	ret

00003f74 <__fixunssfsi>:
    3f74:	0e 94 7a 20 	call	0x40f4	; 0x40f4 <__fp_splitA>
    3f78:	88 f0       	brcs	.+34     	; 0x3f9c <__fixunssfsi+0x28>
    3f7a:	9f 57       	subi	r25, 0x7F	; 127
    3f7c:	98 f0       	brcs	.+38     	; 0x3fa4 <__fixunssfsi+0x30>
    3f7e:	b9 2f       	mov	r27, r25
    3f80:	99 27       	eor	r25, r25
    3f82:	b7 51       	subi	r27, 0x17	; 23
    3f84:	b0 f0       	brcs	.+44     	; 0x3fb2 <__fixunssfsi+0x3e>
    3f86:	e1 f0       	breq	.+56     	; 0x3fc0 <__fixunssfsi+0x4c>
    3f88:	66 0f       	add	r22, r22
    3f8a:	77 1f       	adc	r23, r23
    3f8c:	88 1f       	adc	r24, r24
    3f8e:	99 1f       	adc	r25, r25
    3f90:	1a f0       	brmi	.+6      	; 0x3f98 <__fixunssfsi+0x24>
    3f92:	ba 95       	dec	r27
    3f94:	c9 f7       	brne	.-14     	; 0x3f88 <__fixunssfsi+0x14>
    3f96:	14 c0       	rjmp	.+40     	; 0x3fc0 <__fixunssfsi+0x4c>
    3f98:	b1 30       	cpi	r27, 0x01	; 1
    3f9a:	91 f0       	breq	.+36     	; 0x3fc0 <__fixunssfsi+0x4c>
    3f9c:	0e 94 94 20 	call	0x4128	; 0x4128 <__fp_zero>
    3fa0:	b1 e0       	ldi	r27, 0x01	; 1
    3fa2:	08 95       	ret
    3fa4:	0c 94 94 20 	jmp	0x4128	; 0x4128 <__fp_zero>
    3fa8:	67 2f       	mov	r22, r23
    3faa:	78 2f       	mov	r23, r24
    3fac:	88 27       	eor	r24, r24
    3fae:	b8 5f       	subi	r27, 0xF8	; 248
    3fb0:	39 f0       	breq	.+14     	; 0x3fc0 <__fixunssfsi+0x4c>
    3fb2:	b9 3f       	cpi	r27, 0xF9	; 249
    3fb4:	cc f3       	brlt	.-14     	; 0x3fa8 <__fixunssfsi+0x34>
    3fb6:	86 95       	lsr	r24
    3fb8:	77 95       	ror	r23
    3fba:	67 95       	ror	r22
    3fbc:	b3 95       	inc	r27
    3fbe:	d9 f7       	brne	.-10     	; 0x3fb6 <__fixunssfsi+0x42>
    3fc0:	3e f4       	brtc	.+14     	; 0x3fd0 <__fixunssfsi+0x5c>
    3fc2:	90 95       	com	r25
    3fc4:	80 95       	com	r24
    3fc6:	70 95       	com	r23
    3fc8:	61 95       	neg	r22
    3fca:	7f 4f       	sbci	r23, 0xFF	; 255
    3fcc:	8f 4f       	sbci	r24, 0xFF	; 255
    3fce:	9f 4f       	sbci	r25, 0xFF	; 255
    3fd0:	08 95       	ret

00003fd2 <__floatunsisf>:
    3fd2:	e8 94       	clt
    3fd4:	09 c0       	rjmp	.+18     	; 0x3fe8 <__floatsisf+0x12>

00003fd6 <__floatsisf>:
    3fd6:	97 fb       	bst	r25, 7
    3fd8:	3e f4       	brtc	.+14     	; 0x3fe8 <__floatsisf+0x12>
    3fda:	90 95       	com	r25
    3fdc:	80 95       	com	r24
    3fde:	70 95       	com	r23
    3fe0:	61 95       	neg	r22
    3fe2:	7f 4f       	sbci	r23, 0xFF	; 255
    3fe4:	8f 4f       	sbci	r24, 0xFF	; 255
    3fe6:	9f 4f       	sbci	r25, 0xFF	; 255
    3fe8:	99 23       	and	r25, r25
    3fea:	a9 f0       	breq	.+42     	; 0x4016 <__floatsisf+0x40>
    3fec:	f9 2f       	mov	r31, r25
    3fee:	96 e9       	ldi	r25, 0x96	; 150
    3ff0:	bb 27       	eor	r27, r27
    3ff2:	93 95       	inc	r25
    3ff4:	f6 95       	lsr	r31
    3ff6:	87 95       	ror	r24
    3ff8:	77 95       	ror	r23
    3ffa:	67 95       	ror	r22
    3ffc:	b7 95       	ror	r27
    3ffe:	f1 11       	cpse	r31, r1
    4000:	f8 cf       	rjmp	.-16     	; 0x3ff2 <__floatsisf+0x1c>
    4002:	fa f4       	brpl	.+62     	; 0x4042 <__floatsisf+0x6c>
    4004:	bb 0f       	add	r27, r27
    4006:	11 f4       	brne	.+4      	; 0x400c <__floatsisf+0x36>
    4008:	60 ff       	sbrs	r22, 0
    400a:	1b c0       	rjmp	.+54     	; 0x4042 <__floatsisf+0x6c>
    400c:	6f 5f       	subi	r22, 0xFF	; 255
    400e:	7f 4f       	sbci	r23, 0xFF	; 255
    4010:	8f 4f       	sbci	r24, 0xFF	; 255
    4012:	9f 4f       	sbci	r25, 0xFF	; 255
    4014:	16 c0       	rjmp	.+44     	; 0x4042 <__floatsisf+0x6c>
    4016:	88 23       	and	r24, r24
    4018:	11 f0       	breq	.+4      	; 0x401e <__floatsisf+0x48>
    401a:	96 e9       	ldi	r25, 0x96	; 150
    401c:	11 c0       	rjmp	.+34     	; 0x4040 <__floatsisf+0x6a>
    401e:	77 23       	and	r23, r23
    4020:	21 f0       	breq	.+8      	; 0x402a <__floatsisf+0x54>
    4022:	9e e8       	ldi	r25, 0x8E	; 142
    4024:	87 2f       	mov	r24, r23
    4026:	76 2f       	mov	r23, r22
    4028:	05 c0       	rjmp	.+10     	; 0x4034 <__floatsisf+0x5e>
    402a:	66 23       	and	r22, r22
    402c:	71 f0       	breq	.+28     	; 0x404a <__floatsisf+0x74>
    402e:	96 e8       	ldi	r25, 0x86	; 134
    4030:	86 2f       	mov	r24, r22
    4032:	70 e0       	ldi	r23, 0x00	; 0
    4034:	60 e0       	ldi	r22, 0x00	; 0
    4036:	2a f0       	brmi	.+10     	; 0x4042 <__floatsisf+0x6c>
    4038:	9a 95       	dec	r25
    403a:	66 0f       	add	r22, r22
    403c:	77 1f       	adc	r23, r23
    403e:	88 1f       	adc	r24, r24
    4040:	da f7       	brpl	.-10     	; 0x4038 <__floatsisf+0x62>
    4042:	88 0f       	add	r24, r24
    4044:	96 95       	lsr	r25
    4046:	87 95       	ror	r24
    4048:	97 f9       	bld	r25, 7
    404a:	08 95       	ret

0000404c <__fp_cmp>:
    404c:	99 0f       	add	r25, r25
    404e:	00 08       	sbc	r0, r0
    4050:	55 0f       	add	r21, r21
    4052:	aa 0b       	sbc	r26, r26
    4054:	e0 e8       	ldi	r30, 0x80	; 128
    4056:	fe ef       	ldi	r31, 0xFE	; 254
    4058:	16 16       	cp	r1, r22
    405a:	17 06       	cpc	r1, r23
    405c:	e8 07       	cpc	r30, r24
    405e:	f9 07       	cpc	r31, r25
    4060:	c0 f0       	brcs	.+48     	; 0x4092 <__fp_cmp+0x46>
    4062:	12 16       	cp	r1, r18
    4064:	13 06       	cpc	r1, r19
    4066:	e4 07       	cpc	r30, r20
    4068:	f5 07       	cpc	r31, r21
    406a:	98 f0       	brcs	.+38     	; 0x4092 <__fp_cmp+0x46>
    406c:	62 1b       	sub	r22, r18
    406e:	73 0b       	sbc	r23, r19
    4070:	84 0b       	sbc	r24, r20
    4072:	95 0b       	sbc	r25, r21
    4074:	39 f4       	brne	.+14     	; 0x4084 <__fp_cmp+0x38>
    4076:	0a 26       	eor	r0, r26
    4078:	61 f0       	breq	.+24     	; 0x4092 <__fp_cmp+0x46>
    407a:	23 2b       	or	r18, r19
    407c:	24 2b       	or	r18, r20
    407e:	25 2b       	or	r18, r21
    4080:	21 f4       	brne	.+8      	; 0x408a <__fp_cmp+0x3e>
    4082:	08 95       	ret
    4084:	0a 26       	eor	r0, r26
    4086:	09 f4       	brne	.+2      	; 0x408a <__fp_cmp+0x3e>
    4088:	a1 40       	sbci	r26, 0x01	; 1
    408a:	a6 95       	lsr	r26
    408c:	8f ef       	ldi	r24, 0xFF	; 255
    408e:	81 1d       	adc	r24, r1
    4090:	81 1d       	adc	r24, r1
    4092:	08 95       	ret

00004094 <__fp_inf>:
    4094:	97 f9       	bld	r25, 7
    4096:	9f 67       	ori	r25, 0x7F	; 127
    4098:	80 e8       	ldi	r24, 0x80	; 128
    409a:	70 e0       	ldi	r23, 0x00	; 0
    409c:	60 e0       	ldi	r22, 0x00	; 0
    409e:	08 95       	ret

000040a0 <__fp_nan>:
    40a0:	9f ef       	ldi	r25, 0xFF	; 255
    40a2:	80 ec       	ldi	r24, 0xC0	; 192
    40a4:	08 95       	ret

000040a6 <__fp_pscA>:
    40a6:	00 24       	eor	r0, r0
    40a8:	0a 94       	dec	r0
    40aa:	16 16       	cp	r1, r22
    40ac:	17 06       	cpc	r1, r23
    40ae:	18 06       	cpc	r1, r24
    40b0:	09 06       	cpc	r0, r25
    40b2:	08 95       	ret

000040b4 <__fp_pscB>:
    40b4:	00 24       	eor	r0, r0
    40b6:	0a 94       	dec	r0
    40b8:	12 16       	cp	r1, r18
    40ba:	13 06       	cpc	r1, r19
    40bc:	14 06       	cpc	r1, r20
    40be:	05 06       	cpc	r0, r21
    40c0:	08 95       	ret

000040c2 <__fp_round>:
    40c2:	09 2e       	mov	r0, r25
    40c4:	03 94       	inc	r0
    40c6:	00 0c       	add	r0, r0
    40c8:	11 f4       	brne	.+4      	; 0x40ce <__fp_round+0xc>
    40ca:	88 23       	and	r24, r24
    40cc:	52 f0       	brmi	.+20     	; 0x40e2 <__fp_round+0x20>
    40ce:	bb 0f       	add	r27, r27
    40d0:	40 f4       	brcc	.+16     	; 0x40e2 <__fp_round+0x20>
    40d2:	bf 2b       	or	r27, r31
    40d4:	11 f4       	brne	.+4      	; 0x40da <__fp_round+0x18>
    40d6:	60 ff       	sbrs	r22, 0
    40d8:	04 c0       	rjmp	.+8      	; 0x40e2 <__fp_round+0x20>
    40da:	6f 5f       	subi	r22, 0xFF	; 255
    40dc:	7f 4f       	sbci	r23, 0xFF	; 255
    40de:	8f 4f       	sbci	r24, 0xFF	; 255
    40e0:	9f 4f       	sbci	r25, 0xFF	; 255
    40e2:	08 95       	ret

000040e4 <__fp_split3>:
    40e4:	57 fd       	sbrc	r21, 7
    40e6:	90 58       	subi	r25, 0x80	; 128
    40e8:	44 0f       	add	r20, r20
    40ea:	55 1f       	adc	r21, r21
    40ec:	59 f0       	breq	.+22     	; 0x4104 <__fp_splitA+0x10>
    40ee:	5f 3f       	cpi	r21, 0xFF	; 255
    40f0:	71 f0       	breq	.+28     	; 0x410e <__fp_splitA+0x1a>
    40f2:	47 95       	ror	r20

000040f4 <__fp_splitA>:
    40f4:	88 0f       	add	r24, r24
    40f6:	97 fb       	bst	r25, 7
    40f8:	99 1f       	adc	r25, r25
    40fa:	61 f0       	breq	.+24     	; 0x4114 <__fp_splitA+0x20>
    40fc:	9f 3f       	cpi	r25, 0xFF	; 255
    40fe:	79 f0       	breq	.+30     	; 0x411e <__fp_splitA+0x2a>
    4100:	87 95       	ror	r24
    4102:	08 95       	ret
    4104:	12 16       	cp	r1, r18
    4106:	13 06       	cpc	r1, r19
    4108:	14 06       	cpc	r1, r20
    410a:	55 1f       	adc	r21, r21
    410c:	f2 cf       	rjmp	.-28     	; 0x40f2 <__fp_split3+0xe>
    410e:	46 95       	lsr	r20
    4110:	f1 df       	rcall	.-30     	; 0x40f4 <__fp_splitA>
    4112:	08 c0       	rjmp	.+16     	; 0x4124 <__fp_splitA+0x30>
    4114:	16 16       	cp	r1, r22
    4116:	17 06       	cpc	r1, r23
    4118:	18 06       	cpc	r1, r24
    411a:	99 1f       	adc	r25, r25
    411c:	f1 cf       	rjmp	.-30     	; 0x4100 <__fp_splitA+0xc>
    411e:	86 95       	lsr	r24
    4120:	71 05       	cpc	r23, r1
    4122:	61 05       	cpc	r22, r1
    4124:	08 94       	sec
    4126:	08 95       	ret

00004128 <__fp_zero>:
    4128:	e8 94       	clt

0000412a <__fp_szero>:
    412a:	bb 27       	eor	r27, r27
    412c:	66 27       	eor	r22, r22
    412e:	77 27       	eor	r23, r23
    4130:	cb 01       	movw	r24, r22
    4132:	97 f9       	bld	r25, 7
    4134:	08 95       	ret

00004136 <__gesf2>:
    4136:	0e 94 26 20 	call	0x404c	; 0x404c <__fp_cmp>
    413a:	08 f4       	brcc	.+2      	; 0x413e <__gesf2+0x8>
    413c:	8f ef       	ldi	r24, 0xFF	; 255
    413e:	08 95       	ret

00004140 <__mulsf3>:
    4140:	0e 94 b3 20 	call	0x4166	; 0x4166 <__mulsf3x>
    4144:	0c 94 61 20 	jmp	0x40c2	; 0x40c2 <__fp_round>
    4148:	0e 94 53 20 	call	0x40a6	; 0x40a6 <__fp_pscA>
    414c:	38 f0       	brcs	.+14     	; 0x415c <__mulsf3+0x1c>
    414e:	0e 94 5a 20 	call	0x40b4	; 0x40b4 <__fp_pscB>
    4152:	20 f0       	brcs	.+8      	; 0x415c <__mulsf3+0x1c>
    4154:	95 23       	and	r25, r21
    4156:	11 f0       	breq	.+4      	; 0x415c <__mulsf3+0x1c>
    4158:	0c 94 4a 20 	jmp	0x4094	; 0x4094 <__fp_inf>
    415c:	0c 94 50 20 	jmp	0x40a0	; 0x40a0 <__fp_nan>
    4160:	11 24       	eor	r1, r1
    4162:	0c 94 95 20 	jmp	0x412a	; 0x412a <__fp_szero>

00004166 <__mulsf3x>:
    4166:	0e 94 72 20 	call	0x40e4	; 0x40e4 <__fp_split3>
    416a:	70 f3       	brcs	.-36     	; 0x4148 <__mulsf3+0x8>

0000416c <__mulsf3_pse>:
    416c:	95 9f       	mul	r25, r21
    416e:	c1 f3       	breq	.-16     	; 0x4160 <__mulsf3+0x20>
    4170:	95 0f       	add	r25, r21
    4172:	50 e0       	ldi	r21, 0x00	; 0
    4174:	55 1f       	adc	r21, r21
    4176:	62 9f       	mul	r22, r18
    4178:	f0 01       	movw	r30, r0
    417a:	72 9f       	mul	r23, r18
    417c:	bb 27       	eor	r27, r27
    417e:	f0 0d       	add	r31, r0
    4180:	b1 1d       	adc	r27, r1
    4182:	63 9f       	mul	r22, r19
    4184:	aa 27       	eor	r26, r26
    4186:	f0 0d       	add	r31, r0
    4188:	b1 1d       	adc	r27, r1
    418a:	aa 1f       	adc	r26, r26
    418c:	64 9f       	mul	r22, r20
    418e:	66 27       	eor	r22, r22
    4190:	b0 0d       	add	r27, r0
    4192:	a1 1d       	adc	r26, r1
    4194:	66 1f       	adc	r22, r22
    4196:	82 9f       	mul	r24, r18
    4198:	22 27       	eor	r18, r18
    419a:	b0 0d       	add	r27, r0
    419c:	a1 1d       	adc	r26, r1
    419e:	62 1f       	adc	r22, r18
    41a0:	73 9f       	mul	r23, r19
    41a2:	b0 0d       	add	r27, r0
    41a4:	a1 1d       	adc	r26, r1
    41a6:	62 1f       	adc	r22, r18
    41a8:	83 9f       	mul	r24, r19
    41aa:	a0 0d       	add	r26, r0
    41ac:	61 1d       	adc	r22, r1
    41ae:	22 1f       	adc	r18, r18
    41b0:	74 9f       	mul	r23, r20
    41b2:	33 27       	eor	r19, r19
    41b4:	a0 0d       	add	r26, r0
    41b6:	61 1d       	adc	r22, r1
    41b8:	23 1f       	adc	r18, r19
    41ba:	84 9f       	mul	r24, r20
    41bc:	60 0d       	add	r22, r0
    41be:	21 1d       	adc	r18, r1
    41c0:	82 2f       	mov	r24, r18
    41c2:	76 2f       	mov	r23, r22
    41c4:	6a 2f       	mov	r22, r26
    41c6:	11 24       	eor	r1, r1
    41c8:	9f 57       	subi	r25, 0x7F	; 127
    41ca:	50 40       	sbci	r21, 0x00	; 0
    41cc:	9a f0       	brmi	.+38     	; 0x41f4 <__mulsf3_pse+0x88>
    41ce:	f1 f0       	breq	.+60     	; 0x420c <__mulsf3_pse+0xa0>
    41d0:	88 23       	and	r24, r24
    41d2:	4a f0       	brmi	.+18     	; 0x41e6 <__mulsf3_pse+0x7a>
    41d4:	ee 0f       	add	r30, r30
    41d6:	ff 1f       	adc	r31, r31
    41d8:	bb 1f       	adc	r27, r27
    41da:	66 1f       	adc	r22, r22
    41dc:	77 1f       	adc	r23, r23
    41de:	88 1f       	adc	r24, r24
    41e0:	91 50       	subi	r25, 0x01	; 1
    41e2:	50 40       	sbci	r21, 0x00	; 0
    41e4:	a9 f7       	brne	.-22     	; 0x41d0 <__mulsf3_pse+0x64>
    41e6:	9e 3f       	cpi	r25, 0xFE	; 254
    41e8:	51 05       	cpc	r21, r1
    41ea:	80 f0       	brcs	.+32     	; 0x420c <__mulsf3_pse+0xa0>
    41ec:	0c 94 4a 20 	jmp	0x4094	; 0x4094 <__fp_inf>
    41f0:	0c 94 95 20 	jmp	0x412a	; 0x412a <__fp_szero>
    41f4:	5f 3f       	cpi	r21, 0xFF	; 255
    41f6:	e4 f3       	brlt	.-8      	; 0x41f0 <__mulsf3_pse+0x84>
    41f8:	98 3e       	cpi	r25, 0xE8	; 232
    41fa:	d4 f3       	brlt	.-12     	; 0x41f0 <__mulsf3_pse+0x84>
    41fc:	86 95       	lsr	r24
    41fe:	77 95       	ror	r23
    4200:	67 95       	ror	r22
    4202:	b7 95       	ror	r27
    4204:	f7 95       	ror	r31
    4206:	e7 95       	ror	r30
    4208:	9f 5f       	subi	r25, 0xFF	; 255
    420a:	c1 f7       	brne	.-16     	; 0x41fc <__mulsf3_pse+0x90>
    420c:	fe 2b       	or	r31, r30
    420e:	88 0f       	add	r24, r24
    4210:	91 1d       	adc	r25, r1
    4212:	96 95       	lsr	r25
    4214:	87 95       	ror	r24
    4216:	97 f9       	bld	r25, 7
    4218:	08 95       	ret

0000421a <vfprintf>:
    421a:	a0 e1       	ldi	r26, 0x10	; 16
    421c:	b0 e0       	ldi	r27, 0x00	; 0
    421e:	e3 e1       	ldi	r30, 0x13	; 19
    4220:	f1 e2       	ldi	r31, 0x21	; 33
    4222:	0c 94 f4 24 	jmp	0x49e8	; 0x49e8 <__prologue_saves__>
    4226:	7c 01       	movw	r14, r24
    4228:	1b 01       	movw	r2, r22
    422a:	6a 01       	movw	r12, r20
    422c:	fc 01       	movw	r30, r24
    422e:	17 82       	std	Z+7, r1	; 0x07
    4230:	16 82       	std	Z+6, r1	; 0x06
    4232:	83 81       	ldd	r24, Z+3	; 0x03
    4234:	81 ff       	sbrs	r24, 1
    4236:	44 c3       	rjmp	.+1672   	; 0x48c0 <vfprintf+0x6a6>
    4238:	9e 01       	movw	r18, r28
    423a:	2f 5f       	subi	r18, 0xFF	; 255
    423c:	3f 4f       	sbci	r19, 0xFF	; 255
    423e:	39 01       	movw	r6, r18
    4240:	f7 01       	movw	r30, r14
    4242:	93 81       	ldd	r25, Z+3	; 0x03
    4244:	f1 01       	movw	r30, r2
    4246:	93 fd       	sbrc	r25, 3
    4248:	85 91       	lpm	r24, Z+
    424a:	93 ff       	sbrs	r25, 3
    424c:	81 91       	ld	r24, Z+
    424e:	1f 01       	movw	r2, r30
    4250:	88 23       	and	r24, r24
    4252:	09 f4       	brne	.+2      	; 0x4256 <vfprintf+0x3c>
    4254:	31 c3       	rjmp	.+1634   	; 0x48b8 <vfprintf+0x69e>
    4256:	85 32       	cpi	r24, 0x25	; 37
    4258:	39 f4       	brne	.+14     	; 0x4268 <vfprintf+0x4e>
    425a:	93 fd       	sbrc	r25, 3
    425c:	85 91       	lpm	r24, Z+
    425e:	93 ff       	sbrs	r25, 3
    4260:	81 91       	ld	r24, Z+
    4262:	1f 01       	movw	r2, r30
    4264:	85 32       	cpi	r24, 0x25	; 37
    4266:	39 f4       	brne	.+14     	; 0x4276 <vfprintf+0x5c>
    4268:	b7 01       	movw	r22, r14
    426a:	90 e0       	ldi	r25, 0x00	; 0
    426c:	0e 94 43 26 	call	0x4c86	; 0x4c86 <fputc>
    4270:	56 01       	movw	r10, r12
    4272:	65 01       	movw	r12, r10
    4274:	e5 cf       	rjmp	.-54     	; 0x4240 <vfprintf+0x26>
    4276:	10 e0       	ldi	r17, 0x00	; 0
    4278:	51 2c       	mov	r5, r1
    427a:	91 2c       	mov	r9, r1
    427c:	ff e1       	ldi	r31, 0x1F	; 31
    427e:	f9 15       	cp	r31, r9
    4280:	d8 f0       	brcs	.+54     	; 0x42b8 <vfprintf+0x9e>
    4282:	8b 32       	cpi	r24, 0x2B	; 43
    4284:	79 f0       	breq	.+30     	; 0x42a4 <vfprintf+0x8a>
    4286:	38 f4       	brcc	.+14     	; 0x4296 <vfprintf+0x7c>
    4288:	80 32       	cpi	r24, 0x20	; 32
    428a:	79 f0       	breq	.+30     	; 0x42aa <vfprintf+0x90>
    428c:	83 32       	cpi	r24, 0x23	; 35
    428e:	a1 f4       	brne	.+40     	; 0x42b8 <vfprintf+0x9e>
    4290:	f9 2d       	mov	r31, r9
    4292:	f0 61       	ori	r31, 0x10	; 16
    4294:	2e c0       	rjmp	.+92     	; 0x42f2 <vfprintf+0xd8>
    4296:	8d 32       	cpi	r24, 0x2D	; 45
    4298:	61 f0       	breq	.+24     	; 0x42b2 <vfprintf+0x98>
    429a:	80 33       	cpi	r24, 0x30	; 48
    429c:	69 f4       	brne	.+26     	; 0x42b8 <vfprintf+0x9e>
    429e:	29 2d       	mov	r18, r9
    42a0:	21 60       	ori	r18, 0x01	; 1
    42a2:	2d c0       	rjmp	.+90     	; 0x42fe <vfprintf+0xe4>
    42a4:	39 2d       	mov	r19, r9
    42a6:	32 60       	ori	r19, 0x02	; 2
    42a8:	93 2e       	mov	r9, r19
    42aa:	89 2d       	mov	r24, r9
    42ac:	84 60       	ori	r24, 0x04	; 4
    42ae:	98 2e       	mov	r9, r24
    42b0:	2a c0       	rjmp	.+84     	; 0x4306 <vfprintf+0xec>
    42b2:	e9 2d       	mov	r30, r9
    42b4:	e8 60       	ori	r30, 0x08	; 8
    42b6:	15 c0       	rjmp	.+42     	; 0x42e2 <vfprintf+0xc8>
    42b8:	97 fc       	sbrc	r9, 7
    42ba:	2d c0       	rjmp	.+90     	; 0x4316 <vfprintf+0xfc>
    42bc:	20 ed       	ldi	r18, 0xD0	; 208
    42be:	28 0f       	add	r18, r24
    42c0:	2a 30       	cpi	r18, 0x0A	; 10
    42c2:	88 f4       	brcc	.+34     	; 0x42e6 <vfprintf+0xcc>
    42c4:	96 fe       	sbrs	r9, 6
    42c6:	06 c0       	rjmp	.+12     	; 0x42d4 <vfprintf+0xba>
    42c8:	3a e0       	ldi	r19, 0x0A	; 10
    42ca:	13 9f       	mul	r17, r19
    42cc:	20 0d       	add	r18, r0
    42ce:	11 24       	eor	r1, r1
    42d0:	12 2f       	mov	r17, r18
    42d2:	19 c0       	rjmp	.+50     	; 0x4306 <vfprintf+0xec>
    42d4:	8a e0       	ldi	r24, 0x0A	; 10
    42d6:	58 9e       	mul	r5, r24
    42d8:	20 0d       	add	r18, r0
    42da:	11 24       	eor	r1, r1
    42dc:	52 2e       	mov	r5, r18
    42de:	e9 2d       	mov	r30, r9
    42e0:	e0 62       	ori	r30, 0x20	; 32
    42e2:	9e 2e       	mov	r9, r30
    42e4:	10 c0       	rjmp	.+32     	; 0x4306 <vfprintf+0xec>
    42e6:	8e 32       	cpi	r24, 0x2E	; 46
    42e8:	31 f4       	brne	.+12     	; 0x42f6 <vfprintf+0xdc>
    42ea:	96 fc       	sbrc	r9, 6
    42ec:	e5 c2       	rjmp	.+1482   	; 0x48b8 <vfprintf+0x69e>
    42ee:	f9 2d       	mov	r31, r9
    42f0:	f0 64       	ori	r31, 0x40	; 64
    42f2:	9f 2e       	mov	r9, r31
    42f4:	08 c0       	rjmp	.+16     	; 0x4306 <vfprintf+0xec>
    42f6:	8c 36       	cpi	r24, 0x6C	; 108
    42f8:	21 f4       	brne	.+8      	; 0x4302 <vfprintf+0xe8>
    42fa:	29 2d       	mov	r18, r9
    42fc:	20 68       	ori	r18, 0x80	; 128
    42fe:	92 2e       	mov	r9, r18
    4300:	02 c0       	rjmp	.+4      	; 0x4306 <vfprintf+0xec>
    4302:	88 36       	cpi	r24, 0x68	; 104
    4304:	41 f4       	brne	.+16     	; 0x4316 <vfprintf+0xfc>
    4306:	f1 01       	movw	r30, r2
    4308:	93 fd       	sbrc	r25, 3
    430a:	85 91       	lpm	r24, Z+
    430c:	93 ff       	sbrs	r25, 3
    430e:	81 91       	ld	r24, Z+
    4310:	1f 01       	movw	r2, r30
    4312:	81 11       	cpse	r24, r1
    4314:	b3 cf       	rjmp	.-154    	; 0x427c <vfprintf+0x62>
    4316:	9b eb       	ldi	r25, 0xBB	; 187
    4318:	98 0f       	add	r25, r24
    431a:	93 30       	cpi	r25, 0x03	; 3
    431c:	20 f4       	brcc	.+8      	; 0x4326 <vfprintf+0x10c>
    431e:	99 2d       	mov	r25, r9
    4320:	90 61       	ori	r25, 0x10	; 16
    4322:	80 5e       	subi	r24, 0xE0	; 224
    4324:	07 c0       	rjmp	.+14     	; 0x4334 <vfprintf+0x11a>
    4326:	9b e9       	ldi	r25, 0x9B	; 155
    4328:	98 0f       	add	r25, r24
    432a:	93 30       	cpi	r25, 0x03	; 3
    432c:	08 f0       	brcs	.+2      	; 0x4330 <vfprintf+0x116>
    432e:	66 c1       	rjmp	.+716    	; 0x45fc <vfprintf+0x3e2>
    4330:	99 2d       	mov	r25, r9
    4332:	9f 7e       	andi	r25, 0xEF	; 239
    4334:	96 ff       	sbrs	r25, 6
    4336:	16 e0       	ldi	r17, 0x06	; 6
    4338:	9f 73       	andi	r25, 0x3F	; 63
    433a:	99 2e       	mov	r9, r25
    433c:	85 36       	cpi	r24, 0x65	; 101
    433e:	19 f4       	brne	.+6      	; 0x4346 <vfprintf+0x12c>
    4340:	90 64       	ori	r25, 0x40	; 64
    4342:	99 2e       	mov	r9, r25
    4344:	08 c0       	rjmp	.+16     	; 0x4356 <vfprintf+0x13c>
    4346:	86 36       	cpi	r24, 0x66	; 102
    4348:	21 f4       	brne	.+8      	; 0x4352 <vfprintf+0x138>
    434a:	39 2f       	mov	r19, r25
    434c:	30 68       	ori	r19, 0x80	; 128
    434e:	93 2e       	mov	r9, r19
    4350:	02 c0       	rjmp	.+4      	; 0x4356 <vfprintf+0x13c>
    4352:	11 11       	cpse	r17, r1
    4354:	11 50       	subi	r17, 0x01	; 1
    4356:	97 fe       	sbrs	r9, 7
    4358:	07 c0       	rjmp	.+14     	; 0x4368 <vfprintf+0x14e>
    435a:	1c 33       	cpi	r17, 0x3C	; 60
    435c:	50 f4       	brcc	.+20     	; 0x4372 <vfprintf+0x158>
    435e:	44 24       	eor	r4, r4
    4360:	43 94       	inc	r4
    4362:	41 0e       	add	r4, r17
    4364:	27 e0       	ldi	r18, 0x07	; 7
    4366:	0b c0       	rjmp	.+22     	; 0x437e <vfprintf+0x164>
    4368:	18 30       	cpi	r17, 0x08	; 8
    436a:	38 f0       	brcs	.+14     	; 0x437a <vfprintf+0x160>
    436c:	27 e0       	ldi	r18, 0x07	; 7
    436e:	17 e0       	ldi	r17, 0x07	; 7
    4370:	05 c0       	rjmp	.+10     	; 0x437c <vfprintf+0x162>
    4372:	27 e0       	ldi	r18, 0x07	; 7
    4374:	9c e3       	ldi	r25, 0x3C	; 60
    4376:	49 2e       	mov	r4, r25
    4378:	02 c0       	rjmp	.+4      	; 0x437e <vfprintf+0x164>
    437a:	21 2f       	mov	r18, r17
    437c:	41 2c       	mov	r4, r1
    437e:	56 01       	movw	r10, r12
    4380:	84 e0       	ldi	r24, 0x04	; 4
    4382:	a8 0e       	add	r10, r24
    4384:	b1 1c       	adc	r11, r1
    4386:	f6 01       	movw	r30, r12
    4388:	60 81       	ld	r22, Z
    438a:	71 81       	ldd	r23, Z+1	; 0x01
    438c:	82 81       	ldd	r24, Z+2	; 0x02
    438e:	93 81       	ldd	r25, Z+3	; 0x03
    4390:	04 2d       	mov	r16, r4
    4392:	a3 01       	movw	r20, r6
    4394:	0e 94 3a 25 	call	0x4a74	; 0x4a74 <__ftoa_engine>
    4398:	6c 01       	movw	r12, r24
    439a:	f9 81       	ldd	r31, Y+1	; 0x01
    439c:	fc 87       	std	Y+12, r31	; 0x0c
    439e:	f0 ff       	sbrs	r31, 0
    43a0:	02 c0       	rjmp	.+4      	; 0x43a6 <vfprintf+0x18c>
    43a2:	f3 ff       	sbrs	r31, 3
    43a4:	06 c0       	rjmp	.+12     	; 0x43b2 <vfprintf+0x198>
    43a6:	91 fc       	sbrc	r9, 1
    43a8:	06 c0       	rjmp	.+12     	; 0x43b6 <vfprintf+0x19c>
    43aa:	92 fe       	sbrs	r9, 2
    43ac:	06 c0       	rjmp	.+12     	; 0x43ba <vfprintf+0x1a0>
    43ae:	00 e2       	ldi	r16, 0x20	; 32
    43b0:	05 c0       	rjmp	.+10     	; 0x43bc <vfprintf+0x1a2>
    43b2:	0d e2       	ldi	r16, 0x2D	; 45
    43b4:	03 c0       	rjmp	.+6      	; 0x43bc <vfprintf+0x1a2>
    43b6:	0b e2       	ldi	r16, 0x2B	; 43
    43b8:	01 c0       	rjmp	.+2      	; 0x43bc <vfprintf+0x1a2>
    43ba:	00 e0       	ldi	r16, 0x00	; 0
    43bc:	8c 85       	ldd	r24, Y+12	; 0x0c
    43be:	8c 70       	andi	r24, 0x0C	; 12
    43c0:	19 f0       	breq	.+6      	; 0x43c8 <vfprintf+0x1ae>
    43c2:	01 11       	cpse	r16, r1
    43c4:	5a c2       	rjmp	.+1204   	; 0x487a <vfprintf+0x660>
    43c6:	9b c2       	rjmp	.+1334   	; 0x48fe <vfprintf+0x6e4>
    43c8:	97 fe       	sbrs	r9, 7
    43ca:	10 c0       	rjmp	.+32     	; 0x43ec <vfprintf+0x1d2>
    43cc:	4c 0c       	add	r4, r12
    43ce:	fc 85       	ldd	r31, Y+12	; 0x0c
    43d0:	f4 ff       	sbrs	r31, 4
    43d2:	04 c0       	rjmp	.+8      	; 0x43dc <vfprintf+0x1c2>
    43d4:	8a 81       	ldd	r24, Y+2	; 0x02
    43d6:	81 33       	cpi	r24, 0x31	; 49
    43d8:	09 f4       	brne	.+2      	; 0x43dc <vfprintf+0x1c2>
    43da:	4a 94       	dec	r4
    43dc:	14 14       	cp	r1, r4
    43de:	74 f5       	brge	.+92     	; 0x443c <vfprintf+0x222>
    43e0:	28 e0       	ldi	r18, 0x08	; 8
    43e2:	24 15       	cp	r18, r4
    43e4:	78 f5       	brcc	.+94     	; 0x4444 <vfprintf+0x22a>
    43e6:	88 e0       	ldi	r24, 0x08	; 8
    43e8:	48 2e       	mov	r4, r24
    43ea:	2c c0       	rjmp	.+88     	; 0x4444 <vfprintf+0x22a>
    43ec:	96 fc       	sbrc	r9, 6
    43ee:	2a c0       	rjmp	.+84     	; 0x4444 <vfprintf+0x22a>
    43f0:	81 2f       	mov	r24, r17
    43f2:	90 e0       	ldi	r25, 0x00	; 0
    43f4:	8c 15       	cp	r24, r12
    43f6:	9d 05       	cpc	r25, r13
    43f8:	9c f0       	brlt	.+38     	; 0x4420 <vfprintf+0x206>
    43fa:	3c ef       	ldi	r19, 0xFC	; 252
    43fc:	c3 16       	cp	r12, r19
    43fe:	3f ef       	ldi	r19, 0xFF	; 255
    4400:	d3 06       	cpc	r13, r19
    4402:	74 f0       	brlt	.+28     	; 0x4420 <vfprintf+0x206>
    4404:	89 2d       	mov	r24, r9
    4406:	80 68       	ori	r24, 0x80	; 128
    4408:	98 2e       	mov	r9, r24
    440a:	0a c0       	rjmp	.+20     	; 0x4420 <vfprintf+0x206>
    440c:	e2 e0       	ldi	r30, 0x02	; 2
    440e:	f0 e0       	ldi	r31, 0x00	; 0
    4410:	ec 0f       	add	r30, r28
    4412:	fd 1f       	adc	r31, r29
    4414:	e1 0f       	add	r30, r17
    4416:	f1 1d       	adc	r31, r1
    4418:	80 81       	ld	r24, Z
    441a:	80 33       	cpi	r24, 0x30	; 48
    441c:	19 f4       	brne	.+6      	; 0x4424 <vfprintf+0x20a>
    441e:	11 50       	subi	r17, 0x01	; 1
    4420:	11 11       	cpse	r17, r1
    4422:	f4 cf       	rjmp	.-24     	; 0x440c <vfprintf+0x1f2>
    4424:	97 fe       	sbrs	r9, 7
    4426:	0e c0       	rjmp	.+28     	; 0x4444 <vfprintf+0x22a>
    4428:	44 24       	eor	r4, r4
    442a:	43 94       	inc	r4
    442c:	41 0e       	add	r4, r17
    442e:	81 2f       	mov	r24, r17
    4430:	90 e0       	ldi	r25, 0x00	; 0
    4432:	c8 16       	cp	r12, r24
    4434:	d9 06       	cpc	r13, r25
    4436:	2c f4       	brge	.+10     	; 0x4442 <vfprintf+0x228>
    4438:	1c 19       	sub	r17, r12
    443a:	04 c0       	rjmp	.+8      	; 0x4444 <vfprintf+0x22a>
    443c:	44 24       	eor	r4, r4
    443e:	43 94       	inc	r4
    4440:	01 c0       	rjmp	.+2      	; 0x4444 <vfprintf+0x22a>
    4442:	10 e0       	ldi	r17, 0x00	; 0
    4444:	97 fe       	sbrs	r9, 7
    4446:	06 c0       	rjmp	.+12     	; 0x4454 <vfprintf+0x23a>
    4448:	1c 14       	cp	r1, r12
    444a:	1d 04       	cpc	r1, r13
    444c:	34 f4       	brge	.+12     	; 0x445a <vfprintf+0x240>
    444e:	c6 01       	movw	r24, r12
    4450:	01 96       	adiw	r24, 0x01	; 1
    4452:	05 c0       	rjmp	.+10     	; 0x445e <vfprintf+0x244>
    4454:	85 e0       	ldi	r24, 0x05	; 5
    4456:	90 e0       	ldi	r25, 0x00	; 0
    4458:	02 c0       	rjmp	.+4      	; 0x445e <vfprintf+0x244>
    445a:	81 e0       	ldi	r24, 0x01	; 1
    445c:	90 e0       	ldi	r25, 0x00	; 0
    445e:	01 11       	cpse	r16, r1
    4460:	01 96       	adiw	r24, 0x01	; 1
    4462:	11 23       	and	r17, r17
    4464:	31 f0       	breq	.+12     	; 0x4472 <vfprintf+0x258>
    4466:	21 2f       	mov	r18, r17
    4468:	30 e0       	ldi	r19, 0x00	; 0
    446a:	2f 5f       	subi	r18, 0xFF	; 255
    446c:	3f 4f       	sbci	r19, 0xFF	; 255
    446e:	82 0f       	add	r24, r18
    4470:	93 1f       	adc	r25, r19
    4472:	25 2d       	mov	r18, r5
    4474:	30 e0       	ldi	r19, 0x00	; 0
    4476:	82 17       	cp	r24, r18
    4478:	93 07       	cpc	r25, r19
    447a:	14 f4       	brge	.+4      	; 0x4480 <vfprintf+0x266>
    447c:	58 1a       	sub	r5, r24
    447e:	01 c0       	rjmp	.+2      	; 0x4482 <vfprintf+0x268>
    4480:	51 2c       	mov	r5, r1
    4482:	89 2d       	mov	r24, r9
    4484:	89 70       	andi	r24, 0x09	; 9
    4486:	49 f4       	brne	.+18     	; 0x449a <vfprintf+0x280>
    4488:	55 20       	and	r5, r5
    448a:	39 f0       	breq	.+14     	; 0x449a <vfprintf+0x280>
    448c:	b7 01       	movw	r22, r14
    448e:	80 e2       	ldi	r24, 0x20	; 32
    4490:	90 e0       	ldi	r25, 0x00	; 0
    4492:	0e 94 43 26 	call	0x4c86	; 0x4c86 <fputc>
    4496:	5a 94       	dec	r5
    4498:	f7 cf       	rjmp	.-18     	; 0x4488 <vfprintf+0x26e>
    449a:	00 23       	and	r16, r16
    449c:	29 f0       	breq	.+10     	; 0x44a8 <vfprintf+0x28e>
    449e:	b7 01       	movw	r22, r14
    44a0:	80 2f       	mov	r24, r16
    44a2:	90 e0       	ldi	r25, 0x00	; 0
    44a4:	0e 94 43 26 	call	0x4c86	; 0x4c86 <fputc>
    44a8:	93 fc       	sbrc	r9, 3
    44aa:	09 c0       	rjmp	.+18     	; 0x44be <vfprintf+0x2a4>
    44ac:	55 20       	and	r5, r5
    44ae:	39 f0       	breq	.+14     	; 0x44be <vfprintf+0x2a4>
    44b0:	b7 01       	movw	r22, r14
    44b2:	80 e3       	ldi	r24, 0x30	; 48
    44b4:	90 e0       	ldi	r25, 0x00	; 0
    44b6:	0e 94 43 26 	call	0x4c86	; 0x4c86 <fputc>
    44ba:	5a 94       	dec	r5
    44bc:	f7 cf       	rjmp	.-18     	; 0x44ac <vfprintf+0x292>
    44be:	97 fe       	sbrs	r9, 7
    44c0:	4c c0       	rjmp	.+152    	; 0x455a <vfprintf+0x340>
    44c2:	46 01       	movw	r8, r12
    44c4:	d7 fe       	sbrs	r13, 7
    44c6:	02 c0       	rjmp	.+4      	; 0x44cc <vfprintf+0x2b2>
    44c8:	81 2c       	mov	r8, r1
    44ca:	91 2c       	mov	r9, r1
    44cc:	c6 01       	movw	r24, r12
    44ce:	88 19       	sub	r24, r8
    44d0:	99 09       	sbc	r25, r9
    44d2:	f3 01       	movw	r30, r6
    44d4:	e8 0f       	add	r30, r24
    44d6:	f9 1f       	adc	r31, r25
    44d8:	fe 87       	std	Y+14, r31	; 0x0e
    44da:	ed 87       	std	Y+13, r30	; 0x0d
    44dc:	96 01       	movw	r18, r12
    44de:	24 19       	sub	r18, r4
    44e0:	31 09       	sbc	r19, r1
    44e2:	38 8b       	std	Y+16, r19	; 0x10
    44e4:	2f 87       	std	Y+15, r18	; 0x0f
    44e6:	01 2f       	mov	r16, r17
    44e8:	10 e0       	ldi	r17, 0x00	; 0
    44ea:	11 95       	neg	r17
    44ec:	01 95       	neg	r16
    44ee:	11 09       	sbc	r17, r1
    44f0:	3f ef       	ldi	r19, 0xFF	; 255
    44f2:	83 16       	cp	r8, r19
    44f4:	93 06       	cpc	r9, r19
    44f6:	29 f4       	brne	.+10     	; 0x4502 <vfprintf+0x2e8>
    44f8:	b7 01       	movw	r22, r14
    44fa:	8e e2       	ldi	r24, 0x2E	; 46
    44fc:	90 e0       	ldi	r25, 0x00	; 0
    44fe:	0e 94 43 26 	call	0x4c86	; 0x4c86 <fputc>
    4502:	c8 14       	cp	r12, r8
    4504:	d9 04       	cpc	r13, r9
    4506:	4c f0       	brlt	.+18     	; 0x451a <vfprintf+0x300>
    4508:	8f 85       	ldd	r24, Y+15	; 0x0f
    450a:	98 89       	ldd	r25, Y+16	; 0x10
    450c:	88 15       	cp	r24, r8
    450e:	99 05       	cpc	r25, r9
    4510:	24 f4       	brge	.+8      	; 0x451a <vfprintf+0x300>
    4512:	ed 85       	ldd	r30, Y+13	; 0x0d
    4514:	fe 85       	ldd	r31, Y+14	; 0x0e
    4516:	81 81       	ldd	r24, Z+1	; 0x01
    4518:	01 c0       	rjmp	.+2      	; 0x451c <vfprintf+0x302>
    451a:	80 e3       	ldi	r24, 0x30	; 48
    451c:	f1 e0       	ldi	r31, 0x01	; 1
    451e:	8f 1a       	sub	r8, r31
    4520:	91 08       	sbc	r9, r1
    4522:	2d 85       	ldd	r18, Y+13	; 0x0d
    4524:	3e 85       	ldd	r19, Y+14	; 0x0e
    4526:	2f 5f       	subi	r18, 0xFF	; 255
    4528:	3f 4f       	sbci	r19, 0xFF	; 255
    452a:	3e 87       	std	Y+14, r19	; 0x0e
    452c:	2d 87       	std	Y+13, r18	; 0x0d
    452e:	80 16       	cp	r8, r16
    4530:	91 06       	cpc	r9, r17
    4532:	2c f0       	brlt	.+10     	; 0x453e <vfprintf+0x324>
    4534:	b7 01       	movw	r22, r14
    4536:	90 e0       	ldi	r25, 0x00	; 0
    4538:	0e 94 43 26 	call	0x4c86	; 0x4c86 <fputc>
    453c:	d9 cf       	rjmp	.-78     	; 0x44f0 <vfprintf+0x2d6>
    453e:	c8 14       	cp	r12, r8
    4540:	d9 04       	cpc	r13, r9
    4542:	41 f4       	brne	.+16     	; 0x4554 <vfprintf+0x33a>
    4544:	9a 81       	ldd	r25, Y+2	; 0x02
    4546:	96 33       	cpi	r25, 0x36	; 54
    4548:	20 f4       	brcc	.+8      	; 0x4552 <vfprintf+0x338>
    454a:	95 33       	cpi	r25, 0x35	; 53
    454c:	19 f4       	brne	.+6      	; 0x4554 <vfprintf+0x33a>
    454e:	3c 85       	ldd	r19, Y+12	; 0x0c
    4550:	34 ff       	sbrs	r19, 4
    4552:	81 e3       	ldi	r24, 0x31	; 49
    4554:	b7 01       	movw	r22, r14
    4556:	90 e0       	ldi	r25, 0x00	; 0
    4558:	4e c0       	rjmp	.+156    	; 0x45f6 <vfprintf+0x3dc>
    455a:	8a 81       	ldd	r24, Y+2	; 0x02
    455c:	81 33       	cpi	r24, 0x31	; 49
    455e:	19 f0       	breq	.+6      	; 0x4566 <vfprintf+0x34c>
    4560:	9c 85       	ldd	r25, Y+12	; 0x0c
    4562:	9f 7e       	andi	r25, 0xEF	; 239
    4564:	9c 87       	std	Y+12, r25	; 0x0c
    4566:	b7 01       	movw	r22, r14
    4568:	90 e0       	ldi	r25, 0x00	; 0
    456a:	0e 94 43 26 	call	0x4c86	; 0x4c86 <fputc>
    456e:	11 11       	cpse	r17, r1
    4570:	05 c0       	rjmp	.+10     	; 0x457c <vfprintf+0x362>
    4572:	94 fc       	sbrc	r9, 4
    4574:	18 c0       	rjmp	.+48     	; 0x45a6 <vfprintf+0x38c>
    4576:	85 e6       	ldi	r24, 0x65	; 101
    4578:	90 e0       	ldi	r25, 0x00	; 0
    457a:	17 c0       	rjmp	.+46     	; 0x45aa <vfprintf+0x390>
    457c:	b7 01       	movw	r22, r14
    457e:	8e e2       	ldi	r24, 0x2E	; 46
    4580:	90 e0       	ldi	r25, 0x00	; 0
    4582:	0e 94 43 26 	call	0x4c86	; 0x4c86 <fputc>
    4586:	1e 5f       	subi	r17, 0xFE	; 254
    4588:	82 e0       	ldi	r24, 0x02	; 2
    458a:	01 e0       	ldi	r16, 0x01	; 1
    458c:	08 0f       	add	r16, r24
    458e:	f3 01       	movw	r30, r6
    4590:	e8 0f       	add	r30, r24
    4592:	f1 1d       	adc	r31, r1
    4594:	80 81       	ld	r24, Z
    4596:	b7 01       	movw	r22, r14
    4598:	90 e0       	ldi	r25, 0x00	; 0
    459a:	0e 94 43 26 	call	0x4c86	; 0x4c86 <fputc>
    459e:	80 2f       	mov	r24, r16
    45a0:	01 13       	cpse	r16, r17
    45a2:	f3 cf       	rjmp	.-26     	; 0x458a <vfprintf+0x370>
    45a4:	e6 cf       	rjmp	.-52     	; 0x4572 <vfprintf+0x358>
    45a6:	85 e4       	ldi	r24, 0x45	; 69
    45a8:	90 e0       	ldi	r25, 0x00	; 0
    45aa:	b7 01       	movw	r22, r14
    45ac:	0e 94 43 26 	call	0x4c86	; 0x4c86 <fputc>
    45b0:	d7 fc       	sbrc	r13, 7
    45b2:	06 c0       	rjmp	.+12     	; 0x45c0 <vfprintf+0x3a6>
    45b4:	c1 14       	cp	r12, r1
    45b6:	d1 04       	cpc	r13, r1
    45b8:	41 f4       	brne	.+16     	; 0x45ca <vfprintf+0x3b0>
    45ba:	ec 85       	ldd	r30, Y+12	; 0x0c
    45bc:	e4 ff       	sbrs	r30, 4
    45be:	05 c0       	rjmp	.+10     	; 0x45ca <vfprintf+0x3b0>
    45c0:	d1 94       	neg	r13
    45c2:	c1 94       	neg	r12
    45c4:	d1 08       	sbc	r13, r1
    45c6:	8d e2       	ldi	r24, 0x2D	; 45
    45c8:	01 c0       	rjmp	.+2      	; 0x45cc <vfprintf+0x3b2>
    45ca:	8b e2       	ldi	r24, 0x2B	; 43
    45cc:	b7 01       	movw	r22, r14
    45ce:	90 e0       	ldi	r25, 0x00	; 0
    45d0:	0e 94 43 26 	call	0x4c86	; 0x4c86 <fputc>
    45d4:	80 e3       	ldi	r24, 0x30	; 48
    45d6:	2a e0       	ldi	r18, 0x0A	; 10
    45d8:	c2 16       	cp	r12, r18
    45da:	d1 04       	cpc	r13, r1
    45dc:	2c f0       	brlt	.+10     	; 0x45e8 <vfprintf+0x3ce>
    45de:	8f 5f       	subi	r24, 0xFF	; 255
    45e0:	fa e0       	ldi	r31, 0x0A	; 10
    45e2:	cf 1a       	sub	r12, r31
    45e4:	d1 08       	sbc	r13, r1
    45e6:	f7 cf       	rjmp	.-18     	; 0x45d6 <vfprintf+0x3bc>
    45e8:	b7 01       	movw	r22, r14
    45ea:	90 e0       	ldi	r25, 0x00	; 0
    45ec:	0e 94 43 26 	call	0x4c86	; 0x4c86 <fputc>
    45f0:	b7 01       	movw	r22, r14
    45f2:	c6 01       	movw	r24, r12
    45f4:	c0 96       	adiw	r24, 0x30	; 48
    45f6:	0e 94 43 26 	call	0x4c86	; 0x4c86 <fputc>
    45fa:	54 c1       	rjmp	.+680    	; 0x48a4 <vfprintf+0x68a>
    45fc:	83 36       	cpi	r24, 0x63	; 99
    45fe:	31 f0       	breq	.+12     	; 0x460c <vfprintf+0x3f2>
    4600:	83 37       	cpi	r24, 0x73	; 115
    4602:	79 f0       	breq	.+30     	; 0x4622 <vfprintf+0x408>
    4604:	83 35       	cpi	r24, 0x53	; 83
    4606:	09 f0       	breq	.+2      	; 0x460a <vfprintf+0x3f0>
    4608:	56 c0       	rjmp	.+172    	; 0x46b6 <vfprintf+0x49c>
    460a:	20 c0       	rjmp	.+64     	; 0x464c <vfprintf+0x432>
    460c:	56 01       	movw	r10, r12
    460e:	32 e0       	ldi	r19, 0x02	; 2
    4610:	a3 0e       	add	r10, r19
    4612:	b1 1c       	adc	r11, r1
    4614:	f6 01       	movw	r30, r12
    4616:	80 81       	ld	r24, Z
    4618:	89 83       	std	Y+1, r24	; 0x01
    461a:	01 e0       	ldi	r16, 0x01	; 1
    461c:	10 e0       	ldi	r17, 0x00	; 0
    461e:	63 01       	movw	r12, r6
    4620:	12 c0       	rjmp	.+36     	; 0x4646 <vfprintf+0x42c>
    4622:	56 01       	movw	r10, r12
    4624:	f2 e0       	ldi	r31, 0x02	; 2
    4626:	af 0e       	add	r10, r31
    4628:	b1 1c       	adc	r11, r1
    462a:	f6 01       	movw	r30, r12
    462c:	c0 80       	ld	r12, Z
    462e:	d1 80       	ldd	r13, Z+1	; 0x01
    4630:	96 fe       	sbrs	r9, 6
    4632:	03 c0       	rjmp	.+6      	; 0x463a <vfprintf+0x420>
    4634:	61 2f       	mov	r22, r17
    4636:	70 e0       	ldi	r23, 0x00	; 0
    4638:	02 c0       	rjmp	.+4      	; 0x463e <vfprintf+0x424>
    463a:	6f ef       	ldi	r22, 0xFF	; 255
    463c:	7f ef       	ldi	r23, 0xFF	; 255
    463e:	c6 01       	movw	r24, r12
    4640:	0e 94 38 26 	call	0x4c70	; 0x4c70 <strnlen>
    4644:	8c 01       	movw	r16, r24
    4646:	f9 2d       	mov	r31, r9
    4648:	ff 77       	andi	r31, 0x7F	; 127
    464a:	14 c0       	rjmp	.+40     	; 0x4674 <vfprintf+0x45a>
    464c:	56 01       	movw	r10, r12
    464e:	22 e0       	ldi	r18, 0x02	; 2
    4650:	a2 0e       	add	r10, r18
    4652:	b1 1c       	adc	r11, r1
    4654:	f6 01       	movw	r30, r12
    4656:	c0 80       	ld	r12, Z
    4658:	d1 80       	ldd	r13, Z+1	; 0x01
    465a:	96 fe       	sbrs	r9, 6
    465c:	03 c0       	rjmp	.+6      	; 0x4664 <vfprintf+0x44a>
    465e:	61 2f       	mov	r22, r17
    4660:	70 e0       	ldi	r23, 0x00	; 0
    4662:	02 c0       	rjmp	.+4      	; 0x4668 <vfprintf+0x44e>
    4664:	6f ef       	ldi	r22, 0xFF	; 255
    4666:	7f ef       	ldi	r23, 0xFF	; 255
    4668:	c6 01       	movw	r24, r12
    466a:	0e 94 12 26 	call	0x4c24	; 0x4c24 <strnlen_P>
    466e:	8c 01       	movw	r16, r24
    4670:	f9 2d       	mov	r31, r9
    4672:	f0 68       	ori	r31, 0x80	; 128
    4674:	9f 2e       	mov	r9, r31
    4676:	f3 fd       	sbrc	r31, 3
    4678:	1a c0       	rjmp	.+52     	; 0x46ae <vfprintf+0x494>
    467a:	85 2d       	mov	r24, r5
    467c:	90 e0       	ldi	r25, 0x00	; 0
    467e:	08 17       	cp	r16, r24
    4680:	19 07       	cpc	r17, r25
    4682:	a8 f4       	brcc	.+42     	; 0x46ae <vfprintf+0x494>
    4684:	b7 01       	movw	r22, r14
    4686:	80 e2       	ldi	r24, 0x20	; 32
    4688:	90 e0       	ldi	r25, 0x00	; 0
    468a:	0e 94 43 26 	call	0x4c86	; 0x4c86 <fputc>
    468e:	5a 94       	dec	r5
    4690:	f4 cf       	rjmp	.-24     	; 0x467a <vfprintf+0x460>
    4692:	f6 01       	movw	r30, r12
    4694:	97 fc       	sbrc	r9, 7
    4696:	85 91       	lpm	r24, Z+
    4698:	97 fe       	sbrs	r9, 7
    469a:	81 91       	ld	r24, Z+
    469c:	6f 01       	movw	r12, r30
    469e:	b7 01       	movw	r22, r14
    46a0:	90 e0       	ldi	r25, 0x00	; 0
    46a2:	0e 94 43 26 	call	0x4c86	; 0x4c86 <fputc>
    46a6:	51 10       	cpse	r5, r1
    46a8:	5a 94       	dec	r5
    46aa:	01 50       	subi	r16, 0x01	; 1
    46ac:	11 09       	sbc	r17, r1
    46ae:	01 15       	cp	r16, r1
    46b0:	11 05       	cpc	r17, r1
    46b2:	79 f7       	brne	.-34     	; 0x4692 <vfprintf+0x478>
    46b4:	f7 c0       	rjmp	.+494    	; 0x48a4 <vfprintf+0x68a>
    46b6:	84 36       	cpi	r24, 0x64	; 100
    46b8:	11 f0       	breq	.+4      	; 0x46be <vfprintf+0x4a4>
    46ba:	89 36       	cpi	r24, 0x69	; 105
    46bc:	61 f5       	brne	.+88     	; 0x4716 <vfprintf+0x4fc>
    46be:	56 01       	movw	r10, r12
    46c0:	97 fe       	sbrs	r9, 7
    46c2:	09 c0       	rjmp	.+18     	; 0x46d6 <vfprintf+0x4bc>
    46c4:	24 e0       	ldi	r18, 0x04	; 4
    46c6:	a2 0e       	add	r10, r18
    46c8:	b1 1c       	adc	r11, r1
    46ca:	f6 01       	movw	r30, r12
    46cc:	60 81       	ld	r22, Z
    46ce:	71 81       	ldd	r23, Z+1	; 0x01
    46d0:	82 81       	ldd	r24, Z+2	; 0x02
    46d2:	93 81       	ldd	r25, Z+3	; 0x03
    46d4:	0a c0       	rjmp	.+20     	; 0x46ea <vfprintf+0x4d0>
    46d6:	f2 e0       	ldi	r31, 0x02	; 2
    46d8:	af 0e       	add	r10, r31
    46da:	b1 1c       	adc	r11, r1
    46dc:	f6 01       	movw	r30, r12
    46de:	60 81       	ld	r22, Z
    46e0:	71 81       	ldd	r23, Z+1	; 0x01
    46e2:	07 2e       	mov	r0, r23
    46e4:	00 0c       	add	r0, r0
    46e6:	88 0b       	sbc	r24, r24
    46e8:	99 0b       	sbc	r25, r25
    46ea:	f9 2d       	mov	r31, r9
    46ec:	ff 76       	andi	r31, 0x6F	; 111
    46ee:	9f 2e       	mov	r9, r31
    46f0:	97 ff       	sbrs	r25, 7
    46f2:	09 c0       	rjmp	.+18     	; 0x4706 <vfprintf+0x4ec>
    46f4:	90 95       	com	r25
    46f6:	80 95       	com	r24
    46f8:	70 95       	com	r23
    46fa:	61 95       	neg	r22
    46fc:	7f 4f       	sbci	r23, 0xFF	; 255
    46fe:	8f 4f       	sbci	r24, 0xFF	; 255
    4700:	9f 4f       	sbci	r25, 0xFF	; 255
    4702:	f0 68       	ori	r31, 0x80	; 128
    4704:	9f 2e       	mov	r9, r31
    4706:	2a e0       	ldi	r18, 0x0A	; 10
    4708:	30 e0       	ldi	r19, 0x00	; 0
    470a:	a3 01       	movw	r20, r6
    470c:	0e 94 ba 26 	call	0x4d74	; 0x4d74 <__ultoa_invert>
    4710:	c8 2e       	mov	r12, r24
    4712:	c6 18       	sub	r12, r6
    4714:	3f c0       	rjmp	.+126    	; 0x4794 <vfprintf+0x57a>
    4716:	09 2d       	mov	r16, r9
    4718:	85 37       	cpi	r24, 0x75	; 117
    471a:	21 f4       	brne	.+8      	; 0x4724 <vfprintf+0x50a>
    471c:	0f 7e       	andi	r16, 0xEF	; 239
    471e:	2a e0       	ldi	r18, 0x0A	; 10
    4720:	30 e0       	ldi	r19, 0x00	; 0
    4722:	1d c0       	rjmp	.+58     	; 0x475e <vfprintf+0x544>
    4724:	09 7f       	andi	r16, 0xF9	; 249
    4726:	8f 36       	cpi	r24, 0x6F	; 111
    4728:	91 f0       	breq	.+36     	; 0x474e <vfprintf+0x534>
    472a:	18 f4       	brcc	.+6      	; 0x4732 <vfprintf+0x518>
    472c:	88 35       	cpi	r24, 0x58	; 88
    472e:	59 f0       	breq	.+22     	; 0x4746 <vfprintf+0x52c>
    4730:	c3 c0       	rjmp	.+390    	; 0x48b8 <vfprintf+0x69e>
    4732:	80 37       	cpi	r24, 0x70	; 112
    4734:	19 f0       	breq	.+6      	; 0x473c <vfprintf+0x522>
    4736:	88 37       	cpi	r24, 0x78	; 120
    4738:	11 f0       	breq	.+4      	; 0x473e <vfprintf+0x524>
    473a:	be c0       	rjmp	.+380    	; 0x48b8 <vfprintf+0x69e>
    473c:	00 61       	ori	r16, 0x10	; 16
    473e:	04 ff       	sbrs	r16, 4
    4740:	09 c0       	rjmp	.+18     	; 0x4754 <vfprintf+0x53a>
    4742:	04 60       	ori	r16, 0x04	; 4
    4744:	07 c0       	rjmp	.+14     	; 0x4754 <vfprintf+0x53a>
    4746:	94 fe       	sbrs	r9, 4
    4748:	08 c0       	rjmp	.+16     	; 0x475a <vfprintf+0x540>
    474a:	06 60       	ori	r16, 0x06	; 6
    474c:	06 c0       	rjmp	.+12     	; 0x475a <vfprintf+0x540>
    474e:	28 e0       	ldi	r18, 0x08	; 8
    4750:	30 e0       	ldi	r19, 0x00	; 0
    4752:	05 c0       	rjmp	.+10     	; 0x475e <vfprintf+0x544>
    4754:	20 e1       	ldi	r18, 0x10	; 16
    4756:	30 e0       	ldi	r19, 0x00	; 0
    4758:	02 c0       	rjmp	.+4      	; 0x475e <vfprintf+0x544>
    475a:	20 e1       	ldi	r18, 0x10	; 16
    475c:	32 e0       	ldi	r19, 0x02	; 2
    475e:	56 01       	movw	r10, r12
    4760:	07 ff       	sbrs	r16, 7
    4762:	09 c0       	rjmp	.+18     	; 0x4776 <vfprintf+0x55c>
    4764:	84 e0       	ldi	r24, 0x04	; 4
    4766:	a8 0e       	add	r10, r24
    4768:	b1 1c       	adc	r11, r1
    476a:	f6 01       	movw	r30, r12
    476c:	60 81       	ld	r22, Z
    476e:	71 81       	ldd	r23, Z+1	; 0x01
    4770:	82 81       	ldd	r24, Z+2	; 0x02
    4772:	93 81       	ldd	r25, Z+3	; 0x03
    4774:	08 c0       	rjmp	.+16     	; 0x4786 <vfprintf+0x56c>
    4776:	f2 e0       	ldi	r31, 0x02	; 2
    4778:	af 0e       	add	r10, r31
    477a:	b1 1c       	adc	r11, r1
    477c:	f6 01       	movw	r30, r12
    477e:	60 81       	ld	r22, Z
    4780:	71 81       	ldd	r23, Z+1	; 0x01
    4782:	80 e0       	ldi	r24, 0x00	; 0
    4784:	90 e0       	ldi	r25, 0x00	; 0
    4786:	a3 01       	movw	r20, r6
    4788:	0e 94 ba 26 	call	0x4d74	; 0x4d74 <__ultoa_invert>
    478c:	c8 2e       	mov	r12, r24
    478e:	c6 18       	sub	r12, r6
    4790:	0f 77       	andi	r16, 0x7F	; 127
    4792:	90 2e       	mov	r9, r16
    4794:	96 fe       	sbrs	r9, 6
    4796:	0b c0       	rjmp	.+22     	; 0x47ae <vfprintf+0x594>
    4798:	09 2d       	mov	r16, r9
    479a:	0e 7f       	andi	r16, 0xFE	; 254
    479c:	c1 16       	cp	r12, r17
    479e:	50 f4       	brcc	.+20     	; 0x47b4 <vfprintf+0x59a>
    47a0:	94 fe       	sbrs	r9, 4
    47a2:	0a c0       	rjmp	.+20     	; 0x47b8 <vfprintf+0x59e>
    47a4:	92 fc       	sbrc	r9, 2
    47a6:	08 c0       	rjmp	.+16     	; 0x47b8 <vfprintf+0x59e>
    47a8:	09 2d       	mov	r16, r9
    47aa:	0e 7e       	andi	r16, 0xEE	; 238
    47ac:	05 c0       	rjmp	.+10     	; 0x47b8 <vfprintf+0x59e>
    47ae:	dc 2c       	mov	r13, r12
    47b0:	09 2d       	mov	r16, r9
    47b2:	03 c0       	rjmp	.+6      	; 0x47ba <vfprintf+0x5a0>
    47b4:	dc 2c       	mov	r13, r12
    47b6:	01 c0       	rjmp	.+2      	; 0x47ba <vfprintf+0x5a0>
    47b8:	d1 2e       	mov	r13, r17
    47ba:	04 ff       	sbrs	r16, 4
    47bc:	0d c0       	rjmp	.+26     	; 0x47d8 <vfprintf+0x5be>
    47be:	fe 01       	movw	r30, r28
    47c0:	ec 0d       	add	r30, r12
    47c2:	f1 1d       	adc	r31, r1
    47c4:	80 81       	ld	r24, Z
    47c6:	80 33       	cpi	r24, 0x30	; 48
    47c8:	11 f4       	brne	.+4      	; 0x47ce <vfprintf+0x5b4>
    47ca:	09 7e       	andi	r16, 0xE9	; 233
    47cc:	09 c0       	rjmp	.+18     	; 0x47e0 <vfprintf+0x5c6>
    47ce:	02 ff       	sbrs	r16, 2
    47d0:	06 c0       	rjmp	.+12     	; 0x47de <vfprintf+0x5c4>
    47d2:	d3 94       	inc	r13
    47d4:	d3 94       	inc	r13
    47d6:	04 c0       	rjmp	.+8      	; 0x47e0 <vfprintf+0x5c6>
    47d8:	80 2f       	mov	r24, r16
    47da:	86 78       	andi	r24, 0x86	; 134
    47dc:	09 f0       	breq	.+2      	; 0x47e0 <vfprintf+0x5c6>
    47de:	d3 94       	inc	r13
    47e0:	03 fd       	sbrc	r16, 3
    47e2:	11 c0       	rjmp	.+34     	; 0x4806 <vfprintf+0x5ec>
    47e4:	00 ff       	sbrs	r16, 0
    47e6:	06 c0       	rjmp	.+12     	; 0x47f4 <vfprintf+0x5da>
    47e8:	1c 2d       	mov	r17, r12
    47ea:	d5 14       	cp	r13, r5
    47ec:	80 f4       	brcc	.+32     	; 0x480e <vfprintf+0x5f4>
    47ee:	15 0d       	add	r17, r5
    47f0:	1d 19       	sub	r17, r13
    47f2:	0d c0       	rjmp	.+26     	; 0x480e <vfprintf+0x5f4>
    47f4:	d5 14       	cp	r13, r5
    47f6:	58 f4       	brcc	.+22     	; 0x480e <vfprintf+0x5f4>
    47f8:	b7 01       	movw	r22, r14
    47fa:	80 e2       	ldi	r24, 0x20	; 32
    47fc:	90 e0       	ldi	r25, 0x00	; 0
    47fe:	0e 94 43 26 	call	0x4c86	; 0x4c86 <fputc>
    4802:	d3 94       	inc	r13
    4804:	f7 cf       	rjmp	.-18     	; 0x47f4 <vfprintf+0x5da>
    4806:	d5 14       	cp	r13, r5
    4808:	10 f4       	brcc	.+4      	; 0x480e <vfprintf+0x5f4>
    480a:	5d 18       	sub	r5, r13
    480c:	01 c0       	rjmp	.+2      	; 0x4810 <vfprintf+0x5f6>
    480e:	51 2c       	mov	r5, r1
    4810:	04 ff       	sbrs	r16, 4
    4812:	10 c0       	rjmp	.+32     	; 0x4834 <vfprintf+0x61a>
    4814:	b7 01       	movw	r22, r14
    4816:	80 e3       	ldi	r24, 0x30	; 48
    4818:	90 e0       	ldi	r25, 0x00	; 0
    481a:	0e 94 43 26 	call	0x4c86	; 0x4c86 <fputc>
    481e:	02 ff       	sbrs	r16, 2
    4820:	17 c0       	rjmp	.+46     	; 0x4850 <vfprintf+0x636>
    4822:	01 fd       	sbrc	r16, 1
    4824:	03 c0       	rjmp	.+6      	; 0x482c <vfprintf+0x612>
    4826:	88 e7       	ldi	r24, 0x78	; 120
    4828:	90 e0       	ldi	r25, 0x00	; 0
    482a:	02 c0       	rjmp	.+4      	; 0x4830 <vfprintf+0x616>
    482c:	88 e5       	ldi	r24, 0x58	; 88
    482e:	90 e0       	ldi	r25, 0x00	; 0
    4830:	b7 01       	movw	r22, r14
    4832:	0c c0       	rjmp	.+24     	; 0x484c <vfprintf+0x632>
    4834:	80 2f       	mov	r24, r16
    4836:	86 78       	andi	r24, 0x86	; 134
    4838:	59 f0       	breq	.+22     	; 0x4850 <vfprintf+0x636>
    483a:	01 ff       	sbrs	r16, 1
    483c:	02 c0       	rjmp	.+4      	; 0x4842 <vfprintf+0x628>
    483e:	8b e2       	ldi	r24, 0x2B	; 43
    4840:	01 c0       	rjmp	.+2      	; 0x4844 <vfprintf+0x62a>
    4842:	80 e2       	ldi	r24, 0x20	; 32
    4844:	07 fd       	sbrc	r16, 7
    4846:	8d e2       	ldi	r24, 0x2D	; 45
    4848:	b7 01       	movw	r22, r14
    484a:	90 e0       	ldi	r25, 0x00	; 0
    484c:	0e 94 43 26 	call	0x4c86	; 0x4c86 <fputc>
    4850:	c1 16       	cp	r12, r17
    4852:	38 f4       	brcc	.+14     	; 0x4862 <vfprintf+0x648>
    4854:	b7 01       	movw	r22, r14
    4856:	80 e3       	ldi	r24, 0x30	; 48
    4858:	90 e0       	ldi	r25, 0x00	; 0
    485a:	0e 94 43 26 	call	0x4c86	; 0x4c86 <fputc>
    485e:	11 50       	subi	r17, 0x01	; 1
    4860:	f7 cf       	rjmp	.-18     	; 0x4850 <vfprintf+0x636>
    4862:	ca 94       	dec	r12
    4864:	f3 01       	movw	r30, r6
    4866:	ec 0d       	add	r30, r12
    4868:	f1 1d       	adc	r31, r1
    486a:	80 81       	ld	r24, Z
    486c:	b7 01       	movw	r22, r14
    486e:	90 e0       	ldi	r25, 0x00	; 0
    4870:	0e 94 43 26 	call	0x4c86	; 0x4c86 <fputc>
    4874:	c1 10       	cpse	r12, r1
    4876:	f5 cf       	rjmp	.-22     	; 0x4862 <vfprintf+0x648>
    4878:	15 c0       	rjmp	.+42     	; 0x48a4 <vfprintf+0x68a>
    487a:	f4 e0       	ldi	r31, 0x04	; 4
    487c:	f5 15       	cp	r31, r5
    487e:	60 f5       	brcc	.+88     	; 0x48d8 <vfprintf+0x6be>
    4880:	84 e0       	ldi	r24, 0x04	; 4
    4882:	58 1a       	sub	r5, r24
    4884:	93 fe       	sbrs	r9, 3
    4886:	1f c0       	rjmp	.+62     	; 0x48c6 <vfprintf+0x6ac>
    4888:	01 11       	cpse	r16, r1
    488a:	27 c0       	rjmp	.+78     	; 0x48da <vfprintf+0x6c0>
    488c:	2c 85       	ldd	r18, Y+12	; 0x0c
    488e:	23 ff       	sbrs	r18, 3
    4890:	2a c0       	rjmp	.+84     	; 0x48e6 <vfprintf+0x6cc>
    4892:	0e e8       	ldi	r16, 0x8E	; 142
    4894:	10 e0       	ldi	r17, 0x00	; 0
    4896:	39 2d       	mov	r19, r9
    4898:	30 71       	andi	r19, 0x10	; 16
    489a:	93 2e       	mov	r9, r19
    489c:	f8 01       	movw	r30, r16
    489e:	84 91       	lpm	r24, Z
    48a0:	81 11       	cpse	r24, r1
    48a2:	24 c0       	rjmp	.+72     	; 0x48ec <vfprintf+0x6d2>
    48a4:	55 20       	and	r5, r5
    48a6:	09 f4       	brne	.+2      	; 0x48aa <vfprintf+0x690>
    48a8:	e4 cc       	rjmp	.-1592   	; 0x4272 <vfprintf+0x58>
    48aa:	b7 01       	movw	r22, r14
    48ac:	80 e2       	ldi	r24, 0x20	; 32
    48ae:	90 e0       	ldi	r25, 0x00	; 0
    48b0:	0e 94 43 26 	call	0x4c86	; 0x4c86 <fputc>
    48b4:	5a 94       	dec	r5
    48b6:	f6 cf       	rjmp	.-20     	; 0x48a4 <vfprintf+0x68a>
    48b8:	f7 01       	movw	r30, r14
    48ba:	86 81       	ldd	r24, Z+6	; 0x06
    48bc:	97 81       	ldd	r25, Z+7	; 0x07
    48be:	26 c0       	rjmp	.+76     	; 0x490c <vfprintf+0x6f2>
    48c0:	8f ef       	ldi	r24, 0xFF	; 255
    48c2:	9f ef       	ldi	r25, 0xFF	; 255
    48c4:	23 c0       	rjmp	.+70     	; 0x490c <vfprintf+0x6f2>
    48c6:	b7 01       	movw	r22, r14
    48c8:	80 e2       	ldi	r24, 0x20	; 32
    48ca:	90 e0       	ldi	r25, 0x00	; 0
    48cc:	0e 94 43 26 	call	0x4c86	; 0x4c86 <fputc>
    48d0:	5a 94       	dec	r5
    48d2:	51 10       	cpse	r5, r1
    48d4:	f8 cf       	rjmp	.-16     	; 0x48c6 <vfprintf+0x6ac>
    48d6:	d8 cf       	rjmp	.-80     	; 0x4888 <vfprintf+0x66e>
    48d8:	51 2c       	mov	r5, r1
    48da:	b7 01       	movw	r22, r14
    48dc:	80 2f       	mov	r24, r16
    48de:	90 e0       	ldi	r25, 0x00	; 0
    48e0:	0e 94 43 26 	call	0x4c86	; 0x4c86 <fputc>
    48e4:	d3 cf       	rjmp	.-90     	; 0x488c <vfprintf+0x672>
    48e6:	02 e9       	ldi	r16, 0x92	; 146
    48e8:	10 e0       	ldi	r17, 0x00	; 0
    48ea:	d5 cf       	rjmp	.-86     	; 0x4896 <vfprintf+0x67c>
    48ec:	91 10       	cpse	r9, r1
    48ee:	80 52       	subi	r24, 0x20	; 32
    48f0:	b7 01       	movw	r22, r14
    48f2:	90 e0       	ldi	r25, 0x00	; 0
    48f4:	0e 94 43 26 	call	0x4c86	; 0x4c86 <fputc>
    48f8:	0f 5f       	subi	r16, 0xFF	; 255
    48fa:	1f 4f       	sbci	r17, 0xFF	; 255
    48fc:	cf cf       	rjmp	.-98     	; 0x489c <vfprintf+0x682>
    48fe:	23 e0       	ldi	r18, 0x03	; 3
    4900:	25 15       	cp	r18, r5
    4902:	10 f4       	brcc	.+4      	; 0x4908 <vfprintf+0x6ee>
    4904:	83 e0       	ldi	r24, 0x03	; 3
    4906:	bd cf       	rjmp	.-134    	; 0x4882 <vfprintf+0x668>
    4908:	51 2c       	mov	r5, r1
    490a:	c0 cf       	rjmp	.-128    	; 0x488c <vfprintf+0x672>
    490c:	60 96       	adiw	r28, 0x10	; 16
    490e:	e2 e1       	ldi	r30, 0x12	; 18
    4910:	0c 94 10 25 	jmp	0x4a20	; 0x4a20 <__epilogue_restores__>

00004914 <__mulsi3>:
    4914:	db 01       	movw	r26, r22
    4916:	8f 93       	push	r24
    4918:	9f 93       	push	r25
    491a:	0e 94 e1 24 	call	0x49c2	; 0x49c2 <__muluhisi3>
    491e:	bf 91       	pop	r27
    4920:	af 91       	pop	r26
    4922:	a2 9f       	mul	r26, r18
    4924:	80 0d       	add	r24, r0
    4926:	91 1d       	adc	r25, r1
    4928:	a3 9f       	mul	r26, r19
    492a:	90 0d       	add	r25, r0
    492c:	b2 9f       	mul	r27, r18
    492e:	90 0d       	add	r25, r0
    4930:	11 24       	eor	r1, r1
    4932:	08 95       	ret

00004934 <__udivmodsi4>:
    4934:	a1 e2       	ldi	r26, 0x21	; 33
    4936:	1a 2e       	mov	r1, r26
    4938:	aa 1b       	sub	r26, r26
    493a:	bb 1b       	sub	r27, r27
    493c:	fd 01       	movw	r30, r26
    493e:	0d c0       	rjmp	.+26     	; 0x495a <__udivmodsi4_ep>

00004940 <__udivmodsi4_loop>:
    4940:	aa 1f       	adc	r26, r26
    4942:	bb 1f       	adc	r27, r27
    4944:	ee 1f       	adc	r30, r30
    4946:	ff 1f       	adc	r31, r31
    4948:	a2 17       	cp	r26, r18
    494a:	b3 07       	cpc	r27, r19
    494c:	e4 07       	cpc	r30, r20
    494e:	f5 07       	cpc	r31, r21
    4950:	20 f0       	brcs	.+8      	; 0x495a <__udivmodsi4_ep>
    4952:	a2 1b       	sub	r26, r18
    4954:	b3 0b       	sbc	r27, r19
    4956:	e4 0b       	sbc	r30, r20
    4958:	f5 0b       	sbc	r31, r21

0000495a <__udivmodsi4_ep>:
    495a:	66 1f       	adc	r22, r22
    495c:	77 1f       	adc	r23, r23
    495e:	88 1f       	adc	r24, r24
    4960:	99 1f       	adc	r25, r25
    4962:	1a 94       	dec	r1
    4964:	69 f7       	brne	.-38     	; 0x4940 <__udivmodsi4_loop>
    4966:	60 95       	com	r22
    4968:	70 95       	com	r23
    496a:	80 95       	com	r24
    496c:	90 95       	com	r25
    496e:	9b 01       	movw	r18, r22
    4970:	ac 01       	movw	r20, r24
    4972:	bd 01       	movw	r22, r26
    4974:	cf 01       	movw	r24, r30
    4976:	08 95       	ret

00004978 <__divmodsi4>:
    4978:	05 2e       	mov	r0, r21
    497a:	97 fb       	bst	r25, 7
    497c:	1e f4       	brtc	.+6      	; 0x4984 <__divmodsi4+0xc>
    497e:	00 94       	com	r0
    4980:	0e 94 d3 24 	call	0x49a6	; 0x49a6 <__negsi2>
    4984:	57 fd       	sbrc	r21, 7
    4986:	07 d0       	rcall	.+14     	; 0x4996 <__divmodsi4_neg2>
    4988:	0e 94 9a 24 	call	0x4934	; 0x4934 <__udivmodsi4>
    498c:	07 fc       	sbrc	r0, 7
    498e:	03 d0       	rcall	.+6      	; 0x4996 <__divmodsi4_neg2>
    4990:	4e f4       	brtc	.+18     	; 0x49a4 <__divmodsi4_exit>
    4992:	0c 94 d3 24 	jmp	0x49a6	; 0x49a6 <__negsi2>

00004996 <__divmodsi4_neg2>:
    4996:	50 95       	com	r21
    4998:	40 95       	com	r20
    499a:	30 95       	com	r19
    499c:	21 95       	neg	r18
    499e:	3f 4f       	sbci	r19, 0xFF	; 255
    49a0:	4f 4f       	sbci	r20, 0xFF	; 255
    49a2:	5f 4f       	sbci	r21, 0xFF	; 255

000049a4 <__divmodsi4_exit>:
    49a4:	08 95       	ret

000049a6 <__negsi2>:
    49a6:	90 95       	com	r25
    49a8:	80 95       	com	r24
    49aa:	70 95       	com	r23
    49ac:	61 95       	neg	r22
    49ae:	7f 4f       	sbci	r23, 0xFF	; 255
    49b0:	8f 4f       	sbci	r24, 0xFF	; 255
    49b2:	9f 4f       	sbci	r25, 0xFF	; 255
    49b4:	08 95       	ret

000049b6 <__tablejump2__>:
    49b6:	ee 0f       	add	r30, r30
    49b8:	ff 1f       	adc	r31, r31
    49ba:	05 90       	lpm	r0, Z+
    49bc:	f4 91       	lpm	r31, Z
    49be:	e0 2d       	mov	r30, r0
    49c0:	09 94       	ijmp

000049c2 <__muluhisi3>:
    49c2:	0e 94 2b 25 	call	0x4a56	; 0x4a56 <__umulhisi3>
    49c6:	a5 9f       	mul	r26, r21
    49c8:	90 0d       	add	r25, r0
    49ca:	b4 9f       	mul	r27, r20
    49cc:	90 0d       	add	r25, r0
    49ce:	a4 9f       	mul	r26, r20
    49d0:	80 0d       	add	r24, r0
    49d2:	91 1d       	adc	r25, r1
    49d4:	11 24       	eor	r1, r1
    49d6:	08 95       	ret

000049d8 <__mulshisi3>:
    49d8:	b7 ff       	sbrs	r27, 7
    49da:	0c 94 e1 24 	jmp	0x49c2	; 0x49c2 <__muluhisi3>

000049de <__mulohisi3>:
    49de:	0e 94 e1 24 	call	0x49c2	; 0x49c2 <__muluhisi3>
    49e2:	82 1b       	sub	r24, r18
    49e4:	93 0b       	sbc	r25, r19
    49e6:	08 95       	ret

000049e8 <__prologue_saves__>:
    49e8:	2f 92       	push	r2
    49ea:	3f 92       	push	r3
    49ec:	4f 92       	push	r4
    49ee:	5f 92       	push	r5
    49f0:	6f 92       	push	r6
    49f2:	7f 92       	push	r7
    49f4:	8f 92       	push	r8
    49f6:	9f 92       	push	r9
    49f8:	af 92       	push	r10
    49fa:	bf 92       	push	r11
    49fc:	cf 92       	push	r12
    49fe:	df 92       	push	r13
    4a00:	ef 92       	push	r14
    4a02:	ff 92       	push	r15
    4a04:	0f 93       	push	r16
    4a06:	1f 93       	push	r17
    4a08:	cf 93       	push	r28
    4a0a:	df 93       	push	r29
    4a0c:	cd b7       	in	r28, 0x3d	; 61
    4a0e:	de b7       	in	r29, 0x3e	; 62
    4a10:	ca 1b       	sub	r28, r26
    4a12:	db 0b       	sbc	r29, r27
    4a14:	0f b6       	in	r0, 0x3f	; 63
    4a16:	f8 94       	cli
    4a18:	de bf       	out	0x3e, r29	; 62
    4a1a:	0f be       	out	0x3f, r0	; 63
    4a1c:	cd bf       	out	0x3d, r28	; 61
    4a1e:	09 94       	ijmp

00004a20 <__epilogue_restores__>:
    4a20:	2a 88       	ldd	r2, Y+18	; 0x12
    4a22:	39 88       	ldd	r3, Y+17	; 0x11
    4a24:	48 88       	ldd	r4, Y+16	; 0x10
    4a26:	5f 84       	ldd	r5, Y+15	; 0x0f
    4a28:	6e 84       	ldd	r6, Y+14	; 0x0e
    4a2a:	7d 84       	ldd	r7, Y+13	; 0x0d
    4a2c:	8c 84       	ldd	r8, Y+12	; 0x0c
    4a2e:	9b 84       	ldd	r9, Y+11	; 0x0b
    4a30:	aa 84       	ldd	r10, Y+10	; 0x0a
    4a32:	b9 84       	ldd	r11, Y+9	; 0x09
    4a34:	c8 84       	ldd	r12, Y+8	; 0x08
    4a36:	df 80       	ldd	r13, Y+7	; 0x07
    4a38:	ee 80       	ldd	r14, Y+6	; 0x06
    4a3a:	fd 80       	ldd	r15, Y+5	; 0x05
    4a3c:	0c 81       	ldd	r16, Y+4	; 0x04
    4a3e:	1b 81       	ldd	r17, Y+3	; 0x03
    4a40:	aa 81       	ldd	r26, Y+2	; 0x02
    4a42:	b9 81       	ldd	r27, Y+1	; 0x01
    4a44:	ce 0f       	add	r28, r30
    4a46:	d1 1d       	adc	r29, r1
    4a48:	0f b6       	in	r0, 0x3f	; 63
    4a4a:	f8 94       	cli
    4a4c:	de bf       	out	0x3e, r29	; 62
    4a4e:	0f be       	out	0x3f, r0	; 63
    4a50:	cd bf       	out	0x3d, r28	; 61
    4a52:	ed 01       	movw	r28, r26
    4a54:	08 95       	ret

00004a56 <__umulhisi3>:
    4a56:	a2 9f       	mul	r26, r18
    4a58:	b0 01       	movw	r22, r0
    4a5a:	b3 9f       	mul	r27, r19
    4a5c:	c0 01       	movw	r24, r0
    4a5e:	a3 9f       	mul	r26, r19
    4a60:	70 0d       	add	r23, r0
    4a62:	81 1d       	adc	r24, r1
    4a64:	11 24       	eor	r1, r1
    4a66:	91 1d       	adc	r25, r1
    4a68:	b2 9f       	mul	r27, r18
    4a6a:	70 0d       	add	r23, r0
    4a6c:	81 1d       	adc	r24, r1
    4a6e:	11 24       	eor	r1, r1
    4a70:	91 1d       	adc	r25, r1
    4a72:	08 95       	ret

00004a74 <__ftoa_engine>:
    4a74:	28 30       	cpi	r18, 0x08	; 8
    4a76:	08 f0       	brcs	.+2      	; 0x4a7a <__ftoa_engine+0x6>
    4a78:	27 e0       	ldi	r18, 0x07	; 7
    4a7a:	33 27       	eor	r19, r19
    4a7c:	da 01       	movw	r26, r20
    4a7e:	99 0f       	add	r25, r25
    4a80:	31 1d       	adc	r19, r1
    4a82:	87 fd       	sbrc	r24, 7
    4a84:	91 60       	ori	r25, 0x01	; 1
    4a86:	00 96       	adiw	r24, 0x00	; 0
    4a88:	61 05       	cpc	r22, r1
    4a8a:	71 05       	cpc	r23, r1
    4a8c:	39 f4       	brne	.+14     	; 0x4a9c <__ftoa_engine+0x28>
    4a8e:	32 60       	ori	r19, 0x02	; 2
    4a90:	2e 5f       	subi	r18, 0xFE	; 254
    4a92:	3d 93       	st	X+, r19
    4a94:	30 e3       	ldi	r19, 0x30	; 48
    4a96:	2a 95       	dec	r18
    4a98:	e1 f7       	brne	.-8      	; 0x4a92 <__ftoa_engine+0x1e>
    4a9a:	08 95       	ret
    4a9c:	9f 3f       	cpi	r25, 0xFF	; 255
    4a9e:	30 f0       	brcs	.+12     	; 0x4aac <__ftoa_engine+0x38>
    4aa0:	80 38       	cpi	r24, 0x80	; 128
    4aa2:	71 05       	cpc	r23, r1
    4aa4:	61 05       	cpc	r22, r1
    4aa6:	09 f0       	breq	.+2      	; 0x4aaa <__ftoa_engine+0x36>
    4aa8:	3c 5f       	subi	r19, 0xFC	; 252
    4aaa:	3c 5f       	subi	r19, 0xFC	; 252
    4aac:	3d 93       	st	X+, r19
    4aae:	91 30       	cpi	r25, 0x01	; 1
    4ab0:	08 f0       	brcs	.+2      	; 0x4ab4 <__ftoa_engine+0x40>
    4ab2:	80 68       	ori	r24, 0x80	; 128
    4ab4:	91 1d       	adc	r25, r1
    4ab6:	df 93       	push	r29
    4ab8:	cf 93       	push	r28
    4aba:	1f 93       	push	r17
    4abc:	0f 93       	push	r16
    4abe:	ff 92       	push	r15
    4ac0:	ef 92       	push	r14
    4ac2:	19 2f       	mov	r17, r25
    4ac4:	98 7f       	andi	r25, 0xF8	; 248
    4ac6:	96 95       	lsr	r25
    4ac8:	e9 2f       	mov	r30, r25
    4aca:	96 95       	lsr	r25
    4acc:	96 95       	lsr	r25
    4ace:	e9 0f       	add	r30, r25
    4ad0:	ff 27       	eor	r31, r31
    4ad2:	e0 51       	subi	r30, 0x10	; 16
    4ad4:	ff 4f       	sbci	r31, 0xFF	; 255
    4ad6:	99 27       	eor	r25, r25
    4ad8:	33 27       	eor	r19, r19
    4ada:	ee 24       	eor	r14, r14
    4adc:	ff 24       	eor	r15, r15
    4ade:	a7 01       	movw	r20, r14
    4ae0:	e7 01       	movw	r28, r14
    4ae2:	05 90       	lpm	r0, Z+
    4ae4:	08 94       	sec
    4ae6:	07 94       	ror	r0
    4ae8:	28 f4       	brcc	.+10     	; 0x4af4 <__ftoa_engine+0x80>
    4aea:	36 0f       	add	r19, r22
    4aec:	e7 1e       	adc	r14, r23
    4aee:	f8 1e       	adc	r15, r24
    4af0:	49 1f       	adc	r20, r25
    4af2:	51 1d       	adc	r21, r1
    4af4:	66 0f       	add	r22, r22
    4af6:	77 1f       	adc	r23, r23
    4af8:	88 1f       	adc	r24, r24
    4afa:	99 1f       	adc	r25, r25
    4afc:	06 94       	lsr	r0
    4afe:	a1 f7       	brne	.-24     	; 0x4ae8 <__ftoa_engine+0x74>
    4b00:	05 90       	lpm	r0, Z+
    4b02:	07 94       	ror	r0
    4b04:	28 f4       	brcc	.+10     	; 0x4b10 <__ftoa_engine+0x9c>
    4b06:	e7 0e       	add	r14, r23
    4b08:	f8 1e       	adc	r15, r24
    4b0a:	49 1f       	adc	r20, r25
    4b0c:	56 1f       	adc	r21, r22
    4b0e:	c1 1d       	adc	r28, r1
    4b10:	77 0f       	add	r23, r23
    4b12:	88 1f       	adc	r24, r24
    4b14:	99 1f       	adc	r25, r25
    4b16:	66 1f       	adc	r22, r22
    4b18:	06 94       	lsr	r0
    4b1a:	a1 f7       	brne	.-24     	; 0x4b04 <__ftoa_engine+0x90>
    4b1c:	05 90       	lpm	r0, Z+
    4b1e:	07 94       	ror	r0
    4b20:	28 f4       	brcc	.+10     	; 0x4b2c <__ftoa_engine+0xb8>
    4b22:	f8 0e       	add	r15, r24
    4b24:	49 1f       	adc	r20, r25
    4b26:	56 1f       	adc	r21, r22
    4b28:	c7 1f       	adc	r28, r23
    4b2a:	d1 1d       	adc	r29, r1
    4b2c:	88 0f       	add	r24, r24
    4b2e:	99 1f       	adc	r25, r25
    4b30:	66 1f       	adc	r22, r22
    4b32:	77 1f       	adc	r23, r23
    4b34:	06 94       	lsr	r0
    4b36:	a1 f7       	brne	.-24     	; 0x4b20 <__ftoa_engine+0xac>
    4b38:	05 90       	lpm	r0, Z+
    4b3a:	07 94       	ror	r0
    4b3c:	20 f4       	brcc	.+8      	; 0x4b46 <__ftoa_engine+0xd2>
    4b3e:	49 0f       	add	r20, r25
    4b40:	56 1f       	adc	r21, r22
    4b42:	c7 1f       	adc	r28, r23
    4b44:	d8 1f       	adc	r29, r24
    4b46:	99 0f       	add	r25, r25
    4b48:	66 1f       	adc	r22, r22
    4b4a:	77 1f       	adc	r23, r23
    4b4c:	88 1f       	adc	r24, r24
    4b4e:	06 94       	lsr	r0
    4b50:	a9 f7       	brne	.-22     	; 0x4b3c <__ftoa_engine+0xc8>
    4b52:	84 91       	lpm	r24, Z
    4b54:	10 95       	com	r17
    4b56:	17 70       	andi	r17, 0x07	; 7
    4b58:	41 f0       	breq	.+16     	; 0x4b6a <__ftoa_engine+0xf6>
    4b5a:	d6 95       	lsr	r29
    4b5c:	c7 95       	ror	r28
    4b5e:	57 95       	ror	r21
    4b60:	47 95       	ror	r20
    4b62:	f7 94       	ror	r15
    4b64:	e7 94       	ror	r14
    4b66:	1a 95       	dec	r17
    4b68:	c1 f7       	brne	.-16     	; 0x4b5a <__ftoa_engine+0xe6>
    4b6a:	e6 e9       	ldi	r30, 0x96	; 150
    4b6c:	f0 e0       	ldi	r31, 0x00	; 0
    4b6e:	68 94       	set
    4b70:	15 90       	lpm	r1, Z+
    4b72:	15 91       	lpm	r17, Z+
    4b74:	35 91       	lpm	r19, Z+
    4b76:	65 91       	lpm	r22, Z+
    4b78:	95 91       	lpm	r25, Z+
    4b7a:	05 90       	lpm	r0, Z+
    4b7c:	7f e2       	ldi	r23, 0x2F	; 47
    4b7e:	73 95       	inc	r23
    4b80:	e1 18       	sub	r14, r1
    4b82:	f1 0a       	sbc	r15, r17
    4b84:	43 0b       	sbc	r20, r19
    4b86:	56 0b       	sbc	r21, r22
    4b88:	c9 0b       	sbc	r28, r25
    4b8a:	d0 09       	sbc	r29, r0
    4b8c:	c0 f7       	brcc	.-16     	; 0x4b7e <__ftoa_engine+0x10a>
    4b8e:	e1 0c       	add	r14, r1
    4b90:	f1 1e       	adc	r15, r17
    4b92:	43 1f       	adc	r20, r19
    4b94:	56 1f       	adc	r21, r22
    4b96:	c9 1f       	adc	r28, r25
    4b98:	d0 1d       	adc	r29, r0
    4b9a:	7e f4       	brtc	.+30     	; 0x4bba <__ftoa_engine+0x146>
    4b9c:	70 33       	cpi	r23, 0x30	; 48
    4b9e:	11 f4       	brne	.+4      	; 0x4ba4 <__ftoa_engine+0x130>
    4ba0:	8a 95       	dec	r24
    4ba2:	e6 cf       	rjmp	.-52     	; 0x4b70 <__ftoa_engine+0xfc>
    4ba4:	e8 94       	clt
    4ba6:	01 50       	subi	r16, 0x01	; 1
    4ba8:	30 f0       	brcs	.+12     	; 0x4bb6 <__ftoa_engine+0x142>
    4baa:	08 0f       	add	r16, r24
    4bac:	0a f4       	brpl	.+2      	; 0x4bb0 <__ftoa_engine+0x13c>
    4bae:	00 27       	eor	r16, r16
    4bb0:	02 17       	cp	r16, r18
    4bb2:	08 f4       	brcc	.+2      	; 0x4bb6 <__ftoa_engine+0x142>
    4bb4:	20 2f       	mov	r18, r16
    4bb6:	23 95       	inc	r18
    4bb8:	02 2f       	mov	r16, r18
    4bba:	7a 33       	cpi	r23, 0x3A	; 58
    4bbc:	28 f0       	brcs	.+10     	; 0x4bc8 <__ftoa_engine+0x154>
    4bbe:	79 e3       	ldi	r23, 0x39	; 57
    4bc0:	7d 93       	st	X+, r23
    4bc2:	2a 95       	dec	r18
    4bc4:	e9 f7       	brne	.-6      	; 0x4bc0 <__ftoa_engine+0x14c>
    4bc6:	10 c0       	rjmp	.+32     	; 0x4be8 <__ftoa_engine+0x174>
    4bc8:	7d 93       	st	X+, r23
    4bca:	2a 95       	dec	r18
    4bcc:	89 f6       	brne	.-94     	; 0x4b70 <__ftoa_engine+0xfc>
    4bce:	06 94       	lsr	r0
    4bd0:	97 95       	ror	r25
    4bd2:	67 95       	ror	r22
    4bd4:	37 95       	ror	r19
    4bd6:	17 95       	ror	r17
    4bd8:	17 94       	ror	r1
    4bda:	e1 18       	sub	r14, r1
    4bdc:	f1 0a       	sbc	r15, r17
    4bde:	43 0b       	sbc	r20, r19
    4be0:	56 0b       	sbc	r21, r22
    4be2:	c9 0b       	sbc	r28, r25
    4be4:	d0 09       	sbc	r29, r0
    4be6:	98 f0       	brcs	.+38     	; 0x4c0e <__ftoa_engine+0x19a>
    4be8:	23 95       	inc	r18
    4bea:	7e 91       	ld	r23, -X
    4bec:	73 95       	inc	r23
    4bee:	7a 33       	cpi	r23, 0x3A	; 58
    4bf0:	08 f0       	brcs	.+2      	; 0x4bf4 <__ftoa_engine+0x180>
    4bf2:	70 e3       	ldi	r23, 0x30	; 48
    4bf4:	7c 93       	st	X, r23
    4bf6:	20 13       	cpse	r18, r16
    4bf8:	b8 f7       	brcc	.-18     	; 0x4be8 <__ftoa_engine+0x174>
    4bfa:	7e 91       	ld	r23, -X
    4bfc:	70 61       	ori	r23, 0x10	; 16
    4bfe:	7d 93       	st	X+, r23
    4c00:	30 f0       	brcs	.+12     	; 0x4c0e <__ftoa_engine+0x19a>
    4c02:	83 95       	inc	r24
    4c04:	71 e3       	ldi	r23, 0x31	; 49
    4c06:	7d 93       	st	X+, r23
    4c08:	70 e3       	ldi	r23, 0x30	; 48
    4c0a:	2a 95       	dec	r18
    4c0c:	e1 f7       	brne	.-8      	; 0x4c06 <__ftoa_engine+0x192>
    4c0e:	11 24       	eor	r1, r1
    4c10:	ef 90       	pop	r14
    4c12:	ff 90       	pop	r15
    4c14:	0f 91       	pop	r16
    4c16:	1f 91       	pop	r17
    4c18:	cf 91       	pop	r28
    4c1a:	df 91       	pop	r29
    4c1c:	99 27       	eor	r25, r25
    4c1e:	87 fd       	sbrc	r24, 7
    4c20:	90 95       	com	r25
    4c22:	08 95       	ret

00004c24 <strnlen_P>:
    4c24:	fc 01       	movw	r30, r24
    4c26:	05 90       	lpm	r0, Z+
    4c28:	61 50       	subi	r22, 0x01	; 1
    4c2a:	70 40       	sbci	r23, 0x00	; 0
    4c2c:	01 10       	cpse	r0, r1
    4c2e:	d8 f7       	brcc	.-10     	; 0x4c26 <strnlen_P+0x2>
    4c30:	80 95       	com	r24
    4c32:	90 95       	com	r25
    4c34:	8e 0f       	add	r24, r30
    4c36:	9f 1f       	adc	r25, r31
    4c38:	08 95       	ret

00004c3a <memset>:
    4c3a:	dc 01       	movw	r26, r24
    4c3c:	01 c0       	rjmp	.+2      	; 0x4c40 <memset+0x6>
    4c3e:	6d 93       	st	X+, r22
    4c40:	41 50       	subi	r20, 0x01	; 1
    4c42:	50 40       	sbci	r21, 0x00	; 0
    4c44:	e0 f7       	brcc	.-8      	; 0x4c3e <memset+0x4>
    4c46:	08 95       	ret

00004c48 <strcat>:
    4c48:	fb 01       	movw	r30, r22
    4c4a:	dc 01       	movw	r26, r24
    4c4c:	0d 90       	ld	r0, X+
    4c4e:	00 20       	and	r0, r0
    4c50:	e9 f7       	brne	.-6      	; 0x4c4c <strcat+0x4>
    4c52:	11 97       	sbiw	r26, 0x01	; 1
    4c54:	01 90       	ld	r0, Z+
    4c56:	0d 92       	st	X+, r0
    4c58:	00 20       	and	r0, r0
    4c5a:	e1 f7       	brne	.-8      	; 0x4c54 <strcat+0xc>
    4c5c:	08 95       	ret

00004c5e <strcmp>:
    4c5e:	fb 01       	movw	r30, r22
    4c60:	dc 01       	movw	r26, r24
    4c62:	8d 91       	ld	r24, X+
    4c64:	01 90       	ld	r0, Z+
    4c66:	80 19       	sub	r24, r0
    4c68:	01 10       	cpse	r0, r1
    4c6a:	d9 f3       	breq	.-10     	; 0x4c62 <strcmp+0x4>
    4c6c:	99 0b       	sbc	r25, r25
    4c6e:	08 95       	ret

00004c70 <strnlen>:
    4c70:	fc 01       	movw	r30, r24
    4c72:	61 50       	subi	r22, 0x01	; 1
    4c74:	70 40       	sbci	r23, 0x00	; 0
    4c76:	01 90       	ld	r0, Z+
    4c78:	01 10       	cpse	r0, r1
    4c7a:	d8 f7       	brcc	.-10     	; 0x4c72 <strnlen+0x2>
    4c7c:	80 95       	com	r24
    4c7e:	90 95       	com	r25
    4c80:	8e 0f       	add	r24, r30
    4c82:	9f 1f       	adc	r25, r31
    4c84:	08 95       	ret

00004c86 <fputc>:
    4c86:	0f 93       	push	r16
    4c88:	1f 93       	push	r17
    4c8a:	cf 93       	push	r28
    4c8c:	df 93       	push	r29
    4c8e:	fb 01       	movw	r30, r22
    4c90:	23 81       	ldd	r18, Z+3	; 0x03
    4c92:	21 fd       	sbrc	r18, 1
    4c94:	03 c0       	rjmp	.+6      	; 0x4c9c <fputc+0x16>
    4c96:	8f ef       	ldi	r24, 0xFF	; 255
    4c98:	9f ef       	ldi	r25, 0xFF	; 255
    4c9a:	2c c0       	rjmp	.+88     	; 0x4cf4 <fputc+0x6e>
    4c9c:	22 ff       	sbrs	r18, 2
    4c9e:	16 c0       	rjmp	.+44     	; 0x4ccc <fputc+0x46>
    4ca0:	46 81       	ldd	r20, Z+6	; 0x06
    4ca2:	57 81       	ldd	r21, Z+7	; 0x07
    4ca4:	24 81       	ldd	r18, Z+4	; 0x04
    4ca6:	35 81       	ldd	r19, Z+5	; 0x05
    4ca8:	42 17       	cp	r20, r18
    4caa:	53 07       	cpc	r21, r19
    4cac:	44 f4       	brge	.+16     	; 0x4cbe <fputc+0x38>
    4cae:	a0 81       	ld	r26, Z
    4cb0:	b1 81       	ldd	r27, Z+1	; 0x01
    4cb2:	9d 01       	movw	r18, r26
    4cb4:	2f 5f       	subi	r18, 0xFF	; 255
    4cb6:	3f 4f       	sbci	r19, 0xFF	; 255
    4cb8:	31 83       	std	Z+1, r19	; 0x01
    4cba:	20 83       	st	Z, r18
    4cbc:	8c 93       	st	X, r24
    4cbe:	26 81       	ldd	r18, Z+6	; 0x06
    4cc0:	37 81       	ldd	r19, Z+7	; 0x07
    4cc2:	2f 5f       	subi	r18, 0xFF	; 255
    4cc4:	3f 4f       	sbci	r19, 0xFF	; 255
    4cc6:	37 83       	std	Z+7, r19	; 0x07
    4cc8:	26 83       	std	Z+6, r18	; 0x06
    4cca:	14 c0       	rjmp	.+40     	; 0x4cf4 <fputc+0x6e>
    4ccc:	8b 01       	movw	r16, r22
    4cce:	ec 01       	movw	r28, r24
    4cd0:	fb 01       	movw	r30, r22
    4cd2:	00 84       	ldd	r0, Z+8	; 0x08
    4cd4:	f1 85       	ldd	r31, Z+9	; 0x09
    4cd6:	e0 2d       	mov	r30, r0
    4cd8:	09 95       	icall
    4cda:	89 2b       	or	r24, r25
    4cdc:	e1 f6       	brne	.-72     	; 0x4c96 <fputc+0x10>
    4cde:	d8 01       	movw	r26, r16
    4ce0:	16 96       	adiw	r26, 0x06	; 6
    4ce2:	8d 91       	ld	r24, X+
    4ce4:	9c 91       	ld	r25, X
    4ce6:	17 97       	sbiw	r26, 0x07	; 7
    4ce8:	01 96       	adiw	r24, 0x01	; 1
    4cea:	17 96       	adiw	r26, 0x07	; 7
    4cec:	9c 93       	st	X, r25
    4cee:	8e 93       	st	-X, r24
    4cf0:	16 97       	sbiw	r26, 0x06	; 6
    4cf2:	ce 01       	movw	r24, r28
    4cf4:	df 91       	pop	r29
    4cf6:	cf 91       	pop	r28
    4cf8:	1f 91       	pop	r17
    4cfa:	0f 91       	pop	r16
    4cfc:	08 95       	ret

00004cfe <sprintf>:
    4cfe:	ae e0       	ldi	r26, 0x0E	; 14
    4d00:	b0 e0       	ldi	r27, 0x00	; 0
    4d02:	e5 e8       	ldi	r30, 0x85	; 133
    4d04:	f6 e2       	ldi	r31, 0x26	; 38
    4d06:	0c 94 02 25 	jmp	0x4a04	; 0x4a04 <__prologue_saves__+0x1c>
    4d0a:	0d 89       	ldd	r16, Y+21	; 0x15
    4d0c:	1e 89       	ldd	r17, Y+22	; 0x16
    4d0e:	86 e0       	ldi	r24, 0x06	; 6
    4d10:	8c 83       	std	Y+4, r24	; 0x04
    4d12:	1a 83       	std	Y+2, r17	; 0x02
    4d14:	09 83       	std	Y+1, r16	; 0x01
    4d16:	8f ef       	ldi	r24, 0xFF	; 255
    4d18:	9f e7       	ldi	r25, 0x7F	; 127
    4d1a:	9e 83       	std	Y+6, r25	; 0x06
    4d1c:	8d 83       	std	Y+5, r24	; 0x05
    4d1e:	ae 01       	movw	r20, r28
    4d20:	47 5e       	subi	r20, 0xE7	; 231
    4d22:	5f 4f       	sbci	r21, 0xFF	; 255
    4d24:	6f 89       	ldd	r22, Y+23	; 0x17
    4d26:	78 8d       	ldd	r23, Y+24	; 0x18
    4d28:	ce 01       	movw	r24, r28
    4d2a:	01 96       	adiw	r24, 0x01	; 1
    4d2c:	0e 94 0d 21 	call	0x421a	; 0x421a <vfprintf>
    4d30:	ef 81       	ldd	r30, Y+7	; 0x07
    4d32:	f8 85       	ldd	r31, Y+8	; 0x08
    4d34:	e0 0f       	add	r30, r16
    4d36:	f1 1f       	adc	r31, r17
    4d38:	10 82       	st	Z, r1
    4d3a:	2e 96       	adiw	r28, 0x0e	; 14
    4d3c:	e4 e0       	ldi	r30, 0x04	; 4
    4d3e:	0c 94 1e 25 	jmp	0x4a3c	; 0x4a3c <__epilogue_restores__+0x1c>

00004d42 <sscanf>:
    4d42:	ae e0       	ldi	r26, 0x0E	; 14
    4d44:	b0 e0       	ldi	r27, 0x00	; 0
    4d46:	e7 ea       	ldi	r30, 0xA7	; 167
    4d48:	f6 e2       	ldi	r31, 0x26	; 38
    4d4a:	0c 94 04 25 	jmp	0x4a08	; 0x4a08 <__prologue_saves__+0x20>
    4d4e:	85 e0       	ldi	r24, 0x05	; 5
    4d50:	8c 83       	std	Y+4, r24	; 0x04
    4d52:	8b 89       	ldd	r24, Y+19	; 0x13
    4d54:	9c 89       	ldd	r25, Y+20	; 0x14
    4d56:	9a 83       	std	Y+2, r25	; 0x02
    4d58:	89 83       	std	Y+1, r24	; 0x01
    4d5a:	ae 01       	movw	r20, r28
    4d5c:	49 5e       	subi	r20, 0xE9	; 233
    4d5e:	5f 4f       	sbci	r21, 0xFF	; 255
    4d60:	6d 89       	ldd	r22, Y+21	; 0x15
    4d62:	7e 89       	ldd	r23, Y+22	; 0x16
    4d64:	ce 01       	movw	r24, r28
    4d66:	01 96       	adiw	r24, 0x01	; 1
    4d68:	0e 94 b4 28 	call	0x5168	; 0x5168 <vfscanf>
    4d6c:	2e 96       	adiw	r28, 0x0e	; 14
    4d6e:	e2 e0       	ldi	r30, 0x02	; 2
    4d70:	0c 94 20 25 	jmp	0x4a40	; 0x4a40 <__epilogue_restores__+0x20>

00004d74 <__ultoa_invert>:
    4d74:	fa 01       	movw	r30, r20
    4d76:	aa 27       	eor	r26, r26
    4d78:	28 30       	cpi	r18, 0x08	; 8
    4d7a:	51 f1       	breq	.+84     	; 0x4dd0 <__ultoa_invert+0x5c>
    4d7c:	20 31       	cpi	r18, 0x10	; 16
    4d7e:	81 f1       	breq	.+96     	; 0x4de0 <__ultoa_invert+0x6c>
    4d80:	e8 94       	clt
    4d82:	6f 93       	push	r22
    4d84:	6e 7f       	andi	r22, 0xFE	; 254
    4d86:	6e 5f       	subi	r22, 0xFE	; 254
    4d88:	7f 4f       	sbci	r23, 0xFF	; 255
    4d8a:	8f 4f       	sbci	r24, 0xFF	; 255
    4d8c:	9f 4f       	sbci	r25, 0xFF	; 255
    4d8e:	af 4f       	sbci	r26, 0xFF	; 255
    4d90:	b1 e0       	ldi	r27, 0x01	; 1
    4d92:	3e d0       	rcall	.+124    	; 0x4e10 <__ultoa_invert+0x9c>
    4d94:	b4 e0       	ldi	r27, 0x04	; 4
    4d96:	3c d0       	rcall	.+120    	; 0x4e10 <__ultoa_invert+0x9c>
    4d98:	67 0f       	add	r22, r23
    4d9a:	78 1f       	adc	r23, r24
    4d9c:	89 1f       	adc	r24, r25
    4d9e:	9a 1f       	adc	r25, r26
    4da0:	a1 1d       	adc	r26, r1
    4da2:	68 0f       	add	r22, r24
    4da4:	79 1f       	adc	r23, r25
    4da6:	8a 1f       	adc	r24, r26
    4da8:	91 1d       	adc	r25, r1
    4daa:	a1 1d       	adc	r26, r1
    4dac:	6a 0f       	add	r22, r26
    4dae:	71 1d       	adc	r23, r1
    4db0:	81 1d       	adc	r24, r1
    4db2:	91 1d       	adc	r25, r1
    4db4:	a1 1d       	adc	r26, r1
    4db6:	20 d0       	rcall	.+64     	; 0x4df8 <__ultoa_invert+0x84>
    4db8:	09 f4       	brne	.+2      	; 0x4dbc <__ultoa_invert+0x48>
    4dba:	68 94       	set
    4dbc:	3f 91       	pop	r19
    4dbe:	2a e0       	ldi	r18, 0x0A	; 10
    4dc0:	26 9f       	mul	r18, r22
    4dc2:	11 24       	eor	r1, r1
    4dc4:	30 19       	sub	r19, r0
    4dc6:	30 5d       	subi	r19, 0xD0	; 208
    4dc8:	31 93       	st	Z+, r19
    4dca:	de f6       	brtc	.-74     	; 0x4d82 <__ultoa_invert+0xe>
    4dcc:	cf 01       	movw	r24, r30
    4dce:	08 95       	ret
    4dd0:	46 2f       	mov	r20, r22
    4dd2:	47 70       	andi	r20, 0x07	; 7
    4dd4:	40 5d       	subi	r20, 0xD0	; 208
    4dd6:	41 93       	st	Z+, r20
    4dd8:	b3 e0       	ldi	r27, 0x03	; 3
    4dda:	0f d0       	rcall	.+30     	; 0x4dfa <__ultoa_invert+0x86>
    4ddc:	c9 f7       	brne	.-14     	; 0x4dd0 <__ultoa_invert+0x5c>
    4dde:	f6 cf       	rjmp	.-20     	; 0x4dcc <__ultoa_invert+0x58>
    4de0:	46 2f       	mov	r20, r22
    4de2:	4f 70       	andi	r20, 0x0F	; 15
    4de4:	40 5d       	subi	r20, 0xD0	; 208
    4de6:	4a 33       	cpi	r20, 0x3A	; 58
    4de8:	18 f0       	brcs	.+6      	; 0x4df0 <__ultoa_invert+0x7c>
    4dea:	49 5d       	subi	r20, 0xD9	; 217
    4dec:	31 fd       	sbrc	r19, 1
    4dee:	40 52       	subi	r20, 0x20	; 32
    4df0:	41 93       	st	Z+, r20
    4df2:	02 d0       	rcall	.+4      	; 0x4df8 <__ultoa_invert+0x84>
    4df4:	a9 f7       	brne	.-22     	; 0x4de0 <__ultoa_invert+0x6c>
    4df6:	ea cf       	rjmp	.-44     	; 0x4dcc <__ultoa_invert+0x58>
    4df8:	b4 e0       	ldi	r27, 0x04	; 4
    4dfa:	a6 95       	lsr	r26
    4dfc:	97 95       	ror	r25
    4dfe:	87 95       	ror	r24
    4e00:	77 95       	ror	r23
    4e02:	67 95       	ror	r22
    4e04:	ba 95       	dec	r27
    4e06:	c9 f7       	brne	.-14     	; 0x4dfa <__ultoa_invert+0x86>
    4e08:	00 97       	sbiw	r24, 0x00	; 0
    4e0a:	61 05       	cpc	r22, r1
    4e0c:	71 05       	cpc	r23, r1
    4e0e:	08 95       	ret
    4e10:	9b 01       	movw	r18, r22
    4e12:	ac 01       	movw	r20, r24
    4e14:	0a 2e       	mov	r0, r26
    4e16:	06 94       	lsr	r0
    4e18:	57 95       	ror	r21
    4e1a:	47 95       	ror	r20
    4e1c:	37 95       	ror	r19
    4e1e:	27 95       	ror	r18
    4e20:	ba 95       	dec	r27
    4e22:	c9 f7       	brne	.-14     	; 0x4e16 <__ultoa_invert+0xa2>
    4e24:	62 0f       	add	r22, r18
    4e26:	73 1f       	adc	r23, r19
    4e28:	84 1f       	adc	r24, r20
    4e2a:	95 1f       	adc	r25, r21
    4e2c:	a0 1d       	adc	r26, r0
    4e2e:	08 95       	ret

00004e30 <putval>:
    4e30:	20 fd       	sbrc	r18, 0
    4e32:	09 c0       	rjmp	.+18     	; 0x4e46 <putval+0x16>
    4e34:	fc 01       	movw	r30, r24
    4e36:	23 fd       	sbrc	r18, 3
    4e38:	05 c0       	rjmp	.+10     	; 0x4e44 <putval+0x14>
    4e3a:	22 ff       	sbrs	r18, 2
    4e3c:	02 c0       	rjmp	.+4      	; 0x4e42 <putval+0x12>
    4e3e:	73 83       	std	Z+3, r23	; 0x03
    4e40:	62 83       	std	Z+2, r22	; 0x02
    4e42:	51 83       	std	Z+1, r21	; 0x01
    4e44:	40 83       	st	Z, r20
    4e46:	08 95       	ret

00004e48 <mulacc>:
    4e48:	44 fd       	sbrc	r20, 4
    4e4a:	17 c0       	rjmp	.+46     	; 0x4e7a <mulacc+0x32>
    4e4c:	46 fd       	sbrc	r20, 6
    4e4e:	17 c0       	rjmp	.+46     	; 0x4e7e <mulacc+0x36>
    4e50:	ab 01       	movw	r20, r22
    4e52:	bc 01       	movw	r22, r24
    4e54:	da 01       	movw	r26, r20
    4e56:	fb 01       	movw	r30, r22
    4e58:	aa 0f       	add	r26, r26
    4e5a:	bb 1f       	adc	r27, r27
    4e5c:	ee 1f       	adc	r30, r30
    4e5e:	ff 1f       	adc	r31, r31
    4e60:	10 94       	com	r1
    4e62:	d1 f7       	brne	.-12     	; 0x4e58 <mulacc+0x10>
    4e64:	4a 0f       	add	r20, r26
    4e66:	5b 1f       	adc	r21, r27
    4e68:	6e 1f       	adc	r22, r30
    4e6a:	7f 1f       	adc	r23, r31
    4e6c:	cb 01       	movw	r24, r22
    4e6e:	ba 01       	movw	r22, r20
    4e70:	66 0f       	add	r22, r22
    4e72:	77 1f       	adc	r23, r23
    4e74:	88 1f       	adc	r24, r24
    4e76:	99 1f       	adc	r25, r25
    4e78:	09 c0       	rjmp	.+18     	; 0x4e8c <mulacc+0x44>
    4e7a:	33 e0       	ldi	r19, 0x03	; 3
    4e7c:	01 c0       	rjmp	.+2      	; 0x4e80 <mulacc+0x38>
    4e7e:	34 e0       	ldi	r19, 0x04	; 4
    4e80:	66 0f       	add	r22, r22
    4e82:	77 1f       	adc	r23, r23
    4e84:	88 1f       	adc	r24, r24
    4e86:	99 1f       	adc	r25, r25
    4e88:	31 50       	subi	r19, 0x01	; 1
    4e8a:	d1 f7       	brne	.-12     	; 0x4e80 <mulacc+0x38>
    4e8c:	62 0f       	add	r22, r18
    4e8e:	71 1d       	adc	r23, r1
    4e90:	81 1d       	adc	r24, r1
    4e92:	91 1d       	adc	r25, r1
    4e94:	08 95       	ret

00004e96 <skip_spaces>:
    4e96:	0f 93       	push	r16
    4e98:	1f 93       	push	r17
    4e9a:	cf 93       	push	r28
    4e9c:	df 93       	push	r29
    4e9e:	8c 01       	movw	r16, r24
    4ea0:	c8 01       	movw	r24, r16
    4ea2:	0e 94 d9 29 	call	0x53b2	; 0x53b2 <fgetc>
    4ea6:	ec 01       	movw	r28, r24
    4ea8:	97 fd       	sbrc	r25, 7
    4eaa:	08 c0       	rjmp	.+16     	; 0x4ebc <skip_spaces+0x26>
    4eac:	0e 94 c5 29 	call	0x538a	; 0x538a <isspace>
    4eb0:	89 2b       	or	r24, r25
    4eb2:	b1 f7       	brne	.-20     	; 0x4ea0 <skip_spaces+0xa>
    4eb4:	b8 01       	movw	r22, r16
    4eb6:	ce 01       	movw	r24, r28
    4eb8:	0e 94 17 2a 	call	0x542e	; 0x542e <ungetc>
    4ebc:	ce 01       	movw	r24, r28
    4ebe:	df 91       	pop	r29
    4ec0:	cf 91       	pop	r28
    4ec2:	1f 91       	pop	r17
    4ec4:	0f 91       	pop	r16
    4ec6:	08 95       	ret

00004ec8 <conv_int>:
    4ec8:	8f 92       	push	r8
    4eca:	9f 92       	push	r9
    4ecc:	af 92       	push	r10
    4ece:	bf 92       	push	r11
    4ed0:	ef 92       	push	r14
    4ed2:	ff 92       	push	r15
    4ed4:	0f 93       	push	r16
    4ed6:	1f 93       	push	r17
    4ed8:	cf 93       	push	r28
    4eda:	df 93       	push	r29
    4edc:	8c 01       	movw	r16, r24
    4ede:	d6 2f       	mov	r29, r22
    4ee0:	7a 01       	movw	r14, r20
    4ee2:	b2 2e       	mov	r11, r18
    4ee4:	0e 94 d9 29 	call	0x53b2	; 0x53b2 <fgetc>
    4ee8:	9c 01       	movw	r18, r24
    4eea:	33 27       	eor	r19, r19
    4eec:	2b 32       	cpi	r18, 0x2B	; 43
    4eee:	31 05       	cpc	r19, r1
    4ef0:	31 f0       	breq	.+12     	; 0x4efe <conv_int+0x36>
    4ef2:	2d 32       	cpi	r18, 0x2D	; 45
    4ef4:	31 05       	cpc	r19, r1
    4ef6:	61 f4       	brne	.+24     	; 0x4f10 <conv_int+0x48>
    4ef8:	8b 2d       	mov	r24, r11
    4efa:	80 68       	ori	r24, 0x80	; 128
    4efc:	b8 2e       	mov	r11, r24
    4efe:	d1 50       	subi	r29, 0x01	; 1
    4f00:	11 f4       	brne	.+4      	; 0x4f06 <conv_int+0x3e>
    4f02:	80 e0       	ldi	r24, 0x00	; 0
    4f04:	68 c0       	rjmp	.+208    	; 0x4fd6 <conv_int+0x10e>
    4f06:	c8 01       	movw	r24, r16
    4f08:	0e 94 d9 29 	call	0x53b2	; 0x53b2 <fgetc>
    4f0c:	97 fd       	sbrc	r25, 7
    4f0e:	f9 cf       	rjmp	.-14     	; 0x4f02 <conv_int+0x3a>
    4f10:	cb 2d       	mov	r28, r11
    4f12:	cd 7f       	andi	r28, 0xFD	; 253
    4f14:	2b 2d       	mov	r18, r11
    4f16:	20 73       	andi	r18, 0x30	; 48
    4f18:	09 f5       	brne	.+66     	; 0x4f5c <conv_int+0x94>
    4f1a:	80 33       	cpi	r24, 0x30	; 48
    4f1c:	f9 f4       	brne	.+62     	; 0x4f5c <conv_int+0x94>
    4f1e:	aa 24       	eor	r10, r10
    4f20:	aa 94       	dec	r10
    4f22:	ad 0e       	add	r10, r29
    4f24:	09 f4       	brne	.+2      	; 0x4f28 <conv_int+0x60>
    4f26:	43 c0       	rjmp	.+134    	; 0x4fae <conv_int+0xe6>
    4f28:	c8 01       	movw	r24, r16
    4f2a:	0e 94 d9 29 	call	0x53b2	; 0x53b2 <fgetc>
    4f2e:	97 fd       	sbrc	r25, 7
    4f30:	3e c0       	rjmp	.+124    	; 0x4fae <conv_int+0xe6>
    4f32:	9c 01       	movw	r18, r24
    4f34:	2f 7d       	andi	r18, 0xDF	; 223
    4f36:	33 27       	eor	r19, r19
    4f38:	28 35       	cpi	r18, 0x58	; 88
    4f3a:	31 05       	cpc	r19, r1
    4f3c:	49 f4       	brne	.+18     	; 0x4f50 <conv_int+0x88>
    4f3e:	c2 64       	ori	r28, 0x42	; 66
    4f40:	d2 50       	subi	r29, 0x02	; 2
    4f42:	a9 f1       	breq	.+106    	; 0x4fae <conv_int+0xe6>
    4f44:	c8 01       	movw	r24, r16
    4f46:	0e 94 d9 29 	call	0x53b2	; 0x53b2 <fgetc>
    4f4a:	97 ff       	sbrs	r25, 7
    4f4c:	07 c0       	rjmp	.+14     	; 0x4f5c <conv_int+0x94>
    4f4e:	2f c0       	rjmp	.+94     	; 0x4fae <conv_int+0xe6>
    4f50:	b6 fe       	sbrs	r11, 6
    4f52:	02 c0       	rjmp	.+4      	; 0x4f58 <conv_int+0x90>
    4f54:	c2 60       	ori	r28, 0x02	; 2
    4f56:	01 c0       	rjmp	.+2      	; 0x4f5a <conv_int+0x92>
    4f58:	c2 61       	ori	r28, 0x12	; 18
    4f5a:	da 2d       	mov	r29, r10
    4f5c:	81 2c       	mov	r8, r1
    4f5e:	91 2c       	mov	r9, r1
    4f60:	54 01       	movw	r10, r8
    4f62:	20 ed       	ldi	r18, 0xD0	; 208
    4f64:	28 0f       	add	r18, r24
    4f66:	28 30       	cpi	r18, 0x08	; 8
    4f68:	80 f0       	brcs	.+32     	; 0x4f8a <conv_int+0xc2>
    4f6a:	c4 ff       	sbrs	r28, 4
    4f6c:	04 c0       	rjmp	.+8      	; 0x4f76 <conv_int+0xae>
    4f6e:	b8 01       	movw	r22, r16
    4f70:	0e 94 17 2a 	call	0x542e	; 0x542e <ungetc>
    4f74:	19 c0       	rjmp	.+50     	; 0x4fa8 <conv_int+0xe0>
    4f76:	2a 30       	cpi	r18, 0x0A	; 10
    4f78:	40 f0       	brcs	.+16     	; 0x4f8a <conv_int+0xc2>
    4f7a:	c6 ff       	sbrs	r28, 6
    4f7c:	f8 cf       	rjmp	.-16     	; 0x4f6e <conv_int+0xa6>
    4f7e:	2f 7d       	andi	r18, 0xDF	; 223
    4f80:	3f ee       	ldi	r19, 0xEF	; 239
    4f82:	32 0f       	add	r19, r18
    4f84:	36 30       	cpi	r19, 0x06	; 6
    4f86:	98 f7       	brcc	.-26     	; 0x4f6e <conv_int+0xa6>
    4f88:	27 50       	subi	r18, 0x07	; 7
    4f8a:	4c 2f       	mov	r20, r28
    4f8c:	c5 01       	movw	r24, r10
    4f8e:	b4 01       	movw	r22, r8
    4f90:	0e 94 24 27 	call	0x4e48	; 0x4e48 <mulacc>
    4f94:	4b 01       	movw	r8, r22
    4f96:	5c 01       	movw	r10, r24
    4f98:	c2 60       	ori	r28, 0x02	; 2
    4f9a:	d1 50       	subi	r29, 0x01	; 1
    4f9c:	59 f0       	breq	.+22     	; 0x4fb4 <conv_int+0xec>
    4f9e:	c8 01       	movw	r24, r16
    4fa0:	0e 94 d9 29 	call	0x53b2	; 0x53b2 <fgetc>
    4fa4:	97 ff       	sbrs	r25, 7
    4fa6:	dd cf       	rjmp	.-70     	; 0x4f62 <conv_int+0x9a>
    4fa8:	c1 fd       	sbrc	r28, 1
    4faa:	04 c0       	rjmp	.+8      	; 0x4fb4 <conv_int+0xec>
    4fac:	aa cf       	rjmp	.-172    	; 0x4f02 <conv_int+0x3a>
    4fae:	81 2c       	mov	r8, r1
    4fb0:	91 2c       	mov	r9, r1
    4fb2:	54 01       	movw	r10, r8
    4fb4:	c7 ff       	sbrs	r28, 7
    4fb6:	08 c0       	rjmp	.+16     	; 0x4fc8 <conv_int+0x100>
    4fb8:	b0 94       	com	r11
    4fba:	a0 94       	com	r10
    4fbc:	90 94       	com	r9
    4fbe:	80 94       	com	r8
    4fc0:	81 1c       	adc	r8, r1
    4fc2:	91 1c       	adc	r9, r1
    4fc4:	a1 1c       	adc	r10, r1
    4fc6:	b1 1c       	adc	r11, r1
    4fc8:	2c 2f       	mov	r18, r28
    4fca:	b5 01       	movw	r22, r10
    4fcc:	a4 01       	movw	r20, r8
    4fce:	c7 01       	movw	r24, r14
    4fd0:	0e 94 18 27 	call	0x4e30	; 0x4e30 <putval>
    4fd4:	81 e0       	ldi	r24, 0x01	; 1
    4fd6:	df 91       	pop	r29
    4fd8:	cf 91       	pop	r28
    4fda:	1f 91       	pop	r17
    4fdc:	0f 91       	pop	r16
    4fde:	ff 90       	pop	r15
    4fe0:	ef 90       	pop	r14
    4fe2:	bf 90       	pop	r11
    4fe4:	af 90       	pop	r10
    4fe6:	9f 90       	pop	r9
    4fe8:	8f 90       	pop	r8
    4fea:	08 95       	ret

00004fec <conv_brk>:
    4fec:	a0 e2       	ldi	r26, 0x20	; 32
    4fee:	b0 e0       	ldi	r27, 0x00	; 0
    4ff0:	ec ef       	ldi	r30, 0xFC	; 252
    4ff2:	f7 e2       	ldi	r31, 0x27	; 39
    4ff4:	0c 94 f7 24 	jmp	0x49ee	; 0x49ee <__prologue_saves__+0x6>
    4ff8:	5c 01       	movw	r10, r24
    4ffa:	96 2e       	mov	r9, r22
    4ffc:	7a 01       	movw	r14, r20
    4ffe:	f9 01       	movw	r30, r18
    5000:	8e 01       	movw	r16, r28
    5002:	0f 5f       	subi	r16, 0xFF	; 255
    5004:	1f 4f       	sbci	r17, 0xFF	; 255
    5006:	68 01       	movw	r12, r16
    5008:	80 e2       	ldi	r24, 0x20	; 32
    500a:	d8 01       	movw	r26, r16
    500c:	1d 92       	st	X+, r1
    500e:	8a 95       	dec	r24
    5010:	e9 f7       	brne	.-6      	; 0x500c <conv_brk+0x20>
    5012:	d5 01       	movw	r26, r10
    5014:	13 96       	adiw	r26, 0x03	; 3
    5016:	8c 90       	ld	r8, X
    5018:	80 e0       	ldi	r24, 0x00	; 0
    501a:	90 e0       	ldi	r25, 0x00	; 0
    501c:	61 2c       	mov	r6, r1
    501e:	71 2c       	mov	r7, r1
    5020:	30 e0       	ldi	r19, 0x00	; 0
    5022:	61 e0       	ldi	r22, 0x01	; 1
    5024:	70 e0       	ldi	r23, 0x00	; 0
    5026:	83 fc       	sbrc	r8, 3
    5028:	25 91       	lpm	r18, Z+
    502a:	83 fe       	sbrs	r8, 3
    502c:	21 91       	ld	r18, Z+
    502e:	8f 01       	movw	r16, r30
    5030:	52 2e       	mov	r5, r18
    5032:	21 11       	cpse	r18, r1
    5034:	03 c0       	rjmp	.+6      	; 0x503c <conv_brk+0x50>
    5036:	80 e0       	ldi	r24, 0x00	; 0
    5038:	90 e0       	ldi	r25, 0x00	; 0
    503a:	92 c0       	rjmp	.+292    	; 0x5160 <conv_brk+0x174>
    503c:	2e 35       	cpi	r18, 0x5E	; 94
    503e:	11 f4       	brne	.+4      	; 0x5044 <conv_brk+0x58>
    5040:	00 97       	sbiw	r24, 0x00	; 0
    5042:	51 f1       	breq	.+84     	; 0x5098 <conv_brk+0xac>
    5044:	43 2f       	mov	r20, r19
    5046:	50 e0       	ldi	r21, 0x00	; 0
    5048:	48 17       	cp	r20, r24
    504a:	59 07       	cpc	r21, r25
    504c:	3c f4       	brge	.+14     	; 0x505c <conv_brk+0x70>
    504e:	2d 35       	cpi	r18, 0x5D	; 93
    5050:	59 f1       	breq	.+86     	; 0x50a8 <conv_brk+0xbc>
    5052:	2d 32       	cpi	r18, 0x2D	; 45
    5054:	19 f4       	brne	.+6      	; 0x505c <conv_brk+0x70>
    5056:	77 20       	and	r7, r7
    5058:	09 f1       	breq	.+66     	; 0x509c <conv_brk+0xb0>
    505a:	03 c0       	rjmp	.+6      	; 0x5062 <conv_brk+0x76>
    505c:	77 20       	and	r7, r7
    505e:	09 f4       	brne	.+2      	; 0x5062 <conv_brk+0x76>
    5060:	6a c0       	rjmp	.+212    	; 0x5136 <conv_brk+0x14a>
    5062:	45 2d       	mov	r20, r5
    5064:	46 95       	lsr	r20
    5066:	46 95       	lsr	r20
    5068:	46 95       	lsr	r20
    506a:	d6 01       	movw	r26, r12
    506c:	a4 0f       	add	r26, r20
    506e:	b1 1d       	adc	r27, r1
    5070:	45 2d       	mov	r20, r5
    5072:	47 70       	andi	r20, 0x07	; 7
    5074:	8b 01       	movw	r16, r22
    5076:	02 c0       	rjmp	.+4      	; 0x507c <conv_brk+0x90>
    5078:	00 0f       	add	r16, r16
    507a:	11 1f       	adc	r17, r17
    507c:	4a 95       	dec	r20
    507e:	e2 f7       	brpl	.-8      	; 0x5078 <conv_brk+0x8c>
    5080:	a8 01       	movw	r20, r16
    5082:	5c 91       	ld	r21, X
    5084:	45 2b       	or	r20, r21
    5086:	4c 93       	st	X, r20
    5088:	65 14       	cp	r6, r5
    508a:	59 f0       	breq	.+22     	; 0x50a2 <conv_brk+0xb6>
    508c:	56 14       	cp	r5, r6
    508e:	10 f4       	brcc	.+4      	; 0x5094 <conv_brk+0xa8>
    5090:	53 94       	inc	r5
    5092:	e7 cf       	rjmp	.-50     	; 0x5062 <conv_brk+0x76>
    5094:	5a 94       	dec	r5
    5096:	e5 cf       	rjmp	.-54     	; 0x5062 <conv_brk+0x76>
    5098:	31 e0       	ldi	r19, 0x01	; 1
    509a:	04 c0       	rjmp	.+8      	; 0x50a4 <conv_brk+0xb8>
    509c:	77 24       	eor	r7, r7
    509e:	73 94       	inc	r7
    50a0:	01 c0       	rjmp	.+2      	; 0x50a4 <conv_brk+0xb8>
    50a2:	71 2c       	mov	r7, r1
    50a4:	01 96       	adiw	r24, 0x01	; 1
    50a6:	bf cf       	rjmp	.-130    	; 0x5026 <conv_brk+0x3a>
    50a8:	77 20       	and	r7, r7
    50aa:	19 f0       	breq	.+6      	; 0x50b2 <conv_brk+0xc6>
    50ac:	8e 81       	ldd	r24, Y+6	; 0x06
    50ae:	80 62       	ori	r24, 0x20	; 32
    50b0:	8e 83       	std	Y+6, r24	; 0x06
    50b2:	31 11       	cpse	r19, r1
    50b4:	03 c0       	rjmp	.+6      	; 0x50bc <conv_brk+0xd0>
    50b6:	88 24       	eor	r8, r8
    50b8:	83 94       	inc	r8
    50ba:	17 c0       	rjmp	.+46     	; 0x50ea <conv_brk+0xfe>
    50bc:	f6 01       	movw	r30, r12
    50be:	9e 01       	movw	r18, r28
    50c0:	2f 5d       	subi	r18, 0xDF	; 223
    50c2:	3f 4f       	sbci	r19, 0xFF	; 255
    50c4:	80 81       	ld	r24, Z
    50c6:	80 95       	com	r24
    50c8:	81 93       	st	Z+, r24
    50ca:	2e 17       	cp	r18, r30
    50cc:	3f 07       	cpc	r19, r31
    50ce:	d1 f7       	brne	.-12     	; 0x50c4 <conv_brk+0xd8>
    50d0:	f2 cf       	rjmp	.-28     	; 0x50b6 <conv_brk+0xca>
    50d2:	e1 14       	cp	r14, r1
    50d4:	f1 04       	cpc	r15, r1
    50d6:	29 f0       	breq	.+10     	; 0x50e2 <conv_brk+0xf6>
    50d8:	d7 01       	movw	r26, r14
    50da:	8c 93       	st	X, r24
    50dc:	f7 01       	movw	r30, r14
    50de:	31 96       	adiw	r30, 0x01	; 1
    50e0:	7f 01       	movw	r14, r30
    50e2:	9a 94       	dec	r9
    50e4:	81 2c       	mov	r8, r1
    50e6:	99 20       	and	r9, r9
    50e8:	f9 f0       	breq	.+62     	; 0x5128 <conv_brk+0x13c>
    50ea:	c5 01       	movw	r24, r10
    50ec:	0e 94 d9 29 	call	0x53b2	; 0x53b2 <fgetc>
    50f0:	97 fd       	sbrc	r25, 7
    50f2:	18 c0       	rjmp	.+48     	; 0x5124 <conv_brk+0x138>
    50f4:	fc 01       	movw	r30, r24
    50f6:	ff 27       	eor	r31, r31
    50f8:	23 e0       	ldi	r18, 0x03	; 3
    50fa:	f5 95       	asr	r31
    50fc:	e7 95       	ror	r30
    50fe:	2a 95       	dec	r18
    5100:	e1 f7       	brne	.-8      	; 0x50fa <conv_brk+0x10e>
    5102:	ec 0d       	add	r30, r12
    5104:	fd 1d       	adc	r31, r13
    5106:	20 81       	ld	r18, Z
    5108:	30 e0       	ldi	r19, 0x00	; 0
    510a:	ac 01       	movw	r20, r24
    510c:	47 70       	andi	r20, 0x07	; 7
    510e:	55 27       	eor	r21, r21
    5110:	02 c0       	rjmp	.+4      	; 0x5116 <conv_brk+0x12a>
    5112:	35 95       	asr	r19
    5114:	27 95       	ror	r18
    5116:	4a 95       	dec	r20
    5118:	e2 f7       	brpl	.-8      	; 0x5112 <conv_brk+0x126>
    511a:	20 fd       	sbrc	r18, 0
    511c:	da cf       	rjmp	.-76     	; 0x50d2 <conv_brk+0xe6>
    511e:	b5 01       	movw	r22, r10
    5120:	0e 94 17 2a 	call	0x542e	; 0x542e <ungetc>
    5124:	81 10       	cpse	r8, r1
    5126:	87 cf       	rjmp	.-242    	; 0x5036 <conv_brk+0x4a>
    5128:	e1 14       	cp	r14, r1
    512a:	f1 04       	cpc	r15, r1
    512c:	11 f0       	breq	.+4      	; 0x5132 <conv_brk+0x146>
    512e:	d7 01       	movw	r26, r14
    5130:	1c 92       	st	X, r1
    5132:	c8 01       	movw	r24, r16
    5134:	15 c0       	rjmp	.+42     	; 0x5160 <conv_brk+0x174>
    5136:	42 2f       	mov	r20, r18
    5138:	46 95       	lsr	r20
    513a:	46 95       	lsr	r20
    513c:	46 95       	lsr	r20
    513e:	d6 01       	movw	r26, r12
    5140:	a4 0f       	add	r26, r20
    5142:	b1 1d       	adc	r27, r1
    5144:	42 2f       	mov	r20, r18
    5146:	47 70       	andi	r20, 0x07	; 7
    5148:	8b 01       	movw	r16, r22
    514a:	02 c0       	rjmp	.+4      	; 0x5150 <conv_brk+0x164>
    514c:	00 0f       	add	r16, r16
    514e:	11 1f       	adc	r17, r17
    5150:	4a 95       	dec	r20
    5152:	e2 f7       	brpl	.-8      	; 0x514c <conv_brk+0x160>
    5154:	a8 01       	movw	r20, r16
    5156:	5c 91       	ld	r21, X
    5158:	45 2b       	or	r20, r21
    515a:	4c 93       	st	X, r20
    515c:	62 2e       	mov	r6, r18
    515e:	a2 cf       	rjmp	.-188    	; 0x50a4 <conv_brk+0xb8>
    5160:	a0 96       	adiw	r28, 0x20	; 32
    5162:	ef e0       	ldi	r30, 0x0F	; 15
    5164:	0c 94 13 25 	jmp	0x4a26	; 0x4a26 <__epilogue_restores__+0x6>

00005168 <vfscanf>:
    5168:	a0 e0       	ldi	r26, 0x00	; 0
    516a:	b0 e0       	ldi	r27, 0x00	; 0
    516c:	ea eb       	ldi	r30, 0xBA	; 186
    516e:	f8 e2       	ldi	r31, 0x28	; 40
    5170:	0c 94 f7 24 	jmp	0x49ee	; 0x49ee <__prologue_saves__+0x6>
    5174:	6c 01       	movw	r12, r24
    5176:	eb 01       	movw	r28, r22
    5178:	5a 01       	movw	r10, r20
    517a:	fc 01       	movw	r30, r24
    517c:	17 82       	std	Z+7, r1	; 0x07
    517e:	16 82       	std	Z+6, r1	; 0x06
    5180:	51 2c       	mov	r5, r1
    5182:	f6 01       	movw	r30, r12
    5184:	e3 80       	ldd	r14, Z+3	; 0x03
    5186:	fe 01       	movw	r30, r28
    5188:	e3 fc       	sbrc	r14, 3
    518a:	85 91       	lpm	r24, Z+
    518c:	e3 fe       	sbrs	r14, 3
    518e:	81 91       	ld	r24, Z+
    5190:	18 2f       	mov	r17, r24
    5192:	ef 01       	movw	r28, r30
    5194:	88 23       	and	r24, r24
    5196:	09 f4       	brne	.+2      	; 0x519a <vfscanf+0x32>
    5198:	ee c0       	rjmp	.+476    	; 0x5376 <vfscanf+0x20e>
    519a:	90 e0       	ldi	r25, 0x00	; 0
    519c:	0e 94 c5 29 	call	0x538a	; 0x538a <isspace>
    51a0:	89 2b       	or	r24, r25
    51a2:	21 f0       	breq	.+8      	; 0x51ac <vfscanf+0x44>
    51a4:	c6 01       	movw	r24, r12
    51a6:	0e 94 4b 27 	call	0x4e96	; 0x4e96 <skip_spaces>
    51aa:	eb cf       	rjmp	.-42     	; 0x5182 <vfscanf+0x1a>
    51ac:	15 32       	cpi	r17, 0x25	; 37
    51ae:	41 f4       	brne	.+16     	; 0x51c0 <vfscanf+0x58>
    51b0:	fe 01       	movw	r30, r28
    51b2:	e3 fc       	sbrc	r14, 3
    51b4:	15 91       	lpm	r17, Z+
    51b6:	e3 fe       	sbrs	r14, 3
    51b8:	11 91       	ld	r17, Z+
    51ba:	ef 01       	movw	r28, r30
    51bc:	15 32       	cpi	r17, 0x25	; 37
    51be:	81 f4       	brne	.+32     	; 0x51e0 <vfscanf+0x78>
    51c0:	c6 01       	movw	r24, r12
    51c2:	0e 94 d9 29 	call	0x53b2	; 0x53b2 <fgetc>
    51c6:	97 fd       	sbrc	r25, 7
    51c8:	d4 c0       	rjmp	.+424    	; 0x5372 <vfscanf+0x20a>
    51ca:	41 2f       	mov	r20, r17
    51cc:	50 e0       	ldi	r21, 0x00	; 0
    51ce:	9c 01       	movw	r18, r24
    51d0:	33 27       	eor	r19, r19
    51d2:	24 17       	cp	r18, r20
    51d4:	35 07       	cpc	r19, r21
    51d6:	a9 f2       	breq	.-86     	; 0x5182 <vfscanf+0x1a>
    51d8:	b6 01       	movw	r22, r12
    51da:	0e 94 17 2a 	call	0x542e	; 0x542e <ungetc>
    51de:	cb c0       	rjmp	.+406    	; 0x5376 <vfscanf+0x20e>
    51e0:	1a 32       	cpi	r17, 0x2A	; 42
    51e2:	39 f4       	brne	.+14     	; 0x51f2 <vfscanf+0x8a>
    51e4:	e3 fc       	sbrc	r14, 3
    51e6:	15 91       	lpm	r17, Z+
    51e8:	e3 fe       	sbrs	r14, 3
    51ea:	11 91       	ld	r17, Z+
    51ec:	ef 01       	movw	r28, r30
    51ee:	01 e0       	ldi	r16, 0x01	; 1
    51f0:	01 c0       	rjmp	.+2      	; 0x51f4 <vfscanf+0x8c>
    51f2:	00 e0       	ldi	r16, 0x00	; 0
    51f4:	f1 2c       	mov	r15, r1
    51f6:	20 ed       	ldi	r18, 0xD0	; 208
    51f8:	21 0f       	add	r18, r17
    51fa:	2a 30       	cpi	r18, 0x0A	; 10
    51fc:	80 f4       	brcc	.+32     	; 0x521e <vfscanf+0xb6>
    51fe:	02 60       	ori	r16, 0x02	; 2
    5200:	6f 2d       	mov	r22, r15
    5202:	70 e0       	ldi	r23, 0x00	; 0
    5204:	80 e0       	ldi	r24, 0x00	; 0
    5206:	90 e0       	ldi	r25, 0x00	; 0
    5208:	40 e2       	ldi	r20, 0x20	; 32
    520a:	0e 94 24 27 	call	0x4e48	; 0x4e48 <mulacc>
    520e:	f6 2e       	mov	r15, r22
    5210:	fe 01       	movw	r30, r28
    5212:	e3 fc       	sbrc	r14, 3
    5214:	15 91       	lpm	r17, Z+
    5216:	e3 fe       	sbrs	r14, 3
    5218:	11 91       	ld	r17, Z+
    521a:	ef 01       	movw	r28, r30
    521c:	ec cf       	rjmp	.-40     	; 0x51f6 <vfscanf+0x8e>
    521e:	01 ff       	sbrs	r16, 1
    5220:	03 c0       	rjmp	.+6      	; 0x5228 <vfscanf+0xc0>
    5222:	f1 10       	cpse	r15, r1
    5224:	03 c0       	rjmp	.+6      	; 0x522c <vfscanf+0xc4>
    5226:	a7 c0       	rjmp	.+334    	; 0x5376 <vfscanf+0x20e>
    5228:	ff 24       	eor	r15, r15
    522a:	fa 94       	dec	r15
    522c:	18 36       	cpi	r17, 0x68	; 104
    522e:	19 f0       	breq	.+6      	; 0x5236 <vfscanf+0xce>
    5230:	1c 36       	cpi	r17, 0x6C	; 108
    5232:	51 f0       	breq	.+20     	; 0x5248 <vfscanf+0xe0>
    5234:	10 c0       	rjmp	.+32     	; 0x5256 <vfscanf+0xee>
    5236:	fe 01       	movw	r30, r28
    5238:	e3 fc       	sbrc	r14, 3
    523a:	15 91       	lpm	r17, Z+
    523c:	e3 fe       	sbrs	r14, 3
    523e:	11 91       	ld	r17, Z+
    5240:	ef 01       	movw	r28, r30
    5242:	18 36       	cpi	r17, 0x68	; 104
    5244:	41 f4       	brne	.+16     	; 0x5256 <vfscanf+0xee>
    5246:	08 60       	ori	r16, 0x08	; 8
    5248:	04 60       	ori	r16, 0x04	; 4
    524a:	fe 01       	movw	r30, r28
    524c:	e3 fc       	sbrc	r14, 3
    524e:	15 91       	lpm	r17, Z+
    5250:	e3 fe       	sbrs	r14, 3
    5252:	11 91       	ld	r17, Z+
    5254:	ef 01       	movw	r28, r30
    5256:	11 23       	and	r17, r17
    5258:	09 f4       	brne	.+2      	; 0x525c <vfscanf+0xf4>
    525a:	8d c0       	rjmp	.+282    	; 0x5376 <vfscanf+0x20e>
    525c:	61 2f       	mov	r22, r17
    525e:	70 e0       	ldi	r23, 0x00	; 0
    5260:	80 e9       	ldi	r24, 0x90	; 144
    5262:	91 e0       	ldi	r25, 0x01	; 1
    5264:	0e 94 ce 29 	call	0x539c	; 0x539c <strchr_P>
    5268:	89 2b       	or	r24, r25
    526a:	09 f4       	brne	.+2      	; 0x526e <vfscanf+0x106>
    526c:	84 c0       	rjmp	.+264    	; 0x5376 <vfscanf+0x20e>
    526e:	00 fd       	sbrc	r16, 0
    5270:	07 c0       	rjmp	.+14     	; 0x5280 <vfscanf+0x118>
    5272:	f5 01       	movw	r30, r10
    5274:	80 80       	ld	r8, Z
    5276:	91 80       	ldd	r9, Z+1	; 0x01
    5278:	c5 01       	movw	r24, r10
    527a:	02 96       	adiw	r24, 0x02	; 2
    527c:	5c 01       	movw	r10, r24
    527e:	02 c0       	rjmp	.+4      	; 0x5284 <vfscanf+0x11c>
    5280:	81 2c       	mov	r8, r1
    5282:	91 2c       	mov	r9, r1
    5284:	1e 36       	cpi	r17, 0x6E	; 110
    5286:	51 f4       	brne	.+20     	; 0x529c <vfscanf+0x134>
    5288:	f6 01       	movw	r30, r12
    528a:	46 81       	ldd	r20, Z+6	; 0x06
    528c:	57 81       	ldd	r21, Z+7	; 0x07
    528e:	60 e0       	ldi	r22, 0x00	; 0
    5290:	70 e0       	ldi	r23, 0x00	; 0
    5292:	20 2f       	mov	r18, r16
    5294:	c4 01       	movw	r24, r8
    5296:	0e 94 18 27 	call	0x4e30	; 0x4e30 <putval>
    529a:	73 cf       	rjmp	.-282    	; 0x5182 <vfscanf+0x1a>
    529c:	13 36       	cpi	r17, 0x63	; 99
    529e:	a9 f4       	brne	.+42     	; 0x52ca <vfscanf+0x162>
    52a0:	01 fd       	sbrc	r16, 1
    52a2:	02 c0       	rjmp	.+4      	; 0x52a8 <vfscanf+0x140>
    52a4:	ff 24       	eor	r15, r15
    52a6:	f3 94       	inc	r15
    52a8:	c6 01       	movw	r24, r12
    52aa:	0e 94 d9 29 	call	0x53b2	; 0x53b2 <fgetc>
    52ae:	97 fd       	sbrc	r25, 7
    52b0:	60 c0       	rjmp	.+192    	; 0x5372 <vfscanf+0x20a>
    52b2:	81 14       	cp	r8, r1
    52b4:	91 04       	cpc	r9, r1
    52b6:	29 f0       	breq	.+10     	; 0x52c2 <vfscanf+0x15a>
    52b8:	f4 01       	movw	r30, r8
    52ba:	80 83       	st	Z, r24
    52bc:	c4 01       	movw	r24, r8
    52be:	01 96       	adiw	r24, 0x01	; 1
    52c0:	4c 01       	movw	r8, r24
    52c2:	fa 94       	dec	r15
    52c4:	f1 10       	cpse	r15, r1
    52c6:	f0 cf       	rjmp	.-32     	; 0x52a8 <vfscanf+0x140>
    52c8:	50 c0       	rjmp	.+160    	; 0x536a <vfscanf+0x202>
    52ca:	1b 35       	cpi	r17, 0x5B	; 91
    52cc:	59 f4       	brne	.+22     	; 0x52e4 <vfscanf+0x17c>
    52ce:	9e 01       	movw	r18, r28
    52d0:	a4 01       	movw	r20, r8
    52d2:	6f 2d       	mov	r22, r15
    52d4:	c6 01       	movw	r24, r12
    52d6:	0e 94 f6 27 	call	0x4fec	; 0x4fec <conv_brk>
    52da:	ec 01       	movw	r28, r24
    52dc:	89 2b       	or	r24, r25
    52de:	09 f0       	breq	.+2      	; 0x52e2 <vfscanf+0x17a>
    52e0:	44 c0       	rjmp	.+136    	; 0x536a <vfscanf+0x202>
    52e2:	3e c0       	rjmp	.+124    	; 0x5360 <vfscanf+0x1f8>
    52e4:	c6 01       	movw	r24, r12
    52e6:	0e 94 4b 27 	call	0x4e96	; 0x4e96 <skip_spaces>
    52ea:	97 fd       	sbrc	r25, 7
    52ec:	42 c0       	rjmp	.+132    	; 0x5372 <vfscanf+0x20a>
    52ee:	1f 36       	cpi	r17, 0x6F	; 111
    52f0:	61 f1       	breq	.+88     	; 0x534a <vfscanf+0x1e2>
    52f2:	28 f4       	brcc	.+10     	; 0x52fe <vfscanf+0x196>
    52f4:	14 36       	cpi	r17, 0x64	; 100
    52f6:	39 f1       	breq	.+78     	; 0x5346 <vfscanf+0x1de>
    52f8:	19 36       	cpi	r17, 0x69	; 105
    52fa:	51 f1       	breq	.+84     	; 0x5350 <vfscanf+0x1e8>
    52fc:	28 c0       	rjmp	.+80     	; 0x534e <vfscanf+0x1e6>
    52fe:	13 37       	cpi	r17, 0x73	; 115
    5300:	71 f0       	breq	.+28     	; 0x531e <vfscanf+0x1b6>
    5302:	15 37       	cpi	r17, 0x75	; 117
    5304:	01 f1       	breq	.+64     	; 0x5346 <vfscanf+0x1de>
    5306:	23 c0       	rjmp	.+70     	; 0x534e <vfscanf+0x1e6>
    5308:	81 14       	cp	r8, r1
    530a:	91 04       	cpc	r9, r1
    530c:	29 f0       	breq	.+10     	; 0x5318 <vfscanf+0x1b0>
    530e:	f4 01       	movw	r30, r8
    5310:	60 82       	st	Z, r6
    5312:	c4 01       	movw	r24, r8
    5314:	01 96       	adiw	r24, 0x01	; 1
    5316:	4c 01       	movw	r8, r24
    5318:	fa 94       	dec	r15
    531a:	ff 20       	and	r15, r15
    531c:	71 f0       	breq	.+28     	; 0x533a <vfscanf+0x1d2>
    531e:	c6 01       	movw	r24, r12
    5320:	0e 94 d9 29 	call	0x53b2	; 0x53b2 <fgetc>
    5324:	3c 01       	movw	r6, r24
    5326:	97 fd       	sbrc	r25, 7
    5328:	08 c0       	rjmp	.+16     	; 0x533a <vfscanf+0x1d2>
    532a:	0e 94 c5 29 	call	0x538a	; 0x538a <isspace>
    532e:	89 2b       	or	r24, r25
    5330:	59 f3       	breq	.-42     	; 0x5308 <vfscanf+0x1a0>
    5332:	b6 01       	movw	r22, r12
    5334:	c3 01       	movw	r24, r6
    5336:	0e 94 17 2a 	call	0x542e	; 0x542e <ungetc>
    533a:	81 14       	cp	r8, r1
    533c:	91 04       	cpc	r9, r1
    533e:	a9 f0       	breq	.+42     	; 0x536a <vfscanf+0x202>
    5340:	f4 01       	movw	r30, r8
    5342:	10 82       	st	Z, r1
    5344:	12 c0       	rjmp	.+36     	; 0x536a <vfscanf+0x202>
    5346:	00 62       	ori	r16, 0x20	; 32
    5348:	03 c0       	rjmp	.+6      	; 0x5350 <vfscanf+0x1e8>
    534a:	00 61       	ori	r16, 0x10	; 16
    534c:	01 c0       	rjmp	.+2      	; 0x5350 <vfscanf+0x1e8>
    534e:	00 64       	ori	r16, 0x40	; 64
    5350:	20 2f       	mov	r18, r16
    5352:	a4 01       	movw	r20, r8
    5354:	6f 2d       	mov	r22, r15
    5356:	c6 01       	movw	r24, r12
    5358:	0e 94 64 27 	call	0x4ec8	; 0x4ec8 <conv_int>
    535c:	81 11       	cpse	r24, r1
    535e:	05 c0       	rjmp	.+10     	; 0x536a <vfscanf+0x202>
    5360:	f6 01       	movw	r30, r12
    5362:	83 81       	ldd	r24, Z+3	; 0x03
    5364:	80 73       	andi	r24, 0x30	; 48
    5366:	29 f4       	brne	.+10     	; 0x5372 <vfscanf+0x20a>
    5368:	06 c0       	rjmp	.+12     	; 0x5376 <vfscanf+0x20e>
    536a:	00 fd       	sbrc	r16, 0
    536c:	0a cf       	rjmp	.-492    	; 0x5182 <vfscanf+0x1a>
    536e:	53 94       	inc	r5
    5370:	08 cf       	rjmp	.-496    	; 0x5182 <vfscanf+0x1a>
    5372:	55 20       	and	r5, r5
    5374:	19 f0       	breq	.+6      	; 0x537c <vfscanf+0x214>
    5376:	85 2d       	mov	r24, r5
    5378:	90 e0       	ldi	r25, 0x00	; 0
    537a:	02 c0       	rjmp	.+4      	; 0x5380 <vfscanf+0x218>
    537c:	8f ef       	ldi	r24, 0xFF	; 255
    537e:	9f ef       	ldi	r25, 0xFF	; 255
    5380:	cd b7       	in	r28, 0x3d	; 61
    5382:	de b7       	in	r29, 0x3e	; 62
    5384:	ef e0       	ldi	r30, 0x0F	; 15
    5386:	0c 94 13 25 	jmp	0x4a26	; 0x4a26 <__epilogue_restores__+0x6>

0000538a <isspace>:
    538a:	91 11       	cpse	r25, r1
    538c:	0c 94 30 2a 	jmp	0x5460	; 0x5460 <__ctype_isfalse>
    5390:	80 32       	cpi	r24, 0x20	; 32
    5392:	19 f0       	breq	.+6      	; 0x539a <isspace+0x10>
    5394:	89 50       	subi	r24, 0x09	; 9
    5396:	85 50       	subi	r24, 0x05	; 5
    5398:	c8 f7       	brcc	.-14     	; 0x538c <isspace+0x2>
    539a:	08 95       	ret

0000539c <strchr_P>:
    539c:	fc 01       	movw	r30, r24
    539e:	05 90       	lpm	r0, Z+
    53a0:	06 16       	cp	r0, r22
    53a2:	21 f0       	breq	.+8      	; 0x53ac <strchr_P+0x10>
    53a4:	00 20       	and	r0, r0
    53a6:	d9 f7       	brne	.-10     	; 0x539e <strchr_P+0x2>
    53a8:	c0 01       	movw	r24, r0
    53aa:	08 95       	ret
    53ac:	31 97       	sbiw	r30, 0x01	; 1
    53ae:	cf 01       	movw	r24, r30
    53b0:	08 95       	ret

000053b2 <fgetc>:
    53b2:	cf 93       	push	r28
    53b4:	df 93       	push	r29
    53b6:	ec 01       	movw	r28, r24
    53b8:	2b 81       	ldd	r18, Y+3	; 0x03
    53ba:	20 ff       	sbrs	r18, 0
    53bc:	33 c0       	rjmp	.+102    	; 0x5424 <fgetc+0x72>
    53be:	26 ff       	sbrs	r18, 6
    53c0:	0a c0       	rjmp	.+20     	; 0x53d6 <fgetc+0x24>
    53c2:	2f 7b       	andi	r18, 0xBF	; 191
    53c4:	2b 83       	std	Y+3, r18	; 0x03
    53c6:	8e 81       	ldd	r24, Y+6	; 0x06
    53c8:	9f 81       	ldd	r25, Y+7	; 0x07
    53ca:	01 96       	adiw	r24, 0x01	; 1
    53cc:	9f 83       	std	Y+7, r25	; 0x07
    53ce:	8e 83       	std	Y+6, r24	; 0x06
    53d0:	8a 81       	ldd	r24, Y+2	; 0x02
    53d2:	90 e0       	ldi	r25, 0x00	; 0
    53d4:	29 c0       	rjmp	.+82     	; 0x5428 <fgetc+0x76>
    53d6:	22 ff       	sbrs	r18, 2
    53d8:	0f c0       	rjmp	.+30     	; 0x53f8 <fgetc+0x46>
    53da:	e8 81       	ld	r30, Y
    53dc:	f9 81       	ldd	r31, Y+1	; 0x01
    53de:	80 81       	ld	r24, Z
    53e0:	08 2e       	mov	r0, r24
    53e2:	00 0c       	add	r0, r0
    53e4:	99 0b       	sbc	r25, r25
    53e6:	00 97       	sbiw	r24, 0x00	; 0
    53e8:	19 f4       	brne	.+6      	; 0x53f0 <fgetc+0x3e>
    53ea:	20 62       	ori	r18, 0x20	; 32
    53ec:	2b 83       	std	Y+3, r18	; 0x03
    53ee:	1a c0       	rjmp	.+52     	; 0x5424 <fgetc+0x72>
    53f0:	31 96       	adiw	r30, 0x01	; 1
    53f2:	f9 83       	std	Y+1, r31	; 0x01
    53f4:	e8 83       	st	Y, r30
    53f6:	0e c0       	rjmp	.+28     	; 0x5414 <fgetc+0x62>
    53f8:	ea 85       	ldd	r30, Y+10	; 0x0a
    53fa:	fb 85       	ldd	r31, Y+11	; 0x0b
    53fc:	09 95       	icall
    53fe:	97 ff       	sbrs	r25, 7
    5400:	09 c0       	rjmp	.+18     	; 0x5414 <fgetc+0x62>
    5402:	2b 81       	ldd	r18, Y+3	; 0x03
    5404:	01 96       	adiw	r24, 0x01	; 1
    5406:	11 f0       	breq	.+4      	; 0x540c <fgetc+0x5a>
    5408:	80 e2       	ldi	r24, 0x20	; 32
    540a:	01 c0       	rjmp	.+2      	; 0x540e <fgetc+0x5c>
    540c:	80 e1       	ldi	r24, 0x10	; 16
    540e:	82 2b       	or	r24, r18
    5410:	8b 83       	std	Y+3, r24	; 0x03
    5412:	08 c0       	rjmp	.+16     	; 0x5424 <fgetc+0x72>
    5414:	2e 81       	ldd	r18, Y+6	; 0x06
    5416:	3f 81       	ldd	r19, Y+7	; 0x07
    5418:	2f 5f       	subi	r18, 0xFF	; 255
    541a:	3f 4f       	sbci	r19, 0xFF	; 255
    541c:	3f 83       	std	Y+7, r19	; 0x07
    541e:	2e 83       	std	Y+6, r18	; 0x06
    5420:	99 27       	eor	r25, r25
    5422:	02 c0       	rjmp	.+4      	; 0x5428 <fgetc+0x76>
    5424:	8f ef       	ldi	r24, 0xFF	; 255
    5426:	9f ef       	ldi	r25, 0xFF	; 255
    5428:	df 91       	pop	r29
    542a:	cf 91       	pop	r28
    542c:	08 95       	ret

0000542e <ungetc>:
    542e:	fb 01       	movw	r30, r22
    5430:	23 81       	ldd	r18, Z+3	; 0x03
    5432:	20 ff       	sbrs	r18, 0
    5434:	12 c0       	rjmp	.+36     	; 0x545a <ungetc+0x2c>
    5436:	26 fd       	sbrc	r18, 6
    5438:	10 c0       	rjmp	.+32     	; 0x545a <ungetc+0x2c>
    543a:	8f 3f       	cpi	r24, 0xFF	; 255
    543c:	3f ef       	ldi	r19, 0xFF	; 255
    543e:	93 07       	cpc	r25, r19
    5440:	61 f0       	breq	.+24     	; 0x545a <ungetc+0x2c>
    5442:	82 83       	std	Z+2, r24	; 0x02
    5444:	2f 7d       	andi	r18, 0xDF	; 223
    5446:	20 64       	ori	r18, 0x40	; 64
    5448:	23 83       	std	Z+3, r18	; 0x03
    544a:	26 81       	ldd	r18, Z+6	; 0x06
    544c:	37 81       	ldd	r19, Z+7	; 0x07
    544e:	21 50       	subi	r18, 0x01	; 1
    5450:	31 09       	sbc	r19, r1
    5452:	37 83       	std	Z+7, r19	; 0x07
    5454:	26 83       	std	Z+6, r18	; 0x06
    5456:	99 27       	eor	r25, r25
    5458:	08 95       	ret
    545a:	8f ef       	ldi	r24, 0xFF	; 255
    545c:	9f ef       	ldi	r25, 0xFF	; 255
    545e:	08 95       	ret

00005460 <__ctype_isfalse>:
    5460:	99 27       	eor	r25, r25
    5462:	88 27       	eor	r24, r24

00005464 <__ctype_istrue>:
    5464:	08 95       	ret

00005466 <_exit>:
    5466:	f8 94       	cli

00005468 <__stop_program>:
    5468:	ff cf       	rjmp	.-2      	; 0x5468 <__stop_program>
