
NRF24_RX.elf:     file format elf32-avr

Sections:
Idx Name          Size      VMA       LMA       File off  Algn
  0 .data         000001f4  00800100  00005d68  00005dfc  2**0
                  CONTENTS, ALLOC, LOAD, DATA
  1 .text         00005d68  00000000  00000000  00000094  2**1
                  CONTENTS, ALLOC, LOAD, READONLY, CODE
  2 .bss          00000522  008002f4  008002f4  00005ff0  2**0
                  ALLOC
  3 .comment      0000005c  00000000  00000000  00005ff0  2**0
                  CONTENTS, READONLY
  4 .note.gnu.avr.deviceinfo 00000040  00000000  00000000  0000604c  2**2
                  CONTENTS, READONLY
  5 .debug_aranges 000003d0  00000000  00000000  0000608c  2**0
                  CONTENTS, READONLY, DEBUGGING
  6 .debug_info   000095c0  00000000  00000000  0000645c  2**0
                  CONTENTS, READONLY, DEBUGGING
  7 .debug_abbrev 000014c4  00000000  00000000  0000fa1c  2**0
                  CONTENTS, READONLY, DEBUGGING
  8 .debug_line   00003c4c  00000000  00000000  00010ee0  2**0
                  CONTENTS, READONLY, DEBUGGING
  9 .debug_frame  00000da8  00000000  00000000  00014b2c  2**2
                  CONTENTS, READONLY, DEBUGGING
 10 .debug_str    00000d9e  00000000  00000000  000158d4  2**0
                  CONTENTS, READONLY, DEBUGGING
 11 .debug_loc    000043cc  00000000  00000000  00016672  2**0
                  CONTENTS, READONLY, DEBUGGING
 12 .debug_ranges 00000358  00000000  00000000  0001aa3e  2**0
                  CONTENTS, READONLY, DEBUGGING

Disassembly of section .text:

00000000 <__vectors>:
       0:	0c 94 9e 03 	jmp	0x73c	; 0x73c <__ctors_end>
       4:	0c 94 16 12 	jmp	0x242c	; 0x242c <__vector_1>
       8:	0c 94 bb 03 	jmp	0x776	; 0x776 <__bad_interrupt>
       c:	0c 94 bb 03 	jmp	0x776	; 0x776 <__bad_interrupt>
      10:	0c 94 bb 03 	jmp	0x776	; 0x776 <__bad_interrupt>
      14:	0c 94 bb 03 	jmp	0x776	; 0x776 <__bad_interrupt>
      18:	0c 94 bb 03 	jmp	0x776	; 0x776 <__bad_interrupt>
      1c:	0c 94 bb 03 	jmp	0x776	; 0x776 <__bad_interrupt>
      20:	0c 94 bb 03 	jmp	0x776	; 0x776 <__bad_interrupt>
      24:	0c 94 bb 03 	jmp	0x776	; 0x776 <__bad_interrupt>
      28:	0c 94 bb 03 	jmp	0x776	; 0x776 <__bad_interrupt>
      2c:	0c 94 26 0d 	jmp	0x1a4c	; 0x1a4c <__vector_11>
      30:	0c 94 bb 03 	jmp	0x776	; 0x776 <__bad_interrupt>
      34:	0c 94 bb 03 	jmp	0x776	; 0x776 <__bad_interrupt>
      38:	0c 94 99 0d 	jmp	0x1b32	; 0x1b32 <__vector_14>
      3c:	0c 94 bb 03 	jmp	0x776	; 0x776 <__bad_interrupt>
      40:	0c 94 bb 03 	jmp	0x776	; 0x776 <__bad_interrupt>
      44:	0c 94 bb 03 	jmp	0x776	; 0x776 <__bad_interrupt>
      48:	0c 94 bb 03 	jmp	0x776	; 0x776 <__bad_interrupt>
      4c:	0c 94 bb 03 	jmp	0x776	; 0x776 <__bad_interrupt>
      50:	0c 94 bb 03 	jmp	0x776	; 0x776 <__bad_interrupt>
      54:	0c 94 bb 03 	jmp	0x776	; 0x776 <__bad_interrupt>
      58:	0c 94 bb 03 	jmp	0x776	; 0x776 <__bad_interrupt>
      5c:	0c 94 bb 03 	jmp	0x776	; 0x776 <__bad_interrupt>
      60:	0c 94 bb 03 	jmp	0x776	; 0x776 <__bad_interrupt>
      64:	0c 94 bb 03 	jmp	0x776	; 0x776 <__bad_interrupt>
      68:	0a 0e       	add	r0, r26
      6a:	22 0e       	add	r2, r18
      6c:	3a 0e       	add	r3, r26
      6e:	52 0e       	add	r5, r18
      70:	6a 0e       	add	r6, r26
      72:	82 0e       	add	r8, r18
      74:	9a 0e       	add	r9, r26
      76:	29 1b       	sub	r18, r25
      78:	31 1b       	sub	r19, r17
      7a:	39 1b       	sub	r19, r25
      7c:	41 1b       	sub	r20, r17
      7e:	49 1b       	sub	r20, r25
      80:	51 1b       	sub	r21, r17
      82:	59 1b       	sub	r21, r25
      84:	6e 1b       	sub	r22, r30
      86:	79 1b       	sub	r23, r25
      88:	84 1b       	sub	r24, r20
      8a:	8f 1b       	sub	r24, r31
      8c:	9a 1b       	sub	r25, r26
      8e:	a5 1b       	sub	r26, r21
      90:	b0 1b       	sub	r27, r16
      92:	bb 1b       	sub	r27, r27
      94:	c6 1b       	sub	r28, r22
      96:	d1 1b       	sub	r29, r17
      98:	dc 1b       	sub	r29, r28
      9a:	e7 1b       	sub	r30, r23
      9c:	25 1c       	adc	r2, r5
      9e:	66 1c       	adc	r6, r6
      a0:	a7 1c       	adc	r10, r7
      a2:	e8 1c       	adc	r14, r8
      a4:	29 1d       	adc	r18, r9
      a6:	6a 1d       	adc	r22, r10
      a8:	ab 1d       	adc	r26, r11

000000aa <__trampolines_end>:
      aa:	6e 61       	ori	r22, 0x1E	; 30
      ac:	6e 00       	.word	0x006e	; ????

000000ae <__c.2332>:
      ae:	69 6e 66 00 00 40 7a 10 f3 5a 00 a0 72 4e 18 09     inf..@z..Z..rN..
      be:	00 10 a5 d4 e8 00 00 e8 76 48 17 00 00 e4 0b 54     ........vH.....T
      ce:	02 00 00 ca 9a 3b 00 00 00 e1 f5 05 00 00 80 96     .....;..........
      de:	98 00 00 00 40 42 0f 00 00 00 a0 86 01 00 00 00     ....@B..........
      ee:	10 27 00 00 00 00 e8 03 00 00 00 00 64 00 00 00     .'..........d...
      fe:	00 00 0a 00 00 00 00 00 01 00 00 00 00 00 2c 76     ..............,v
     10e:	d8 88 dc 67 4f 08 23 df c1 df ae 59 e1 b1 b7 96     ...gO.#....Y....
     11e:	e5 e3 e4 53 c6 3a e6 51 99 76 96 e8 e6 c2 84 26     ...S.:.Q.v.....&
     12e:	eb 89 8c 9b 62 ed 40 7c 6f fc ef bc 9c 9f 40 f2     ....b.@|o.....@.
     13e:	ba a5 6f a5 f4 90 05 5a 2a f7 5c 93 6b 6c f9 67     ..o....Z*.\.kl.g
     14e:	6d c1 1b fc e0 e4 0d 47 fe f5 20 e6 b5 00 d0 ed     m......G.. .....
     15e:	90 2e 03 00 94 35 77 05 00 80 84 1e 08 00 00 20     .....5w........ 
     16e:	4e 0a 00 00 00 c8 0c 33 33 33 33 0f 98 6e 12 83     N......3333..n..
     17e:	11 41 ef 8d 21 14 89 3b e6 55 16 cf fe e6 db 18     .A..!..;.U......
     18e:	d1 84 4b 38 1b f7 7c 1d 90 1d a4 bb e4 24 20 32     ..K8..|......$ 2
     19e:	84 72 5e 22 81 00 c9 f1 24 ec a1 e5 3d 27           .r^"....$...='

000001ac <__c.2474>:
     1ac:	63 64 69 6e 6f 70 73 75 78 58 5b 00                 cdinopsuxX[.

000001b8 <Font11_16>:
     1b8:	00 e0 f8 fc 3e 07 03 01 e1 fe fc 3f 7f 87 80 80     ....>......?....
     1c8:	e0 7c 3f 1f 07 00 00 00 00 00 02 e2 fe ff 1f 03     .|?.............
     1d8:	00 80 80 c0 f8 ff ff 87 80 00 00 00 00 00 00 0c     ................
     1e8:	06 03 03 87 ff 7e 1c 80 c0 e0 f0 e8 e4 e3 e1 f0     .....~..........
     1f8:	18 00 00 00 00 80 84 82 c3 c3 7f 3f 1e 60 e0 c0     ...........?.`..
     208:	c0 80 81 43 7f 3f 1e 00 00 00 00 00 80 40 20 f0     ...C.?.......@ .
     218:	f8 fc 1e 10 1c 1a 19 18 f8 fe ff 1f 19 08 00 00     ................
     228:	40 78 f6 e7 e7 c7 87 07 03 60 e0 c0 80 80 41 7f     @x.......`....A.
     238:	3f 0f 00 00 00 c0 e0 f8 78 5c 4e c6 c3 81 01 3f     ?.......x\N....?
     248:	7f ff 81 80 c0 f0 7f 3f 0f 00 08 0e 07 07 07 87     .......?........
     258:	67 1f 07 01 00 80 60 10 0c 03 00 00 00 00 00 00     g.....`.........
     268:	00 00 3c 7e ff e3 c1 c1 7f 3e 1c 3c 7e ff 83 80     ..<~.....>.<~...
     278:	81 c3 7f 7f 1e 00 00 f0 fc fe 0f 03 01 c1 ff fe     ................
     288:	fc 80 c1 c3 63 72 3a 1e 0f 07 03 00 00 00 00 00     ....cr:.........
     298:	00 38 38 38 00 00 00 00 00 00 38 38 38 00 00 00     .888......888...
	...

000002aa <Font7_11>:
     2aa:	80 c0 60 20 60 c0 80 3f 7f c0 80 c0 7f 3f 00 20     ..` `..?.....?. 
     2ba:	20 e0 e0 00 00 00 80 80 ff ff 80 80 80 c0 60 60      .............``
     2ca:	e0 c0 00 80 c0 e0 d8 cf c3 e0 80 40 60 60 e0 c0     ...........@``..
     2da:	00 c0 c0 84 86 8f 7d 38 00 00 00 80 c0 e0 00 38     ......}8.......8
     2ea:	34 32 31 ff ff 30 00 c0 60 60 60 60 20 c2 c3 c3     421..0..```` ...
     2fa:	83 86 4e 3c 00 80 c0 40 60 20 20 3e 7f c3 82 c6     ..N<...@`  >....
     30a:	7c 38 c0 60 60 60 60 e0 20 00 00 80 70 0e 01 00     |8.````. ...p...
     31a:	c0 e0 20 20 20 e0 c0 71 fb 87 86 8e ff 79 80 c0     ..   ..q.....y..
     32a:	60 20 60 c0 80 83 87 cc 48 78 3f 0f 00 00 00 00     ` `.....Hx?.....
     33a:	00 00 00 00 00 c0 c0 00 00 00                       ..........

00000344 <Font4_6>:
     344:	fc 84 84 fc 00 08 fc 00 88 c4 a4 9c 44 84 94 7c     ............D..|
     354:	60 50 fc 40 58 94 94 64 78 94 94 64 00 04 f4 0c     `P.@X..dx..d....
     364:	6c 94 94 6c 98 a4 a4 78 00 80 00 00                 l..l...x....

00000370 <Font5_7>:
	...
     378:	4f 00 00 00 00 07 00 07 00 00 00 14 7f 14 7f 14     O...............
     388:	00 24 2a 7f 2a 12 00 23 13 08 64 62 00 36 49 55     .$*.*..#..db.6IU
     398:	22 40 00 00 05 03 00 00 00 1c 22 41 00 00 00 41     "@........"A...A
     3a8:	22 1c 00 00 00 14 08 3e 08 14 00 08 08 3e 08 08     "......>.....>..
     3b8:	00 a0 60 00 00 00 00 08 08 08 08 08 00 60 60 00     ..`..........``.
     3c8:	00 00 00 20 10 08 04 02 00 3e 51 49 45 3e 00 00     ... .....>QIE>..
     3d8:	42 7f 40 00 00 42 61 51 49 46 00 21 41 45 4b 31     B.@..BaQIF.!AEK1
     3e8:	00 18 14 12 7f 10 00 27 45 45 45 39 00 3c 4a 49     .......'EEE9.<JI
     3f8:	49 30 00 01 71 09 05 03 00 36 49 49 49 36 00 06     I0..q....6III6..
     408:	49 49 29 1e 00 6c 6c 00 00 00 00 00 56 36 00 00     II)..ll.....V6..
     418:	00 08 14 22 41 00 00 24 24 24 24 24 00 00 41 22     ..."A..$$$$$..A"
     428:	14 08 00 02 01 51 09 06 00 32 49 79 41 3e 00 7e     .....Q...2IyA>.~
     438:	11 11 11 7e 00 7f 49 49 49 36 00 3e 41 41 41 22     ...~..III6.>AAA"
     448:	00 7f 41 41 22 1c 00 7f 49 49 49 41 00 7f 09 09     ..AA"...IIIA....
     458:	09 01 00 3e 41 49 49 3a 00 7f 08 08 08 7f 00 00     ...>AII:........
     468:	41 7f 41 00 00 20 40 41 3f 01 00 7f 08 14 22 41     A.A.. @A?....."A
     478:	00 7f 40 40 40 40 00 7f 02 0c 02 7f 00 7f 04 08     ..@@@@..........
     488:	10 7f 00 3e 41 41 41 3e 00 7f 09 09 09 06 00 3e     ...>AAA>.......>
     498:	41 51 21 5e 00 7f 09 19 29 46 00 46 49 49 49 31     AQ!^....)F.FIII1
     4a8:	00 01 01 7f 01 01 00 3f 40 40 40 3f 00 1f 20 40     .......?@@@?.. @
     4b8:	20 1f 00 3f 40 60 40 3f 00 63 14 08 14 63 00 07      ..?@`@?.c...c..
     4c8:	08 70 08 07 00 61 51 49 45 43 00 7f 41 41 00 00     .p...aQIEC..AA..
     4d8:	00 15 16 7c 16 15 00 41 41 7f 00 00 00 04 02 01     ...|...AA.......
     4e8:	02 04 00 40 40 40 40 40 00 01 02 04 00 00 00 20     ...@@@@@....... 
     4f8:	54 54 54 78 00 7f 44 44 44 38 00 38 44 44 44 00     TTTx..DDD8.8DDD.
     508:	00 38 44 44 48 7f 00 38 54 54 54 18 00 10 7e 11     .8DDH..8TTT...~.
     518:	01 02 00 0c 52 52 52 3e 00 7f 08 04 04 78 00 00     ....RRR>.....x..
     528:	44 7d 40 00 00 20 40 40 3d 00 00 7f 10 28 44 00     D}@.. @@=....(D.
     538:	00 00 41 7f 40 00 00 7c 04 18 04 78 00 7c 08 04     ..A.@..|...x.|..
     548:	04 78 00 38 44 44 44 38 00 7c 14 14 14 08 00 08     .x.8DDD8.|......
     558:	14 14 18 7c 00 7c 08 04 04 08 00 48 54 54 54 20     ...|.|.....HTTT 
     568:	00 04 3f 44 40 20 00 3c 40 40 20 7c 00 1c 20 40     ..?D@ .<@@ |.. @
     578:	20 1c 00 1e 20 10 20 1e 00 22 14 08 14 22 00 06      ... . .."..."..
     588:	48 48 48 3e 00 44 64 54 4c 44 00 08 36 41 00 00     HHH>.DdTLD..6A..
     598:	00 00 00 7f 00 00 00 41 36 08 00 00 00 08 08 2a     .......A6......*
     5a8:	1c 08 00 7e 11 11 11 7e 00 7f 49 49 49 33 00 7f     ...~...~..III3..
     5b8:	49 49 49 36 00 7f 01 01 01 03 00 e0 51 4f 41 ff     III6........QOA.
     5c8:	00 7f 49 49 49 41 00 77 08 7f 08 77 00 41 49 49     ..IIIA.w...w.AII
     5d8:	49 36 00 7f 10 08 04 7f 00 7c 21 12 09 7c 00 7f     I6.......|!..|..
     5e8:	08 14 22 41 00 20 41 3f 01 7f 00 7f 02 0c 02 7f     .."A. A?........
     5f8:	00 7f 08 08 08 7f 00 3e 41 41 41 3e 00 7f 01 01     .......>AAA>....
     608:	01 7f 00 7f 09 09 09 06 00 3e 41 41 41 22 00 01     .........>AAA"..
     618:	01 7f 01 01 00 47 28 10 08 07 00 1c 22 7f 22 1c     .....G(.....".".
     628:	00 63 14 08 14 63 00 7f 40 40 40 ff 00 07 08 08     .c...c..@@@.....
     638:	08 7f 00 7f 40 7f 40 7f 00 7f 40 7f 40 ff 00 01     ....@.@...@.@...
     648:	7f 48 48 30 00 7f 48 30 00 7f 00 00 7f 48 48 30     .HH0..H0.....HH0
     658:	00 22 41 49 49 3e 00 7f 08 3e 41 3e 00 46 29 19     ."AII>...>A>.F).
     668:	09 7f 00 20 54 54 54 78 00 3c 4a 4a 49 31 00 7c     ... TTTx.<JJI1.|
     678:	54 54 28 00 00 7c 04 04 04 0c 00 e0 54 4c 44 fc     TT(..|......TLD.
     688:	00 38 54 54 54 18 00 6c 10 7c 10 6c 00 44 44 54     .8TTT..l.|.l.DDT
     698:	54 28 00 7c 20 10 08 7c 00 7c 41 22 11 7c 00 7c     T(.| ..|.|A".|.|
     6a8:	10 28 44 00 00 20 44 3c 04 7c 00 7c 08 10 08 7c     .(D.. D<.|.|...|
     6b8:	00 7c 10 10 10 7c 00 38 44 44 44 38 00 7c 04 04     .|...|.8DDD8.|..
     6c8:	04 7c 00 7c 14 14 14 08 00 38 44 44 44 28 00 04     .|.|.....8DDD(..
     6d8:	04 7c 04 04 00 0c 50 50 50 3c 00 30 48 fc 48 30     .|....PPP<.0H.H0
     6e8:	00 44 28 10 28 44 00 7c 40 40 40 fc 00 0c 10 10     .D(.(D.|@@@.....
     6f8:	10 7c 00 7c 40 7c 40 7c 00 7c 40 7c 40 fc 00 04     .|.|@|@|.|@|@...
     708:	7c 50 50 20 00 7c 50 50 20 7c 00 7c 50 50 20 00     |PP .|PP |.|PP .
     718:	00 28 44 54 54 38 00 7c 10 38 44 38 00 08 54 34     .(DTT8.|.8D8..T4
     728:	14 7c 00 7e 4b 4a 4b 42 00 38 55 54 55 18 00 00     .|.~KJKB.8UTU...
     738:	06 09 09 06                                         ....

0000073c <__ctors_end>:
     73c:	11 24       	eor	r1, r1
     73e:	1f be       	out	0x3f, r1	; 63
     740:	cf ef       	ldi	r28, 0xFF	; 255
     742:	d8 e0       	ldi	r29, 0x08	; 8
     744:	de bf       	out	0x3e, r29	; 62
     746:	cd bf       	out	0x3d, r28	; 61

00000748 <__do_copy_data>:
     748:	12 e0       	ldi	r17, 0x02	; 2
     74a:	a0 e0       	ldi	r26, 0x00	; 0
     74c:	b1 e0       	ldi	r27, 0x01	; 1
     74e:	e8 e6       	ldi	r30, 0x68	; 104
     750:	fd e5       	ldi	r31, 0x5D	; 93
     752:	02 c0       	rjmp	.+4      	; 0x758 <__do_copy_data+0x10>
     754:	05 90       	lpm	r0, Z+
     756:	0d 92       	st	X+, r0
     758:	a4 3f       	cpi	r26, 0xF4	; 244
     75a:	b1 07       	cpc	r27, r17
     75c:	d9 f7       	brne	.-10     	; 0x754 <__do_copy_data+0xc>

0000075e <__do_clear_bss>:
     75e:	28 e0       	ldi	r18, 0x08	; 8
     760:	a4 ef       	ldi	r26, 0xF4	; 244
     762:	b2 e0       	ldi	r27, 0x02	; 2
     764:	01 c0       	rjmp	.+2      	; 0x768 <.do_clear_bss_start>

00000766 <.do_clear_bss_loop>:
     766:	1d 92       	st	X+, r1

00000768 <.do_clear_bss_start>:
     768:	a6 31       	cpi	r26, 0x16	; 22
     76a:	b2 07       	cpc	r27, r18
     76c:	e1 f7       	brne	.-8      	; 0x766 <.do_clear_bss_loop>
     76e:	0e 94 a3 0f 	call	0x1f46	; 0x1f46 <main>
     772:	0c 94 b2 2e 	jmp	0x5d64	; 0x5d64 <_exit>

00000776 <__bad_interrupt>:
     776:	0c 94 00 00 	jmp	0	; 0x0 <__vectors>

0000077a <Read>:
#define BMP180_R 0xEF
#define BMP180_W 0xEE

// чтение регистра 16 бит
uint16_t Read(uint8_t address) 
{
     77a:	0f 93       	push	r16
     77c:	1f 93       	push	r17
     77e:	cf 93       	push	r28
     780:	df 93       	push	r29
     782:	c8 2f       	mov	r28, r24
	uint16_t msb=0;
	uint16_t lsb=0;
	uint16_t data;

	I2C_StartCondition();               // запуск i2c
     784:	0e 94 f8 13 	call	0x27f0	; 0x27f0 <I2C_StartCondition>
	I2C_SendByte(BMP180_W);        // передача адреса устройства, режим записи
     788:	8e ee       	ldi	r24, 0xEE	; 238
     78a:	0e 94 04 14 	call	0x2808	; 0x2808 <I2C_SendByte>
	I2C_SendByte(address);	        // передача адреса памяти
     78e:	8c 2f       	mov	r24, r28
     790:	0e 94 04 14 	call	0x2808	; 0x2808 <I2C_SendByte>
	I2C_StopCondition();                // остановка i2c
     794:	0e 94 00 14 	call	0x2800	; 0x2800 <I2C_StopCondition>

	I2C_StartCondition();               // запуск i2c
     798:	0e 94 f8 13 	call	0x27f0	; 0x27f0 <I2C_StartCondition>
	I2C_SendByte(BMP180_R);        // передача адреса устройства, режим чтения
     79c:	8f ee       	ldi	r24, 0xEF	; 239
     79e:	0e 94 04 14 	call	0x2808	; 0x2808 <I2C_SendByte>
	msb = I2C_ReadByte();
     7a2:	0e 94 0e 14 	call	0x281c	; 0x281c <I2C_ReadByte>
     7a6:	c8 2f       	mov	r28, r24
     7a8:	d0 e0       	ldi	r29, 0x00	; 0
	lsb = I2C_ReadLastByte();
     7aa:	0e 94 18 14 	call	0x2830	; 0x2830 <I2C_ReadLastByte>
     7ae:	08 2f       	mov	r16, r24
     7b0:	10 e0       	ldi	r17, 0x00	; 0
	I2C_StopCondition();                // остановка i2c
     7b2:	0e 94 00 14 	call	0x2800	; 0x2800 <I2C_StopCondition>

	data = (uint16_t)((msb << 8) + lsb);
     7b6:	9c 2f       	mov	r25, r28
     7b8:	88 27       	eor	r24, r24
	return data;
}
     7ba:	80 0f       	add	r24, r16
     7bc:	91 1f       	adc	r25, r17
     7be:	df 91       	pop	r29
     7c0:	cf 91       	pop	r28
     7c2:	1f 91       	pop	r17
     7c4:	0f 91       	pop	r16
     7c6:	08 95       	ret

000007c8 <BMP180_Calibration>:
// получить данные для калибровки
void BMP180_Calibration (void) 
{
	ac1 = Read(0xAA);
     7c8:	8a ea       	ldi	r24, 0xAA	; 170
     7ca:	0e 94 bd 03 	call	0x77a	; 0x77a <Read>
     7ce:	90 93 c7 07 	sts	0x07C7, r25	; 0x8007c7 <ac1+0x1>
     7d2:	80 93 c6 07 	sts	0x07C6, r24	; 0x8007c6 <ac1>
	ac2 = Read(0xAC);
     7d6:	8c ea       	ldi	r24, 0xAC	; 172
     7d8:	0e 94 bd 03 	call	0x77a	; 0x77a <Read>
     7dc:	90 93 cf 07 	sts	0x07CF, r25	; 0x8007cf <ac2+0x1>
     7e0:	80 93 ce 07 	sts	0x07CE, r24	; 0x8007ce <ac2>
	ac3 = Read(0xAE);
     7e4:	8e ea       	ldi	r24, 0xAE	; 174
     7e6:	0e 94 bd 03 	call	0x77a	; 0x77a <Read>
     7ea:	90 93 df 07 	sts	0x07DF, r25	; 0x8007df <ac3+0x1>
     7ee:	80 93 de 07 	sts	0x07DE, r24	; 0x8007de <ac3>
	ac4 = Read(0xB0);
     7f2:	80 eb       	ldi	r24, 0xB0	; 176
     7f4:	0e 94 bd 03 	call	0x77a	; 0x77a <Read>
     7f8:	90 93 d3 07 	sts	0x07D3, r25	; 0x8007d3 <ac4+0x1>
     7fc:	80 93 d2 07 	sts	0x07D2, r24	; 0x8007d2 <ac4>
	ac5 = Read(0xB2);
     800:	82 eb       	ldi	r24, 0xB2	; 178
     802:	0e 94 bd 03 	call	0x77a	; 0x77a <Read>
     806:	90 93 cd 07 	sts	0x07CD, r25	; 0x8007cd <ac5+0x1>
     80a:	80 93 cc 07 	sts	0x07CC, r24	; 0x8007cc <ac5>
	ac6 = Read(0xB4);
     80e:	84 eb       	ldi	r24, 0xB4	; 180
     810:	0e 94 bd 03 	call	0x77a	; 0x77a <Read>
     814:	90 93 cb 07 	sts	0x07CB, r25	; 0x8007cb <ac6+0x1>
     818:	80 93 ca 07 	sts	0x07CA, r24	; 0x8007ca <ac6>
	b1  = Read(0xB6);
     81c:	86 eb       	ldi	r24, 0xB6	; 182
     81e:	0e 94 bd 03 	call	0x77a	; 0x77a <Read>
     822:	90 93 c9 07 	sts	0x07C9, r25	; 0x8007c9 <b1+0x1>
     826:	80 93 c8 07 	sts	0x07C8, r24	; 0x8007c8 <b1>
	b2  = Read(0xB8);
     82a:	88 eb       	ldi	r24, 0xB8	; 184
     82c:	0e 94 bd 03 	call	0x77a	; 0x77a <Read>
     830:	90 93 c3 07 	sts	0x07C3, r25	; 0x8007c3 <b2+0x1>
     834:	80 93 c2 07 	sts	0x07C2, r24	; 0x8007c2 <b2>
	mb  = Read(0xBA);
     838:	8a eb       	ldi	r24, 0xBA	; 186
     83a:	0e 94 bd 03 	call	0x77a	; 0x77a <Read>
     83e:	90 93 c5 07 	sts	0x07C5, r25	; 0x8007c5 <mb+0x1>
     842:	80 93 c4 07 	sts	0x07C4, r24	; 0x8007c4 <mb>
	mc  = Read(0xBC);
     846:	8c eb       	ldi	r24, 0xBC	; 188
     848:	0e 94 bd 03 	call	0x77a	; 0x77a <Read>
     84c:	90 93 d5 07 	sts	0x07D5, r25	; 0x8007d5 <mc+0x1>
     850:	80 93 d4 07 	sts	0x07D4, r24	; 0x8007d4 <mc>
	md  = Read(0xBE);
     854:	8e eb       	ldi	r24, 0xBE	; 190
     856:	0e 94 bd 03 	call	0x77a	; 0x77a <Read>
     85a:	90 93 d1 07 	sts	0x07D1, r25	; 0x8007d1 <md+0x1>
     85e:	80 93 d0 07 	sts	0x07D0, r24	; 0x8007d0 <md>
     862:	08 95       	ret

00000864 <BMP180_get_temper>:
	md = 2705;*/
}
// прочитать значение температуры
int32_t BMP180_get_temper(void)
{
	I2C_StartCondition();               // запуск i2c
     864:	0e 94 f8 13 	call	0x27f0	; 0x27f0 <I2C_StartCondition>
	I2C_SendByte(BMP180_W);        // передача адреса устройства, режим записи
     868:	8e ee       	ldi	r24, 0xEE	; 238
     86a:	0e 94 04 14 	call	0x2808	; 0x2808 <I2C_SendByte>
	I2C_SendByte(0xF4);	        // передача адреса памяти
     86e:	84 ef       	ldi	r24, 0xF4	; 244
     870:	0e 94 04 14 	call	0x2808	; 0x2808 <I2C_SendByte>
	I2C_SendByte(0x2E);	        // передача разрешения (oss) адреса памяти температуры (можно так же как для давления)
     874:	8e e2       	ldi	r24, 0x2E	; 46
     876:	0e 94 04 14 	call	0x2808	; 0x2808 <I2C_SendByte>
	I2C_StopCondition();                // остановка i2c
     87a:	0e 94 00 14 	call	0x2800	; 0x2800 <I2C_StopCondition>
	#else
		//round up by default
		__ticks_dc = (uint32_t)(ceil(fabs(__tmp)));
	#endif

	__builtin_avr_delay_cycles(__ticks_dc);
     87e:	8f e0       	ldi	r24, 0x0F	; 15
     880:	97 e2       	ldi	r25, 0x27	; 39
     882:	01 97       	sbiw	r24, 0x01	; 1
     884:	f1 f7       	brne	.-4      	; 0x882 <BMP180_get_temper+0x1e>
     886:	00 c0       	rjmp	.+0      	; 0x888 <BMP180_get_temper+0x24>
     888:	00 00       	nop

	_delay_ms(5);                   // время на замер (от 5 до 26 мс в зависимости от разрешения (oss))

	return Read(0xF6);     // вычислить температуру
     88a:	86 ef       	ldi	r24, 0xF6	; 246
     88c:	0e 94 bd 03 	call	0x77a	; 0x77a <Read>
     890:	bc 01       	movw	r22, r24
     892:	80 e0       	ldi	r24, 0x00	; 0
     894:	90 e0       	ldi	r25, 0x00	; 0
}
     896:	08 95       	ret

00000898 <BMP180_get_pressure>:
// прочитать значение атмосферного давления
int32_t BMP180_get_pressure()
{
	I2C_StartCondition();               // запуск i2c
     898:	0e 94 f8 13 	call	0x27f0	; 0x27f0 <I2C_StartCondition>
	I2C_SendByte(BMP180_W);        // передача адреса устройства, режим записи
     89c:	8e ee       	ldi	r24, 0xEE	; 238
     89e:	0e 94 04 14 	call	0x2808	; 0x2808 <I2C_SendByte>
	I2C_SendByte(0xF4);	        // передача адреса памяти
     8a2:	84 ef       	ldi	r24, 0xF4	; 244
     8a4:	0e 94 04 14 	call	0x2808	; 0x2808 <I2C_SendByte>
	I2C_SendByte(0x34+(OSS<<6));	// передача разрешения (oss) адреса памяти температуры
     8a8:	84 ef       	ldi	r24, 0xF4	; 244
     8aa:	0e 94 04 14 	call	0x2808	; 0x2808 <I2C_SendByte>
	I2C_StopCondition();                // остановка i2c
     8ae:	0e 94 00 14 	call	0x2800	; 0x2800 <I2C_StopCondition>
     8b2:	8f e1       	ldi	r24, 0x1F	; 31
     8b4:	9b ec       	ldi	r25, 0xCB	; 203
     8b6:	01 97       	sbiw	r24, 0x01	; 1
     8b8:	f1 f7       	brne	.-4      	; 0x8b6 <BMP180_get_pressure+0x1e>
     8ba:	00 c0       	rjmp	.+0      	; 0x8bc <BMP180_get_pressure+0x24>
     8bc:	00 00       	nop

	_delay_ms(26);                  // время на замер (от 5 до 26 мс в зависимости от разрешения (oss))
	
	I2C_StartCondition();               // запуск i2c
     8be:	0e 94 f8 13 	call	0x27f0	; 0x27f0 <I2C_StartCondition>
	I2C_SendByte(BMP180_W);        // передача адреса устройства, режим записи
     8c2:	8e ee       	ldi	r24, 0xEE	; 238
     8c4:	0e 94 04 14 	call	0x2808	; 0x2808 <I2C_SendByte>
	I2C_SendByte(0xF6);	        // передача адреса памяти
     8c8:	86 ef       	ldi	r24, 0xF6	; 246
     8ca:	0e 94 04 14 	call	0x2808	; 0x2808 <I2C_SendByte>
	I2C_StopCondition();                // остановка i2c
     8ce:	0e 94 00 14 	call	0x2800	; 0x2800 <I2C_StopCondition>

	I2C_StartCondition();               // запуск i2c
     8d2:	0e 94 f8 13 	call	0x27f0	; 0x27f0 <I2C_StartCondition>
	I2C_SendByte(BMP180_R);        // передача адреса устройства, режим чтения
     8d6:	8f ee       	ldi	r24, 0xEF	; 239
     8d8:	0e 94 04 14 	call	0x2808	; 0x2808 <I2C_SendByte>
	D1=I2C_ReadByte();             // MSB
     8dc:	0e 94 0e 14 	call	0x281c	; 0x281c <I2C_ReadByte>
     8e0:	90 e0       	ldi	r25, 0x00	; 0
     8e2:	a0 e0       	ldi	r26, 0x00	; 0
     8e4:	b0 e0       	ldi	r27, 0x00	; 0
     8e6:	80 93 da 07 	sts	0x07DA, r24	; 0x8007da <D1>
     8ea:	90 93 db 07 	sts	0x07DB, r25	; 0x8007db <D1+0x1>
     8ee:	a0 93 dc 07 	sts	0x07DC, r26	; 0x8007dc <D1+0x2>
     8f2:	b0 93 dd 07 	sts	0x07DD, r27	; 0x8007dd <D1+0x3>
	D2=I2C_ReadByte();             // LSB
     8f6:	0e 94 0e 14 	call	0x281c	; 0x281c <I2C_ReadByte>
     8fa:	90 e0       	ldi	r25, 0x00	; 0
     8fc:	a0 e0       	ldi	r26, 0x00	; 0
     8fe:	b0 e0       	ldi	r27, 0x00	; 0
     900:	80 93 d6 07 	sts	0x07D6, r24	; 0x8007d6 <D2>
     904:	90 93 d7 07 	sts	0x07D7, r25	; 0x8007d7 <D2+0x1>
     908:	a0 93 d8 07 	sts	0x07D8, r26	; 0x8007d8 <D2+0x2>
     90c:	b0 93 d9 07 	sts	0x07D9, r27	; 0x8007d9 <D2+0x3>
	D3=I2C_ReadLastByte();             // XLSB
     910:	0e 94 18 14 	call	0x2830	; 0x2830 <I2C_ReadLastByte>
     914:	90 e0       	ldi	r25, 0x00	; 0
     916:	a0 e0       	ldi	r26, 0x00	; 0
     918:	b0 e0       	ldi	r27, 0x00	; 0
     91a:	80 93 be 07 	sts	0x07BE, r24	; 0x8007be <D3>
     91e:	90 93 bf 07 	sts	0x07BF, r25	; 0x8007bf <D3+0x1>
     922:	a0 93 c0 07 	sts	0x07C0, r26	; 0x8007c0 <D3+0x2>
     926:	b0 93 c1 07 	sts	0x07C1, r27	; 0x8007c1 <D3+0x3>
	I2C_StopCondition();                // остановка i2c
     92a:	0e 94 00 14 	call	0x2800	; 0x2800 <I2C_StopCondition>
	

	return (int32_t)(((D1 << 16) + (D2 << 8) + D3) >> (8-OSS));  // вычислить давление (в Па ?)
     92e:	40 91 da 07 	lds	r20, 0x07DA	; 0x8007da <D1>
     932:	50 91 db 07 	lds	r21, 0x07DB	; 0x8007db <D1+0x1>
     936:	60 91 dc 07 	lds	r22, 0x07DC	; 0x8007dc <D1+0x2>
     93a:	70 91 dd 07 	lds	r23, 0x07DD	; 0x8007dd <D1+0x3>
     93e:	ba 01       	movw	r22, r20
     940:	55 27       	eor	r21, r21
     942:	44 27       	eor	r20, r20
     944:	80 91 d6 07 	lds	r24, 0x07D6	; 0x8007d6 <D2>
     948:	90 91 d7 07 	lds	r25, 0x07D7	; 0x8007d7 <D2+0x1>
     94c:	a0 91 d8 07 	lds	r26, 0x07D8	; 0x8007d8 <D2+0x2>
     950:	b0 91 d9 07 	lds	r27, 0x07D9	; 0x8007d9 <D2+0x3>
     954:	ba 2f       	mov	r27, r26
     956:	a9 2f       	mov	r26, r25
     958:	98 2f       	mov	r25, r24
     95a:	88 27       	eor	r24, r24
     95c:	48 0f       	add	r20, r24
     95e:	59 1f       	adc	r21, r25
     960:	6a 1f       	adc	r22, r26
     962:	7b 1f       	adc	r23, r27
     964:	80 91 be 07 	lds	r24, 0x07BE	; 0x8007be <D3>
     968:	90 91 bf 07 	lds	r25, 0x07BF	; 0x8007bf <D3+0x1>
     96c:	a0 91 c0 07 	lds	r26, 0x07C0	; 0x8007c0 <D3+0x2>
     970:	b0 91 c1 07 	lds	r27, 0x07C1	; 0x8007c1 <D3+0x3>
     974:	84 0f       	add	r24, r20
     976:	95 1f       	adc	r25, r21
     978:	a6 1f       	adc	r26, r22
     97a:	b7 1f       	adc	r27, r23
     97c:	bc 01       	movw	r22, r24
     97e:	cd 01       	movw	r24, r26
     980:	68 94       	set
     982:	14 f8       	bld	r1, 4
     984:	96 95       	lsr	r25
     986:	87 95       	ror	r24
     988:	77 95       	ror	r23
     98a:	67 95       	ror	r22
     98c:	16 94       	lsr	r1
     98e:	d1 f7       	brne	.-12     	; 0x984 <__stack+0x85>
}
     990:	08 95       	ret

00000992 <BMP180_calculation>:
// получить значения температуры и атмосферного давления с учетом калибровочных коэффициентов
int32_t BMP180_calculation () 
{
     992:	4f 92       	push	r4
     994:	5f 92       	push	r5
     996:	6f 92       	push	r6
     998:	7f 92       	push	r7
     99a:	8f 92       	push	r8
     99c:	9f 92       	push	r9
     99e:	af 92       	push	r10
     9a0:	bf 92       	push	r11
     9a2:	cf 92       	push	r12
     9a4:	df 92       	push	r13
     9a6:	ef 92       	push	r14
     9a8:	ff 92       	push	r15
     9aa:	0f 93       	push	r16
     9ac:	1f 93       	push	r17
     9ae:	cf 93       	push	r28
     9b0:	df 93       	push	r29
     9b2:	00 d0       	rcall	.+0      	; 0x9b4 <BMP180_calculation+0x22>
     9b4:	00 d0       	rcall	.+0      	; 0x9b6 <BMP180_calculation+0x24>
     9b6:	cd b7       	in	r28, 0x3d	; 61
     9b8:	de b7       	in	r29, 0x3e	; 62
	int32_t ut=0;
	int32_t up=0;
	int32_t x1, x2, b5, b6, x3, b3, p;
	uint32_t b4, b7;

	ut += BMP180_get_temper();
     9ba:	0e 94 32 04 	call	0x864	; 0x864 <BMP180_get_temper>
     9be:	6b 01       	movw	r12, r22
     9c0:	7c 01       	movw	r14, r24

	up = BMP180_get_pressure();
     9c2:	0e 94 4c 04 	call	0x898	; 0x898 <BMP180_get_pressure>
     9c6:	69 83       	std	Y+1, r22	; 0x01
     9c8:	7a 83       	std	Y+2, r23	; 0x02
     9ca:	8b 83       	std	Y+3, r24	; 0x03
     9cc:	9c 83       	std	Y+4, r25	; 0x04

	x1 = ((int32_t)ut - (int32_t)ac6) * (int32_t)ac5 >> 15;
     9ce:	80 91 ca 07 	lds	r24, 0x07CA	; 0x8007ca <ac6>
     9d2:	90 91 cb 07 	lds	r25, 0x07CB	; 0x8007cb <ac6+0x1>
     9d6:	a7 01       	movw	r20, r14
     9d8:	96 01       	movw	r18, r12
     9da:	28 1b       	sub	r18, r24
     9dc:	39 0b       	sbc	r19, r25
     9de:	41 09       	sbc	r20, r1
     9e0:	51 09       	sbc	r21, r1
     9e2:	a0 91 cc 07 	lds	r26, 0x07CC	; 0x8007cc <ac5>
     9e6:	b0 91 cd 07 	lds	r27, 0x07CD	; 0x8007cd <ac5+0x1>
     9ea:	0e 94 60 29 	call	0x52c0	; 0x52c0 <__muluhisi3>
     9ee:	2b 01       	movw	r4, r22
     9f0:	3c 01       	movw	r6, r24
     9f2:	03 2e       	mov	r0, r19
     9f4:	3f e0       	ldi	r19, 0x0F	; 15
     9f6:	75 94       	asr	r7
     9f8:	67 94       	ror	r6
     9fa:	57 94       	ror	r5
     9fc:	47 94       	ror	r4
     9fe:	3a 95       	dec	r19
     a00:	d1 f7       	brne	.-12     	; 0x9f6 <BMP180_calculation+0x64>
     a02:	30 2d       	mov	r19, r0
	x2 = ((int32_t)mc << 11) / (x1 + md);
     a04:	60 91 d4 07 	lds	r22, 0x07D4	; 0x8007d4 <mc>
     a08:	70 91 d5 07 	lds	r23, 0x07D5	; 0x8007d5 <mc+0x1>
     a0c:	cb 01       	movw	r24, r22
     a0e:	77 0f       	add	r23, r23
     a10:	aa 0b       	sbc	r26, r26
     a12:	bb 0b       	sbc	r27, r27
     a14:	bc 01       	movw	r22, r24
     a16:	cd 01       	movw	r24, r26
     a18:	05 2e       	mov	r0, r21
     a1a:	5b e0       	ldi	r21, 0x0B	; 11
     a1c:	66 0f       	add	r22, r22
     a1e:	77 1f       	adc	r23, r23
     a20:	88 1f       	adc	r24, r24
     a22:	99 1f       	adc	r25, r25
     a24:	5a 95       	dec	r21
     a26:	d1 f7       	brne	.-12     	; 0xa1c <BMP180_calculation+0x8a>
     a28:	50 2d       	mov	r21, r0
     a2a:	20 91 d0 07 	lds	r18, 0x07D0	; 0x8007d0 <md>
     a2e:	30 91 d1 07 	lds	r19, 0x07D1	; 0x8007d1 <md+0x1>
     a32:	89 01       	movw	r16, r18
     a34:	33 0f       	add	r19, r19
     a36:	22 0b       	sbc	r18, r18
     a38:	33 0b       	sbc	r19, r19
     a3a:	a9 01       	movw	r20, r18
     a3c:	98 01       	movw	r18, r16
     a3e:	24 0d       	add	r18, r4
     a40:	35 1d       	adc	r19, r5
     a42:	46 1d       	adc	r20, r6
     a44:	57 1d       	adc	r21, r7
     a46:	0e 94 3b 29 	call	0x5276	; 0x5276 <__divmodsi4>
	b5 = x1 + x2;
     a4a:	42 0e       	add	r4, r18
     a4c:	53 1e       	adc	r5, r19
     a4e:	64 1e       	adc	r6, r20
     a50:	75 1e       	adc	r7, r21
	//*temperature = (b5 + 8) >> 4;
	
	b6 = b5 - 4000;
     a52:	80 ea       	ldi	r24, 0xA0	; 160
     a54:	48 1a       	sub	r4, r24
     a56:	8f e0       	ldi	r24, 0x0F	; 15
     a58:	58 0a       	sbc	r5, r24
     a5a:	61 08       	sbc	r6, r1
     a5c:	71 08       	sbc	r7, r1
	x1 = (b2 * ((b6 * b6) >> 12)) >> 11;
     a5e:	a3 01       	movw	r20, r6
     a60:	92 01       	movw	r18, r4
     a62:	c3 01       	movw	r24, r6
     a64:	b2 01       	movw	r22, r4
     a66:	0e 94 09 29 	call	0x5212	; 0x5212 <__mulsi3>
     a6a:	4b 01       	movw	r8, r22
     a6c:	5c 01       	movw	r10, r24
     a6e:	07 2e       	mov	r0, r23
     a70:	7c e0       	ldi	r23, 0x0C	; 12
     a72:	b5 94       	asr	r11
     a74:	a7 94       	ror	r10
     a76:	97 94       	ror	r9
     a78:	87 94       	ror	r8
     a7a:	7a 95       	dec	r23
     a7c:	d1 f7       	brne	.-12     	; 0xa72 <BMP180_calculation+0xe0>
     a7e:	70 2d       	mov	r23, r0
     a80:	a0 91 c2 07 	lds	r26, 0x07C2	; 0x8007c2 <b2>
     a84:	b0 91 c3 07 	lds	r27, 0x07C3	; 0x8007c3 <b2+0x1>
     a88:	a5 01       	movw	r20, r10
     a8a:	94 01       	movw	r18, r8
     a8c:	0e 94 6b 29 	call	0x52d6	; 0x52d6 <__mulshisi3>
     a90:	6b 01       	movw	r12, r22
     a92:	7c 01       	movw	r14, r24
     a94:	0b 2e       	mov	r0, r27
     a96:	bb e0       	ldi	r27, 0x0B	; 11
     a98:	f5 94       	asr	r15
     a9a:	e7 94       	ror	r14
     a9c:	d7 94       	ror	r13
     a9e:	c7 94       	ror	r12
     aa0:	ba 95       	dec	r27
     aa2:	d1 f7       	brne	.-12     	; 0xa98 <BMP180_calculation+0x106>
     aa4:	b0 2d       	mov	r27, r0
	x2 = (ac2 * b6) >> 11;
     aa6:	a0 91 ce 07 	lds	r26, 0x07CE	; 0x8007ce <ac2>
     aaa:	b0 91 cf 07 	lds	r27, 0x07CF	; 0x8007cf <ac2+0x1>
     aae:	a3 01       	movw	r20, r6
     ab0:	92 01       	movw	r18, r4
     ab2:	0e 94 6b 29 	call	0x52d6	; 0x52d6 <__mulshisi3>
     ab6:	dc 01       	movw	r26, r24
     ab8:	cb 01       	movw	r24, r22
     aba:	07 2e       	mov	r0, r23
     abc:	7b e0       	ldi	r23, 0x0B	; 11
     abe:	b5 95       	asr	r27
     ac0:	a7 95       	ror	r26
     ac2:	97 95       	ror	r25
     ac4:	87 95       	ror	r24
     ac6:	7a 95       	dec	r23
     ac8:	d1 f7       	brne	.-12     	; 0xabe <BMP180_calculation+0x12c>
     aca:	70 2d       	mov	r23, r0
	x3 = x1 + x2;
     acc:	c8 0e       	add	r12, r24
     ace:	d9 1e       	adc	r13, r25
     ad0:	ea 1e       	adc	r14, r26
     ad2:	fb 1e       	adc	r15, r27
	b3 = (((((int32_t) ac1) * 4 + x3)<<OSS) + 2)>> 2;
     ad4:	80 91 c6 07 	lds	r24, 0x07C6	; 0x8007c6 <ac1>
     ad8:	90 91 c7 07 	lds	r25, 0x07C7	; 0x8007c7 <ac1+0x1>
     adc:	09 2e       	mov	r0, r25
     ade:	00 0c       	add	r0, r0
     ae0:	aa 0b       	sbc	r26, r26
     ae2:	bb 0b       	sbc	r27, r27
     ae4:	88 0f       	add	r24, r24
     ae6:	99 1f       	adc	r25, r25
     ae8:	aa 1f       	adc	r26, r26
     aea:	bb 1f       	adc	r27, r27
     aec:	88 0f       	add	r24, r24
     aee:	99 1f       	adc	r25, r25
     af0:	aa 1f       	adc	r26, r26
     af2:	bb 1f       	adc	r27, r27
     af4:	c8 0e       	add	r12, r24
     af6:	d9 1e       	adc	r13, r25
     af8:	ea 1e       	adc	r14, r26
     afa:	fb 1e       	adc	r15, r27
     afc:	cc 0c       	add	r12, r12
     afe:	dd 1c       	adc	r13, r13
     b00:	ee 1c       	adc	r14, r14
     b02:	ff 1c       	adc	r15, r15
	x1 = (ac3 * b6) >> 13;
     b04:	a0 91 de 07 	lds	r26, 0x07DE	; 0x8007de <ac3>
     b08:	b0 91 df 07 	lds	r27, 0x07DF	; 0x8007df <ac3+0x1>
     b0c:	0e 94 6b 29 	call	0x52d6	; 0x52d6 <__mulshisi3>
     b10:	2b 01       	movw	r4, r22
     b12:	3c 01       	movw	r6, r24
     b14:	03 2e       	mov	r0, r19
     b16:	3d e0       	ldi	r19, 0x0D	; 13
     b18:	75 94       	asr	r7
     b1a:	67 94       	ror	r6
     b1c:	57 94       	ror	r5
     b1e:	47 94       	ror	r4
     b20:	3a 95       	dec	r19
     b22:	d1 f7       	brne	.-12     	; 0xb18 <BMP180_calculation+0x186>
     b24:	30 2d       	mov	r19, r0
	x2 = (b1 * ((b6 * b6) >> 12)) >> 16;
     b26:	a0 91 c8 07 	lds	r26, 0x07C8	; 0x8007c8 <b1>
     b2a:	b0 91 c9 07 	lds	r27, 0x07C9	; 0x8007c9 <b1+0x1>
     b2e:	a5 01       	movw	r20, r10
     b30:	94 01       	movw	r18, r8
     b32:	0e 94 6b 29 	call	0x52d6	; 0x52d6 <__mulshisi3>
     b36:	bb 27       	eor	r27, r27
     b38:	97 fd       	sbrc	r25, 7
     b3a:	b0 95       	com	r27
     b3c:	ab 2f       	mov	r26, r27
	x3 = ((x1 + x2) + 2) >> 2;
     b3e:	84 0d       	add	r24, r4
     b40:	95 1d       	adc	r25, r5
     b42:	a6 1d       	adc	r26, r6
     b44:	b7 1d       	adc	r27, r7
     b46:	02 96       	adiw	r24, 0x02	; 2
     b48:	a1 1d       	adc	r26, r1
     b4a:	b1 1d       	adc	r27, r1
     b4c:	b5 95       	asr	r27
     b4e:	a7 95       	ror	r26
     b50:	97 95       	ror	r25
     b52:	87 95       	ror	r24
     b54:	b5 95       	asr	r27
     b56:	a7 95       	ror	r26
     b58:	97 95       	ror	r25
     b5a:	87 95       	ror	r24
	b4 = (ac4 * (uint32_t) (x3 + 32768)) >> 15;
     b5c:	9c 01       	movw	r18, r24
     b5e:	ad 01       	movw	r20, r26
     b60:	30 58       	subi	r19, 0x80	; 128
     b62:	4f 4f       	sbci	r20, 0xFF	; 255
     b64:	5f 4f       	sbci	r21, 0xFF	; 255
     b66:	a0 91 d2 07 	lds	r26, 0x07D2	; 0x8007d2 <ac4>
     b6a:	b0 91 d3 07 	lds	r27, 0x07D3	; 0x8007d3 <ac4+0x1>
     b6e:	0e 94 60 29 	call	0x52c0	; 0x52c0 <__muluhisi3>
     b72:	2b 01       	movw	r4, r22
     b74:	3c 01       	movw	r6, r24
     b76:	03 2e       	mov	r0, r19
     b78:	3f e0       	ldi	r19, 0x0F	; 15
     b7a:	76 94       	lsr	r7
     b7c:	67 94       	ror	r6
     b7e:	57 94       	ror	r5
     b80:	47 94       	ror	r4
     b82:	3a 95       	dec	r19
     b84:	d1 f7       	brne	.-12     	; 0xb7a <BMP180_calculation+0x1e8>
     b86:	30 2d       	mov	r19, r0
	b7 = ((uint32_t) (up - b3) * (50000 >> OSS));
     b88:	29 81       	ldd	r18, Y+1	; 0x01
     b8a:	3a 81       	ldd	r19, Y+2	; 0x02
     b8c:	4b 81       	ldd	r20, Y+3	; 0x03
     b8e:	5c 81       	ldd	r21, Y+4	; 0x04
     b90:	2c 19       	sub	r18, r12
     b92:	3d 09       	sbc	r19, r13
     b94:	4e 09       	sbc	r20, r14
     b96:	5f 09       	sbc	r21, r15
     b98:	aa e6       	ldi	r26, 0x6A	; 106
     b9a:	b8 e1       	ldi	r27, 0x18	; 24
     b9c:	0e 94 60 29 	call	0x52c0	; 0x52c0 <__muluhisi3>
	//p = b7 < 0x80000000 ? (b7 * 2) / b4 : (b7 / b4) * 2;
	
	if (b7 < 0x80000000)
     ba0:	99 23       	and	r25, r25
     ba2:	5c f0       	brlt	.+22     	; 0xbba <BMP180_calculation+0x228>
	{
		p = (b7 << 1) / b4;
     ba4:	66 0f       	add	r22, r22
     ba6:	77 1f       	adc	r23, r23
     ba8:	88 1f       	adc	r24, r24
     baa:	99 1f       	adc	r25, r25
     bac:	a3 01       	movw	r20, r6
     bae:	92 01       	movw	r18, r4
     bb0:	0e 94 19 29 	call	0x5232	; 0x5232 <__udivmodsi4>
     bb4:	29 01       	movw	r4, r18
     bb6:	3a 01       	movw	r6, r20
     bb8:	0a c0       	rjmp	.+20     	; 0xbce <BMP180_calculation+0x23c>
	}
	else
	{
		p = (b7 / b4) << 1;
     bba:	a3 01       	movw	r20, r6
     bbc:	92 01       	movw	r18, r4
     bbe:	0e 94 19 29 	call	0x5232	; 0x5232 <__udivmodsi4>
     bc2:	29 01       	movw	r4, r18
     bc4:	3a 01       	movw	r6, r20
     bc6:	44 0c       	add	r4, r4
     bc8:	55 1c       	adc	r5, r5
     bca:	66 1c       	adc	r6, r6
     bcc:	77 1c       	adc	r7, r7
	}

	x1 = (p / (pow(2,8))) * (p / (pow(2,8)));
     bce:	c3 01       	movw	r24, r6
     bd0:	b2 01       	movw	r22, r4
     bd2:	0e 94 6a 24 	call	0x48d4	; 0x48d4 <__floatsisf>
     bd6:	6b 01       	movw	r12, r22
     bd8:	7c 01       	movw	r14, r24
     bda:	20 e0       	ldi	r18, 0x00	; 0
     bdc:	30 e0       	ldi	r19, 0x00	; 0
     bde:	40 e8       	ldi	r20, 0x80	; 128
     be0:	5b e3       	ldi	r21, 0x3B	; 59
     be2:	0e 94 1f 25 	call	0x4a3e	; 0x4a3e <__mulsf3>
     be6:	9b 01       	movw	r18, r22
     be8:	ac 01       	movw	r20, r24
     bea:	0e 94 1f 25 	call	0x4a3e	; 0x4a3e <__mulsf3>
     bee:	0e 94 32 24 	call	0x4864	; 0x4864 <__fixsfsi>
     bf2:	9b 01       	movw	r18, r22
     bf4:	ac 01       	movw	r20, r24
	x1 = (x1 * 3038) / (pow(2,16));
     bf6:	ae ed       	ldi	r26, 0xDE	; 222
     bf8:	bb e0       	ldi	r27, 0x0B	; 11
     bfa:	0e 94 60 29 	call	0x52c0	; 0x52c0 <__muluhisi3>
     bfe:	0e 94 6a 24 	call	0x48d4	; 0x48d4 <__floatsisf>
     c02:	20 e0       	ldi	r18, 0x00	; 0
     c04:	30 e0       	ldi	r19, 0x00	; 0
     c06:	40 e8       	ldi	r20, 0x80	; 128
     c08:	57 e3       	ldi	r21, 0x37	; 55
     c0a:	0e 94 1f 25 	call	0x4a3e	; 0x4a3e <__mulsf3>
     c0e:	0e 94 32 24 	call	0x4864	; 0x4864 <__fixsfsi>
     c12:	4b 01       	movw	r8, r22
     c14:	5c 01       	movw	r10, r24
	x2 = (-7357 * p) / (pow(2,16));
     c16:	a3 e4       	ldi	r26, 0x43	; 67
     c18:	b3 ee       	ldi	r27, 0xE3	; 227
     c1a:	a3 01       	movw	r20, r6
     c1c:	92 01       	movw	r18, r4
     c1e:	0e 94 6e 29 	call	0x52dc	; 0x52dc <__mulohisi3>
     c22:	0e 94 6a 24 	call	0x48d4	; 0x48d4 <__floatsisf>
     c26:	20 e0       	ldi	r18, 0x00	; 0
     c28:	30 e0       	ldi	r19, 0x00	; 0
     c2a:	40 e8       	ldi	r20, 0x80	; 128
     c2c:	57 e3       	ldi	r21, 0x37	; 55
     c2e:	0e 94 1f 25 	call	0x4a3e	; 0x4a3e <__mulsf3>
     c32:	0e 94 32 24 	call	0x4864	; 0x4864 <__fixsfsi>
	pressure = p + ((x1 + x2 + 3791) / (pow(2,4)));
     c36:	dc 01       	movw	r26, r24
     c38:	cb 01       	movw	r24, r22
     c3a:	88 0d       	add	r24, r8
     c3c:	99 1d       	adc	r25, r9
     c3e:	aa 1d       	adc	r26, r10
     c40:	bb 1d       	adc	r27, r11
     c42:	bc 01       	movw	r22, r24
     c44:	cd 01       	movw	r24, r26
     c46:	61 53       	subi	r22, 0x31	; 49
     c48:	71 4f       	sbci	r23, 0xF1	; 241
     c4a:	8f 4f       	sbci	r24, 0xFF	; 255
     c4c:	9f 4f       	sbci	r25, 0xFF	; 255
     c4e:	0e 94 6a 24 	call	0x48d4	; 0x48d4 <__floatsisf>
     c52:	20 e0       	ldi	r18, 0x00	; 0
     c54:	30 e0       	ldi	r19, 0x00	; 0
     c56:	40 e8       	ldi	r20, 0x80	; 128
     c58:	5d e3       	ldi	r21, 0x3D	; 61
     c5a:	0e 94 1f 25 	call	0x4a3e	; 0x4a3e <__mulsf3>
     c5e:	9b 01       	movw	r18, r22
     c60:	ac 01       	movw	r20, r24
     c62:	c7 01       	movw	r24, r14
     c64:	b6 01       	movw	r22, r12
     c66:	0e 94 4f 23 	call	0x469e	; 0x469e <__addsf3>
     c6a:	0e 94 32 24 	call	0x4864	; 0x4864 <__fixsfsi>
     c6e:	60 93 f4 02 	sts	0x02F4, r22	; 0x8002f4 <__data_end>
     c72:	70 93 f5 02 	sts	0x02F5, r23	; 0x8002f5 <__data_end+0x1>
     c76:	80 93 f6 02 	sts	0x02F6, r24	; 0x8002f6 <__data_end+0x2>
     c7a:	90 93 f7 02 	sts	0x02F7, r25	; 0x8002f7 <__data_end+0x3>
	return pressure;
}
     c7e:	0f 90       	pop	r0
     c80:	0f 90       	pop	r0
     c82:	0f 90       	pop	r0
     c84:	0f 90       	pop	r0
     c86:	df 91       	pop	r29
     c88:	cf 91       	pop	r28
     c8a:	1f 91       	pop	r17
     c8c:	0f 91       	pop	r16
     c8e:	ff 90       	pop	r15
     c90:	ef 90       	pop	r14
     c92:	df 90       	pop	r13
     c94:	cf 90       	pop	r12
     c96:	bf 90       	pop	r11
     c98:	af 90       	pop	r10
     c9a:	9f 90       	pop	r9
     c9c:	8f 90       	pop	r8
     c9e:	7f 90       	pop	r7
     ca0:	6f 90       	pop	r6
     ca2:	5f 90       	pop	r5
     ca4:	4f 90       	pop	r4
     ca6:	08 95       	ret

00000ca8 <dht22_init>:
     ca8:	2f ef       	ldi	r18, 0xFF	; 255
     caa:	83 ed       	ldi	r24, 0xD3	; 211
     cac:	90 e3       	ldi	r25, 0x30	; 48
     cae:	21 50       	subi	r18, 0x01	; 1
     cb0:	80 40       	sbci	r24, 0x00	; 0
     cb2:	90 40       	sbci	r25, 0x00	; 0
     cb4:	e1 f7       	brne	.-8      	; 0xcae <dht22_init+0x6>
     cb6:	00 c0       	rjmp	.+0      	; 0xcb8 <dht22_init+0x10>
     cb8:	00 00       	nop
#include "DHT22.h"

uint8_t dht22_init (void)
{
	_delay_ms(2000);
	DDRC |= (1<<DHT22_PORT);   // set as output
     cba:	87 b1       	in	r24, 0x07	; 7
     cbc:	81 60       	ori	r24, 0x01	; 1
     cbe:	87 b9       	out	0x07, r24	; 7
	PORTC |= (1<<DHT22_PORT);// pull the pin high
     cc0:	88 b1       	in	r24, 0x08	; 8
     cc2:	81 60       	ori	r24, 0x01	; 1
     cc4:	88 b9       	out	0x08, r24	; 8

	return 0;
}
     cc6:	80 e0       	ldi	r24, 0x00	; 0
     cc8:	08 95       	ret

00000cca <dht22_GetData>:
uint8_t dht22_GetData (uint8_t *data)
{
     cca:	bc 01       	movw	r22, r24
	uint8_t i, j = 0;
	DDRC |= (1<<DHT22_PORT);   // set as output
     ccc:	87 b1       	in	r24, 0x07	; 7
     cce:	81 60       	ori	r24, 0x01	; 1
     cd0:	87 b9       	out	0x07, r24	; 7
	//reset ports
	PORTC &= ~(1<<DHT22_PORT);// pull the pin low
     cd2:	88 b1       	in	r24, 0x08	; 8
     cd4:	8e 7f       	andi	r24, 0xFE	; 254
     cd6:	88 b9       	out	0x08, r24	; 8
	PORTC |= (1<<DHT22_PORT);// pull the pin high
     cd8:	88 b1       	in	r24, 0x08	; 8
     cda:	81 60       	ori	r24, 0x01	; 1
     cdc:	88 b9       	out	0x08, r24	; 8
     cde:	2f ef       	ldi	r18, 0xFF	; 255
     ce0:	80 e7       	ldi	r24, 0x70	; 112
     ce2:	92 e0       	ldi	r25, 0x02	; 2
     ce4:	21 50       	subi	r18, 0x01	; 1
     ce6:	80 40       	sbci	r24, 0x00	; 0
     ce8:	90 40       	sbci	r25, 0x00	; 0
     cea:	e1 f7       	brne	.-8      	; 0xce4 <dht22_GetData+0x1a>
     cec:	00 c0       	rjmp	.+0      	; 0xcee <dht22_GetData+0x24>
     cee:	00 00       	nop
	_delay_ms(100);
	//start
	PORTC &= ~(1<<DHT22_PORT);// pull the pin low
     cf0:	88 b1       	in	r24, 0x08	; 8
     cf2:	8e 7f       	andi	r24, 0xFE	; 254
     cf4:	88 b9       	out	0x08, r24	; 8
     cf6:	8f e9       	ldi	r24, 0x9F	; 159
     cf8:	9c e8       	ldi	r25, 0x8C	; 140
     cfa:	01 97       	sbiw	r24, 0x01	; 1
     cfc:	f1 f7       	brne	.-4      	; 0xcfa <dht22_GetData+0x30>
     cfe:	00 c0       	rjmp	.+0      	; 0xd00 <dht22_GetData+0x36>
     d00:	00 00       	nop
	_delay_ms(18);
	PORTC |= (1<<DHT22_PORT);// pull the pin high
     d02:	88 b1       	in	r24, 0x08	; 8
     d04:	81 60       	ori	r24, 0x01	; 1
     d06:	88 b9       	out	0x08, r24	; 8
	//ждем ответа датчика
	DDRC &= ~(1<<DHT22_PORT);   // set as input
     d08:	87 b1       	in	r24, 0x07	; 7
     d0a:	8e 7f       	andi	r24, 0xFE	; 254
     d0c:	87 b9       	out	0x07, r24	; 7
	#else
		//round up by default
		__ticks_dc = (uint32_t)(ceil(fabs(__tmp)));
	#endif

	__builtin_avr_delay_cycles(__ticks_dc);
     d0e:	90 ea       	ldi	r25, 0xA0	; 160
     d10:	9a 95       	dec	r25
     d12:	f1 f7       	brne	.-4      	; 0xd10 <dht22_GetData+0x46>
	_delay_us(60);//экспериментом выявлено 60 а не 40 сек
	//если датчик не ответил притягиванием шины, то ошибка
	if (PINC & (1 << DHT22_PORT))
     d14:	30 99       	sbic	0x06, 0	; 6
     d16:	38 c0       	rjmp	.+112    	; 0xd88 <dht22_GetData+0xbe>
     d18:	25 ed       	ldi	r18, 0xD5	; 213
     d1a:	2a 95       	dec	r18
     d1c:	f1 f7       	brne	.-4      	; 0xd1a <dht22_GetData+0x50>
     d1e:	00 00       	nop
	{
		return 0;
	}
	_delay_us(80);
	//если датчик не отпустил шину, то ошибка
	if (!(PINC & (1 << DHT22_PORT)))
     d20:	96 b1       	in	r25, 0x06	; 6
     d22:	89 2f       	mov	r24, r25
     d24:	81 70       	andi	r24, 0x01	; 1
     d26:	90 ff       	sbrs	r25, 0
     d28:	30 c0       	rjmp	.+96     	; 0xd8a <dht22_GetData+0xc0>
     d2a:	85 ed       	ldi	r24, 0xD5	; 213
     d2c:	8a 95       	dec	r24
     d2e:	f1 f7       	brne	.-4      	; 0xd2c <dht22_GetData+0x62>
     d30:	00 00       	nop
	}
	_delay_us(80);
	//читаем данные (записываем байты в массив наоборот,
	//т.к. сначала передается старший, чтобы потом
	//не переворачивать двухбайтовый результат
	for (j=0; j<5; j++)
     d32:	80 e0       	ldi	r24, 0x00	; 0
     d34:	25 c0       	rjmp	.+74     	; 0xd80 <dht22_GetData+0xb6>
	{
		data[4-j] = 0;
     d36:	e4 e0       	ldi	r30, 0x04	; 4
     d38:	f0 e0       	ldi	r31, 0x00	; 0
     d3a:	e8 1b       	sub	r30, r24
     d3c:	f1 09       	sbc	r31, r1
     d3e:	e6 0f       	add	r30, r22
     d40:	f7 1f       	adc	r31, r23
     d42:	10 82       	st	Z, r1
		for (i = 0; i<8; i++)
     d44:	90 e0       	ldi	r25, 0x00	; 0
     d46:	19 c0       	rjmp	.+50     	; 0xd7a <dht22_GetData+0xb0>
		{
			while(!(PINC & (1 << DHT22_PORT)));//ждем отпускания шины
     d48:	30 9b       	sbis	0x06, 0	; 6
     d4a:	fe cf       	rjmp	.-4      	; 0xd48 <dht22_GetData+0x7e>
     d4c:	2d e5       	ldi	r18, 0x5D	; 93
     d4e:	2a 95       	dec	r18
     d50:	f1 f7       	brne	.-4      	; 0xd4e <dht22_GetData+0x84>
     d52:	00 00       	nop
			_delay_us(35);
			if (PINC & (1 << DHT22_PORT))//читаем результат по прошествии 30 микросекунд
     d54:	30 9b       	sbis	0x06, 0	; 6
     d56:	0e c0       	rjmp	.+28     	; 0xd74 <dht22_GetData+0xaa>
			//если шина за это время не притянулась к земле, то значит это единица, иначе ноль
			data[4-j] |= (1<<(7-i));
     d58:	47 e0       	ldi	r20, 0x07	; 7
     d5a:	50 e0       	ldi	r21, 0x00	; 0
     d5c:	49 1b       	sub	r20, r25
     d5e:	51 09       	sbc	r21, r1
     d60:	21 e0       	ldi	r18, 0x01	; 1
     d62:	30 e0       	ldi	r19, 0x00	; 0
     d64:	02 c0       	rjmp	.+4      	; 0xd6a <dht22_GetData+0xa0>
     d66:	22 0f       	add	r18, r18
     d68:	33 1f       	adc	r19, r19
     d6a:	4a 95       	dec	r20
     d6c:	e2 f7       	brpl	.-8      	; 0xd66 <dht22_GetData+0x9c>
     d6e:	30 81       	ld	r19, Z
     d70:	23 2b       	or	r18, r19
     d72:	20 83       	st	Z, r18
			while(PINC & (1 << DHT22_PORT));//ждем пока датчик притянет шину(в случае единицы)
     d74:	30 99       	sbic	0x06, 0	; 6
     d76:	fe cf       	rjmp	.-4      	; 0xd74 <dht22_GetData+0xaa>
	//т.к. сначала передается старший, чтобы потом
	//не переворачивать двухбайтовый результат
	for (j=0; j<5; j++)
	{
		data[4-j] = 0;
		for (i = 0; i<8; i++)
     d78:	9f 5f       	subi	r25, 0xFF	; 255
     d7a:	98 30       	cpi	r25, 0x08	; 8
     d7c:	28 f3       	brcs	.-54     	; 0xd48 <dht22_GetData+0x7e>
	}
	_delay_us(80);
	//читаем данные (записываем байты в массив наоборот,
	//т.к. сначала передается старший, чтобы потом
	//не переворачивать двухбайтовый результат
	for (j=0; j<5; j++)
     d7e:	8f 5f       	subi	r24, 0xFF	; 255
     d80:	85 30       	cpi	r24, 0x05	; 5
     d82:	c8 f2       	brcs	.-78     	; 0xd36 <dht22_GetData+0x6c>
			//если шина за это время не притянулась к земле, то значит это единица, иначе ноль
			data[4-j] |= (1<<(7-i));
			while(PINC & (1 << DHT22_PORT));//ждем пока датчик притянет шину(в случае единицы)
		}
	}
	return 1;
     d84:	81 e0       	ldi	r24, 0x01	; 1
     d86:	08 95       	ret
	DDRC &= ~(1<<DHT22_PORT);   // set as input
	_delay_us(60);//экспериментом выявлено 60 а не 40 сек
	//если датчик не ответил притягиванием шины, то ошибка
	if (PINC & (1 << DHT22_PORT))
	{
		return 0;
     d88:	80 e0       	ldi	r24, 0x00	; 0
			data[4-j] |= (1<<(7-i));
			while(PINC & (1 << DHT22_PORT));//ждем пока датчик притянет шину(в случае единицы)
		}
	}
	return 1;
     d8a:	08 95       	ret

00000d8c <LCD_12864_Draw_pixel>:

	/*Рисуем линии*/
	for (uint8_t i = 0; i <= height; i++) {
		LCD_12864_Draw_line(x, y + i, x + width, y + i);
	}
}
     d8c:	90 91 00 01 	lds	r25, 0x0100	; 0x800100 <__DATA_REGION_ORIGIN__>
     d90:	69 17       	cp	r22, r25
     d92:	e0 f4       	brcc	.+56     	; 0xdcc <LCD_12864_Draw_pixel+0x40>
     d94:	90 91 01 01 	lds	r25, 0x0101	; 0x800101 <ST7920_width>
     d98:	89 17       	cp	r24, r25
     d9a:	c0 f4       	brcc	.+48     	; 0xdcc <LCD_12864_Draw_pixel+0x40>
     d9c:	96 2f       	mov	r25, r22
     d9e:	96 95       	lsr	r25
     da0:	96 95       	lsr	r25
     da2:	96 95       	lsr	r25
     da4:	e8 2f       	mov	r30, r24
     da6:	f0 e0       	ldi	r31, 0x00	; 0
     da8:	80 e8       	ldi	r24, 0x80	; 128
     daa:	98 9f       	mul	r25, r24
     dac:	e0 0d       	add	r30, r0
     dae:	f1 1d       	adc	r31, r1
     db0:	11 24       	eor	r1, r1
     db2:	67 70       	andi	r22, 0x07	; 7
     db4:	81 e0       	ldi	r24, 0x01	; 1
     db6:	90 e0       	ldi	r25, 0x00	; 0
     db8:	02 c0       	rjmp	.+4      	; 0xdbe <LCD_12864_Draw_pixel+0x32>
     dba:	88 0f       	add	r24, r24
     dbc:	99 1f       	adc	r25, r25
     dbe:	6a 95       	dec	r22
     dc0:	e2 f7       	brpl	.-8      	; 0xdba <LCD_12864_Draw_pixel+0x2e>
     dc2:	e9 54       	subi	r30, 0x49	; 73
     dc4:	fc 4f       	sbci	r31, 0xFC	; 252
     dc6:	90 81       	ld	r25, Z
     dc8:	89 2b       	or	r24, r25
     dca:	80 83       	st	Z, r24
     dcc:	08 95       	ret

00000dce <LCD_12864_Clean_pixel>:
     dce:	90 91 00 01 	lds	r25, 0x0100	; 0x800100 <__DATA_REGION_ORIGIN__>
     dd2:	69 17       	cp	r22, r25
     dd4:	e0 f4       	brcc	.+56     	; 0xe0e <LCD_12864_Clean_pixel+0x40>
     dd6:	90 91 01 01 	lds	r25, 0x0101	; 0x800101 <ST7920_width>
     dda:	89 17       	cp	r24, r25
     ddc:	c0 f4       	brcc	.+48     	; 0xe0e <LCD_12864_Clean_pixel+0x40>
     dde:	96 2f       	mov	r25, r22
     de0:	96 95       	lsr	r25
     de2:	96 95       	lsr	r25
     de4:	96 95       	lsr	r25
     de6:	e8 2f       	mov	r30, r24
     de8:	f0 e0       	ldi	r31, 0x00	; 0
     dea:	80 e8       	ldi	r24, 0x80	; 128
     dec:	98 9f       	mul	r25, r24
     dee:	e0 0d       	add	r30, r0
     df0:	f1 1d       	adc	r31, r1
     df2:	11 24       	eor	r1, r1
     df4:	67 70       	andi	r22, 0x07	; 7
     df6:	8e ef       	ldi	r24, 0xFE	; 254
     df8:	90 e0       	ldi	r25, 0x00	; 0
     dfa:	02 c0       	rjmp	.+4      	; 0xe00 <LCD_12864_Clean_pixel+0x32>
     dfc:	88 0f       	add	r24, r24
     dfe:	99 1f       	adc	r25, r25
     e00:	6a 95       	dec	r22
     e02:	e2 f7       	brpl	.-8      	; 0xdfc <LCD_12864_Clean_pixel+0x2e>
     e04:	e9 54       	subi	r30, 0x49	; 73
     e06:	fc 4f       	sbci	r31, 0xFC	; 252
     e08:	90 81       	ld	r25, Z
     e0a:	89 23       	and	r24, r25
     e0c:	80 83       	st	Z, r24
     e0e:	08 95       	ret

00000e10 <strob>:
     e10:	82 e0       	ldi	r24, 0x02	; 2
     e12:	8a 95       	dec	r24
     e14:	f1 f7       	brne	.-4      	; 0xe12 <strob+0x2>
     e16:	00 c0       	rjmp	.+0      	; 0xe18 <strob+0x8>
     e18:	8b b1       	in	r24, 0x0b	; 11
     e1a:	80 62       	ori	r24, 0x20	; 32
     e1c:	8b b9       	out	0x0b, r24	; 11
     e1e:	82 e0       	ldi	r24, 0x02	; 2
     e20:	8a 95       	dec	r24
     e22:	f1 f7       	brne	.-4      	; 0xe20 <strob+0x10>
     e24:	00 c0       	rjmp	.+0      	; 0xe26 <strob+0x16>
     e26:	8b b1       	in	r24, 0x0b	; 11
     e28:	8f 7d       	andi	r24, 0xDF	; 223
     e2a:	8b b9       	out	0x0b, r24	; 11
     e2c:	82 e0       	ldi	r24, 0x02	; 2
     e2e:	8a 95       	dec	r24
     e30:	f1 f7       	brne	.-4      	; 0xe2e <strob+0x1e>
     e32:	00 c0       	rjmp	.+0      	; 0xe34 <strob+0x24>
     e34:	08 95       	ret

00000e36 <LCD_12864_send_data>:
     e36:	1f 93       	push	r17
     e38:	cf 93       	push	r28
     e3a:	df 93       	push	r29
     e3c:	18 2f       	mov	r17, r24
     e3e:	8b b1       	in	r24, 0x0b	; 11
     e40:	80 68       	ori	r24, 0x80	; 128
     e42:	8b b9       	out	0x0b, r24	; 11
     e44:	8b b1       	in	r24, 0x0b	; 11
     e46:	80 64       	ori	r24, 0x40	; 64
     e48:	8b b9       	out	0x0b, r24	; 11
     e4a:	0e 94 08 07 	call	0xe10	; 0xe10 <strob>
     e4e:	0e 94 08 07 	call	0xe10	; 0xe10 <strob>
     e52:	0e 94 08 07 	call	0xe10	; 0xe10 <strob>
     e56:	0e 94 08 07 	call	0xe10	; 0xe10 <strob>
     e5a:	0e 94 08 07 	call	0xe10	; 0xe10 <strob>
     e5e:	8b b1       	in	r24, 0x0b	; 11
     e60:	8f 7b       	andi	r24, 0xBF	; 191
     e62:	8b b9       	out	0x0b, r24	; 11
     e64:	0e 94 08 07 	call	0xe10	; 0xe10 <strob>
     e68:	8b b1       	in	r24, 0x0b	; 11
     e6a:	80 64       	ori	r24, 0x40	; 64
     e6c:	8b b9       	out	0x0b, r24	; 11
     e6e:	0e 94 08 07 	call	0xe10	; 0xe10 <strob>
     e72:	8b b1       	in	r24, 0x0b	; 11
     e74:	8f 7b       	andi	r24, 0xBF	; 191
     e76:	8b b9       	out	0x0b, r24	; 11
     e78:	0e 94 08 07 	call	0xe10	; 0xe10 <strob>
     e7c:	c0 e0       	ldi	r28, 0x00	; 0
     e7e:	d0 e0       	ldi	r29, 0x00	; 0
     e80:	1c c0       	rjmp	.+56     	; 0xeba <LCD_12864_send_data+0x84>
     e82:	ce 01       	movw	r24, r28
     e84:	04 97       	sbiw	r24, 0x04	; 4
     e86:	04 97       	sbiw	r24, 0x04	; 4
     e88:	30 f4       	brcc	.+12     	; 0xe96 <LCD_12864_send_data+0x60>
     e8a:	8b b1       	in	r24, 0x0b	; 11
     e8c:	8f 7b       	andi	r24, 0xBF	; 191
     e8e:	8b b9       	out	0x0b, r24	; 11
     e90:	0e 94 08 07 	call	0xe10	; 0xe10 <strob>
     e94:	11 c0       	rjmp	.+34     	; 0xeb8 <LCD_12864_send_data+0x82>
     e96:	81 2f       	mov	r24, r17
     e98:	80 78       	andi	r24, 0x80	; 128
     e9a:	41 f0       	breq	.+16     	; 0xeac <LCD_12864_send_data+0x76>
     e9c:	80 38       	cpi	r24, 0x80	; 128
     e9e:	59 f4       	brne	.+22     	; 0xeb6 <LCD_12864_send_data+0x80>
     ea0:	8b b1       	in	r24, 0x0b	; 11
     ea2:	80 64       	ori	r24, 0x40	; 64
     ea4:	8b b9       	out	0x0b, r24	; 11
     ea6:	0e 94 08 07 	call	0xe10	; 0xe10 <strob>
     eaa:	05 c0       	rjmp	.+10     	; 0xeb6 <LCD_12864_send_data+0x80>
     eac:	8b b1       	in	r24, 0x0b	; 11
     eae:	8f 7b       	andi	r24, 0xBF	; 191
     eb0:	8b b9       	out	0x0b, r24	; 11
     eb2:	0e 94 08 07 	call	0xe10	; 0xe10 <strob>
     eb6:	11 0f       	add	r17, r17
     eb8:	21 96       	adiw	r28, 0x01	; 1
     eba:	cc 30       	cpi	r28, 0x0C	; 12
     ebc:	d1 05       	cpc	r29, r1
     ebe:	0c f3       	brlt	.-62     	; 0xe82 <LCD_12864_send_data+0x4c>
     ec0:	8b b1       	in	r24, 0x0b	; 11
     ec2:	8f 7b       	andi	r24, 0xBF	; 191
     ec4:	8b b9       	out	0x0b, r24	; 11
     ec6:	0e 94 08 07 	call	0xe10	; 0xe10 <strob>
     eca:	0e 94 08 07 	call	0xe10	; 0xe10 <strob>
     ece:	0e 94 08 07 	call	0xe10	; 0xe10 <strob>
     ed2:	0e 94 08 07 	call	0xe10	; 0xe10 <strob>
     ed6:	8b b1       	in	r24, 0x0b	; 11
     ed8:	8f 77       	andi	r24, 0x7F	; 127
     eda:	8b b9       	out	0x0b, r24	; 11
     edc:	df 91       	pop	r29
     ede:	cf 91       	pop	r28
     ee0:	1f 91       	pop	r17
     ee2:	08 95       	ret

00000ee4 <LCD_12864_send_command>:
     ee4:	1f 93       	push	r17
     ee6:	cf 93       	push	r28
     ee8:	df 93       	push	r29
     eea:	18 2f       	mov	r17, r24
     eec:	8b b1       	in	r24, 0x0b	; 11
     eee:	80 68       	ori	r24, 0x80	; 128
     ef0:	8b b9       	out	0x0b, r24	; 11
     ef2:	8b b1       	in	r24, 0x0b	; 11
     ef4:	80 64       	ori	r24, 0x40	; 64
     ef6:	8b b9       	out	0x0b, r24	; 11
     ef8:	0e 94 08 07 	call	0xe10	; 0xe10 <strob>
     efc:	0e 94 08 07 	call	0xe10	; 0xe10 <strob>
     f00:	0e 94 08 07 	call	0xe10	; 0xe10 <strob>
     f04:	0e 94 08 07 	call	0xe10	; 0xe10 <strob>
     f08:	0e 94 08 07 	call	0xe10	; 0xe10 <strob>
     f0c:	8b b1       	in	r24, 0x0b	; 11
     f0e:	8f 7b       	andi	r24, 0xBF	; 191
     f10:	8b b9       	out	0x0b, r24	; 11
     f12:	0e 94 08 07 	call	0xe10	; 0xe10 <strob>
     f16:	8b b1       	in	r24, 0x0b	; 11
     f18:	8f 7b       	andi	r24, 0xBF	; 191
     f1a:	8b b9       	out	0x0b, r24	; 11
     f1c:	0e 94 08 07 	call	0xe10	; 0xe10 <strob>
     f20:	8b b1       	in	r24, 0x0b	; 11
     f22:	8f 7b       	andi	r24, 0xBF	; 191
     f24:	8b b9       	out	0x0b, r24	; 11
     f26:	0e 94 08 07 	call	0xe10	; 0xe10 <strob>
     f2a:	c0 e0       	ldi	r28, 0x00	; 0
     f2c:	d0 e0       	ldi	r29, 0x00	; 0
     f2e:	1c c0       	rjmp	.+56     	; 0xf68 <LCD_12864_send_command+0x84>
     f30:	ce 01       	movw	r24, r28
     f32:	04 97       	sbiw	r24, 0x04	; 4
     f34:	04 97       	sbiw	r24, 0x04	; 4
     f36:	30 f4       	brcc	.+12     	; 0xf44 <LCD_12864_send_command+0x60>
     f38:	8b b1       	in	r24, 0x0b	; 11
     f3a:	8f 7b       	andi	r24, 0xBF	; 191
     f3c:	8b b9       	out	0x0b, r24	; 11
     f3e:	0e 94 08 07 	call	0xe10	; 0xe10 <strob>
     f42:	11 c0       	rjmp	.+34     	; 0xf66 <LCD_12864_send_command+0x82>
     f44:	81 2f       	mov	r24, r17
     f46:	80 78       	andi	r24, 0x80	; 128
     f48:	41 f0       	breq	.+16     	; 0xf5a <LCD_12864_send_command+0x76>
     f4a:	80 38       	cpi	r24, 0x80	; 128
     f4c:	59 f4       	brne	.+22     	; 0xf64 <LCD_12864_send_command+0x80>
     f4e:	8b b1       	in	r24, 0x0b	; 11
     f50:	80 64       	ori	r24, 0x40	; 64
     f52:	8b b9       	out	0x0b, r24	; 11
     f54:	0e 94 08 07 	call	0xe10	; 0xe10 <strob>
     f58:	05 c0       	rjmp	.+10     	; 0xf64 <LCD_12864_send_command+0x80>
     f5a:	8b b1       	in	r24, 0x0b	; 11
     f5c:	8f 7b       	andi	r24, 0xBF	; 191
     f5e:	8b b9       	out	0x0b, r24	; 11
     f60:	0e 94 08 07 	call	0xe10	; 0xe10 <strob>
     f64:	11 0f       	add	r17, r17
     f66:	21 96       	adiw	r28, 0x01	; 1
     f68:	cc 30       	cpi	r28, 0x0C	; 12
     f6a:	d1 05       	cpc	r29, r1
     f6c:	0c f3       	brlt	.-62     	; 0xf30 <LCD_12864_send_command+0x4c>
     f6e:	8b b1       	in	r24, 0x0b	; 11
     f70:	8f 7b       	andi	r24, 0xBF	; 191
     f72:	8b b9       	out	0x0b, r24	; 11
     f74:	0e 94 08 07 	call	0xe10	; 0xe10 <strob>
     f78:	0e 94 08 07 	call	0xe10	; 0xe10 <strob>
     f7c:	0e 94 08 07 	call	0xe10	; 0xe10 <strob>
     f80:	0e 94 08 07 	call	0xe10	; 0xe10 <strob>
     f84:	8b b1       	in	r24, 0x0b	; 11
     f86:	8f 77       	andi	r24, 0x7F	; 127
     f88:	8b b9       	out	0x0b, r24	; 11
     f8a:	df 91       	pop	r29
     f8c:	cf 91       	pop	r28
     f8e:	1f 91       	pop	r17
     f90:	08 95       	ret

00000f92 <LCD_12864_GrapnicMode>:
     f92:	88 23       	and	r24, r24
     f94:	99 f0       	breq	.+38     	; 0xfbc <LCD_12864_GrapnicMode+0x2a>
     f96:	84 e3       	ldi	r24, 0x34	; 52
     f98:	0e 94 72 07 	call	0xee4	; 0xee4 <LCD_12864_send_command>
     f9c:	8f ec       	ldi	r24, 0xCF	; 207
     f9e:	97 e0       	ldi	r25, 0x07	; 7
     fa0:	01 97       	sbiw	r24, 0x01	; 1
     fa2:	f1 f7       	brne	.-4      	; 0xfa0 <LCD_12864_GrapnicMode+0xe>
     fa4:	00 c0       	rjmp	.+0      	; 0xfa6 <LCD_12864_GrapnicMode+0x14>
     fa6:	00 00       	nop
     fa8:	86 e3       	ldi	r24, 0x36	; 54
     faa:	0e 94 72 07 	call	0xee4	; 0xee4 <LCD_12864_send_command>
     fae:	8f ec       	ldi	r24, 0xCF	; 207
     fb0:	97 e0       	ldi	r25, 0x07	; 7
     fb2:	01 97       	sbiw	r24, 0x01	; 1
     fb4:	f1 f7       	brne	.-4      	; 0xfb2 <LCD_12864_GrapnicMode+0x20>
     fb6:	00 c0       	rjmp	.+0      	; 0xfb8 <LCD_12864_GrapnicMode+0x26>
     fb8:	00 00       	nop
     fba:	08 95       	ret
     fbc:	80 e3       	ldi	r24, 0x30	; 48
     fbe:	0e 94 72 07 	call	0xee4	; 0xee4 <LCD_12864_send_command>
     fc2:	8f ec       	ldi	r24, 0xCF	; 207
     fc4:	97 e0       	ldi	r25, 0x07	; 7
     fc6:	01 97       	sbiw	r24, 0x01	; 1
     fc8:	f1 f7       	brne	.-4      	; 0xfc6 <LCD_12864_GrapnicMode+0x34>
     fca:	00 c0       	rjmp	.+0      	; 0xfcc <LCD_12864_GrapnicMode+0x3a>
     fcc:	00 00       	nop
     fce:	08 95       	ret

00000fd0 <LCD_12864_Draw_bitmap>:
     fd0:	8f 92       	push	r8
     fd2:	9f 92       	push	r9
     fd4:	af 92       	push	r10
     fd6:	bf 92       	push	r11
     fd8:	df 92       	push	r13
     fda:	ef 92       	push	r14
     fdc:	ff 92       	push	r15
     fde:	0f 93       	push	r16
     fe0:	1f 93       	push	r17
     fe2:	cf 93       	push	r28
     fe4:	df 93       	push	r29
     fe6:	7c 01       	movw	r14, r24
     fe8:	d1 2c       	mov	r13, r1
     fea:	31 c1       	rjmp	.+610    	; 0x124e <LCD_12864_Draw_bitmap+0x27e>
     fec:	8f e1       	ldi	r24, 0x1F	; 31
     fee:	8d 15       	cp	r24, r13
     ff0:	48 f0       	brcs	.+18     	; 0x1004 <LCD_12864_Draw_bitmap+0x34>
     ff2:	8d 2d       	mov	r24, r13
     ff4:	80 68       	ori	r24, 0x80	; 128
     ff6:	0e 94 72 07 	call	0xee4	; 0xee4 <LCD_12864_send_command>
     ffa:	80 2f       	mov	r24, r16
     ffc:	80 68       	ori	r24, 0x80	; 128
     ffe:	0e 94 72 07 	call	0xee4	; 0xee4 <LCD_12864_send_command>
    1002:	09 c0       	rjmp	.+18     	; 0x1016 <LCD_12864_Draw_bitmap+0x46>
    1004:	80 ee       	ldi	r24, 0xE0	; 224
    1006:	8d 0d       	add	r24, r13
    1008:	80 68       	ori	r24, 0x80	; 128
    100a:	0e 94 72 07 	call	0xee4	; 0xee4 <LCD_12864_send_command>
    100e:	80 2f       	mov	r24, r16
    1010:	88 68       	ori	r24, 0x88	; 136
    1012:	0e 94 72 07 	call	0xee4	; 0xee4 <LCD_12864_send_command>
    1016:	cd 2d       	mov	r28, r13
    1018:	c6 95       	lsr	r28
    101a:	c6 95       	lsr	r28
    101c:	c6 95       	lsr	r28
    101e:	d0 e0       	ldi	r29, 0x00	; 0
    1020:	cc 0f       	add	r28, r28
    1022:	dd 1f       	adc	r29, r29
    1024:	cc 0f       	add	r28, r28
    1026:	dd 1f       	adc	r29, r29
    1028:	cc 0f       	add	r28, r28
    102a:	dd 1f       	adc	r29, r29
    102c:	c0 0f       	add	r28, r16
    102e:	d1 1d       	adc	r29, r1
    1030:	c2 95       	swap	r28
    1032:	d2 95       	swap	r29
    1034:	d0 7f       	andi	r29, 0xF0	; 240
    1036:	dc 27       	eor	r29, r28
    1038:	c0 7f       	andi	r28, 0xF0	; 240
    103a:	dc 27       	eor	r29, r28
    103c:	ce 0d       	add	r28, r14
    103e:	df 1d       	adc	r29, r15
    1040:	88 80       	ld	r8, Y
    1042:	91 2c       	mov	r9, r1
    1044:	1d 2d       	mov	r17, r13
    1046:	17 70       	andi	r17, 0x07	; 7
    1048:	01 2e       	mov	r0, r17
    104a:	02 c0       	rjmp	.+4      	; 0x1050 <LCD_12864_Draw_bitmap+0x80>
    104c:	95 94       	asr	r9
    104e:	87 94       	ror	r8
    1050:	0a 94       	dec	r0
    1052:	e2 f7       	brpl	.-8      	; 0x104c <LCD_12864_Draw_bitmap+0x7c>
    1054:	96 94       	lsr	r9
    1056:	98 2c       	mov	r9, r8
    1058:	88 24       	eor	r8, r8
    105a:	97 94       	ror	r9
    105c:	87 94       	ror	r8
    105e:	a9 80       	ldd	r10, Y+1	; 0x01
    1060:	b1 2c       	mov	r11, r1
    1062:	01 2e       	mov	r0, r17
    1064:	02 c0       	rjmp	.+4      	; 0x106a <LCD_12864_Draw_bitmap+0x9a>
    1066:	b5 94       	asr	r11
    1068:	a7 94       	ror	r10
    106a:	0a 94       	dec	r0
    106c:	e2 f7       	brpl	.-8      	; 0x1066 <LCD_12864_Draw_bitmap+0x96>
    106e:	81 e0       	ldi	r24, 0x01	; 1
    1070:	a8 22       	and	r10, r24
    1072:	bb 24       	eor	r11, r11
    1074:	00 24       	eor	r0, r0
    1076:	b6 94       	lsr	r11
    1078:	a7 94       	ror	r10
    107a:	07 94       	ror	r0
    107c:	b6 94       	lsr	r11
    107e:	a7 94       	ror	r10
    1080:	07 94       	ror	r0
    1082:	ba 2c       	mov	r11, r10
    1084:	a0 2c       	mov	r10, r0
    1086:	aa 81       	ldd	r26, Y+2	; 0x02
    1088:	b0 e0       	ldi	r27, 0x00	; 0
    108a:	01 2e       	mov	r0, r17
    108c:	02 c0       	rjmp	.+4      	; 0x1092 <LCD_12864_Draw_bitmap+0xc2>
    108e:	b5 95       	asr	r27
    1090:	a7 95       	ror	r26
    1092:	0a 94       	dec	r0
    1094:	e2 f7       	brpl	.-8      	; 0x108e <LCD_12864_Draw_bitmap+0xbe>
    1096:	a1 70       	andi	r26, 0x01	; 1
    1098:	bb 27       	eor	r27, r27
    109a:	aa 0f       	add	r26, r26
    109c:	bb 1f       	adc	r27, r27
    109e:	a2 95       	swap	r26
    10a0:	b2 95       	swap	r27
    10a2:	b0 7f       	andi	r27, 0xF0	; 240
    10a4:	ba 27       	eor	r27, r26
    10a6:	a0 7f       	andi	r26, 0xF0	; 240
    10a8:	ba 27       	eor	r27, r26
    10aa:	eb 81       	ldd	r30, Y+3	; 0x03
    10ac:	f0 e0       	ldi	r31, 0x00	; 0
    10ae:	01 2e       	mov	r0, r17
    10b0:	02 c0       	rjmp	.+4      	; 0x10b6 <LCD_12864_Draw_bitmap+0xe6>
    10b2:	f5 95       	asr	r31
    10b4:	e7 95       	ror	r30
    10b6:	0a 94       	dec	r0
    10b8:	e2 f7       	brpl	.-8      	; 0x10b2 <LCD_12864_Draw_bitmap+0xe2>
    10ba:	e1 70       	andi	r30, 0x01	; 1
    10bc:	ff 27       	eor	r31, r31
    10be:	e2 95       	swap	r30
    10c0:	f2 95       	swap	r31
    10c2:	f0 7f       	andi	r31, 0xF0	; 240
    10c4:	fe 27       	eor	r31, r30
    10c6:	e0 7f       	andi	r30, 0xF0	; 240
    10c8:	fe 27       	eor	r31, r30
    10ca:	6c 81       	ldd	r22, Y+4	; 0x04
    10cc:	70 e0       	ldi	r23, 0x00	; 0
    10ce:	01 2e       	mov	r0, r17
    10d0:	02 c0       	rjmp	.+4      	; 0x10d6 <LCD_12864_Draw_bitmap+0x106>
    10d2:	75 95       	asr	r23
    10d4:	67 95       	ror	r22
    10d6:	0a 94       	dec	r0
    10d8:	e2 f7       	brpl	.-8      	; 0x10d2 <LCD_12864_Draw_bitmap+0x102>
    10da:	61 70       	andi	r22, 0x01	; 1
    10dc:	77 27       	eor	r23, r23
    10de:	66 0f       	add	r22, r22
    10e0:	77 1f       	adc	r23, r23
    10e2:	66 0f       	add	r22, r22
    10e4:	77 1f       	adc	r23, r23
    10e6:	66 0f       	add	r22, r22
    10e8:	77 1f       	adc	r23, r23
    10ea:	4d 81       	ldd	r20, Y+5	; 0x05
    10ec:	50 e0       	ldi	r21, 0x00	; 0
    10ee:	01 2e       	mov	r0, r17
    10f0:	02 c0       	rjmp	.+4      	; 0x10f6 <LCD_12864_Draw_bitmap+0x126>
    10f2:	55 95       	asr	r21
    10f4:	47 95       	ror	r20
    10f6:	0a 94       	dec	r0
    10f8:	e2 f7       	brpl	.-8      	; 0x10f2 <LCD_12864_Draw_bitmap+0x122>
    10fa:	41 70       	andi	r20, 0x01	; 1
    10fc:	55 27       	eor	r21, r21
    10fe:	44 0f       	add	r20, r20
    1100:	55 1f       	adc	r21, r21
    1102:	44 0f       	add	r20, r20
    1104:	55 1f       	adc	r21, r21
    1106:	2e 81       	ldd	r18, Y+6	; 0x06
    1108:	30 e0       	ldi	r19, 0x00	; 0
    110a:	01 2e       	mov	r0, r17
    110c:	02 c0       	rjmp	.+4      	; 0x1112 <LCD_12864_Draw_bitmap+0x142>
    110e:	35 95       	asr	r19
    1110:	27 95       	ror	r18
    1112:	0a 94       	dec	r0
    1114:	e2 f7       	brpl	.-8      	; 0x110e <LCD_12864_Draw_bitmap+0x13e>
    1116:	21 70       	andi	r18, 0x01	; 1
    1118:	33 27       	eor	r19, r19
    111a:	22 0f       	add	r18, r18
    111c:	33 1f       	adc	r19, r19
    111e:	8f 81       	ldd	r24, Y+7	; 0x07
    1120:	90 e0       	ldi	r25, 0x00	; 0
    1122:	01 2e       	mov	r0, r17
    1124:	02 c0       	rjmp	.+4      	; 0x112a <LCD_12864_Draw_bitmap+0x15a>
    1126:	95 95       	asr	r25
    1128:	87 95       	ror	r24
    112a:	0a 94       	dec	r0
    112c:	e2 f7       	brpl	.-8      	; 0x1126 <LCD_12864_Draw_bitmap+0x156>
    112e:	a8 28       	or	r10, r8
    1130:	aa 29       	or	r26, r10
    1132:	ea 2b       	or	r30, r26
    1134:	6e 2b       	or	r22, r30
    1136:	46 2b       	or	r20, r22
    1138:	24 2b       	or	r18, r20
    113a:	81 70       	andi	r24, 0x01	; 1
    113c:	82 2b       	or	r24, r18
    113e:	0e 94 1b 07 	call	0xe36	; 0xe36 <LCD_12864_send_data>
    1142:	88 84       	ldd	r8, Y+8	; 0x08
    1144:	91 2c       	mov	r9, r1
    1146:	01 2e       	mov	r0, r17
    1148:	02 c0       	rjmp	.+4      	; 0x114e <LCD_12864_Draw_bitmap+0x17e>
    114a:	95 94       	asr	r9
    114c:	87 94       	ror	r8
    114e:	0a 94       	dec	r0
    1150:	e2 f7       	brpl	.-8      	; 0x114a <LCD_12864_Draw_bitmap+0x17a>
    1152:	96 94       	lsr	r9
    1154:	98 2c       	mov	r9, r8
    1156:	88 24       	eor	r8, r8
    1158:	97 94       	ror	r9
    115a:	87 94       	ror	r8
    115c:	a9 84       	ldd	r10, Y+9	; 0x09
    115e:	b1 2c       	mov	r11, r1
    1160:	01 2e       	mov	r0, r17
    1162:	02 c0       	rjmp	.+4      	; 0x1168 <LCD_12864_Draw_bitmap+0x198>
    1164:	b5 94       	asr	r11
    1166:	a7 94       	ror	r10
    1168:	0a 94       	dec	r0
    116a:	e2 f7       	brpl	.-8      	; 0x1164 <LCD_12864_Draw_bitmap+0x194>
    116c:	81 e0       	ldi	r24, 0x01	; 1
    116e:	a8 22       	and	r10, r24
    1170:	bb 24       	eor	r11, r11
    1172:	00 24       	eor	r0, r0
    1174:	b6 94       	lsr	r11
    1176:	a7 94       	ror	r10
    1178:	07 94       	ror	r0
    117a:	b6 94       	lsr	r11
    117c:	a7 94       	ror	r10
    117e:	07 94       	ror	r0
    1180:	ba 2c       	mov	r11, r10
    1182:	a0 2c       	mov	r10, r0
    1184:	aa 85       	ldd	r26, Y+10	; 0x0a
    1186:	b0 e0       	ldi	r27, 0x00	; 0
    1188:	01 2e       	mov	r0, r17
    118a:	02 c0       	rjmp	.+4      	; 0x1190 <LCD_12864_Draw_bitmap+0x1c0>
    118c:	b5 95       	asr	r27
    118e:	a7 95       	ror	r26
    1190:	0a 94       	dec	r0
    1192:	e2 f7       	brpl	.-8      	; 0x118c <LCD_12864_Draw_bitmap+0x1bc>
    1194:	a1 70       	andi	r26, 0x01	; 1
    1196:	bb 27       	eor	r27, r27
    1198:	aa 0f       	add	r26, r26
    119a:	bb 1f       	adc	r27, r27
    119c:	a2 95       	swap	r26
    119e:	b2 95       	swap	r27
    11a0:	b0 7f       	andi	r27, 0xF0	; 240
    11a2:	ba 27       	eor	r27, r26
    11a4:	a0 7f       	andi	r26, 0xF0	; 240
    11a6:	ba 27       	eor	r27, r26
    11a8:	eb 85       	ldd	r30, Y+11	; 0x0b
    11aa:	f0 e0       	ldi	r31, 0x00	; 0
    11ac:	01 2e       	mov	r0, r17
    11ae:	02 c0       	rjmp	.+4      	; 0x11b4 <LCD_12864_Draw_bitmap+0x1e4>
    11b0:	f5 95       	asr	r31
    11b2:	e7 95       	ror	r30
    11b4:	0a 94       	dec	r0
    11b6:	e2 f7       	brpl	.-8      	; 0x11b0 <LCD_12864_Draw_bitmap+0x1e0>
    11b8:	e1 70       	andi	r30, 0x01	; 1
    11ba:	ff 27       	eor	r31, r31
    11bc:	e2 95       	swap	r30
    11be:	f2 95       	swap	r31
    11c0:	f0 7f       	andi	r31, 0xF0	; 240
    11c2:	fe 27       	eor	r31, r30
    11c4:	e0 7f       	andi	r30, 0xF0	; 240
    11c6:	fe 27       	eor	r31, r30
    11c8:	6c 85       	ldd	r22, Y+12	; 0x0c
    11ca:	70 e0       	ldi	r23, 0x00	; 0
    11cc:	01 2e       	mov	r0, r17
    11ce:	02 c0       	rjmp	.+4      	; 0x11d4 <LCD_12864_Draw_bitmap+0x204>
    11d0:	75 95       	asr	r23
    11d2:	67 95       	ror	r22
    11d4:	0a 94       	dec	r0
    11d6:	e2 f7       	brpl	.-8      	; 0x11d0 <LCD_12864_Draw_bitmap+0x200>
    11d8:	61 70       	andi	r22, 0x01	; 1
    11da:	77 27       	eor	r23, r23
    11dc:	66 0f       	add	r22, r22
    11de:	77 1f       	adc	r23, r23
    11e0:	66 0f       	add	r22, r22
    11e2:	77 1f       	adc	r23, r23
    11e4:	66 0f       	add	r22, r22
    11e6:	77 1f       	adc	r23, r23
    11e8:	4d 85       	ldd	r20, Y+13	; 0x0d
    11ea:	50 e0       	ldi	r21, 0x00	; 0
    11ec:	01 2e       	mov	r0, r17
    11ee:	02 c0       	rjmp	.+4      	; 0x11f4 <LCD_12864_Draw_bitmap+0x224>
    11f0:	55 95       	asr	r21
    11f2:	47 95       	ror	r20
    11f4:	0a 94       	dec	r0
    11f6:	e2 f7       	brpl	.-8      	; 0x11f0 <LCD_12864_Draw_bitmap+0x220>
    11f8:	41 70       	andi	r20, 0x01	; 1
    11fa:	55 27       	eor	r21, r21
    11fc:	44 0f       	add	r20, r20
    11fe:	55 1f       	adc	r21, r21
    1200:	44 0f       	add	r20, r20
    1202:	55 1f       	adc	r21, r21
    1204:	2e 85       	ldd	r18, Y+14	; 0x0e
    1206:	30 e0       	ldi	r19, 0x00	; 0
    1208:	01 2e       	mov	r0, r17
    120a:	02 c0       	rjmp	.+4      	; 0x1210 <LCD_12864_Draw_bitmap+0x240>
    120c:	35 95       	asr	r19
    120e:	27 95       	ror	r18
    1210:	0a 94       	dec	r0
    1212:	e2 f7       	brpl	.-8      	; 0x120c <LCD_12864_Draw_bitmap+0x23c>
    1214:	21 70       	andi	r18, 0x01	; 1
    1216:	33 27       	eor	r19, r19
    1218:	22 0f       	add	r18, r18
    121a:	33 1f       	adc	r19, r19
    121c:	cf 85       	ldd	r28, Y+15	; 0x0f
    121e:	d0 e0       	ldi	r29, 0x00	; 0
    1220:	02 c0       	rjmp	.+4      	; 0x1226 <LCD_12864_Draw_bitmap+0x256>
    1222:	d5 95       	asr	r29
    1224:	c7 95       	ror	r28
    1226:	1a 95       	dec	r17
    1228:	e2 f7       	brpl	.-8      	; 0x1222 <LCD_12864_Draw_bitmap+0x252>
    122a:	88 2d       	mov	r24, r8
    122c:	8a 29       	or	r24, r10
    122e:	8a 2b       	or	r24, r26
    1230:	8e 2b       	or	r24, r30
    1232:	86 2b       	or	r24, r22
    1234:	84 2b       	or	r24, r20
    1236:	82 2b       	or	r24, r18
    1238:	c1 70       	andi	r28, 0x01	; 1
    123a:	8c 2b       	or	r24, r28
    123c:	0e 94 1b 07 	call	0xe36	; 0xe36 <LCD_12864_send_data>
    1240:	0f 5f       	subi	r16, 0xFF	; 255
    1242:	01 c0       	rjmp	.+2      	; 0x1246 <LCD_12864_Draw_bitmap+0x276>
    1244:	00 e0       	ldi	r16, 0x00	; 0
    1246:	08 30       	cpi	r16, 0x08	; 8
    1248:	08 f4       	brcc	.+2      	; 0x124c <LCD_12864_Draw_bitmap+0x27c>
    124a:	d0 ce       	rjmp	.-608    	; 0xfec <LCD_12864_Draw_bitmap+0x1c>
    124c:	d3 94       	inc	r13
    124e:	8f e3       	ldi	r24, 0x3F	; 63
    1250:	8d 15       	cp	r24, r13
    1252:	c0 f7       	brcc	.-16     	; 0x1244 <LCD_12864_Draw_bitmap+0x274>
    1254:	df 91       	pop	r29
    1256:	cf 91       	pop	r28
    1258:	1f 91       	pop	r17
    125a:	0f 91       	pop	r16
    125c:	ff 90       	pop	r15
    125e:	ef 90       	pop	r14
    1260:	df 90       	pop	r13
    1262:	bf 90       	pop	r11
    1264:	af 90       	pop	r10
    1266:	9f 90       	pop	r9
    1268:	8f 90       	pop	r8
    126a:	08 95       	ret

0000126c <clear_LCD_12864>:
    126c:	81 e0       	ldi	r24, 0x01	; 1
    126e:	0e 94 72 07 	call	0xee4	; 0xee4 <LCD_12864_send_command>
    1272:	8f e1       	ldi	r24, 0x1F	; 31
    1274:	9e e4       	ldi	r25, 0x4E	; 78
    1276:	01 97       	sbiw	r24, 0x01	; 1
    1278:	f1 f7       	brne	.-4      	; 0x1276 <clear_LCD_12864+0xa>
    127a:	00 c0       	rjmp	.+0      	; 0x127c <clear_LCD_12864+0x10>
    127c:	00 00       	nop
    127e:	08 95       	ret

00001280 <LCD_12864_ini>:
    1280:	2f ef       	ldi	r18, 0xFF	; 255
    1282:	89 ef       	ldi	r24, 0xF9	; 249
    1284:	90 e0       	ldi	r25, 0x00	; 0
    1286:	21 50       	subi	r18, 0x01	; 1
    1288:	80 40       	sbci	r24, 0x00	; 0
    128a:	90 40       	sbci	r25, 0x00	; 0
    128c:	e1 f7       	brne	.-8      	; 0x1286 <LCD_12864_ini+0x6>
    128e:	00 c0       	rjmp	.+0      	; 0x1290 <LCD_12864_ini+0x10>
    1290:	00 00       	nop
    1292:	8c e0       	ldi	r24, 0x0C	; 12
    1294:	0e 94 72 07 	call	0xee4	; 0xee4 <LCD_12864_send_command>
    1298:	87 ec       	ldi	r24, 0xC7	; 199
    129a:	90 e0       	ldi	r25, 0x00	; 0
    129c:	01 97       	sbiw	r24, 0x01	; 1
    129e:	f1 f7       	brne	.-4      	; 0x129c <LCD_12864_ini+0x1c>
    12a0:	00 c0       	rjmp	.+0      	; 0x12a2 <LCD_12864_ini+0x22>
    12a2:	00 00       	nop
    12a4:	0e 94 36 09 	call	0x126c	; 0x126c <clear_LCD_12864>
    12a8:	86 e0       	ldi	r24, 0x06	; 6
    12aa:	0e 94 72 07 	call	0xee4	; 0xee4 <LCD_12864_send_command>
    12ae:	8f e1       	ldi	r24, 0x1F	; 31
    12b0:	9e e4       	ldi	r25, 0x4E	; 78
    12b2:	01 97       	sbiw	r24, 0x01	; 1
    12b4:	f1 f7       	brne	.-4      	; 0x12b2 <LCD_12864_ini+0x32>
    12b6:	00 c0       	rjmp	.+0      	; 0x12b8 <LCD_12864_ini+0x38>
    12b8:	00 00       	nop
    12ba:	08 95       	ret

000012bc <LCD_12864_print_symbol>:
    12bc:	20 e0       	ldi	r18, 0x00	; 0
    12be:	30 e0       	ldi	r19, 0x00	; 0
    12c0:	2a c0       	rjmp	.+84     	; 0x1316 <LCD_12864_print_symbol+0x5a>
    12c2:	44 23       	and	r20, r20
    12c4:	a1 f0       	breq	.+40     	; 0x12ee <LCD_12864_print_symbol+0x32>
    12c6:	fb 01       	movw	r30, r22
    12c8:	ee 0f       	add	r30, r30
    12ca:	ff 1f       	adc	r31, r31
    12cc:	e6 0f       	add	r30, r22
    12ce:	f7 1f       	adc	r31, r23
    12d0:	ee 0f       	add	r30, r30
    12d2:	ff 1f       	adc	r31, r31
    12d4:	e2 0f       	add	r30, r18
    12d6:	f3 1f       	adc	r31, r19
    12d8:	e0 59       	subi	r30, 0x90	; 144
    12da:	fc 4f       	sbci	r31, 0xFC	; 252
    12dc:	54 91       	lpm	r21, Z
    12de:	f9 01       	movw	r30, r18
    12e0:	e8 0f       	add	r30, r24
    12e2:	f9 1f       	adc	r31, r25
    12e4:	ea 54       	subi	r30, 0x4A	; 74
    12e6:	fc 4f       	sbci	r31, 0xFC	; 252
    12e8:	50 95       	com	r21
    12ea:	50 83       	st	Z, r21
    12ec:	12 c0       	rjmp	.+36     	; 0x1312 <LCD_12864_print_symbol+0x56>
    12ee:	fb 01       	movw	r30, r22
    12f0:	ee 0f       	add	r30, r30
    12f2:	ff 1f       	adc	r31, r31
    12f4:	e6 0f       	add	r30, r22
    12f6:	f7 1f       	adc	r31, r23
    12f8:	ee 0f       	add	r30, r30
    12fa:	ff 1f       	adc	r31, r31
    12fc:	e2 0f       	add	r30, r18
    12fe:	f3 1f       	adc	r31, r19
    1300:	e0 59       	subi	r30, 0x90	; 144
    1302:	fc 4f       	sbci	r31, 0xFC	; 252
    1304:	54 91       	lpm	r21, Z
    1306:	fc 01       	movw	r30, r24
    1308:	e2 0f       	add	r30, r18
    130a:	f3 1f       	adc	r31, r19
    130c:	ea 54       	subi	r30, 0x4A	; 74
    130e:	fc 4f       	sbci	r31, 0xFC	; 252
    1310:	50 83       	st	Z, r21
    1312:	2f 5f       	subi	r18, 0xFF	; 255
    1314:	3f 4f       	sbci	r19, 0xFF	; 255
    1316:	27 30       	cpi	r18, 0x07	; 7
    1318:	31 05       	cpc	r19, r1
    131a:	9c f2       	brlt	.-90     	; 0x12c2 <LCD_12864_print_symbol+0x6>
    131c:	08 95       	ret

0000131e <LCD_12864_print_symbol_4_6>:
    131e:	20 e0       	ldi	r18, 0x00	; 0
    1320:	30 e0       	ldi	r19, 0x00	; 0
    1322:	26 c0       	rjmp	.+76     	; 0x1370 <LCD_12864_print_symbol_4_6+0x52>
    1324:	44 23       	and	r20, r20
    1326:	91 f0       	breq	.+36     	; 0x134c <LCD_12864_print_symbol_4_6+0x2e>
    1328:	fb 01       	movw	r30, r22
    132a:	ee 0f       	add	r30, r30
    132c:	ff 1f       	adc	r31, r31
    132e:	ee 0f       	add	r30, r30
    1330:	ff 1f       	adc	r31, r31
    1332:	e2 0f       	add	r30, r18
    1334:	f3 1f       	adc	r31, r19
    1336:	ec 5b       	subi	r30, 0xBC	; 188
    1338:	fc 4f       	sbci	r31, 0xFC	; 252
    133a:	54 91       	lpm	r21, Z
    133c:	f9 01       	movw	r30, r18
    133e:	e8 0f       	add	r30, r24
    1340:	f9 1f       	adc	r31, r25
    1342:	ea 54       	subi	r30, 0x4A	; 74
    1344:	fc 4f       	sbci	r31, 0xFC	; 252
    1346:	50 95       	com	r21
    1348:	50 83       	st	Z, r21
    134a:	10 c0       	rjmp	.+32     	; 0x136c <LCD_12864_print_symbol_4_6+0x4e>
    134c:	fb 01       	movw	r30, r22
    134e:	ee 0f       	add	r30, r30
    1350:	ff 1f       	adc	r31, r31
    1352:	ee 0f       	add	r30, r30
    1354:	ff 1f       	adc	r31, r31
    1356:	e2 0f       	add	r30, r18
    1358:	f3 1f       	adc	r31, r19
    135a:	ec 5b       	subi	r30, 0xBC	; 188
    135c:	fc 4f       	sbci	r31, 0xFC	; 252
    135e:	54 91       	lpm	r21, Z
    1360:	fc 01       	movw	r30, r24
    1362:	e2 0f       	add	r30, r18
    1364:	f3 1f       	adc	r31, r19
    1366:	ea 54       	subi	r30, 0x4A	; 74
    1368:	fc 4f       	sbci	r31, 0xFC	; 252
    136a:	50 83       	st	Z, r21
    136c:	2f 5f       	subi	r18, 0xFF	; 255
    136e:	3f 4f       	sbci	r19, 0xFF	; 255
    1370:	24 30       	cpi	r18, 0x04	; 4
    1372:	31 05       	cpc	r19, r1
    1374:	bc f2       	brlt	.-82     	; 0x1324 <LCD_12864_print_symbol_4_6+0x6>
    1376:	08 95       	ret

00001378 <LCD_12864_print_symbol_11_16>:
    1378:	20 e0       	ldi	r18, 0x00	; 0
    137a:	30 e0       	ldi	r19, 0x00	; 0
    137c:	28 c0       	rjmp	.+80     	; 0x13ce <LCD_12864_print_symbol_11_16+0x56>
    137e:	44 23       	and	r20, r20
    1380:	99 f0       	breq	.+38     	; 0x13a8 <LCD_12864_print_symbol_11_16+0x30>
    1382:	56 e1       	ldi	r21, 0x16	; 22
    1384:	56 9f       	mul	r21, r22
    1386:	f0 01       	movw	r30, r0
    1388:	57 9f       	mul	r21, r23
    138a:	f0 0d       	add	r31, r0
    138c:	11 24       	eor	r1, r1
    138e:	e2 0f       	add	r30, r18
    1390:	f3 1f       	adc	r31, r19
    1392:	e8 54       	subi	r30, 0x48	; 72
    1394:	fe 4f       	sbci	r31, 0xFE	; 254
    1396:	54 91       	lpm	r21, Z
    1398:	f9 01       	movw	r30, r18
    139a:	e8 0f       	add	r30, r24
    139c:	f9 1f       	adc	r31, r25
    139e:	ea 54       	subi	r30, 0x4A	; 74
    13a0:	fc 4f       	sbci	r31, 0xFC	; 252
    13a2:	50 95       	com	r21
    13a4:	50 83       	st	Z, r21
    13a6:	11 c0       	rjmp	.+34     	; 0x13ca <LCD_12864_print_symbol_11_16+0x52>
    13a8:	56 e1       	ldi	r21, 0x16	; 22
    13aa:	56 9f       	mul	r21, r22
    13ac:	f0 01       	movw	r30, r0
    13ae:	57 9f       	mul	r21, r23
    13b0:	f0 0d       	add	r31, r0
    13b2:	11 24       	eor	r1, r1
    13b4:	e2 0f       	add	r30, r18
    13b6:	f3 1f       	adc	r31, r19
    13b8:	e8 54       	subi	r30, 0x48	; 72
    13ba:	fe 4f       	sbci	r31, 0xFE	; 254
    13bc:	54 91       	lpm	r21, Z
    13be:	fc 01       	movw	r30, r24
    13c0:	e2 0f       	add	r30, r18
    13c2:	f3 1f       	adc	r31, r19
    13c4:	ea 54       	subi	r30, 0x4A	; 74
    13c6:	fc 4f       	sbci	r31, 0xFC	; 252
    13c8:	50 83       	st	Z, r21
    13ca:	2f 5f       	subi	r18, 0xFF	; 255
    13cc:	3f 4f       	sbci	r19, 0xFF	; 255
    13ce:	2b 30       	cpi	r18, 0x0B	; 11
    13d0:	31 05       	cpc	r19, r1
    13d2:	ac f2       	brlt	.-86     	; 0x137e <LCD_12864_print_symbol_11_16+0x6>
    13d4:	8b 58       	subi	r24, 0x8B	; 139
    13d6:	9f 4f       	sbci	r25, 0xFF	; 255
    13d8:	2b e0       	ldi	r18, 0x0B	; 11
    13da:	30 e0       	ldi	r19, 0x00	; 0
    13dc:	28 c0       	rjmp	.+80     	; 0x142e <LCD_12864_print_symbol_11_16+0xb6>
    13de:	44 23       	and	r20, r20
    13e0:	99 f0       	breq	.+38     	; 0x1408 <LCD_12864_print_symbol_11_16+0x90>
    13e2:	56 e1       	ldi	r21, 0x16	; 22
    13e4:	56 9f       	mul	r21, r22
    13e6:	f0 01       	movw	r30, r0
    13e8:	57 9f       	mul	r21, r23
    13ea:	f0 0d       	add	r31, r0
    13ec:	11 24       	eor	r1, r1
    13ee:	e2 0f       	add	r30, r18
    13f0:	f3 1f       	adc	r31, r19
    13f2:	e8 54       	subi	r30, 0x48	; 72
    13f4:	fe 4f       	sbci	r31, 0xFE	; 254
    13f6:	54 91       	lpm	r21, Z
    13f8:	fc 01       	movw	r30, r24
    13fa:	e2 0f       	add	r30, r18
    13fc:	f3 1f       	adc	r31, r19
    13fe:	ea 54       	subi	r30, 0x4A	; 74
    1400:	fc 4f       	sbci	r31, 0xFC	; 252
    1402:	50 95       	com	r21
    1404:	50 83       	st	Z, r21
    1406:	11 c0       	rjmp	.+34     	; 0x142a <LCD_12864_print_symbol_11_16+0xb2>
    1408:	56 e1       	ldi	r21, 0x16	; 22
    140a:	56 9f       	mul	r21, r22
    140c:	f0 01       	movw	r30, r0
    140e:	57 9f       	mul	r21, r23
    1410:	f0 0d       	add	r31, r0
    1412:	11 24       	eor	r1, r1
    1414:	e2 0f       	add	r30, r18
    1416:	f3 1f       	adc	r31, r19
    1418:	e8 54       	subi	r30, 0x48	; 72
    141a:	fe 4f       	sbci	r31, 0xFE	; 254
    141c:	54 91       	lpm	r21, Z
    141e:	fc 01       	movw	r30, r24
    1420:	e2 0f       	add	r30, r18
    1422:	f3 1f       	adc	r31, r19
    1424:	ea 54       	subi	r30, 0x4A	; 74
    1426:	fc 4f       	sbci	r31, 0xFC	; 252
    1428:	50 83       	st	Z, r21
    142a:	2f 5f       	subi	r18, 0xFF	; 255
    142c:	3f 4f       	sbci	r19, 0xFF	; 255
    142e:	26 31       	cpi	r18, 0x16	; 22
    1430:	31 05       	cpc	r19, r1
    1432:	ac f2       	brlt	.-86     	; 0x13de <LCD_12864_print_symbol_11_16+0x66>
    1434:	08 95       	ret

00001436 <LCD_12864_print_symbol_7_11>:
    1436:	20 e0       	ldi	r18, 0x00	; 0
    1438:	30 e0       	ldi	r19, 0x00	; 0
    143a:	34 c0       	rjmp	.+104    	; 0x14a4 <LCD_12864_print_symbol_7_11+0x6e>
    143c:	44 23       	and	r20, r20
    143e:	c9 f0       	breq	.+50     	; 0x1472 <LCD_12864_print_symbol_7_11+0x3c>
    1440:	db 01       	movw	r26, r22
    1442:	aa 0f       	add	r26, r26
    1444:	bb 1f       	adc	r27, r27
    1446:	fd 01       	movw	r30, r26
    1448:	ee 0f       	add	r30, r30
    144a:	ff 1f       	adc	r31, r31
    144c:	ee 0f       	add	r30, r30
    144e:	ff 1f       	adc	r31, r31
    1450:	ee 0f       	add	r30, r30
    1452:	ff 1f       	adc	r31, r31
    1454:	ea 1b       	sub	r30, r26
    1456:	fb 0b       	sbc	r31, r27
    1458:	e2 0f       	add	r30, r18
    145a:	f3 1f       	adc	r31, r19
    145c:	e6 55       	subi	r30, 0x56	; 86
    145e:	fd 4f       	sbci	r31, 0xFD	; 253
    1460:	54 91       	lpm	r21, Z
    1462:	f9 01       	movw	r30, r18
    1464:	e8 0f       	add	r30, r24
    1466:	f9 1f       	adc	r31, r25
    1468:	ea 54       	subi	r30, 0x4A	; 74
    146a:	fc 4f       	sbci	r31, 0xFC	; 252
    146c:	50 95       	com	r21
    146e:	50 83       	st	Z, r21
    1470:	17 c0       	rjmp	.+46     	; 0x14a0 <LCD_12864_print_symbol_7_11+0x6a>
    1472:	db 01       	movw	r26, r22
    1474:	aa 0f       	add	r26, r26
    1476:	bb 1f       	adc	r27, r27
    1478:	fd 01       	movw	r30, r26
    147a:	ee 0f       	add	r30, r30
    147c:	ff 1f       	adc	r31, r31
    147e:	ee 0f       	add	r30, r30
    1480:	ff 1f       	adc	r31, r31
    1482:	ee 0f       	add	r30, r30
    1484:	ff 1f       	adc	r31, r31
    1486:	ea 1b       	sub	r30, r26
    1488:	fb 0b       	sbc	r31, r27
    148a:	e2 0f       	add	r30, r18
    148c:	f3 1f       	adc	r31, r19
    148e:	e6 55       	subi	r30, 0x56	; 86
    1490:	fd 4f       	sbci	r31, 0xFD	; 253
    1492:	54 91       	lpm	r21, Z
    1494:	fc 01       	movw	r30, r24
    1496:	e2 0f       	add	r30, r18
    1498:	f3 1f       	adc	r31, r19
    149a:	ea 54       	subi	r30, 0x4A	; 74
    149c:	fc 4f       	sbci	r31, 0xFC	; 252
    149e:	50 83       	st	Z, r21
    14a0:	2f 5f       	subi	r18, 0xFF	; 255
    14a2:	3f 4f       	sbci	r19, 0xFF	; 255
    14a4:	27 30       	cpi	r18, 0x07	; 7
    14a6:	31 05       	cpc	r19, r1
    14a8:	4c f2       	brlt	.-110    	; 0x143c <LCD_12864_print_symbol_7_11+0x6>
    14aa:	87 58       	subi	r24, 0x87	; 135
    14ac:	9f 4f       	sbci	r25, 0xFF	; 255
    14ae:	27 e0       	ldi	r18, 0x07	; 7
    14b0:	30 e0       	ldi	r19, 0x00	; 0
    14b2:	34 c0       	rjmp	.+104    	; 0x151c <LCD_12864_print_symbol_7_11+0xe6>
    14b4:	44 23       	and	r20, r20
    14b6:	c9 f0       	breq	.+50     	; 0x14ea <LCD_12864_print_symbol_7_11+0xb4>
    14b8:	db 01       	movw	r26, r22
    14ba:	aa 0f       	add	r26, r26
    14bc:	bb 1f       	adc	r27, r27
    14be:	fd 01       	movw	r30, r26
    14c0:	ee 0f       	add	r30, r30
    14c2:	ff 1f       	adc	r31, r31
    14c4:	ee 0f       	add	r30, r30
    14c6:	ff 1f       	adc	r31, r31
    14c8:	ee 0f       	add	r30, r30
    14ca:	ff 1f       	adc	r31, r31
    14cc:	ea 1b       	sub	r30, r26
    14ce:	fb 0b       	sbc	r31, r27
    14d0:	e2 0f       	add	r30, r18
    14d2:	f3 1f       	adc	r31, r19
    14d4:	e6 55       	subi	r30, 0x56	; 86
    14d6:	fd 4f       	sbci	r31, 0xFD	; 253
    14d8:	54 91       	lpm	r21, Z
    14da:	fc 01       	movw	r30, r24
    14dc:	e2 0f       	add	r30, r18
    14de:	f3 1f       	adc	r31, r19
    14e0:	ea 54       	subi	r30, 0x4A	; 74
    14e2:	fc 4f       	sbci	r31, 0xFC	; 252
    14e4:	50 95       	com	r21
    14e6:	50 83       	st	Z, r21
    14e8:	17 c0       	rjmp	.+46     	; 0x1518 <LCD_12864_print_symbol_7_11+0xe2>
    14ea:	db 01       	movw	r26, r22
    14ec:	aa 0f       	add	r26, r26
    14ee:	bb 1f       	adc	r27, r27
    14f0:	fd 01       	movw	r30, r26
    14f2:	ee 0f       	add	r30, r30
    14f4:	ff 1f       	adc	r31, r31
    14f6:	ee 0f       	add	r30, r30
    14f8:	ff 1f       	adc	r31, r31
    14fa:	ee 0f       	add	r30, r30
    14fc:	ff 1f       	adc	r31, r31
    14fe:	ea 1b       	sub	r30, r26
    1500:	fb 0b       	sbc	r31, r27
    1502:	e2 0f       	add	r30, r18
    1504:	f3 1f       	adc	r31, r19
    1506:	e6 55       	subi	r30, 0x56	; 86
    1508:	fd 4f       	sbci	r31, 0xFD	; 253
    150a:	54 91       	lpm	r21, Z
    150c:	fc 01       	movw	r30, r24
    150e:	e2 0f       	add	r30, r18
    1510:	f3 1f       	adc	r31, r19
    1512:	ea 54       	subi	r30, 0x4A	; 74
    1514:	fc 4f       	sbci	r31, 0xFC	; 252
    1516:	50 83       	st	Z, r21
    1518:	2f 5f       	subi	r18, 0xFF	; 255
    151a:	3f 4f       	sbci	r19, 0xFF	; 255
    151c:	2e 30       	cpi	r18, 0x0E	; 14
    151e:	31 05       	cpc	r19, r1
    1520:	4c f2       	brlt	.-110    	; 0x14b4 <LCD_12864_print_symbol_7_11+0x7e>
    1522:	08 95       	ret

00001524 <LCD_12864_Print_7_11>:
    1524:	df 92       	push	r13
    1526:	ef 92       	push	r14
    1528:	ff 92       	push	r15
    152a:	0f 93       	push	r16
    152c:	1f 93       	push	r17
    152e:	cf 93       	push	r28
    1530:	df 93       	push	r29
    1532:	d4 2e       	mov	r13, r20
    1534:	79 01       	movw	r14, r18
    1536:	8c 01       	movw	r16, r24
    1538:	20 e8       	ldi	r18, 0x80	; 128
    153a:	62 9f       	mul	r22, r18
    153c:	00 0d       	add	r16, r0
    153e:	11 1d       	adc	r17, r1
    1540:	11 24       	eor	r1, r1
    1542:	c0 e0       	ldi	r28, 0x00	; 0
    1544:	d0 e0       	ldi	r29, 0x00	; 0
    1546:	2b c0       	rjmp	.+86     	; 0x159e <LCD_12864_Print_7_11+0x7a>
    1548:	f7 01       	movw	r30, r14
    154a:	ec 0f       	add	r30, r28
    154c:	fd 1f       	adc	r31, r29
    154e:	60 81       	ld	r22, Z
    1550:	70 e0       	ldi	r23, 0x00	; 0
    1552:	dd 20       	and	r13, r13
    1554:	89 f0       	breq	.+34     	; 0x1578 <LCD_12864_Print_7_11+0x54>
    1556:	6e 32       	cpi	r22, 0x2E	; 46
    1558:	71 05       	cpc	r23, r1
    155a:	39 f0       	breq	.+14     	; 0x156a <LCD_12864_Print_7_11+0x46>
    155c:	60 53       	subi	r22, 0x30	; 48
    155e:	71 09       	sbc	r23, r1
    1560:	41 e0       	ldi	r20, 0x01	; 1
    1562:	c8 01       	movw	r24, r16
    1564:	0e 94 1b 0a 	call	0x1436	; 0x1436 <LCD_12864_print_symbol_7_11>
    1568:	17 c0       	rjmp	.+46     	; 0x1598 <LCD_12864_Print_7_11+0x74>
    156a:	41 e0       	ldi	r20, 0x01	; 1
    156c:	6a e0       	ldi	r22, 0x0A	; 10
    156e:	70 e0       	ldi	r23, 0x00	; 0
    1570:	c8 01       	movw	r24, r16
    1572:	0e 94 1b 0a 	call	0x1436	; 0x1436 <LCD_12864_print_symbol_7_11>
    1576:	10 c0       	rjmp	.+32     	; 0x1598 <LCD_12864_Print_7_11+0x74>
    1578:	6e 32       	cpi	r22, 0x2E	; 46
    157a:	71 05       	cpc	r23, r1
    157c:	39 f0       	breq	.+14     	; 0x158c <LCD_12864_Print_7_11+0x68>
    157e:	60 53       	subi	r22, 0x30	; 48
    1580:	71 09       	sbc	r23, r1
    1582:	40 e0       	ldi	r20, 0x00	; 0
    1584:	c8 01       	movw	r24, r16
    1586:	0e 94 1b 0a 	call	0x1436	; 0x1436 <LCD_12864_print_symbol_7_11>
    158a:	06 c0       	rjmp	.+12     	; 0x1598 <LCD_12864_Print_7_11+0x74>
    158c:	40 e0       	ldi	r20, 0x00	; 0
    158e:	6a e0       	ldi	r22, 0x0A	; 10
    1590:	70 e0       	ldi	r23, 0x00	; 0
    1592:	c8 01       	movw	r24, r16
    1594:	0e 94 1b 0a 	call	0x1436	; 0x1436 <LCD_12864_print_symbol_7_11>
    1598:	08 5f       	subi	r16, 0xF8	; 248
    159a:	1f 4f       	sbci	r17, 0xFF	; 255
    159c:	21 96       	adiw	r28, 0x01	; 1
    159e:	f7 01       	movw	r30, r14
    15a0:	01 90       	ld	r0, Z+
    15a2:	00 20       	and	r0, r0
    15a4:	e9 f7       	brne	.-6      	; 0x15a0 <LCD_12864_Print_7_11+0x7c>
    15a6:	31 97       	sbiw	r30, 0x01	; 1
    15a8:	ee 19       	sub	r30, r14
    15aa:	ff 09       	sbc	r31, r15
    15ac:	ce 17       	cp	r28, r30
    15ae:	df 07       	cpc	r29, r31
    15b0:	58 f2       	brcs	.-106    	; 0x1548 <LCD_12864_Print_7_11+0x24>
    15b2:	df 91       	pop	r29
    15b4:	cf 91       	pop	r28
    15b6:	1f 91       	pop	r17
    15b8:	0f 91       	pop	r16
    15ba:	ff 90       	pop	r15
    15bc:	ef 90       	pop	r14
    15be:	df 90       	pop	r13
    15c0:	08 95       	ret

000015c2 <LCD_12864_Print_4_6>:
    15c2:	df 92       	push	r13
    15c4:	ef 92       	push	r14
    15c6:	ff 92       	push	r15
    15c8:	0f 93       	push	r16
    15ca:	1f 93       	push	r17
    15cc:	cf 93       	push	r28
    15ce:	df 93       	push	r29
    15d0:	d4 2e       	mov	r13, r20
    15d2:	79 01       	movw	r14, r18
    15d4:	8c 01       	movw	r16, r24
    15d6:	20 e8       	ldi	r18, 0x80	; 128
    15d8:	62 9f       	mul	r22, r18
    15da:	00 0d       	add	r16, r0
    15dc:	11 1d       	adc	r17, r1
    15de:	11 24       	eor	r1, r1
    15e0:	c0 e0       	ldi	r28, 0x00	; 0
    15e2:	d0 e0       	ldi	r29, 0x00	; 0
    15e4:	2b c0       	rjmp	.+86     	; 0x163c <LCD_12864_Print_4_6+0x7a>
    15e6:	f7 01       	movw	r30, r14
    15e8:	ec 0f       	add	r30, r28
    15ea:	fd 1f       	adc	r31, r29
    15ec:	60 81       	ld	r22, Z
    15ee:	70 e0       	ldi	r23, 0x00	; 0
    15f0:	dd 20       	and	r13, r13
    15f2:	89 f0       	breq	.+34     	; 0x1616 <LCD_12864_Print_4_6+0x54>
    15f4:	6e 32       	cpi	r22, 0x2E	; 46
    15f6:	71 05       	cpc	r23, r1
    15f8:	39 f0       	breq	.+14     	; 0x1608 <LCD_12864_Print_4_6+0x46>
    15fa:	60 53       	subi	r22, 0x30	; 48
    15fc:	71 09       	sbc	r23, r1
    15fe:	41 e0       	ldi	r20, 0x01	; 1
    1600:	c8 01       	movw	r24, r16
    1602:	0e 94 8f 09 	call	0x131e	; 0x131e <LCD_12864_print_symbol_4_6>
    1606:	17 c0       	rjmp	.+46     	; 0x1636 <LCD_12864_Print_4_6+0x74>
    1608:	41 e0       	ldi	r20, 0x01	; 1
    160a:	6a e0       	ldi	r22, 0x0A	; 10
    160c:	70 e0       	ldi	r23, 0x00	; 0
    160e:	c8 01       	movw	r24, r16
    1610:	0e 94 8f 09 	call	0x131e	; 0x131e <LCD_12864_print_symbol_4_6>
    1614:	10 c0       	rjmp	.+32     	; 0x1636 <LCD_12864_Print_4_6+0x74>
    1616:	6e 32       	cpi	r22, 0x2E	; 46
    1618:	71 05       	cpc	r23, r1
    161a:	39 f0       	breq	.+14     	; 0x162a <LCD_12864_Print_4_6+0x68>
    161c:	60 53       	subi	r22, 0x30	; 48
    161e:	71 09       	sbc	r23, r1
    1620:	40 e0       	ldi	r20, 0x00	; 0
    1622:	c8 01       	movw	r24, r16
    1624:	0e 94 8f 09 	call	0x131e	; 0x131e <LCD_12864_print_symbol_4_6>
    1628:	06 c0       	rjmp	.+12     	; 0x1636 <LCD_12864_Print_4_6+0x74>
    162a:	40 e0       	ldi	r20, 0x00	; 0
    162c:	6a e0       	ldi	r22, 0x0A	; 10
    162e:	70 e0       	ldi	r23, 0x00	; 0
    1630:	c8 01       	movw	r24, r16
    1632:	0e 94 8f 09 	call	0x131e	; 0x131e <LCD_12864_print_symbol_4_6>
    1636:	0b 5f       	subi	r16, 0xFB	; 251
    1638:	1f 4f       	sbci	r17, 0xFF	; 255
    163a:	21 96       	adiw	r28, 0x01	; 1
    163c:	f7 01       	movw	r30, r14
    163e:	01 90       	ld	r0, Z+
    1640:	00 20       	and	r0, r0
    1642:	e9 f7       	brne	.-6      	; 0x163e <LCD_12864_Print_4_6+0x7c>
    1644:	31 97       	sbiw	r30, 0x01	; 1
    1646:	ee 19       	sub	r30, r14
    1648:	ff 09       	sbc	r31, r15
    164a:	ce 17       	cp	r28, r30
    164c:	df 07       	cpc	r29, r31
    164e:	58 f2       	brcs	.-106    	; 0x15e6 <LCD_12864_Print_4_6+0x24>
    1650:	df 91       	pop	r29
    1652:	cf 91       	pop	r28
    1654:	1f 91       	pop	r17
    1656:	0f 91       	pop	r16
    1658:	ff 90       	pop	r15
    165a:	ef 90       	pop	r14
    165c:	df 90       	pop	r13
    165e:	08 95       	ret

00001660 <LCD_12864_Print_11_16>:
    1660:	df 92       	push	r13
    1662:	ef 92       	push	r14
    1664:	ff 92       	push	r15
    1666:	0f 93       	push	r16
    1668:	1f 93       	push	r17
    166a:	cf 93       	push	r28
    166c:	df 93       	push	r29
    166e:	d4 2e       	mov	r13, r20
    1670:	79 01       	movw	r14, r18
    1672:	8c 01       	movw	r16, r24
    1674:	20 e8       	ldi	r18, 0x80	; 128
    1676:	62 9f       	mul	r22, r18
    1678:	00 0d       	add	r16, r0
    167a:	11 1d       	adc	r17, r1
    167c:	11 24       	eor	r1, r1
    167e:	c0 e0       	ldi	r28, 0x00	; 0
    1680:	d0 e0       	ldi	r29, 0x00	; 0
    1682:	17 c0       	rjmp	.+46     	; 0x16b2 <LCD_12864_Print_11_16+0x52>
    1684:	f7 01       	movw	r30, r14
    1686:	ec 0f       	add	r30, r28
    1688:	fd 1f       	adc	r31, r29
    168a:	60 81       	ld	r22, Z
    168c:	70 e0       	ldi	r23, 0x00	; 0
    168e:	dd 20       	and	r13, r13
    1690:	39 f0       	breq	.+14     	; 0x16a0 <LCD_12864_Print_11_16+0x40>
    1692:	60 53       	subi	r22, 0x30	; 48
    1694:	71 09       	sbc	r23, r1
    1696:	41 e0       	ldi	r20, 0x01	; 1
    1698:	c8 01       	movw	r24, r16
    169a:	0e 94 bc 09 	call	0x1378	; 0x1378 <LCD_12864_print_symbol_11_16>
    169e:	06 c0       	rjmp	.+12     	; 0x16ac <LCD_12864_Print_11_16+0x4c>
    16a0:	60 53       	subi	r22, 0x30	; 48
    16a2:	71 09       	sbc	r23, r1
    16a4:	40 e0       	ldi	r20, 0x00	; 0
    16a6:	c8 01       	movw	r24, r16
    16a8:	0e 94 bc 09 	call	0x1378	; 0x1378 <LCD_12864_print_symbol_11_16>
    16ac:	04 5f       	subi	r16, 0xF4	; 244
    16ae:	1f 4f       	sbci	r17, 0xFF	; 255
    16b0:	21 96       	adiw	r28, 0x01	; 1
    16b2:	f7 01       	movw	r30, r14
    16b4:	01 90       	ld	r0, Z+
    16b6:	00 20       	and	r0, r0
    16b8:	e9 f7       	brne	.-6      	; 0x16b4 <LCD_12864_Print_11_16+0x54>
    16ba:	31 97       	sbiw	r30, 0x01	; 1
    16bc:	ee 19       	sub	r30, r14
    16be:	ff 09       	sbc	r31, r15
    16c0:	ce 17       	cp	r28, r30
    16c2:	df 07       	cpc	r29, r31
    16c4:	f8 f2       	brcs	.-66     	; 0x1684 <LCD_12864_Print_11_16+0x24>
    16c6:	df 91       	pop	r29
    16c8:	cf 91       	pop	r28
    16ca:	1f 91       	pop	r17
    16cc:	0f 91       	pop	r16
    16ce:	ff 90       	pop	r15
    16d0:	ef 90       	pop	r14
    16d2:	df 90       	pop	r13
    16d4:	08 95       	ret

000016d6 <LCD_12864_Decode_UTF8>:
    16d6:	bf 92       	push	r11
    16d8:	cf 92       	push	r12
    16da:	df 92       	push	r13
    16dc:	ef 92       	push	r14
    16de:	ff 92       	push	r15
    16e0:	0f 93       	push	r16
    16e2:	1f 93       	push	r17
    16e4:	cf 93       	push	r28
    16e6:	df 93       	push	r29
    16e8:	b4 2e       	mov	r11, r20
    16ea:	79 01       	movw	r14, r18
    16ec:	8c 01       	movw	r16, r24
    16ee:	20 e8       	ldi	r18, 0x80	; 128
    16f0:	62 9f       	mul	r22, r18
    16f2:	00 0d       	add	r16, r0
    16f4:	11 1d       	adc	r17, r1
    16f6:	11 24       	eor	r1, r1
    16f8:	c1 2c       	mov	r12, r1
    16fa:	d1 2c       	mov	r13, r1
    16fc:	79 c0       	rjmp	.+242    	; 0x17f0 <LCD_12864_Decode_UTF8+0x11a>
    16fe:	f7 01       	movw	r30, r14
    1700:	ec 0d       	add	r30, r12
    1702:	fd 1d       	adc	r31, r13
    1704:	c0 81       	ld	r28, Z
    1706:	c0 3c       	cpi	r28, 0xC0	; 192
    1708:	d0 f4       	brcc	.+52     	; 0x173e <LCD_12864_Decode_UTF8+0x68>
    170a:	c8 3a       	cpi	r28, 0xA8	; 168
    170c:	c1 f0       	breq	.+48     	; 0x173e <LCD_12864_Decode_UTF8+0x68>
    170e:	c8 3b       	cpi	r28, 0xB8	; 184
    1710:	b1 f0       	breq	.+44     	; 0x173e <LCD_12864_Decode_UTF8+0x68>
    1712:	c0 3b       	cpi	r28, 0xB0	; 176
    1714:	a1 f0       	breq	.+40     	; 0x173e <LCD_12864_Decode_UTF8+0x68>
    1716:	6c 2f       	mov	r22, r28
    1718:	70 e0       	ldi	r23, 0x00	; 0
    171a:	bb 20       	and	r11, r11
    171c:	39 f0       	breq	.+14     	; 0x172c <LCD_12864_Decode_UTF8+0x56>
    171e:	60 52       	subi	r22, 0x20	; 32
    1720:	71 09       	sbc	r23, r1
    1722:	41 e0       	ldi	r20, 0x01	; 1
    1724:	c8 01       	movw	r24, r16
    1726:	0e 94 5e 09 	call	0x12bc	; 0x12bc <LCD_12864_print_symbol>
    172a:	06 c0       	rjmp	.+12     	; 0x1738 <LCD_12864_Decode_UTF8+0x62>
    172c:	60 52       	subi	r22, 0x20	; 32
    172e:	71 09       	sbc	r23, r1
    1730:	40 e0       	ldi	r20, 0x00	; 0
    1732:	c8 01       	movw	r24, r16
    1734:	0e 94 5e 09 	call	0x12bc	; 0x12bc <LCD_12864_print_symbol>
    1738:	0a 5f       	subi	r16, 0xFA	; 250
    173a:	1f 4f       	sbci	r17, 0xFF	; 255
    173c:	56 c0       	rjmp	.+172    	; 0x17ea <LCD_12864_Decode_UTF8+0x114>
    173e:	d0 e0       	ldi	r29, 0x00	; 0
    1740:	ce 01       	movw	r24, r28
    1742:	80 5c       	subi	r24, 0xC0	; 192
    1744:	91 09       	sbc	r25, r1
    1746:	80 34       	cpi	r24, 0x40	; 64
    1748:	91 05       	cpc	r25, r1
    174a:	98 f4       	brcc	.+38     	; 0x1772 <LCD_12864_Decode_UTF8+0x9c>
    174c:	bb 20       	and	r11, r11
    174e:	41 f0       	breq	.+16     	; 0x1760 <LCD_12864_Decode_UTF8+0x8a>
    1750:	41 e0       	ldi	r20, 0x01	; 1
    1752:	be 01       	movw	r22, r28
    1754:	61 56       	subi	r22, 0x61	; 97
    1756:	71 09       	sbc	r23, r1
    1758:	c8 01       	movw	r24, r16
    175a:	0e 94 5e 09 	call	0x12bc	; 0x12bc <LCD_12864_print_symbol>
    175e:	07 c0       	rjmp	.+14     	; 0x176e <LCD_12864_Decode_UTF8+0x98>
    1760:	40 e0       	ldi	r20, 0x00	; 0
    1762:	be 01       	movw	r22, r28
    1764:	61 56       	subi	r22, 0x61	; 97
    1766:	71 09       	sbc	r23, r1
    1768:	c8 01       	movw	r24, r16
    176a:	0e 94 5e 09 	call	0x12bc	; 0x12bc <LCD_12864_print_symbol>
    176e:	0a 5f       	subi	r16, 0xFA	; 250
    1770:	1f 4f       	sbci	r17, 0xFF	; 255
    1772:	c8 3a       	cpi	r28, 0xA8	; 168
    1774:	d1 05       	cpc	r29, r1
    1776:	89 f4       	brne	.+34     	; 0x179a <LCD_12864_Decode_UTF8+0xc4>
    1778:	bb 20       	and	r11, r11
    177a:	39 f0       	breq	.+14     	; 0x178a <LCD_12864_Decode_UTF8+0xb4>
    177c:	41 e0       	ldi	r20, 0x01	; 1
    177e:	6f e9       	ldi	r22, 0x9F	; 159
    1780:	70 e0       	ldi	r23, 0x00	; 0
    1782:	c8 01       	movw	r24, r16
    1784:	0e 94 5e 09 	call	0x12bc	; 0x12bc <LCD_12864_print_symbol>
    1788:	06 c0       	rjmp	.+12     	; 0x1796 <LCD_12864_Decode_UTF8+0xc0>
    178a:	40 e0       	ldi	r20, 0x00	; 0
    178c:	6f e9       	ldi	r22, 0x9F	; 159
    178e:	70 e0       	ldi	r23, 0x00	; 0
    1790:	c8 01       	movw	r24, r16
    1792:	0e 94 5e 09 	call	0x12bc	; 0x12bc <LCD_12864_print_symbol>
    1796:	0a 5f       	subi	r16, 0xFA	; 250
    1798:	1f 4f       	sbci	r17, 0xFF	; 255
    179a:	c8 3b       	cpi	r28, 0xB8	; 184
    179c:	d1 05       	cpc	r29, r1
    179e:	89 f4       	brne	.+34     	; 0x17c2 <LCD_12864_Decode_UTF8+0xec>
    17a0:	bb 20       	and	r11, r11
    17a2:	39 f0       	breq	.+14     	; 0x17b2 <LCD_12864_Decode_UTF8+0xdc>
    17a4:	41 e0       	ldi	r20, 0x01	; 1
    17a6:	60 ea       	ldi	r22, 0xA0	; 160
    17a8:	70 e0       	ldi	r23, 0x00	; 0
    17aa:	c8 01       	movw	r24, r16
    17ac:	0e 94 5e 09 	call	0x12bc	; 0x12bc <LCD_12864_print_symbol>
    17b0:	06 c0       	rjmp	.+12     	; 0x17be <LCD_12864_Decode_UTF8+0xe8>
    17b2:	40 e0       	ldi	r20, 0x00	; 0
    17b4:	60 ea       	ldi	r22, 0xA0	; 160
    17b6:	70 e0       	ldi	r23, 0x00	; 0
    17b8:	c8 01       	movw	r24, r16
    17ba:	0e 94 5e 09 	call	0x12bc	; 0x12bc <LCD_12864_print_symbol>
    17be:	0a 5f       	subi	r16, 0xFA	; 250
    17c0:	1f 4f       	sbci	r17, 0xFF	; 255
    17c2:	c0 3b       	cpi	r28, 0xB0	; 176
    17c4:	d1 05       	cpc	r29, r1
    17c6:	89 f4       	brne	.+34     	; 0x17ea <LCD_12864_Decode_UTF8+0x114>
    17c8:	bb 20       	and	r11, r11
    17ca:	39 f0       	breq	.+14     	; 0x17da <LCD_12864_Decode_UTF8+0x104>
    17cc:	41 e0       	ldi	r20, 0x01	; 1
    17ce:	61 ea       	ldi	r22, 0xA1	; 161
    17d0:	70 e0       	ldi	r23, 0x00	; 0
    17d2:	c8 01       	movw	r24, r16
    17d4:	0e 94 5e 09 	call	0x12bc	; 0x12bc <LCD_12864_print_symbol>
    17d8:	06 c0       	rjmp	.+12     	; 0x17e6 <LCD_12864_Decode_UTF8+0x110>
    17da:	40 e0       	ldi	r20, 0x00	; 0
    17dc:	61 ea       	ldi	r22, 0xA1	; 161
    17de:	70 e0       	ldi	r23, 0x00	; 0
    17e0:	c8 01       	movw	r24, r16
    17e2:	0e 94 5e 09 	call	0x12bc	; 0x12bc <LCD_12864_print_symbol>
    17e6:	0a 5f       	subi	r16, 0xFA	; 250
    17e8:	1f 4f       	sbci	r17, 0xFF	; 255
    17ea:	8f ef       	ldi	r24, 0xFF	; 255
    17ec:	c8 1a       	sub	r12, r24
    17ee:	d8 0a       	sbc	r13, r24
    17f0:	f7 01       	movw	r30, r14
    17f2:	01 90       	ld	r0, Z+
    17f4:	00 20       	and	r0, r0
    17f6:	e9 f7       	brne	.-6      	; 0x17f2 <LCD_12864_Decode_UTF8+0x11c>
    17f8:	31 97       	sbiw	r30, 0x01	; 1
    17fa:	ee 19       	sub	r30, r14
    17fc:	ff 09       	sbc	r31, r15
    17fe:	ce 16       	cp	r12, r30
    1800:	df 06       	cpc	r13, r31
    1802:	08 f4       	brcc	.+2      	; 0x1806 <LCD_12864_Decode_UTF8+0x130>
    1804:	7c cf       	rjmp	.-264    	; 0x16fe <LCD_12864_Decode_UTF8+0x28>
    1806:	df 91       	pop	r29
    1808:	cf 91       	pop	r28
    180a:	1f 91       	pop	r17
    180c:	0f 91       	pop	r16
    180e:	ff 90       	pop	r15
    1810:	ef 90       	pop	r14
    1812:	df 90       	pop	r13
    1814:	cf 90       	pop	r12
    1816:	bf 90       	pop	r11
    1818:	08 95       	ret

0000181a <LCD_12864_Clean_Frame_buffer>:
    181a:	80 e0       	ldi	r24, 0x00	; 0
    181c:	94 e0       	ldi	r25, 0x04	; 4
    181e:	e7 eb       	ldi	r30, 0xB7	; 183
    1820:	f3 e0       	ldi	r31, 0x03	; 3
    1822:	df 01       	movw	r26, r30
    1824:	9c 01       	movw	r18, r24
    1826:	1d 92       	st	X+, r1
    1828:	21 50       	subi	r18, 0x01	; 1
    182a:	30 40       	sbci	r19, 0x00	; 0
    182c:	e1 f7       	brne	.-8      	; 0x1826 <LCD_12864_Clean_Frame_buffer+0xc>
    182e:	08 95       	ret

00001830 <LCD_12864_Draw_line>:
    1830:	8f 92       	push	r8
    1832:	9f 92       	push	r9
    1834:	af 92       	push	r10
    1836:	bf 92       	push	r11
    1838:	cf 92       	push	r12
    183a:	df 92       	push	r13
    183c:	ef 92       	push	r14
    183e:	ff 92       	push	r15
    1840:	0f 93       	push	r16
    1842:	1f 93       	push	r17
    1844:	cf 93       	push	r28
    1846:	df 93       	push	r29
    1848:	c8 2f       	mov	r28, r24
    184a:	d6 2f       	mov	r29, r22
    184c:	b4 2e       	mov	r11, r20
    184e:	82 2e       	mov	r8, r18
    1850:	48 17       	cp	r20, r24
    1852:	28 f0       	brcs	.+10     	; 0x185e <LCD_12864_Draw_line+0x2e>
    1854:	c4 2e       	mov	r12, r20
    1856:	d1 2c       	mov	r13, r1
    1858:	c8 1a       	sub	r12, r24
    185a:	d1 08       	sbc	r13, r1
    185c:	04 c0       	rjmp	.+8      	; 0x1866 <LCD_12864_Draw_line+0x36>
    185e:	c8 2e       	mov	r12, r24
    1860:	d1 2c       	mov	r13, r1
    1862:	c4 1a       	sub	r12, r20
    1864:	d1 08       	sbc	r13, r1
    1866:	8d 16       	cp	r8, r29
    1868:	28 f0       	brcs	.+10     	; 0x1874 <LCD_12864_Draw_line+0x44>
    186a:	e8 2c       	mov	r14, r8
    186c:	f1 2c       	mov	r15, r1
    186e:	ed 1a       	sub	r14, r29
    1870:	f1 08       	sbc	r15, r1
    1872:	04 c0       	rjmp	.+8      	; 0x187c <LCD_12864_Draw_line+0x4c>
    1874:	ed 2e       	mov	r14, r29
    1876:	f1 2c       	mov	r15, r1
    1878:	e8 18       	sub	r14, r8
    187a:	f1 08       	sbc	r15, r1
    187c:	cb 15       	cp	r28, r11
    187e:	18 f4       	brcc	.+6      	; 0x1886 <LCD_12864_Draw_line+0x56>
    1880:	aa 24       	eor	r10, r10
    1882:	a3 94       	inc	r10
    1884:	02 c0       	rjmp	.+4      	; 0x188a <LCD_12864_Draw_line+0x5a>
    1886:	aa 24       	eor	r10, r10
    1888:	aa 94       	dec	r10
    188a:	d8 15       	cp	r29, r8
    188c:	18 f4       	brcc	.+6      	; 0x1894 <LCD_12864_Draw_line+0x64>
    188e:	99 24       	eor	r9, r9
    1890:	93 94       	inc	r9
    1892:	02 c0       	rjmp	.+4      	; 0x1898 <LCD_12864_Draw_line+0x68>
    1894:	99 24       	eor	r9, r9
    1896:	9a 94       	dec	r9
    1898:	86 01       	movw	r16, r12
    189a:	0e 19       	sub	r16, r14
    189c:	1f 09       	sbc	r17, r15
    189e:	6d 2f       	mov	r22, r29
    18a0:	8c 2f       	mov	r24, r28
    18a2:	0e 94 c6 06 	call	0xd8c	; 0xd8c <LCD_12864_Draw_pixel>
    18a6:	cb 11       	cpse	r28, r11
    18a8:	02 c0       	rjmp	.+4      	; 0x18ae <LCD_12864_Draw_line+0x7e>
    18aa:	d8 15       	cp	r29, r8
    18ac:	a1 f0       	breq	.+40     	; 0x18d6 <LCD_12864_Draw_line+0xa6>
    18ae:	c8 01       	movw	r24, r16
    18b0:	88 0f       	add	r24, r24
    18b2:	99 1f       	adc	r25, r25
    18b4:	22 27       	eor	r18, r18
    18b6:	33 27       	eor	r19, r19
    18b8:	2e 19       	sub	r18, r14
    18ba:	3f 09       	sbc	r19, r15
    18bc:	28 17       	cp	r18, r24
    18be:	39 07       	cpc	r19, r25
    18c0:	1c f4       	brge	.+6      	; 0x18c8 <LCD_12864_Draw_line+0x98>
    18c2:	0e 19       	sub	r16, r14
    18c4:	1f 09       	sbc	r17, r15
    18c6:	ca 0d       	add	r28, r10
    18c8:	8c 15       	cp	r24, r12
    18ca:	9d 05       	cpc	r25, r13
    18cc:	44 f7       	brge	.-48     	; 0x189e <LCD_12864_Draw_line+0x6e>
    18ce:	0c 0d       	add	r16, r12
    18d0:	1d 1d       	adc	r17, r13
    18d2:	d9 0d       	add	r29, r9
    18d4:	e4 cf       	rjmp	.-56     	; 0x189e <LCD_12864_Draw_line+0x6e>
    18d6:	df 91       	pop	r29
    18d8:	cf 91       	pop	r28
    18da:	1f 91       	pop	r17
    18dc:	0f 91       	pop	r16
    18de:	ff 90       	pop	r15
    18e0:	ef 90       	pop	r14
    18e2:	df 90       	pop	r13
    18e4:	cf 90       	pop	r12
    18e6:	bf 90       	pop	r11
    18e8:	af 90       	pop	r10
    18ea:	9f 90       	pop	r9
    18ec:	8f 90       	pop	r8
    18ee:	08 95       	ret

000018f0 <LCD_12864_Draw_circle>:
/*---------------------------------Пустотелая окружность-----------------------------------*/
void LCD_12864_Draw_circle(uint8_t x, uint8_t y, uint8_t radius) {
    18f0:	5f 92       	push	r5
    18f2:	6f 92       	push	r6
    18f4:	7f 92       	push	r7
    18f6:	8f 92       	push	r8
    18f8:	9f 92       	push	r9
    18fa:	af 92       	push	r10
    18fc:	bf 92       	push	r11
    18fe:	cf 92       	push	r12
    1900:	df 92       	push	r13
    1902:	ef 92       	push	r14
    1904:	ff 92       	push	r15
    1906:	0f 93       	push	r16
    1908:	1f 93       	push	r17
    190a:	cf 93       	push	r28
    190c:	df 93       	push	r29
    190e:	78 2e       	mov	r7, r24
    1910:	66 2e       	mov	r6, r22
    1912:	c4 2f       	mov	r28, r20
	/// Вывести пустотелую окружность
	/// \param x - точка центра окружности по оси "x"
	/// \param y - точка центра окружности по оси "y"
	/// \param radius - радиус окружности

	int f = 1 - (int) radius;
    1914:	04 2f       	mov	r16, r20
    1916:	10 e0       	ldi	r17, 0x00	; 0
    1918:	81 e0       	ldi	r24, 0x01	; 1
    191a:	90 e0       	ldi	r25, 0x00	; 0
    191c:	6c 01       	movw	r12, r24
    191e:	c0 1a       	sub	r12, r16
    1920:	d1 0a       	sbc	r13, r17
	int ddF_x = 1;

	int ddF_y = -2 * (int) radius;
    1922:	aa 24       	eor	r10, r10
    1924:	bb 24       	eor	r11, r11
    1926:	a0 1a       	sub	r10, r16
    1928:	b1 0a       	sbc	r11, r17
    192a:	aa 0c       	add	r10, r10
    192c:	bb 1c       	adc	r11, r11
	int x_0 = 0;

	LCD_12864_Draw_pixel(x, y + radius);
    192e:	64 2f       	mov	r22, r20
    1930:	66 0d       	add	r22, r6
    1932:	87 2d       	mov	r24, r7
    1934:	0e 94 c6 06 	call	0xd8c	; 0xd8c <LCD_12864_Draw_pixel>
	LCD_12864_Draw_pixel(x, y - radius);
    1938:	66 2d       	mov	r22, r6
    193a:	6c 1b       	sub	r22, r28
    193c:	87 2d       	mov	r24, r7
    193e:	0e 94 c6 06 	call	0xd8c	; 0xd8c <LCD_12864_Draw_pixel>
	LCD_12864_Draw_pixel(x + radius, y);
    1942:	66 2d       	mov	r22, r6
    1944:	8c 2f       	mov	r24, r28
    1946:	87 0d       	add	r24, r7
    1948:	0e 94 c6 06 	call	0xd8c	; 0xd8c <LCD_12864_Draw_pixel>
	LCD_12864_Draw_pixel(x - radius, y);
    194c:	66 2d       	mov	r22, r6
    194e:	87 2d       	mov	r24, r7
    1950:	8c 1b       	sub	r24, r28
    1952:	0e 94 c6 06 	call	0xd8c	; 0xd8c <LCD_12864_Draw_pixel>

	int f = 1 - (int) radius;
	int ddF_x = 1;

	int ddF_y = -2 * (int) radius;
	int x_0 = 0;
    1956:	c0 e0       	ldi	r28, 0x00	; 0
    1958:	d0 e0       	ldi	r29, 0x00	; 0
	/// \param x - точка центра окружности по оси "x"
	/// \param y - точка центра окружности по оси "y"
	/// \param radius - радиус окружности

	int f = 1 - (int) radius;
	int ddF_x = 1;
    195a:	88 24       	eor	r8, r8
    195c:	83 94       	inc	r8
    195e:	91 2c       	mov	r9, r1
	LCD_12864_Draw_pixel(x, y - radius);
	LCD_12864_Draw_pixel(x + radius, y);
	LCD_12864_Draw_pixel(x - radius, y);

	int y_0 = radius;
	while (x_0 < y_0) {
    1960:	3f c0       	rjmp	.+126    	; 0x19e0 <LCD_12864_Draw_circle+0xf0>
		if (f >= 0) {
    1962:	dd 20       	and	r13, r13
    1964:	3c f0       	brlt	.+14     	; 0x1974 <LCD_12864_Draw_circle+0x84>
			y_0--;
    1966:	01 50       	subi	r16, 0x01	; 1
    1968:	11 09       	sbc	r17, r1
			ddF_y += 2;
    196a:	82 e0       	ldi	r24, 0x02	; 2
    196c:	a8 0e       	add	r10, r24
    196e:	b1 1c       	adc	r11, r1
			f += ddF_y;
    1970:	ca 0c       	add	r12, r10
    1972:	db 1c       	adc	r13, r11
		}
		x_0++;
    1974:	21 96       	adiw	r28, 0x01	; 1
		ddF_x += 2;
    1976:	82 e0       	ldi	r24, 0x02	; 2
    1978:	88 0e       	add	r8, r24
    197a:	91 1c       	adc	r9, r1
		f += ddF_x;
    197c:	c8 0c       	add	r12, r8
    197e:	d9 1c       	adc	r13, r9
		LCD_12864_Draw_pixel(x + x_0, y + y_0);
    1980:	5c 2e       	mov	r5, r28
    1982:	57 0c       	add	r5, r7
    1984:	f6 2c       	mov	r15, r6
    1986:	f0 0e       	add	r15, r16
    1988:	6f 2d       	mov	r22, r15
    198a:	85 2d       	mov	r24, r5
    198c:	0e 94 c6 06 	call	0xd8c	; 0xd8c <LCD_12864_Draw_pixel>
		LCD_12864_Draw_pixel(x - x_0, y + y_0);
    1990:	e7 2c       	mov	r14, r7
    1992:	ec 1a       	sub	r14, r28
    1994:	6f 2d       	mov	r22, r15
    1996:	8e 2d       	mov	r24, r14
    1998:	0e 94 c6 06 	call	0xd8c	; 0xd8c <LCD_12864_Draw_pixel>
		LCD_12864_Draw_pixel(x + x_0, y - y_0);
    199c:	f6 2c       	mov	r15, r6
    199e:	f0 1a       	sub	r15, r16
    19a0:	6f 2d       	mov	r22, r15
    19a2:	85 2d       	mov	r24, r5
    19a4:	0e 94 c6 06 	call	0xd8c	; 0xd8c <LCD_12864_Draw_pixel>
		LCD_12864_Draw_pixel(x - x_0, y - y_0);
    19a8:	6f 2d       	mov	r22, r15
    19aa:	8e 2d       	mov	r24, r14
    19ac:	0e 94 c6 06 	call	0xd8c	; 0xd8c <LCD_12864_Draw_pixel>
		LCD_12864_Draw_pixel(x + y_0, y + x_0);
    19b0:	fc 2e       	mov	r15, r28
    19b2:	f6 0c       	add	r15, r6
    19b4:	6f 2d       	mov	r22, r15
    19b6:	e7 2c       	mov	r14, r7
    19b8:	e0 0e       	add	r14, r16
    19ba:	8e 2d       	mov	r24, r14
    19bc:	0e 94 c6 06 	call	0xd8c	; 0xd8c <LCD_12864_Draw_pixel>
		LCD_12864_Draw_pixel(x - y_0, y + x_0);
    19c0:	6f 2d       	mov	r22, r15
    19c2:	f7 2c       	mov	r15, r7
    19c4:	f0 1a       	sub	r15, r16
    19c6:	8f 2d       	mov	r24, r15
    19c8:	0e 94 c6 06 	call	0xd8c	; 0xd8c <LCD_12864_Draw_pixel>
		LCD_12864_Draw_pixel(x + y_0, y - x_0);
    19cc:	56 2c       	mov	r5, r6
    19ce:	5c 1a       	sub	r5, r28
    19d0:	65 2d       	mov	r22, r5
    19d2:	8e 2d       	mov	r24, r14
    19d4:	0e 94 c6 06 	call	0xd8c	; 0xd8c <LCD_12864_Draw_pixel>
		LCD_12864_Draw_pixel(x - y_0, y - x_0);
    19d8:	65 2d       	mov	r22, r5
    19da:	8f 2d       	mov	r24, r15
    19dc:	0e 94 c6 06 	call	0xd8c	; 0xd8c <LCD_12864_Draw_pixel>
	LCD_12864_Draw_pixel(x, y - radius);
	LCD_12864_Draw_pixel(x + radius, y);
	LCD_12864_Draw_pixel(x - radius, y);

	int y_0 = radius;
	while (x_0 < y_0) {
    19e0:	c0 17       	cp	r28, r16
    19e2:	d1 07       	cpc	r29, r17
    19e4:	0c f4       	brge	.+2      	; 0x19e8 <LCD_12864_Draw_circle+0xf8>
    19e6:	bd cf       	rjmp	.-134    	; 0x1962 <LCD_12864_Draw_circle+0x72>
		LCD_12864_Draw_pixel(x + y_0, y + x_0);
		LCD_12864_Draw_pixel(x - y_0, y + x_0);
		LCD_12864_Draw_pixel(x + y_0, y - x_0);
		LCD_12864_Draw_pixel(x - y_0, y - x_0);
	}
}
    19e8:	df 91       	pop	r29
    19ea:	cf 91       	pop	r28
    19ec:	1f 91       	pop	r17
    19ee:	0f 91       	pop	r16
    19f0:	ff 90       	pop	r15
    19f2:	ef 90       	pop	r14
    19f4:	df 90       	pop	r13
    19f6:	cf 90       	pop	r12
    19f8:	bf 90       	pop	r11
    19fa:	af 90       	pop	r10
    19fc:	9f 90       	pop	r9
    19fe:	8f 90       	pop	r8
    1a00:	7f 90       	pop	r7
    1a02:	6f 90       	pop	r6
    1a04:	5f 90       	pop	r5
    1a06:	08 95       	ret

00001a08 <timer1_ini>:
void enc_interrupt_ini(void)
{
	//включим прерывания INT1 по нисходящему фронту
	MCUCR |= (1<<ISC11);
	//разрешим внешние прерывания INT1
	EIMSK |= (1<<INT1);
    1a08:	e1 e8       	ldi	r30, 0x81	; 129
    1a0a:	f0 e0       	ldi	r31, 0x00	; 0
    1a0c:	80 81       	ld	r24, Z
    1a0e:	88 60       	ori	r24, 0x08	; 8
    1a10:	80 83       	st	Z, r24
    1a12:	af e6       	ldi	r26, 0x6F	; 111
    1a14:	b0 e0       	ldi	r27, 0x00	; 0
    1a16:	8c 91       	ld	r24, X
    1a18:	82 60       	ori	r24, 0x02	; 2
    1a1a:	8c 93       	st	X, r24
    1a1c:	8a e7       	ldi	r24, 0x7A	; 122
    1a1e:	80 93 89 00 	sts	0x0089, r24	; 0x800089 <__TEXT_REGION_LENGTH__+0x7f8089>
    1a22:	82 e1       	ldi	r24, 0x12	; 18
    1a24:	80 93 88 00 	sts	0x0088, r24	; 0x800088 <__TEXT_REGION_LENGTH__+0x7f8088>
    1a28:	80 81       	ld	r24, Z
    1a2a:	85 60       	ori	r24, 0x05	; 5
    1a2c:	80 83       	st	Z, r24
    1a2e:	08 95       	ret

00001a30 <timer0_ini>:
    1a30:	85 b5       	in	r24, 0x25	; 37
    1a32:	82 60       	ori	r24, 0x02	; 2
    1a34:	85 bd       	out	0x25, r24	; 37
    1a36:	84 e6       	ldi	r24, 0x64	; 100
    1a38:	87 bd       	out	0x27, r24	; 39
    1a3a:	85 b5       	in	r24, 0x25	; 37
    1a3c:	82 60       	ori	r24, 0x02	; 2
    1a3e:	85 bd       	out	0x25, r24	; 37
    1a40:	ee e6       	ldi	r30, 0x6E	; 110
    1a42:	f0 e0       	ldi	r31, 0x00	; 0
    1a44:	80 81       	ld	r24, Z
    1a46:	82 60       	ori	r24, 0x02	; 2
    1a48:	80 83       	st	Z, r24
    1a4a:	08 95       	ret

00001a4c <__vector_11>:
    1a4c:	1f 92       	push	r1
    1a4e:	0f 92       	push	r0
    1a50:	0f b6       	in	r0, 0x3f	; 63
    1a52:	0f 92       	push	r0
    1a54:	11 24       	eor	r1, r1
    1a56:	2f 93       	push	r18
    1a58:	3f 93       	push	r19
    1a5a:	4f 93       	push	r20
    1a5c:	5f 93       	push	r21
    1a5e:	6f 93       	push	r22
    1a60:	7f 93       	push	r23
    1a62:	8f 93       	push	r24
    1a64:	9f 93       	push	r25
    1a66:	af 93       	push	r26
    1a68:	bf 93       	push	r27
    1a6a:	ef 93       	push	r30
    1a6c:	ff 93       	push	r31
    1a6e:	80 91 ad 03 	lds	r24, 0x03AD	; 0x8003ad <temp_street>
    1a72:	88 23       	and	r24, r24
    1a74:	09 f4       	brne	.+2      	; 0x1a78 <__vector_11+0x2c>
    1a76:	4c c0       	rjmp	.+152    	; 0x1b10 <__vector_11+0xc4>
    1a78:	80 91 a3 03 	lds	r24, 0x03A3	; 0x8003a3 <hum_street>
    1a7c:	88 23       	and	r24, r24
    1a7e:	09 f4       	brne	.+2      	; 0x1a82 <__vector_11+0x36>
    1a80:	47 c0       	rjmp	.+142    	; 0x1b10 <__vector_11+0xc4>
    1a82:	80 91 7b 03 	lds	r24, 0x037B	; 0x80037b <WIND_speed>
    1a86:	88 23       	and	r24, r24
    1a88:	09 f4       	brne	.+2      	; 0x1a8c <__vector_11+0x40>
    1a8a:	42 c0       	rjmp	.+132    	; 0x1b10 <__vector_11+0xc4>
    1a8c:	80 91 49 03 	lds	r24, 0x0349	; 0x800349 <Rain>
    1a90:	88 23       	and	r24, r24
    1a92:	f1 f1       	breq	.+124    	; 0x1b10 <__vector_11+0xc4>
    1a94:	80 91 53 03 	lds	r24, 0x0353	; 0x800353 <Vbat>
    1a98:	88 23       	and	r24, r24
    1a9a:	d1 f1       	breq	.+116    	; 0x1b10 <__vector_11+0xc4>
    1a9c:	80 91 71 03 	lds	r24, 0x0371	; 0x800371 <wind_direction>
    1aa0:	88 23       	and	r24, r24
    1aa2:	b1 f1       	breq	.+108    	; 0x1b10 <__vector_11+0xc4>
    1aa4:	8d ea       	ldi	r24, 0xAD	; 173
    1aa6:	93 e0       	ldi	r25, 0x03	; 3
    1aa8:	9f 93       	push	r25
    1aaa:	8f 93       	push	r24
    1aac:	89 e1       	ldi	r24, 0x19	; 25
    1aae:	91 e0       	ldi	r25, 0x01	; 1
    1ab0:	9f 93       	push	r25
    1ab2:	8f 93       	push	r24
    1ab4:	87 e1       	ldi	r24, 0x17	; 23
    1ab6:	93 e0       	ldi	r25, 0x03	; 3
    1ab8:	9f 93       	push	r25
    1aba:	8f 93       	push	r24
    1abc:	0e 94 fe 2a 	call	0x55fc	; 0x55fc <sprintf>
    1ac0:	6b e7       	ldi	r22, 0x7B	; 123
    1ac2:	73 e0       	ldi	r23, 0x03	; 3
    1ac4:	87 e1       	ldi	r24, 0x17	; 23
    1ac6:	93 e0       	ldi	r25, 0x03	; 3
    1ac8:	0e 94 a3 2a 	call	0x5546	; 0x5546 <strcat>
    1acc:	69 e4       	ldi	r22, 0x49	; 73
    1ace:	73 e0       	ldi	r23, 0x03	; 3
    1ad0:	87 e1       	ldi	r24, 0x17	; 23
    1ad2:	93 e0       	ldi	r25, 0x03	; 3
    1ad4:	0e 94 a3 2a 	call	0x5546	; 0x5546 <strcat>
    1ad8:	63 ea       	ldi	r22, 0xA3	; 163
    1ada:	73 e0       	ldi	r23, 0x03	; 3
    1adc:	87 e1       	ldi	r24, 0x17	; 23
    1ade:	93 e0       	ldi	r25, 0x03	; 3
    1ae0:	0e 94 a3 2a 	call	0x5546	; 0x5546 <strcat>
    1ae4:	63 e5       	ldi	r22, 0x53	; 83
    1ae6:	73 e0       	ldi	r23, 0x03	; 3
    1ae8:	87 e1       	ldi	r24, 0x17	; 23
    1aea:	93 e0       	ldi	r25, 0x03	; 3
    1aec:	0e 94 a3 2a 	call	0x5546	; 0x5546 <strcat>
    1af0:	61 e7       	ldi	r22, 0x71	; 113
    1af2:	73 e0       	ldi	r23, 0x03	; 3
    1af4:	87 e1       	ldi	r24, 0x17	; 23
    1af6:	93 e0       	ldi	r25, 0x03	; 3
    1af8:	0e 94 a3 2a 	call	0x5546	; 0x5546 <strcat>
    1afc:	87 e1       	ldi	r24, 0x17	; 23
    1afe:	93 e0       	ldi	r25, 0x03	; 3
    1b00:	0e 94 38 14 	call	0x2870	; 0x2870 <USART_Transmit>
    1b04:	0f 90       	pop	r0
    1b06:	0f 90       	pop	r0
    1b08:	0f 90       	pop	r0
    1b0a:	0f 90       	pop	r0
    1b0c:	0f 90       	pop	r0
    1b0e:	0f 90       	pop	r0
    1b10:	ff 91       	pop	r31
    1b12:	ef 91       	pop	r30
    1b14:	bf 91       	pop	r27
    1b16:	af 91       	pop	r26
    1b18:	9f 91       	pop	r25
    1b1a:	8f 91       	pop	r24
    1b1c:	7f 91       	pop	r23
    1b1e:	6f 91       	pop	r22
    1b20:	5f 91       	pop	r21
    1b22:	4f 91       	pop	r20
    1b24:	3f 91       	pop	r19
    1b26:	2f 91       	pop	r18
    1b28:	0f 90       	pop	r0
    1b2a:	0f be       	out	0x3f, r0	; 63
    1b2c:	0f 90       	pop	r0
    1b2e:	1f 90       	pop	r1
    1b30:	18 95       	reti

00001b32 <__vector_14>:
    1b32:	1f 92       	push	r1
    1b34:	0f 92       	push	r0
    1b36:	0f b6       	in	r0, 0x3f	; 63
    1b38:	0f 92       	push	r0
    1b3a:	11 24       	eor	r1, r1
    1b3c:	2f 93       	push	r18
    1b3e:	3f 93       	push	r19
    1b40:	4f 93       	push	r20
    1b42:	5f 93       	push	r21
    1b44:	6f 93       	push	r22
    1b46:	7f 93       	push	r23
    1b48:	8f 93       	push	r24
    1b4a:	9f 93       	push	r25
    1b4c:	af 93       	push	r26
    1b4e:	bf 93       	push	r27
    1b50:	ef 93       	push	r30
    1b52:	ff 93       	push	r31
    1b54:	83 b1       	in	r24, 0x03	; 3
    1b56:	82 95       	swap	r24
    1b58:	86 95       	lsr	r24
    1b5a:	86 95       	lsr	r24
    1b5c:	83 70       	andi	r24, 0x03	; 3
    1b5e:	80 93 f9 02 	sts	0x02F9, r24	; 0x8002f9 <new_state.2603>
    1b62:	4b 99       	sbic	0x09, 3	; 9
    1b64:	f6 c0       	rjmp	.+492    	; 0x1d52 <__vector_14+0x220>
    1b66:	80 91 fd 02 	lds	r24, 0x02FD	; 0x8002fd <menu_flag>
    1b6a:	82 30       	cpi	r24, 0x02	; 2
    1b6c:	91 f1       	breq	.+100    	; 0x1bd2 <__vector_14+0xa0>
    1b6e:	28 f4       	brcc	.+10     	; 0x1b7a <__vector_14+0x48>
    1b70:	88 23       	and	r24, r24
    1b72:	51 f0       	breq	.+20     	; 0x1b88 <__vector_14+0x56>
    1b74:	81 30       	cpi	r24, 0x01	; 1
    1b76:	61 f0       	breq	.+24     	; 0x1b90 <__vector_14+0x5e>
    1b78:	ec c0       	rjmp	.+472    	; 0x1d52 <__vector_14+0x220>
    1b7a:	83 30       	cpi	r24, 0x03	; 3
    1b7c:	09 f4       	brne	.+2      	; 0x1b80 <__vector_14+0x4e>
    1b7e:	e2 c0       	rjmp	.+452    	; 0x1d44 <__vector_14+0x212>
    1b80:	84 30       	cpi	r24, 0x04	; 4
    1b82:	09 f4       	brne	.+2      	; 0x1b86 <__vector_14+0x54>
    1b84:	e3 c0       	rjmp	.+454    	; 0x1d4c <__vector_14+0x21a>
    1b86:	e5 c0       	rjmp	.+458    	; 0x1d52 <__vector_14+0x220>
    1b88:	81 e0       	ldi	r24, 0x01	; 1
    1b8a:	80 93 fd 02 	sts	0x02FD, r24	; 0x8002fd <menu_flag>
    1b8e:	e1 c0       	rjmp	.+450    	; 0x1d52 <__vector_14+0x220>
    1b90:	80 91 fa 02 	lds	r24, 0x02FA	; 0x8002fa <cnt>
    1b94:	83 78       	andi	r24, 0x83	; 131
    1b96:	1c f4       	brge	.+6      	; 0x1b9e <__vector_14+0x6c>
    1b98:	81 50       	subi	r24, 0x01	; 1
    1b9a:	8c 6f       	ori	r24, 0xFC	; 252
    1b9c:	8f 5f       	subi	r24, 0xFF	; 255
    1b9e:	81 30       	cpi	r24, 0x01	; 1
    1ba0:	61 f0       	breq	.+24     	; 0x1bba <__vector_14+0x88>
    1ba2:	1c f4       	brge	.+6      	; 0x1baa <__vector_14+0x78>
    1ba4:	88 23       	and	r24, r24
    1ba6:	31 f0       	breq	.+12     	; 0x1bb4 <__vector_14+0x82>
    1ba8:	d4 c0       	rjmp	.+424    	; 0x1d52 <__vector_14+0x220>
    1baa:	82 30       	cpi	r24, 0x02	; 2
    1bac:	51 f0       	breq	.+20     	; 0x1bc2 <__vector_14+0x90>
    1bae:	83 30       	cpi	r24, 0x03	; 3
    1bb0:	61 f0       	breq	.+24     	; 0x1bca <__vector_14+0x98>
    1bb2:	cf c0       	rjmp	.+414    	; 0x1d52 <__vector_14+0x220>
    1bb4:	10 92 fd 02 	sts	0x02FD, r1	; 0x8002fd <menu_flag>
    1bb8:	cc c0       	rjmp	.+408    	; 0x1d52 <__vector_14+0x220>
    1bba:	82 e0       	ldi	r24, 0x02	; 2
    1bbc:	80 93 fd 02 	sts	0x02FD, r24	; 0x8002fd <menu_flag>
    1bc0:	c8 c0       	rjmp	.+400    	; 0x1d52 <__vector_14+0x220>
    1bc2:	83 e0       	ldi	r24, 0x03	; 3
    1bc4:	80 93 fd 02 	sts	0x02FD, r24	; 0x8002fd <menu_flag>
    1bc8:	c4 c0       	rjmp	.+392    	; 0x1d52 <__vector_14+0x220>
    1bca:	84 e0       	ldi	r24, 0x04	; 4
    1bcc:	80 93 fd 02 	sts	0x02FD, r24	; 0x8002fd <menu_flag>
    1bd0:	c0 c0       	rjmp	.+384    	; 0x1d52 <__vector_14+0x220>
    1bd2:	90 91 fa 02 	lds	r25, 0x02FA	; 0x8002fa <cnt>
    1bd6:	83 e9       	ldi	r24, 0x93	; 147
    1bd8:	98 02       	muls	r25, r24
    1bda:	81 2d       	mov	r24, r1
    1bdc:	11 24       	eor	r1, r1
    1bde:	89 0f       	add	r24, r25
    1be0:	85 95       	asr	r24
    1be2:	85 95       	asr	r24
    1be4:	e8 2f       	mov	r30, r24
    1be6:	97 fd       	sbrc	r25, 7
    1be8:	e3 95       	inc	r30
    1bea:	8e 2f       	mov	r24, r30
    1bec:	88 0f       	add	r24, r24
    1bee:	88 0f       	add	r24, r24
    1bf0:	88 0f       	add	r24, r24
    1bf2:	8e 1b       	sub	r24, r30
    1bf4:	e9 2f       	mov	r30, r25
    1bf6:	e8 1b       	sub	r30, r24
    1bf8:	8e 2f       	mov	r24, r30
    1bfa:	ee 0f       	add	r30, r30
    1bfc:	99 0b       	sbc	r25, r25
    1bfe:	aa 0b       	sbc	r26, r26
    1c00:	bb 0b       	sbc	r27, r27
    1c02:	87 30       	cpi	r24, 0x07	; 7
    1c04:	91 05       	cpc	r25, r1
    1c06:	08 f0       	brcs	.+2      	; 0x1c0a <__vector_14+0xd8>
    1c08:	a4 c0       	rjmp	.+328    	; 0x1d52 <__vector_14+0x220>
    1c0a:	fc 01       	movw	r30, r24
    1c0c:	ec 5c       	subi	r30, 0xCC	; 204
    1c0e:	ff 4f       	sbci	r31, 0xFF	; 255
    1c10:	0c 94 5a 29 	jmp	0x52b4	; 0x52b4 <__tablejump2__>
    1c14:	80 91 fc 02 	lds	r24, 0x02FC	; 0x8002fc <change_flag>
    1c18:	81 11       	cpse	r24, r1
    1c1a:	08 c0       	rjmp	.+16     	; 0x1c2c <__vector_14+0xfa>
    1c1c:	80 91 f2 07 	lds	r24, 0x07F2	; 0x8007f2 <hour>
    1c20:	80 93 fb 02 	sts	0x02FB, r24	; 0x8002fb <add_cnt>
    1c24:	81 e0       	ldi	r24, 0x01	; 1
    1c26:	80 93 fc 02 	sts	0x02FC, r24	; 0x8002fc <change_flag>
    1c2a:	93 c0       	rjmp	.+294    	; 0x1d52 <__vector_14+0x220>
    1c2c:	80 91 fb 02 	lds	r24, 0x02FB	; 0x8002fb <add_cnt>
    1c30:	80 93 f2 07 	sts	0x07F2, r24	; 0x8007f2 <hour>
    1c34:	81 e0       	ldi	r24, 0x01	; 1
    1c36:	80 93 f9 07 	sts	0x07F9, r24	; 0x8007f9 <clock_change_mode>
    1c3a:	0e 94 24 13 	call	0x2648	; 0x2648 <ModifyRTC>
    1c3e:	10 92 fc 02 	sts	0x02FC, r1	; 0x8002fc <change_flag>
    1c42:	87 c0       	rjmp	.+270    	; 0x1d52 <__vector_14+0x220>
    1c44:	80 91 fc 02 	lds	r24, 0x02FC	; 0x8002fc <change_flag>
    1c48:	81 11       	cpse	r24, r1
    1c4a:	08 c0       	rjmp	.+16     	; 0x1c5c <__vector_14+0x12a>
    1c4c:	80 91 fe 07 	lds	r24, 0x07FE	; 0x8007fe <min>
    1c50:	80 93 fb 02 	sts	0x02FB, r24	; 0x8002fb <add_cnt>
    1c54:	81 e0       	ldi	r24, 0x01	; 1
    1c56:	80 93 fc 02 	sts	0x02FC, r24	; 0x8002fc <change_flag>
    1c5a:	7b c0       	rjmp	.+246    	; 0x1d52 <__vector_14+0x220>
    1c5c:	80 91 fb 02 	lds	r24, 0x02FB	; 0x8002fb <add_cnt>
    1c60:	80 93 fe 07 	sts	0x07FE, r24	; 0x8007fe <min>
    1c64:	82 e0       	ldi	r24, 0x02	; 2
    1c66:	80 93 f9 07 	sts	0x07F9, r24	; 0x8007f9 <clock_change_mode>
    1c6a:	0e 94 24 13 	call	0x2648	; 0x2648 <ModifyRTC>
    1c6e:	10 92 fc 02 	sts	0x02FC, r1	; 0x8002fc <change_flag>
    1c72:	6f c0       	rjmp	.+222    	; 0x1d52 <__vector_14+0x220>
    1c74:	80 91 fc 02 	lds	r24, 0x02FC	; 0x8002fc <change_flag>
    1c78:	81 11       	cpse	r24, r1
    1c7a:	08 c0       	rjmp	.+16     	; 0x1c8c <__vector_14+0x15a>
    1c7c:	80 91 09 08 	lds	r24, 0x0809	; 0x800809 <day>
    1c80:	80 93 fb 02 	sts	0x02FB, r24	; 0x8002fb <add_cnt>
    1c84:	81 e0       	ldi	r24, 0x01	; 1
    1c86:	80 93 fc 02 	sts	0x02FC, r24	; 0x8002fc <change_flag>
    1c8a:	63 c0       	rjmp	.+198    	; 0x1d52 <__vector_14+0x220>
    1c8c:	80 91 fb 02 	lds	r24, 0x02FB	; 0x8002fb <add_cnt>
    1c90:	80 93 09 08 	sts	0x0809, r24	; 0x800809 <day>
    1c94:	86 e0       	ldi	r24, 0x06	; 6
    1c96:	80 93 f9 07 	sts	0x07F9, r24	; 0x8007f9 <clock_change_mode>
    1c9a:	0e 94 24 13 	call	0x2648	; 0x2648 <ModifyRTC>
    1c9e:	10 92 fc 02 	sts	0x02FC, r1	; 0x8002fc <change_flag>
    1ca2:	57 c0       	rjmp	.+174    	; 0x1d52 <__vector_14+0x220>
    1ca4:	80 91 fc 02 	lds	r24, 0x02FC	; 0x8002fc <change_flag>
    1ca8:	81 11       	cpse	r24, r1
    1caa:	08 c0       	rjmp	.+16     	; 0x1cbc <__vector_14+0x18a>
    1cac:	80 91 0b 08 	lds	r24, 0x080B	; 0x80080b <date>
    1cb0:	80 93 fb 02 	sts	0x02FB, r24	; 0x8002fb <add_cnt>
    1cb4:	81 e0       	ldi	r24, 0x01	; 1
    1cb6:	80 93 fc 02 	sts	0x02FC, r24	; 0x8002fc <change_flag>
    1cba:	4b c0       	rjmp	.+150    	; 0x1d52 <__vector_14+0x220>
    1cbc:	80 91 fb 02 	lds	r24, 0x02FB	; 0x8002fb <add_cnt>
    1cc0:	80 93 0b 08 	sts	0x080B, r24	; 0x80080b <date>
    1cc4:	83 e0       	ldi	r24, 0x03	; 3
    1cc6:	80 93 f9 07 	sts	0x07F9, r24	; 0x8007f9 <clock_change_mode>
    1cca:	0e 94 24 13 	call	0x2648	; 0x2648 <ModifyRTC>
    1cce:	10 92 fc 02 	sts	0x02FC, r1	; 0x8002fc <change_flag>
    1cd2:	3f c0       	rjmp	.+126    	; 0x1d52 <__vector_14+0x220>
    1cd4:	80 91 fc 02 	lds	r24, 0x02FC	; 0x8002fc <change_flag>
    1cd8:	81 11       	cpse	r24, r1
    1cda:	08 c0       	rjmp	.+16     	; 0x1cec <__vector_14+0x1ba>
    1cdc:	80 91 ee 07 	lds	r24, 0x07EE	; 0x8007ee <month>
    1ce0:	80 93 fb 02 	sts	0x02FB, r24	; 0x8002fb <add_cnt>
    1ce4:	81 e0       	ldi	r24, 0x01	; 1
    1ce6:	80 93 fc 02 	sts	0x02FC, r24	; 0x8002fc <change_flag>
    1cea:	33 c0       	rjmp	.+102    	; 0x1d52 <__vector_14+0x220>
    1cec:	80 91 fb 02 	lds	r24, 0x02FB	; 0x8002fb <add_cnt>
    1cf0:	80 93 ee 07 	sts	0x07EE, r24	; 0x8007ee <month>
    1cf4:	84 e0       	ldi	r24, 0x04	; 4
    1cf6:	80 93 f9 07 	sts	0x07F9, r24	; 0x8007f9 <clock_change_mode>
    1cfa:	0e 94 24 13 	call	0x2648	; 0x2648 <ModifyRTC>
    1cfe:	10 92 fc 02 	sts	0x02FC, r1	; 0x8002fc <change_flag>
    1d02:	27 c0       	rjmp	.+78     	; 0x1d52 <__vector_14+0x220>
    1d04:	80 91 fc 02 	lds	r24, 0x02FC	; 0x8002fc <change_flag>
    1d08:	81 11       	cpse	r24, r1
    1d0a:	08 c0       	rjmp	.+16     	; 0x1d1c <__vector_14+0x1ea>
    1d0c:	80 91 07 08 	lds	r24, 0x0807	; 0x800807 <year>
    1d10:	80 93 fb 02 	sts	0x02FB, r24	; 0x8002fb <add_cnt>
    1d14:	81 e0       	ldi	r24, 0x01	; 1
    1d16:	80 93 fc 02 	sts	0x02FC, r24	; 0x8002fc <change_flag>
    1d1a:	1b c0       	rjmp	.+54     	; 0x1d52 <__vector_14+0x220>
    1d1c:	80 91 fb 02 	lds	r24, 0x02FB	; 0x8002fb <add_cnt>
    1d20:	80 93 07 08 	sts	0x0807, r24	; 0x800807 <year>
    1d24:	85 e0       	ldi	r24, 0x05	; 5
    1d26:	80 93 f9 07 	sts	0x07F9, r24	; 0x8007f9 <clock_change_mode>
    1d2a:	0e 94 24 13 	call	0x2648	; 0x2648 <ModifyRTC>
    1d2e:	10 92 fc 02 	sts	0x02FC, r1	; 0x8002fc <change_flag>
    1d32:	0f c0       	rjmp	.+30     	; 0x1d52 <__vector_14+0x220>
    1d34:	10 92 f9 07 	sts	0x07F9, r1	; 0x8007f9 <clock_change_mode>
    1d38:	81 e0       	ldi	r24, 0x01	; 1
    1d3a:	80 93 fd 02 	sts	0x02FD, r24	; 0x8002fd <menu_flag>
    1d3e:	80 93 fa 02 	sts	0x02FA, r24	; 0x8002fa <cnt>
    1d42:	07 c0       	rjmp	.+14     	; 0x1d52 <__vector_14+0x220>
    1d44:	81 e0       	ldi	r24, 0x01	; 1
    1d46:	80 93 fd 02 	sts	0x02FD, r24	; 0x8002fd <menu_flag>
    1d4a:	03 c0       	rjmp	.+6      	; 0x1d52 <__vector_14+0x220>
    1d4c:	81 e0       	ldi	r24, 0x01	; 1
    1d4e:	80 93 fd 02 	sts	0x02FD, r24	; 0x8002fd <menu_flag>
    1d52:	90 91 f9 02 	lds	r25, 0x02F9	; 0x8002f9 <new_state.2603>
    1d56:	80 91 f8 02 	lds	r24, 0x02F8	; 0x8002f8 <old_state.2604>
    1d5a:	89 2b       	or	r24, r25
    1d5c:	84 30       	cpi	r24, 0x04	; 4
    1d5e:	c1 f0       	breq	.+48     	; 0x1d90 <__vector_14+0x25e>
    1d60:	18 f4       	brcc	.+6      	; 0x1d68 <__vector_14+0x236>
    1d62:	81 30       	cpi	r24, 0x01	; 1
    1d64:	29 f0       	breq	.+10     	; 0x1d70 <__vector_14+0x23e>
    1d66:	23 c0       	rjmp	.+70     	; 0x1dae <__vector_14+0x27c>
    1d68:	8b 30       	cpi	r24, 0x0B	; 11
    1d6a:	91 f0       	breq	.+36     	; 0x1d90 <__vector_14+0x25e>
    1d6c:	8e 30       	cpi	r24, 0x0E	; 14
    1d6e:	f9 f4       	brne	.+62     	; 0x1dae <__vector_14+0x27c>
    1d70:	80 91 fc 02 	lds	r24, 0x02FC	; 0x8002fc <change_flag>
    1d74:	88 23       	and	r24, r24
    1d76:	31 f0       	breq	.+12     	; 0x1d84 <__vector_14+0x252>
    1d78:	80 91 fb 02 	lds	r24, 0x02FB	; 0x8002fb <add_cnt>
    1d7c:	8f 5f       	subi	r24, 0xFF	; 255
    1d7e:	80 93 fb 02 	sts	0x02FB, r24	; 0x8002fb <add_cnt>
    1d82:	15 c0       	rjmp	.+42     	; 0x1dae <__vector_14+0x27c>
    1d84:	80 91 fa 02 	lds	r24, 0x02FA	; 0x8002fa <cnt>
    1d88:	8f 5f       	subi	r24, 0xFF	; 255
    1d8a:	80 93 fa 02 	sts	0x02FA, r24	; 0x8002fa <cnt>
    1d8e:	0f c0       	rjmp	.+30     	; 0x1dae <__vector_14+0x27c>
    1d90:	80 91 fc 02 	lds	r24, 0x02FC	; 0x8002fc <change_flag>
    1d94:	88 23       	and	r24, r24
    1d96:	31 f0       	breq	.+12     	; 0x1da4 <__vector_14+0x272>
    1d98:	80 91 fb 02 	lds	r24, 0x02FB	; 0x8002fb <add_cnt>
    1d9c:	81 50       	subi	r24, 0x01	; 1
    1d9e:	80 93 fb 02 	sts	0x02FB, r24	; 0x8002fb <add_cnt>
    1da2:	05 c0       	rjmp	.+10     	; 0x1dae <__vector_14+0x27c>
    1da4:	80 91 fa 02 	lds	r24, 0x02FA	; 0x8002fa <cnt>
    1da8:	81 50       	subi	r24, 0x01	; 1
    1daa:	80 93 fa 02 	sts	0x02FA, r24	; 0x8002fa <cnt>
    1dae:	99 0f       	add	r25, r25
    1db0:	99 0f       	add	r25, r25
    1db2:	90 93 f8 02 	sts	0x02F8, r25	; 0x8002f8 <old_state.2604>
    1db6:	80 91 fa 02 	lds	r24, 0x02FA	; 0x8002fa <cnt>
    1dba:	88 37       	cpi	r24, 0x78	; 120
    1dbc:	1c f0       	brlt	.+6      	; 0x1dc4 <__vector_14+0x292>
    1dbe:	10 92 fa 02 	sts	0x02FA, r1	; 0x8002fa <cnt>
    1dc2:	05 c0       	rjmp	.+10     	; 0x1dce <__vector_14+0x29c>
    1dc4:	88 23       	and	r24, r24
    1dc6:	1c f4       	brge	.+6      	; 0x1dce <__vector_14+0x29c>
    1dc8:	87 e7       	ldi	r24, 0x77	; 119
    1dca:	80 93 fa 02 	sts	0x02FA, r24	; 0x8002fa <cnt>
    1dce:	90 91 fa 02 	lds	r25, 0x02FA	; 0x8002fa <cnt>
    1dd2:	83 e9       	ldi	r24, 0x93	; 147
    1dd4:	98 02       	muls	r25, r24
    1dd6:	81 2d       	mov	r24, r1
    1dd8:	11 24       	eor	r1, r1
    1dda:	89 0f       	add	r24, r25
    1ddc:	85 95       	asr	r24
    1dde:	85 95       	asr	r24
    1de0:	97 fd       	sbrc	r25, 7
    1de2:	83 95       	inc	r24
    1de4:	28 2f       	mov	r18, r24
    1de6:	22 0f       	add	r18, r18
    1de8:	22 0f       	add	r18, r18
    1dea:	22 0f       	add	r18, r18
    1dec:	28 1b       	sub	r18, r24
    1dee:	92 1b       	sub	r25, r18
    1df0:	92 30       	cpi	r25, 0x02	; 2
    1df2:	41 f1       	breq	.+80     	; 0x1e44 <__vector_14+0x312>
    1df4:	2c f4       	brge	.+10     	; 0x1e00 <__vector_14+0x2ce>
    1df6:	99 23       	and	r25, r25
    1df8:	51 f0       	breq	.+20     	; 0x1e0e <__vector_14+0x2dc>
    1dfa:	91 30       	cpi	r25, 0x01	; 1
    1dfc:	b1 f0       	breq	.+44     	; 0x1e2a <__vector_14+0x2f8>
    1dfe:	55 c0       	rjmp	.+170    	; 0x1eaa <__vector_14+0x378>
    1e00:	94 30       	cpi	r25, 0x04	; 4
    1e02:	d1 f1       	breq	.+116    	; 0x1e78 <__vector_14+0x346>
    1e04:	64 f1       	brlt	.+88     	; 0x1e5e <__vector_14+0x32c>
    1e06:	95 30       	cpi	r25, 0x05	; 5
    1e08:	09 f4       	brne	.+2      	; 0x1e0c <__vector_14+0x2da>
    1e0a:	43 c0       	rjmp	.+134    	; 0x1e92 <__vector_14+0x360>
    1e0c:	4e c0       	rjmp	.+156    	; 0x1eaa <__vector_14+0x378>
    1e0e:	80 91 fb 02 	lds	r24, 0x02FB	; 0x8002fb <add_cnt>
    1e12:	89 31       	cpi	r24, 0x19	; 25
    1e14:	1c f0       	brlt	.+6      	; 0x1e1c <__vector_14+0x2ea>
    1e16:	10 92 fb 02 	sts	0x02FB, r1	; 0x8002fb <add_cnt>
    1e1a:	47 c0       	rjmp	.+142    	; 0x1eaa <__vector_14+0x378>
    1e1c:	88 23       	and	r24, r24
    1e1e:	0c f0       	brlt	.+2      	; 0x1e22 <__vector_14+0x2f0>
    1e20:	44 c0       	rjmp	.+136    	; 0x1eaa <__vector_14+0x378>
    1e22:	87 e1       	ldi	r24, 0x17	; 23
    1e24:	80 93 fb 02 	sts	0x02FB, r24	; 0x8002fb <add_cnt>
    1e28:	40 c0       	rjmp	.+128    	; 0x1eaa <__vector_14+0x378>
    1e2a:	80 91 fb 02 	lds	r24, 0x02FB	; 0x8002fb <add_cnt>
    1e2e:	8c 33       	cpi	r24, 0x3C	; 60
    1e30:	1c f0       	brlt	.+6      	; 0x1e38 <__vector_14+0x306>
    1e32:	10 92 fb 02 	sts	0x02FB, r1	; 0x8002fb <add_cnt>
    1e36:	39 c0       	rjmp	.+114    	; 0x1eaa <__vector_14+0x378>
    1e38:	88 23       	and	r24, r24
    1e3a:	bc f5       	brge	.+110    	; 0x1eaa <__vector_14+0x378>
    1e3c:	8b e3       	ldi	r24, 0x3B	; 59
    1e3e:	80 93 fb 02 	sts	0x02FB, r24	; 0x8002fb <add_cnt>
    1e42:	33 c0       	rjmp	.+102    	; 0x1eaa <__vector_14+0x378>
    1e44:	80 91 fb 02 	lds	r24, 0x02FB	; 0x8002fb <add_cnt>
    1e48:	88 30       	cpi	r24, 0x08	; 8
    1e4a:	1c f0       	brlt	.+6      	; 0x1e52 <__vector_14+0x320>
    1e4c:	10 92 fb 02 	sts	0x02FB, r1	; 0x8002fb <add_cnt>
    1e50:	2c c0       	rjmp	.+88     	; 0x1eaa <__vector_14+0x378>
    1e52:	88 23       	and	r24, r24
    1e54:	54 f5       	brge	.+84     	; 0x1eaa <__vector_14+0x378>
    1e56:	87 e0       	ldi	r24, 0x07	; 7
    1e58:	80 93 fb 02 	sts	0x02FB, r24	; 0x8002fb <add_cnt>
    1e5c:	26 c0       	rjmp	.+76     	; 0x1eaa <__vector_14+0x378>
    1e5e:	80 91 fb 02 	lds	r24, 0x02FB	; 0x8002fb <add_cnt>
    1e62:	80 32       	cpi	r24, 0x20	; 32
    1e64:	1c f0       	brlt	.+6      	; 0x1e6c <__vector_14+0x33a>
    1e66:	10 92 fb 02 	sts	0x02FB, r1	; 0x8002fb <add_cnt>
    1e6a:	1f c0       	rjmp	.+62     	; 0x1eaa <__vector_14+0x378>
    1e6c:	88 23       	and	r24, r24
    1e6e:	ec f4       	brge	.+58     	; 0x1eaa <__vector_14+0x378>
    1e70:	8f e1       	ldi	r24, 0x1F	; 31
    1e72:	80 93 fb 02 	sts	0x02FB, r24	; 0x8002fb <add_cnt>
    1e76:	19 c0       	rjmp	.+50     	; 0x1eaa <__vector_14+0x378>
    1e78:	80 91 fb 02 	lds	r24, 0x02FB	; 0x8002fb <add_cnt>
    1e7c:	8d 30       	cpi	r24, 0x0D	; 13
    1e7e:	1c f0       	brlt	.+6      	; 0x1e86 <__vector_14+0x354>
    1e80:	10 92 fb 02 	sts	0x02FB, r1	; 0x8002fb <add_cnt>
    1e84:	12 c0       	rjmp	.+36     	; 0x1eaa <__vector_14+0x378>
    1e86:	88 23       	and	r24, r24
    1e88:	84 f4       	brge	.+32     	; 0x1eaa <__vector_14+0x378>
    1e8a:	8c e0       	ldi	r24, 0x0C	; 12
    1e8c:	80 93 fb 02 	sts	0x02FB, r24	; 0x8002fb <add_cnt>
    1e90:	0c c0       	rjmp	.+24     	; 0x1eaa <__vector_14+0x378>
    1e92:	80 91 fb 02 	lds	r24, 0x02FB	; 0x8002fb <add_cnt>
    1e96:	84 36       	cpi	r24, 0x64	; 100
    1e98:	1c f0       	brlt	.+6      	; 0x1ea0 <__vector_14+0x36e>
    1e9a:	10 92 fb 02 	sts	0x02FB, r1	; 0x8002fb <add_cnt>
    1e9e:	05 c0       	rjmp	.+10     	; 0x1eaa <__vector_14+0x378>
    1ea0:	88 23       	and	r24, r24
    1ea2:	1c f4       	brge	.+6      	; 0x1eaa <__vector_14+0x378>
    1ea4:	83 e6       	ldi	r24, 0x63	; 99
    1ea6:	80 93 fb 02 	sts	0x02FB, r24	; 0x8002fb <add_cnt>
    1eaa:	ff 91       	pop	r31
    1eac:	ef 91       	pop	r30
    1eae:	bf 91       	pop	r27
    1eb0:	af 91       	pop	r26
    1eb2:	9f 91       	pop	r25
    1eb4:	8f 91       	pop	r24
    1eb6:	7f 91       	pop	r23
    1eb8:	6f 91       	pop	r22
    1eba:	5f 91       	pop	r21
    1ebc:	4f 91       	pop	r20
    1ebe:	3f 91       	pop	r19
    1ec0:	2f 91       	pop	r18
    1ec2:	0f 90       	pop	r0
    1ec4:	0f be       	out	0x3f, r0	; 63
    1ec6:	0f 90       	pop	r0
    1ec8:	1f 90       	pop	r1
    1eca:	18 95       	reti

00001ecc <SPI_init>:
	}
}*/
//-------------------------------------------------------------
void SPI_init(void) //инициализация SPI
{
	DDRB |= ((1<<SS)|(1<<MOSI)|(1<<CE)|(1<<SCK)); //ножки SPI на выход
    1ecc:	84 b1       	in	r24, 0x04	; 4
    1ece:	8e 62       	ori	r24, 0x2E	; 46
    1ed0:	84 b9       	out	0x04, r24	; 4
	PORTB &= ~((1<<SS)|(1<<MOSI)|(1<<SCK)); //низкий уровень
    1ed2:	85 b1       	in	r24, 0x05	; 5
    1ed4:	83 7d       	andi	r24, 0xD3	; 211
    1ed6:	85 b9       	out	0x05, r24	; 5
	DDRD &= ~(1<<IRQ);
    1ed8:	8a b1       	in	r24, 0x0a	; 10
    1eda:	8b 7f       	andi	r24, 0xFB	; 251
    1edc:	8a b9       	out	0x0a, r24	; 10
	PORTD |= (1<<IRQ);
    1ede:	8b b1       	in	r24, 0x0b	; 11
    1ee0:	84 60       	ori	r24, 0x04	; 4
    1ee2:	8b b9       	out	0x0b, r24	; 11
	HIGH_CSN;
    1ee4:	85 b1       	in	r24, 0x05	; 5
    1ee6:	84 60       	ori	r24, 0x04	; 4
    1ee8:	85 b9       	out	0x05, r24	; 5
	SPCR = ((1<<SPE)|(1<<MSTR));//включим шину, объявим ведущим
    1eea:	80 e5       	ldi	r24, 0x50	; 80
    1eec:	8c bd       	out	0x2c, r24	; 44
    1eee:	08 95       	ret

00001ef0 <port_init>:
}
//-------------------------------------------------------------
void port_init(void)
{
	//инициализация портов для светодиода
	DDRD |= (1 << LED);//led
    1ef0:	8a b1       	in	r24, 0x0a	; 10
    1ef2:	80 61       	ori	r24, 0x10	; 16
    1ef4:	8a b9       	out	0x0a, r24	; 10
	PORTD &= ~ (1 << LED);
    1ef6:	8b b1       	in	r24, 0x0b	; 11
    1ef8:	8f 7e       	andi	r24, 0xEF	; 239
    1efa:	8b b9       	out	0x0b, r24	; 11
	
	//инициализация портов для LCD12864
	DDRD |= (1<<RS);//ножка RS на выход для LCD12864
    1efc:	8a b1       	in	r24, 0x0a	; 10
    1efe:	80 68       	ori	r24, 0x80	; 128
    1f00:	8a b9       	out	0x0a, r24	; 10
	PORTD &= ~(1<<RS);
    1f02:	8b b1       	in	r24, 0x0b	; 11
    1f04:	8f 77       	andi	r24, 0x7F	; 127
    1f06:	8b b9       	out	0x0b, r24	; 11
	DDRD |= (1<<E);
    1f08:	8a b1       	in	r24, 0x0a	; 10
    1f0a:	80 62       	ori	r24, 0x20	; 32
    1f0c:	8a b9       	out	0x0a, r24	; 10
	PORTD &= ~(1<<E);
    1f0e:	8b b1       	in	r24, 0x0b	; 11
    1f10:	8f 7d       	andi	r24, 0xDF	; 223
    1f12:	8b b9       	out	0x0b, r24	; 11
	DDRD |= (1<<RW);
    1f14:	8a b1       	in	r24, 0x0a	; 10
    1f16:	80 64       	ori	r24, 0x40	; 64
    1f18:	8a b9       	out	0x0a, r24	; 10
	PORTD &= ~(1<<RW);
    1f1a:	8b b1       	in	r24, 0x0b	; 11
    1f1c:	8f 7b       	andi	r24, 0xBF	; 191
    1f1e:	8b b9       	out	0x0b, r24	; 11
	//DDRB |= (1<<PSB);//ножка PSB на выход для LCD12864
	//PORTB &= ~(1<<PSB);
	
	//Инициализация для энкодера
	DDRD &= ~(1<<SW_ENC);
    1f20:	8a b1       	in	r24, 0x0a	; 10
    1f22:	87 7f       	andi	r24, 0xF7	; 247
    1f24:	8a b9       	out	0x0a, r24	; 10
	DDRB &= ~((1<<DT_ENC)||(1<<CLK_ENC));
    1f26:	84 b1       	in	r24, 0x04	; 4
    1f28:	8e 7f       	andi	r24, 0xFE	; 254
    1f2a:	84 b9       	out	0x04, r24	; 4
	PORTD |= (1 << SW_ENC);
    1f2c:	8b b1       	in	r24, 0x0b	; 11
    1f2e:	88 60       	ori	r24, 0x08	; 8
    1f30:	8b b9       	out	0x0b, r24	; 11
	PORTB &= ~((1 << DT_ENC)|(1 << CLK_ENC));
    1f32:	85 b1       	in	r24, 0x05	; 5
    1f34:	8f 73       	andi	r24, 0x3F	; 63
    1f36:	85 b9       	out	0x05, r24	; 5
    1f38:	08 95       	ret

00001f3a <spi_send_recv>:
	 DDRC|=(1<<MOSI_SD)|(1<<SCK_SD);*/
} 
//-------------------------------------------------------------
uint8_t spi_send_recv(uint8_t data) // Передаёт и принимает 1 байт по SPI, возвращает полученное значение
{
	SPDR = data;
    1f3a:	8e bd       	out	0x2e, r24	; 46
	while (!(SPSR & (1 << SPIF)));
    1f3c:	0d b4       	in	r0, 0x2d	; 45
    1f3e:	07 fe       	sbrs	r0, 7
    1f40:	fd cf       	rjmp	.-6      	; 0x1f3c <spi_send_recv+0x2>
	return SPDR;
    1f42:	8e b5       	in	r24, 0x2e	; 46
}
    1f44:	08 95       	ret

00001f46 <main>:
//-------------------------------------------------------------
void main(void)
{	
	port_init();
    1f46:	0e 94 78 0f 	call	0x1ef0	; 0x1ef0 <port_init>
	PORTD |= (1<<LED);
    1f4a:	8b b1       	in	r24, 0x0b	; 11
    1f4c:	80 61       	ori	r24, 0x10	; 16
    1f4e:	8b b9       	out	0x0b, r24	; 11
	//Инициализация интерфейсов
	SPI_init();
    1f50:	0e 94 66 0f 	call	0x1ecc	; 0x1ecc <SPI_init>
	I2C_Init();
    1f54:	0e 94 f4 13 	call	0x27e8	; 0x27e8 <I2C_Init>
	USART_Init(8);    //Инициализация модуля USART скорость 115200
    1f58:	88 e0       	ldi	r24, 0x08	; 8
    1f5a:	90 e0       	ldi	r25, 0x00	; 0
    1f5c:	0e 94 22 14 	call	0x2844	; 0x2844 <USART_Init>
	LCD_12864_ini();
    1f60:	0e 94 40 09 	call	0x1280	; 0x1280 <LCD_12864_ini>
	//очистка дисплея
	LCD_12864_GrapnicMode(1);
    1f64:	81 e0       	ldi	r24, 0x01	; 1
    1f66:	0e 94 c9 07 	call	0xf92	; 0xf92 <LCD_12864_GrapnicMode>
	LCD_12864_Clean_Frame_buffer();
    1f6a:	0e 94 0d 0c 	call	0x181a	; 0x181a <LCD_12864_Clean_Frame_buffer>
	LCD_12864_Draw_bitmap(Frame_buffer);
    1f6e:	87 eb       	ldi	r24, 0xB7	; 183
    1f70:	93 e0       	ldi	r25, 0x03	; 3
    1f72:	0e 94 e8 07 	call	0xfd0	; 0xfd0 <LCD_12864_Draw_bitmap>
	LCD_12864_GrapnicMode(0);
    1f76:	80 e0       	ldi	r24, 0x00	; 0
    1f78:	0e 94 c9 07 	call	0xf92	; 0xf92 <LCD_12864_GrapnicMode>
	//Вывод приветствия
	//Print_Hello_World(Frame_buffer);
	//Инициализация оборудования
	NRF24_ini();
    1f7c:	0e 94 a9 12 	call	0x2552	; 0x2552 <NRF24_ini>
	RTC_init();
    1f80:	0e 94 13 13 	call	0x2626	; 0x2626 <RTC_init>
	dht22_init();
    1f84:	0e 94 54 06 	call	0xca8	; 0xca8 <dht22_init>
	BMP180_Calibration();
    1f88:	0e 94 e4 03 	call	0x7c8	; 0x7c8 <BMP180_Calibration>
	// Установка времени для DS3231(делается 1 разv)
	//RTC_write_time(13, 30, 0);
	//RTC_write_date(2, 28, 6, 22);
	//Вывод окна загрузки
	//Print_Download(Frame_buffer);
	PORTD &= ~(1<<LED);
    1f8c:	8b b1       	in	r24, 0x0b	; 11
    1f8e:	8f 7e       	andi	r24, 0xEF	; 239
    1f90:	8b b9       	out	0x0b, r24	; 11
	//Инициализация таймеров и прерываний
	cli();
    1f92:	f8 94       	cli
	timer1_ini();
    1f94:	0e 94 04 0d 	call	0x1a08	; 0x1a08 <timer1_ini>
	timer0_ini();
    1f98:	0e 94 18 0d 	call	0x1a30	; 0x1a30 <timer0_ini>
	// настраиваем параметры прерывания
	EICRA = (1<<ISC01) | (0<<ISC00);
    1f9c:	82 e0       	ldi	r24, 0x02	; 2
    1f9e:	80 93 69 00 	sts	0x0069, r24	; 0x800069 <__TEXT_REGION_LENGTH__+0x7f8069>
	EIMSK = (1<<INT0);
    1fa2:	81 e0       	ldi	r24, 0x01	; 1
    1fa4:	8d bb       	out	0x1d, r24	; 29
	//enc_interrupt_ini();
	// и разрешаем его глобально
	sei();
    1fa6:	78 94       	sei
    while (1) 
    {
		switch (menu_flag)
    1fa8:	80 91 fd 02 	lds	r24, 0x02FD	; 0x8002fd <menu_flag>
    1fac:	82 30       	cpi	r24, 0x02	; 2
    1fae:	a9 f0       	breq	.+42     	; 0x1fda <main+0x94>
    1fb0:	28 f4       	brcc	.+10     	; 0x1fbc <main+0x76>
    1fb2:	88 23       	and	r24, r24
    1fb4:	41 f0       	breq	.+16     	; 0x1fc6 <main+0x80>
    1fb6:	81 30       	cpi	r24, 0x01	; 1
    1fb8:	59 f0       	breq	.+22     	; 0x1fd0 <main+0x8a>
    1fba:	f6 cf       	rjmp	.-20     	; 0x1fa8 <main+0x62>
    1fbc:	83 30       	cpi	r24, 0x03	; 3
    1fbe:	91 f0       	breq	.+36     	; 0x1fe4 <main+0x9e>
    1fc0:	84 30       	cpi	r24, 0x04	; 4
    1fc2:	a9 f0       	breq	.+42     	; 0x1fee <main+0xa8>
    1fc4:	f1 cf       	rjmp	.-30     	; 0x1fa8 <main+0x62>
		{
			case 0:	Print_Home_Page(Frame_buffer);
    1fc6:	87 eb       	ldi	r24, 0xB7	; 183
    1fc8:	93 e0       	ldi	r25, 0x03	; 3
    1fca:	0e 94 3d 20 	call	0x407a	; 0x407a <Print_Home_Page>
					break;
    1fce:	ec cf       	rjmp	.-40     	; 0x1fa8 <main+0x62>
			case 1:	Print_Menu_Page(Frame_buffer);
    1fd0:	87 eb       	ldi	r24, 0xB7	; 183
    1fd2:	93 e0       	ldi	r25, 0x03	; 3
    1fd4:	0e 94 53 14 	call	0x28a6	; 0x28a6 <Print_Menu_Page>
					break;
    1fd8:	e7 cf       	rjmp	.-50     	; 0x1fa8 <main+0x62>
			case 2:	Print_Page_Clock_Settings(Frame_buffer);
    1fda:	87 eb       	ldi	r24, 0xB7	; 183
    1fdc:	93 e0       	ldi	r25, 0x03	; 3
    1fde:	0e 94 f2 1b 	call	0x37e4	; 0x37e4 <Print_Page_Clock_Settings>
					break;
    1fe2:	e2 cf       	rjmp	.-60     	; 0x1fa8 <main+0x62>
			case 3:	Print_Page_About(Frame_buffer);
    1fe4:	87 eb       	ldi	r24, 0xB7	; 183
    1fe6:	93 e0       	ldi	r25, 0x03	; 3
    1fe8:	0e 94 03 15 	call	0x2a06	; 0x2a06 <Print_Page_About>
					break;
    1fec:	dd cf       	rjmp	.-70     	; 0x1fa8 <main+0x62>
			case 4:	Print_Page_Dop_Info(Frame_buffer);
    1fee:	87 eb       	ldi	r24, 0xB7	; 183
    1ff0:	93 e0       	ldi	r25, 0x03	; 3
    1ff2:	0e 94 54 15 	call	0x2aa8	; 0x2aa8 <Print_Page_Dop_Info>
					break;				
    1ff6:	d8 cf       	rjmp	.-80     	; 0x1fa8 <main+0x62>

00001ff8 <NRF24L01_Receive>:
//-------------------------------------------------------------
void nRF_command(uint8_t command)
{
	LOW_CSN;
	spi_send_recv(command);
	HIGH_CSN;
    1ff8:	cf 93       	push	r28
    1ffa:	df 93       	push	r29
    1ffc:	80 91 b8 07 	lds	r24, 0x07B8	; 0x8007b8 <rx_flag>
    2000:	81 30       	cpi	r24, 0x01	; 1
    2002:	09 f0       	breq	.+2      	; 0x2006 <NRF24L01_Receive+0xe>
    2004:	63 c1       	rjmp	.+710    	; 0x22cc <NRF24L01_Receive+0x2d4>
    2006:	80 91 b9 07 	lds	r24, 0x07B9	; 0x8007b9 <RX_BUF>
    200a:	81 30       	cpi	r24, 0x01	; 1
    200c:	09 f0       	breq	.+2      	; 0x2010 <NRF24L01_Receive+0x18>
    200e:	59 c0       	rjmp	.+178    	; 0x20c2 <NRF24L01_Receive+0xca>
    2010:	ed ea       	ldi	r30, 0xAD	; 173
    2012:	f3 e0       	ldi	r31, 0x03	; 3
    2014:	01 90       	ld	r0, Z+
    2016:	00 20       	and	r0, r0
    2018:	e9 f7       	brne	.-6      	; 0x2014 <NRF24L01_Receive+0x1c>
    201a:	31 97       	sbiw	r30, 0x01	; 1
    201c:	af 01       	movw	r20, r30
    201e:	4d 5a       	subi	r20, 0xAD	; 173
    2020:	53 40       	sbci	r21, 0x03	; 3
    2022:	44 0f       	add	r20, r20
    2024:	55 1f       	adc	r21, r21
    2026:	60 e0       	ldi	r22, 0x00	; 0
    2028:	70 e0       	ldi	r23, 0x00	; 0
    202a:	8d ea       	ldi	r24, 0xAD	; 173
    202c:	93 e0       	ldi	r25, 0x03	; 3
    202e:	0e 94 9c 2a 	call	0x5538	; 0x5538 <memset>
    2032:	e9 eb       	ldi	r30, 0xB9	; 185
    2034:	f7 e0       	ldi	r31, 0x07	; 7
    2036:	81 81       	ldd	r24, Z+1	; 0x01
    2038:	c2 81       	ldd	r28, Z+2	; 0x02
    203a:	d0 e0       	ldi	r29, 0x00	; 0
    203c:	dc 2f       	mov	r29, r28
    203e:	cc 27       	eor	r28, r28
    2040:	c8 2b       	or	r28, r24
    2042:	be 01       	movw	r22, r28
    2044:	0d 2e       	mov	r0, r29
    2046:	00 0c       	add	r0, r0
    2048:	88 0b       	sbc	r24, r24
    204a:	99 0b       	sbc	r25, r25
    204c:	0e 94 6a 24 	call	0x48d4	; 0x48d4 <__floatsisf>
    2050:	20 e0       	ldi	r18, 0x00	; 0
    2052:	30 e0       	ldi	r19, 0x00	; 0
    2054:	40 e2       	ldi	r20, 0x20	; 32
    2056:	51 e4       	ldi	r21, 0x41	; 65
    2058:	0e 94 c0 23 	call	0x4780	; 0x4780 <__divsf3>
    205c:	60 93 09 03 	sts	0x0309, r22	; 0x800309 <temp>
    2060:	70 93 0a 03 	sts	0x030A, r23	; 0x80030a <temp+0x1>
    2064:	80 93 0b 03 	sts	0x030B, r24	; 0x80030b <temp+0x2>
    2068:	90 93 0c 03 	sts	0x030C, r25	; 0x80030c <temp+0x3>
    206c:	dd 23       	and	r29, r29
    206e:	5c f4       	brge	.+22     	; 0x2086 <NRF24L01_Receive+0x8e>
    2070:	dc 01       	movw	r26, r24
    2072:	cb 01       	movw	r24, r22
    2074:	b0 58       	subi	r27, 0x80	; 128
    2076:	80 93 09 03 	sts	0x0309, r24	; 0x800309 <temp>
    207a:	90 93 0a 03 	sts	0x030A, r25	; 0x80030a <temp+0x1>
    207e:	a0 93 0b 03 	sts	0x030B, r26	; 0x80030b <temp+0x2>
    2082:	b0 93 0c 03 	sts	0x030C, r27	; 0x80030c <temp+0x3>
    2086:	80 91 0c 03 	lds	r24, 0x030C	; 0x80030c <temp+0x3>
    208a:	8f 93       	push	r24
    208c:	80 91 0b 03 	lds	r24, 0x030B	; 0x80030b <temp+0x2>
    2090:	8f 93       	push	r24
    2092:	80 91 0a 03 	lds	r24, 0x030A	; 0x80030a <temp+0x1>
    2096:	8f 93       	push	r24
    2098:	80 91 09 03 	lds	r24, 0x0309	; 0x800309 <temp>
    209c:	8f 93       	push	r24
    209e:	8d e1       	ldi	r24, 0x1D	; 29
    20a0:	91 e0       	ldi	r25, 0x01	; 1
    20a2:	9f 93       	push	r25
    20a4:	8f 93       	push	r24
    20a6:	8d ea       	ldi	r24, 0xAD	; 173
    20a8:	93 e0       	ldi	r25, 0x03	; 3
    20aa:	9f 93       	push	r25
    20ac:	8f 93       	push	r24
    20ae:	0e 94 fe 2a 	call	0x55fc	; 0x55fc <sprintf>
    20b2:	8d b7       	in	r24, 0x3d	; 61
    20b4:	9e b7       	in	r25, 0x3e	; 62
    20b6:	08 96       	adiw	r24, 0x08	; 8
    20b8:	0f b6       	in	r0, 0x3f	; 63
    20ba:	f8 94       	cli
    20bc:	9e bf       	out	0x3e, r25	; 62
    20be:	0f be       	out	0x3f, r0	; 63
    20c0:	8d bf       	out	0x3d, r24	; 61
    20c2:	80 91 b9 07 	lds	r24, 0x07B9	; 0x8007b9 <RX_BUF>
    20c6:	85 30       	cpi	r24, 0x05	; 5
    20c8:	09 f0       	breq	.+2      	; 0x20cc <NRF24L01_Receive+0xd4>
    20ca:	3f c0       	rjmp	.+126    	; 0x214a <NRF24L01_Receive+0x152>
    20cc:	c3 ea       	ldi	r28, 0xA3	; 163
    20ce:	d3 e0       	ldi	r29, 0x03	; 3
    20d0:	fe 01       	movw	r30, r28
    20d2:	01 90       	ld	r0, Z+
    20d4:	00 20       	and	r0, r0
    20d6:	e9 f7       	brne	.-6      	; 0x20d2 <NRF24L01_Receive+0xda>
    20d8:	31 97       	sbiw	r30, 0x01	; 1
    20da:	af 01       	movw	r20, r30
    20dc:	43 5a       	subi	r20, 0xA3	; 163
    20de:	53 40       	sbci	r21, 0x03	; 3
    20e0:	44 0f       	add	r20, r20
    20e2:	55 1f       	adc	r21, r21
    20e4:	60 e0       	ldi	r22, 0x00	; 0
    20e6:	70 e0       	ldi	r23, 0x00	; 0
    20e8:	ce 01       	movw	r24, r28
    20ea:	0e 94 9c 2a 	call	0x5538	; 0x5538 <memset>
    20ee:	e9 eb       	ldi	r30, 0xB9	; 185
    20f0:	f7 e0       	ldi	r31, 0x07	; 7
    20f2:	81 81       	ldd	r24, Z+1	; 0x01
    20f4:	62 81       	ldd	r22, Z+2	; 0x02
    20f6:	70 e0       	ldi	r23, 0x00	; 0
    20f8:	76 2f       	mov	r23, r22
    20fa:	66 27       	eor	r22, r22
    20fc:	68 2b       	or	r22, r24
    20fe:	07 2e       	mov	r0, r23
    2100:	00 0c       	add	r0, r0
    2102:	88 0b       	sbc	r24, r24
    2104:	99 0b       	sbc	r25, r25
    2106:	0e 94 6a 24 	call	0x48d4	; 0x48d4 <__floatsisf>
    210a:	20 e0       	ldi	r18, 0x00	; 0
    210c:	30 e0       	ldi	r19, 0x00	; 0
    210e:	40 e2       	ldi	r20, 0x20	; 32
    2110:	51 e4       	ldi	r21, 0x41	; 65
    2112:	0e 94 c0 23 	call	0x4780	; 0x4780 <__divsf3>
    2116:	60 93 05 03 	sts	0x0305, r22	; 0x800305 <hum>
    211a:	70 93 06 03 	sts	0x0306, r23	; 0x800306 <hum+0x1>
    211e:	80 93 07 03 	sts	0x0307, r24	; 0x800307 <hum+0x2>
    2122:	90 93 08 03 	sts	0x0308, r25	; 0x800308 <hum+0x3>
    2126:	0e 94 32 24 	call	0x4864	; 0x4864 <__fixsfsi>
    212a:	7f 93       	push	r23
    212c:	6f 93       	push	r22
    212e:	8d e9       	ldi	r24, 0x9D	; 157
    2130:	92 e0       	ldi	r25, 0x02	; 2
    2132:	9f 93       	push	r25
    2134:	8f 93       	push	r24
    2136:	df 93       	push	r29
    2138:	cf 93       	push	r28
    213a:	0e 94 fe 2a 	call	0x55fc	; 0x55fc <sprintf>
    213e:	0f 90       	pop	r0
    2140:	0f 90       	pop	r0
    2142:	0f 90       	pop	r0
    2144:	0f 90       	pop	r0
    2146:	0f 90       	pop	r0
    2148:	0f 90       	pop	r0
    214a:	c0 91 b9 07 	lds	r28, 0x07B9	; 0x8007b9 <RX_BUF>
    214e:	c2 30       	cpi	r28, 0x02	; 2
    2150:	61 f5       	brne	.+88     	; 0x21aa <NRF24L01_Receive+0x1b2>
    2152:	e5 e8       	ldi	r30, 0x85	; 133
    2154:	f3 e0       	ldi	r31, 0x03	; 3
    2156:	01 90       	ld	r0, Z+
    2158:	00 20       	and	r0, r0
    215a:	e9 f7       	brne	.-6      	; 0x2156 <NRF24L01_Receive+0x15e>
    215c:	31 97       	sbiw	r30, 0x01	; 1
    215e:	af 01       	movw	r20, r30
    2160:	45 58       	subi	r20, 0x85	; 133
    2162:	53 40       	sbci	r21, 0x03	; 3
    2164:	44 0f       	add	r20, r20
    2166:	55 1f       	adc	r21, r21
    2168:	60 e0       	ldi	r22, 0x00	; 0
    216a:	70 e0       	ldi	r23, 0x00	; 0
    216c:	85 e8       	ldi	r24, 0x85	; 133
    216e:	93 e0       	ldi	r25, 0x03	; 3
    2170:	0e 94 9c 2a 	call	0x5538	; 0x5538 <memset>
    2174:	20 e0       	ldi	r18, 0x00	; 0
    2176:	0b c0       	rjmp	.+22     	; 0x218e <NRF24L01_Receive+0x196>
    2178:	82 2f       	mov	r24, r18
    217a:	90 e0       	ldi	r25, 0x00	; 0
    217c:	fc 01       	movw	r30, r24
    217e:	e6 54       	subi	r30, 0x46	; 70
    2180:	f8 4f       	sbci	r31, 0xF8	; 248
    2182:	30 81       	ld	r19, Z
    2184:	fc 01       	movw	r30, r24
    2186:	eb 57       	subi	r30, 0x7B	; 123
    2188:	fc 4f       	sbci	r31, 0xFC	; 252
    218a:	30 83       	st	Z, r19
    218c:	2f 5f       	subi	r18, 0xFF	; 255
    218e:	82 2f       	mov	r24, r18
    2190:	90 e0       	ldi	r25, 0x00	; 0
    2192:	e9 eb       	ldi	r30, 0xB9	; 185
    2194:	f7 e0       	ldi	r31, 0x07	; 7
    2196:	01 90       	ld	r0, Z+
    2198:	00 20       	and	r0, r0
    219a:	e9 f7       	brne	.-6      	; 0x2196 <NRF24L01_Receive+0x19e>
    219c:	31 97       	sbiw	r30, 0x01	; 1
    219e:	e9 5b       	subi	r30, 0xB9	; 185
    21a0:	f7 40       	sbci	r31, 0x07	; 7
    21a2:	31 97       	sbiw	r30, 0x01	; 1
    21a4:	8e 17       	cp	r24, r30
    21a6:	9f 07       	cpc	r25, r31
    21a8:	38 f3       	brcs	.-50     	; 0x2178 <NRF24L01_Receive+0x180>
    21aa:	c3 30       	cpi	r28, 0x03	; 3
    21ac:	89 f5       	brne	.+98     	; 0x2210 <NRF24L01_Receive+0x218>
    21ae:	e1 e7       	ldi	r30, 0x71	; 113
    21b0:	f3 e0       	ldi	r31, 0x03	; 3
    21b2:	01 90       	ld	r0, Z+
    21b4:	00 20       	and	r0, r0
    21b6:	e9 f7       	brne	.-6      	; 0x21b2 <NRF24L01_Receive+0x1ba>
    21b8:	31 97       	sbiw	r30, 0x01	; 1
    21ba:	af 01       	movw	r20, r30
    21bc:	41 57       	subi	r20, 0x71	; 113
    21be:	53 40       	sbci	r21, 0x03	; 3
    21c0:	44 0f       	add	r20, r20
    21c2:	55 1f       	adc	r21, r21
    21c4:	60 e0       	ldi	r22, 0x00	; 0
    21c6:	70 e0       	ldi	r23, 0x00	; 0
    21c8:	81 e7       	ldi	r24, 0x71	; 113
    21ca:	93 e0       	ldi	r25, 0x03	; 3
    21cc:	0e 94 9c 2a 	call	0x5538	; 0x5538 <memset>
    21d0:	20 e0       	ldi	r18, 0x00	; 0
    21d2:	0b c0       	rjmp	.+22     	; 0x21ea <NRF24L01_Receive+0x1f2>
    21d4:	82 2f       	mov	r24, r18
    21d6:	90 e0       	ldi	r25, 0x00	; 0
    21d8:	fc 01       	movw	r30, r24
    21da:	e6 54       	subi	r30, 0x46	; 70
    21dc:	f8 4f       	sbci	r31, 0xF8	; 248
    21de:	30 81       	ld	r19, Z
    21e0:	fc 01       	movw	r30, r24
    21e2:	ef 58       	subi	r30, 0x8F	; 143
    21e4:	fc 4f       	sbci	r31, 0xFC	; 252
    21e6:	30 83       	st	Z, r19
    21e8:	2f 5f       	subi	r18, 0xFF	; 255
    21ea:	82 2f       	mov	r24, r18
    21ec:	90 e0       	ldi	r25, 0x00	; 0
    21ee:	e9 eb       	ldi	r30, 0xB9	; 185
    21f0:	f7 e0       	ldi	r31, 0x07	; 7
    21f2:	01 90       	ld	r0, Z+
    21f4:	00 20       	and	r0, r0
    21f6:	e9 f7       	brne	.-6      	; 0x21f2 <NRF24L01_Receive+0x1fa>
    21f8:	31 97       	sbiw	r30, 0x01	; 1
    21fa:	e9 5b       	subi	r30, 0xB9	; 185
    21fc:	f7 40       	sbci	r31, 0x07	; 7
    21fe:	31 97       	sbiw	r30, 0x01	; 1
    2200:	8e 17       	cp	r24, r30
    2202:	9f 07       	cpc	r25, r31
    2204:	38 f3       	brcs	.-50     	; 0x21d4 <NRF24L01_Receive+0x1dc>
    2206:	fc 01       	movw	r30, r24
    2208:	ee 58       	subi	r30, 0x8E	; 142
    220a:	fc 4f       	sbci	r31, 0xFC	; 252
    220c:	80 e2       	ldi	r24, 0x20	; 32
    220e:	80 83       	st	Z, r24
    2210:	c4 30       	cpi	r28, 0x04	; 4
    2212:	61 f5       	brne	.+88     	; 0x226c <NRF24L01_Receive+0x274>
    2214:	e7 e6       	ldi	r30, 0x67	; 103
    2216:	f3 e0       	ldi	r31, 0x03	; 3
    2218:	01 90       	ld	r0, Z+
    221a:	00 20       	and	r0, r0
    221c:	e9 f7       	brne	.-6      	; 0x2218 <NRF24L01_Receive+0x220>
    221e:	31 97       	sbiw	r30, 0x01	; 1
    2220:	af 01       	movw	r20, r30
    2222:	47 56       	subi	r20, 0x67	; 103
    2224:	53 40       	sbci	r21, 0x03	; 3
    2226:	44 0f       	add	r20, r20
    2228:	55 1f       	adc	r21, r21
    222a:	60 e0       	ldi	r22, 0x00	; 0
    222c:	70 e0       	ldi	r23, 0x00	; 0
    222e:	87 e6       	ldi	r24, 0x67	; 103
    2230:	93 e0       	ldi	r25, 0x03	; 3
    2232:	0e 94 9c 2a 	call	0x5538	; 0x5538 <memset>
    2236:	20 e0       	ldi	r18, 0x00	; 0
    2238:	0b c0       	rjmp	.+22     	; 0x2250 <NRF24L01_Receive+0x258>
    223a:	82 2f       	mov	r24, r18
    223c:	90 e0       	ldi	r25, 0x00	; 0
    223e:	fc 01       	movw	r30, r24
    2240:	e6 54       	subi	r30, 0x46	; 70
    2242:	f8 4f       	sbci	r31, 0xF8	; 248
    2244:	30 81       	ld	r19, Z
    2246:	fc 01       	movw	r30, r24
    2248:	e9 59       	subi	r30, 0x99	; 153
    224a:	fc 4f       	sbci	r31, 0xFC	; 252
    224c:	30 83       	st	Z, r19
    224e:	2f 5f       	subi	r18, 0xFF	; 255
    2250:	82 2f       	mov	r24, r18
    2252:	90 e0       	ldi	r25, 0x00	; 0
    2254:	e9 eb       	ldi	r30, 0xB9	; 185
    2256:	f7 e0       	ldi	r31, 0x07	; 7
    2258:	01 90       	ld	r0, Z+
    225a:	00 20       	and	r0, r0
    225c:	e9 f7       	brne	.-6      	; 0x2258 <NRF24L01_Receive+0x260>
    225e:	31 97       	sbiw	r30, 0x01	; 1
    2260:	e9 5b       	subi	r30, 0xB9	; 185
    2262:	f7 40       	sbci	r31, 0x07	; 7
    2264:	31 97       	sbiw	r30, 0x01	; 1
    2266:	8e 17       	cp	r24, r30
    2268:	9f 07       	cpc	r25, r31
    226a:	38 f3       	brcs	.-50     	; 0x223a <NRF24L01_Receive+0x242>
    226c:	c6 30       	cpi	r28, 0x06	; 6
    226e:	61 f5       	brne	.+88     	; 0x22c8 <NRF24L01_Receive+0x2d0>
    2270:	ed e5       	ldi	r30, 0x5D	; 93
    2272:	f3 e0       	ldi	r31, 0x03	; 3
    2274:	01 90       	ld	r0, Z+
    2276:	00 20       	and	r0, r0
    2278:	e9 f7       	brne	.-6      	; 0x2274 <NRF24L01_Receive+0x27c>
    227a:	31 97       	sbiw	r30, 0x01	; 1
    227c:	af 01       	movw	r20, r30
    227e:	4d 55       	subi	r20, 0x5D	; 93
    2280:	53 40       	sbci	r21, 0x03	; 3
    2282:	44 0f       	add	r20, r20
    2284:	55 1f       	adc	r21, r21
    2286:	60 e0       	ldi	r22, 0x00	; 0
    2288:	70 e0       	ldi	r23, 0x00	; 0
    228a:	8d e5       	ldi	r24, 0x5D	; 93
    228c:	93 e0       	ldi	r25, 0x03	; 3
    228e:	0e 94 9c 2a 	call	0x5538	; 0x5538 <memset>
    2292:	20 e0       	ldi	r18, 0x00	; 0
    2294:	0b c0       	rjmp	.+22     	; 0x22ac <NRF24L01_Receive+0x2b4>
    2296:	82 2f       	mov	r24, r18
    2298:	90 e0       	ldi	r25, 0x00	; 0
    229a:	fc 01       	movw	r30, r24
    229c:	e6 54       	subi	r30, 0x46	; 70
    229e:	f8 4f       	sbci	r31, 0xF8	; 248
    22a0:	30 81       	ld	r19, Z
    22a2:	fc 01       	movw	r30, r24
    22a4:	e3 5a       	subi	r30, 0xA3	; 163
    22a6:	fc 4f       	sbci	r31, 0xFC	; 252
    22a8:	30 83       	st	Z, r19
    22aa:	2f 5f       	subi	r18, 0xFF	; 255
    22ac:	82 2f       	mov	r24, r18
    22ae:	90 e0       	ldi	r25, 0x00	; 0
    22b0:	e9 eb       	ldi	r30, 0xB9	; 185
    22b2:	f7 e0       	ldi	r31, 0x07	; 7
    22b4:	01 90       	ld	r0, Z+
    22b6:	00 20       	and	r0, r0
    22b8:	e9 f7       	brne	.-6      	; 0x22b4 <NRF24L01_Receive+0x2bc>
    22ba:	31 97       	sbiw	r30, 0x01	; 1
    22bc:	e9 5b       	subi	r30, 0xB9	; 185
    22be:	f7 40       	sbci	r31, 0x07	; 7
    22c0:	31 97       	sbiw	r30, 0x01	; 1
    22c2:	8e 17       	cp	r24, r30
    22c4:	9f 07       	cpc	r25, r31
    22c6:	38 f3       	brcs	.-50     	; 0x2296 <NRF24L01_Receive+0x29e>
    22c8:	10 92 b8 07 	sts	0x07B8, r1	; 0x8007b8 <rx_flag>
    22cc:	df 91       	pop	r29
    22ce:	cf 91       	pop	r28
    22d0:	08 95       	ret

000022d2 <NRF24_FlushRX>:
    22d2:	85 b1       	in	r24, 0x05	; 5
    22d4:	8b 7f       	andi	r24, 0xFB	; 251
    22d6:	85 b9       	out	0x05, r24	; 5
    22d8:	82 ee       	ldi	r24, 0xE2	; 226
    22da:	90 e0       	ldi	r25, 0x00	; 0
    22dc:	0e 94 9d 0f 	call	0x1f3a	; 0x1f3a <spi_send_recv>
    22e0:	82 e0       	ldi	r24, 0x02	; 2
    22e2:	8a 95       	dec	r24
    22e4:	f1 f7       	brne	.-4      	; 0x22e2 <NRF24_FlushRX+0x10>
    22e6:	00 c0       	rjmp	.+0      	; 0x22e8 <NRF24_FlushRX+0x16>
    22e8:	85 b1       	in	r24, 0x05	; 5
    22ea:	84 60       	ori	r24, 0x04	; 4
    22ec:	85 b9       	out	0x05, r24	; 5
    22ee:	08 95       	ret

000022f0 <NRF24_FlushTX>:
    22f0:	85 b1       	in	r24, 0x05	; 5
    22f2:	8b 7f       	andi	r24, 0xFB	; 251
    22f4:	85 b9       	out	0x05, r24	; 5
    22f6:	81 ee       	ldi	r24, 0xE1	; 225
    22f8:	90 e0       	ldi	r25, 0x00	; 0
    22fa:	0e 94 9d 0f 	call	0x1f3a	; 0x1f3a <spi_send_recv>
    22fe:	82 e0       	ldi	r24, 0x02	; 2
    2300:	8a 95       	dec	r24
    2302:	f1 f7       	brne	.-4      	; 0x2300 <NRF24_FlushTX+0x10>
    2304:	00 c0       	rjmp	.+0      	; 0x2306 <NRF24_FlushTX+0x16>
    2306:	85 b1       	in	r24, 0x05	; 5
    2308:	84 60       	ori	r24, 0x04	; 4
    230a:	85 b9       	out	0x05, r24	; 5
    230c:	08 95       	ret

0000230e <NRF24_ToggleFeatures>:
    230e:	85 b1       	in	r24, 0x05	; 5
    2310:	8b 7f       	andi	r24, 0xFB	; 251
    2312:	85 b9       	out	0x05, r24	; 5
    2314:	80 e5       	ldi	r24, 0x50	; 80
    2316:	90 e0       	ldi	r25, 0x00	; 0
    2318:	0e 94 9d 0f 	call	0x1f3a	; 0x1f3a <spi_send_recv>
    231c:	82 e0       	ldi	r24, 0x02	; 2
    231e:	8a 95       	dec	r24
    2320:	f1 f7       	brne	.-4      	; 0x231e <NRF24_ToggleFeatures+0x10>
    2322:	00 c0       	rjmp	.+0      	; 0x2324 <NRF24_ToggleFeatures+0x16>
    2324:	83 e7       	ldi	r24, 0x73	; 115
    2326:	90 e0       	ldi	r25, 0x00	; 0
    2328:	0e 94 9d 0f 	call	0x1f3a	; 0x1f3a <spi_send_recv>
    232c:	85 b1       	in	r24, 0x05	; 5
    232e:	84 60       	ori	r24, 0x04	; 4
    2330:	85 b9       	out	0x05, r24	; 5
    2332:	08 95       	ret

00002334 <NRF24_Read_Buf>:
    2334:	ef 92       	push	r14
    2336:	ff 92       	push	r15
    2338:	0f 93       	push	r16
    233a:	1f 93       	push	r17
    233c:	cf 93       	push	r28
    233e:	df 93       	push	r29
    2340:	8b 01       	movw	r16, r22
    2342:	c4 2f       	mov	r28, r20
    2344:	95 b1       	in	r25, 0x05	; 5
    2346:	9b 7f       	andi	r25, 0xFB	; 251
    2348:	95 b9       	out	0x05, r25	; 5
    234a:	90 e0       	ldi	r25, 0x00	; 0
    234c:	0e 94 9d 0f 	call	0x1f3a	; 0x1f3a <spi_send_recv>
    2350:	0c c0       	rjmp	.+24     	; 0x236a <NRF24_Read_Buf+0x36>
    2352:	78 01       	movw	r14, r16
    2354:	8f ef       	ldi	r24, 0xFF	; 255
    2356:	e8 1a       	sub	r14, r24
    2358:	f8 0a       	sbc	r15, r24
    235a:	8f ef       	ldi	r24, 0xFF	; 255
    235c:	90 e0       	ldi	r25, 0x00	; 0
    235e:	0e 94 9d 0f 	call	0x1f3a	; 0x1f3a <spi_send_recv>
    2362:	f8 01       	movw	r30, r16
    2364:	80 83       	st	Z, r24
    2366:	cd 2f       	mov	r28, r29
    2368:	87 01       	movw	r16, r14
    236a:	df ef       	ldi	r29, 0xFF	; 255
    236c:	dc 0f       	add	r29, r28
    236e:	c1 11       	cpse	r28, r1
    2370:	f0 cf       	rjmp	.-32     	; 0x2352 <NRF24_Read_Buf+0x1e>
    2372:	85 b1       	in	r24, 0x05	; 5
    2374:	84 60       	ori	r24, 0x04	; 4
    2376:	85 b9       	out	0x05, r24	; 5
    2378:	df 91       	pop	r29
    237a:	cf 91       	pop	r28
    237c:	1f 91       	pop	r17
    237e:	0f 91       	pop	r16
    2380:	ff 90       	pop	r15
    2382:	ef 90       	pop	r14
    2384:	08 95       	ret

00002386 <NRF24_Write_Buf>:
    2386:	ef 92       	push	r14
    2388:	ff 92       	push	r15
    238a:	0f 93       	push	r16
    238c:	1f 93       	push	r17
    238e:	cf 93       	push	r28
    2390:	df 93       	push	r29
    2392:	8b 01       	movw	r16, r22
    2394:	c4 2f       	mov	r28, r20
    2396:	80 62       	ori	r24, 0x20	; 32
    2398:	95 b1       	in	r25, 0x05	; 5
    239a:	9b 7f       	andi	r25, 0xFB	; 251
    239c:	95 b9       	out	0x05, r25	; 5
    239e:	90 e0       	ldi	r25, 0x00	; 0
    23a0:	0e 94 9d 0f 	call	0x1f3a	; 0x1f3a <spi_send_recv>
    23a4:	82 e0       	ldi	r24, 0x02	; 2
    23a6:	8a 95       	dec	r24
    23a8:	f1 f7       	brne	.-4      	; 0x23a6 <NRF24_Write_Buf+0x20>
    23aa:	00 c0       	rjmp	.+0      	; 0x23ac <NRF24_Write_Buf+0x26>
    23ac:	0b c0       	rjmp	.+22     	; 0x23c4 <NRF24_Write_Buf+0x3e>
    23ae:	78 01       	movw	r14, r16
    23b0:	ef ef       	ldi	r30, 0xFF	; 255
    23b2:	ee 1a       	sub	r14, r30
    23b4:	fe 0a       	sbc	r15, r30
    23b6:	f8 01       	movw	r30, r16
    23b8:	80 81       	ld	r24, Z
    23ba:	90 e0       	ldi	r25, 0x00	; 0
    23bc:	0e 94 9d 0f 	call	0x1f3a	; 0x1f3a <spi_send_recv>
    23c0:	cd 2f       	mov	r28, r29
    23c2:	87 01       	movw	r16, r14
    23c4:	df ef       	ldi	r29, 0xFF	; 255
    23c6:	dc 0f       	add	r29, r28
    23c8:	c1 11       	cpse	r28, r1
    23ca:	f1 cf       	rjmp	.-30     	; 0x23ae <NRF24_Write_Buf+0x28>
    23cc:	85 b1       	in	r24, 0x05	; 5
    23ce:	84 60       	ori	r24, 0x04	; 4
    23d0:	85 b9       	out	0x05, r24	; 5
    23d2:	df 91       	pop	r29
    23d4:	cf 91       	pop	r28
    23d6:	1f 91       	pop	r17
    23d8:	0f 91       	pop	r16
    23da:	ff 90       	pop	r15
    23dc:	ef 90       	pop	r14
    23de:	08 95       	ret

000023e0 <nRF_write_register>:
}
//-------------------------------------------------------------
void nRF_write_register(uint8_t reg, uint8_t data_out)
{
    23e0:	cf 93       	push	r28
    23e2:	c6 2f       	mov	r28, r22
	reg |= W_REGISTER;
    23e4:	80 62       	ori	r24, 0x20	; 32
	LOW_CSN;
    23e6:	95 b1       	in	r25, 0x05	; 5
    23e8:	9b 7f       	andi	r25, 0xFB	; 251
    23ea:	95 b9       	out	0x05, r25	; 5
	spi_send_recv(reg);
    23ec:	90 e0       	ldi	r25, 0x00	; 0
    23ee:	0e 94 9d 0f 	call	0x1f3a	; 0x1f3a <spi_send_recv>
	spi_send_recv(data_out);
    23f2:	8c 2f       	mov	r24, r28
    23f4:	90 e0       	ldi	r25, 0x00	; 0
    23f6:	0e 94 9d 0f 	call	0x1f3a	; 0x1f3a <spi_send_recv>
	HIGH_CSN;
    23fa:	85 b1       	in	r24, 0x05	; 5
    23fc:	84 60       	ori	r24, 0x04	; 4
    23fe:	85 b9       	out	0x05, r24	; 5
}
    2400:	cf 91       	pop	r28
    2402:	08 95       	ret

00002404 <nRF_read_register>:
//-------------------------------------------------------------
uint8_t nRF_read_register(uint8_t reg)
{
    2404:	cf 93       	push	r28
    2406:	c8 2f       	mov	r28, r24
	uint8_t data_in;
	LOW_CSN;
    2408:	85 b1       	in	r24, 0x05	; 5
    240a:	8b 7f       	andi	r24, 0xFB	; 251
    240c:	85 b9       	out	0x05, r24	; 5
	data_in = spi_send_recv(reg);
    240e:	8c 2f       	mov	r24, r28
    2410:	90 e0       	ldi	r25, 0x00	; 0
    2412:	0e 94 9d 0f 	call	0x1f3a	; 0x1f3a <spi_send_recv>
	if(reg != STATUS)
    2416:	c7 30       	cpi	r28, 0x07	; 7
    2418:	21 f0       	breq	.+8      	; 0x2422 <nRF_read_register+0x1e>
	{
		data_in = spi_send_recv(NOP);
    241a:	8f ef       	ldi	r24, 0xFF	; 255
    241c:	90 e0       	ldi	r25, 0x00	; 0
    241e:	0e 94 9d 0f 	call	0x1f3a	; 0x1f3a <spi_send_recv>
	}
	HIGH_CSN;
    2422:	95 b1       	in	r25, 0x05	; 5
    2424:	94 60       	ori	r25, 0x04	; 4
    2426:	95 b9       	out	0x05, r25	; 5
	return data_in;
}
    2428:	cf 91       	pop	r28
    242a:	08 95       	ret

0000242c <__vector_1>:
		//memset(RX_BUF, 0, sizeof(int) * strlen(RX_BUF));//очистка массива
		rx_flag = 0;
	}
}
ISR(INT0_vect)
{
    242c:	1f 92       	push	r1
    242e:	0f 92       	push	r0
    2430:	0f b6       	in	r0, 0x3f	; 63
    2432:	0f 92       	push	r0
    2434:	11 24       	eor	r1, r1
    2436:	2f 93       	push	r18
    2438:	3f 93       	push	r19
    243a:	4f 93       	push	r20
    243c:	5f 93       	push	r21
    243e:	6f 93       	push	r22
    2440:	7f 93       	push	r23
    2442:	8f 93       	push	r24
    2444:	9f 93       	push	r25
    2446:	af 93       	push	r26
    2448:	bf 93       	push	r27
    244a:	ef 93       	push	r30
    244c:	ff 93       	push	r31
    244e:	87 e5       	ldi	r24, 0x57	; 87
    2450:	92 e0       	ldi	r25, 0x02	; 2
    2452:	01 97       	sbiw	r24, 0x01	; 1
    2454:	f1 f7       	brne	.-4      	; 0x2452 <__vector_1+0x26>
    2456:	00 c0       	rjmp	.+0      	; 0x2458 <__vector_1+0x2c>
    2458:	00 00       	nop
	uint8_t status=0x01;
	uint8_t pipe;
	_delay_us(300);
	PORTD |= (1<<LED);
    245a:	8b b1       	in	r24, 0x0b	; 11
    245c:	80 61       	ori	r24, 0x10	; 16
    245e:	8b b9       	out	0x0b, r24	; 11
    2460:	87 e5       	ldi	r24, 0x57	; 87
    2462:	92 e0       	ldi	r25, 0x02	; 2
    2464:	01 97       	sbiw	r24, 0x01	; 1
    2466:	f1 f7       	brne	.-4      	; 0x2464 <__vector_1+0x38>
    2468:	00 c0       	rjmp	.+0      	; 0x246a <__vector_1+0x3e>
    246a:	00 00       	nop
	_delay_us(300);
	PORTD &= ~(1<<LED);
    246c:	8b b1       	in	r24, 0x0b	; 11
    246e:	8f 7e       	andi	r24, 0xEF	; 239
    2470:	8b b9       	out	0x0b, r24	; 11
	status = nRF_read_register(STATUS);
    2472:	87 e0       	ldi	r24, 0x07	; 7
    2474:	0e 94 02 12 	call	0x2404	; 0x2404 <nRF_read_register>
	if(status & 0x40)
    2478:	86 ff       	sbrs	r24, 6
    247a:	0a c0       	rjmp	.+20     	; 0x2490 <__vector_1+0x64>
	{
		NRF24_Read_Buf(R_RX_PAYLOAD,RX_BUF,TX_PLOAD_WIDTH);
    247c:	45 e0       	ldi	r20, 0x05	; 5
    247e:	69 eb       	ldi	r22, 0xB9	; 185
    2480:	77 e0       	ldi	r23, 0x07	; 7
    2482:	81 e6       	ldi	r24, 0x61	; 97
    2484:	0e 94 9a 11 	call	0x2334	; 0x2334 <NRF24_Read_Buf>
		nRF_write_register(STATUS, 0x40);
    2488:	60 e4       	ldi	r22, 0x40	; 64
    248a:	87 e0       	ldi	r24, 0x07	; 7
    248c:	0e 94 f0 11 	call	0x23e0	; 0x23e0 <nRF_write_register>
	}
	 rx_flag = 1;
    2490:	81 e0       	ldi	r24, 0x01	; 1
    2492:	80 93 b8 07 	sts	0x07B8, r24	; 0x8007b8 <rx_flag>
	 NRF24L01_Receive();
    2496:	0e 94 fc 0f 	call	0x1ff8	; 0x1ff8 <NRF24L01_Receive>
	 if(receive_counter == 6)
    249a:	80 91 b7 07 	lds	r24, 0x07B7	; 0x8007b7 <receive_counter>
    249e:	86 30       	cpi	r24, 0x06	; 6
    24a0:	11 f4       	brne	.+4      	; 0x24a6 <__vector_1+0x7a>
	 {
		 receive_counter = 0;
    24a2:	10 92 b7 07 	sts	0x07B7, r1	; 0x8007b7 <receive_counter>
	 }
	 receive_counter++;
    24a6:	80 91 b7 07 	lds	r24, 0x07B7	; 0x8007b7 <receive_counter>
    24aa:	8f 5f       	subi	r24, 0xFF	; 255
    24ac:	80 93 b7 07 	sts	0x07B7, r24	; 0x8007b7 <receive_counter>
	 sprintf(receive_time,"%s:%s:%s,%s/%s/%s", hours, minutes, seconds, mounthday, Mounth, Year);
    24b0:	8f ef       	ldi	r24, 0xFF	; 255
    24b2:	97 e0       	ldi	r25, 0x07	; 7
    24b4:	9f 93       	push	r25
    24b6:	8f 93       	push	r24
    24b8:	83 ef       	ldi	r24, 0xF3	; 243
    24ba:	97 e0       	ldi	r25, 0x07	; 7
    24bc:	9f 93       	push	r25
    24be:	8f 93       	push	r24
    24c0:	83 e0       	ldi	r24, 0x03	; 3
    24c2:	98 e0       	ldi	r25, 0x08	; 8
    24c4:	9f 93       	push	r25
    24c6:	8f 93       	push	r24
    24c8:	8a ef       	ldi	r24, 0xFA	; 250
    24ca:	97 e0       	ldi	r25, 0x07	; 7
    24cc:	9f 93       	push	r25
    24ce:	8f 93       	push	r24
    24d0:	8d e0       	ldi	r24, 0x0D	; 13
    24d2:	98 e0       	ldi	r25, 0x08	; 8
    24d4:	9f 93       	push	r25
    24d6:	8f 93       	push	r24
    24d8:	81 e1       	ldi	r24, 0x11	; 17
    24da:	98 e0       	ldi	r25, 0x08	; 8
    24dc:	9f 93       	push	r25
    24de:	8f 93       	push	r24
    24e0:	82 e2       	ldi	r24, 0x22	; 34
    24e2:	91 e0       	ldi	r25, 0x01	; 1
    24e4:	9f 93       	push	r25
    24e6:	8f 93       	push	r24
    24e8:	82 e0       	ldi	r24, 0x02	; 2
    24ea:	91 e0       	ldi	r25, 0x01	; 1
    24ec:	9f 93       	push	r25
    24ee:	8f 93       	push	r24
    24f0:	0e 94 fe 2a 	call	0x55fc	; 0x55fc <sprintf>
}
    24f4:	8d b7       	in	r24, 0x3d	; 61
    24f6:	9e b7       	in	r25, 0x3e	; 62
    24f8:	40 96       	adiw	r24, 0x10	; 16
    24fa:	0f b6       	in	r0, 0x3f	; 63
    24fc:	f8 94       	cli
    24fe:	9e bf       	out	0x3e, r25	; 62
    2500:	0f be       	out	0x3f, r0	; 63
    2502:	8d bf       	out	0x3d, r24	; 61
    2504:	ff 91       	pop	r31
    2506:	ef 91       	pop	r30
    2508:	bf 91       	pop	r27
    250a:	af 91       	pop	r26
    250c:	9f 91       	pop	r25
    250e:	8f 91       	pop	r24
    2510:	7f 91       	pop	r23
    2512:	6f 91       	pop	r22
    2514:	5f 91       	pop	r21
    2516:	4f 91       	pop	r20
    2518:	3f 91       	pop	r19
    251a:	2f 91       	pop	r18
    251c:	0f 90       	pop	r0
    251e:	0f be       	out	0x3f, r0	; 63
    2520:	0f 90       	pop	r0
    2522:	1f 90       	pop	r1
    2524:	18 95       	reti

00002526 <NRF24L01_RX_Mode>:
}
//-------------------------------------------------------------
void NRF24L01_RX_Mode(void) // включение режима приема
{
	uint8_t regval = 0x00;
	regval = nRF_read_register(CONFIG);
    2526:	80 e0       	ldi	r24, 0x00	; 0
    2528:	0e 94 02 12 	call	0x2404	; 0x2404 <nRF_read_register>
	//разбудим модуль и переведём его в режим приёмника, включив биты PWR_UP и PRIM_RX
	regval |= (1<<PWR_UP)|(1<<PRIM_RX);
    252c:	68 2f       	mov	r22, r24
    252e:	63 60       	ori	r22, 0x03	; 3
	nRF_write_register(CONFIG,regval);
    2530:	80 e0       	ldi	r24, 0x00	; 0
    2532:	0e 94 f0 11 	call	0x23e0	; 0x23e0 <nRF_write_register>
	HIGH_CE;
    2536:	85 b1       	in	r24, 0x05	; 5
    2538:	82 60       	ori	r24, 0x02	; 2
    253a:	85 b9       	out	0x05, r24	; 5
    253c:	8b e2       	ldi	r24, 0x2B	; 43
    253e:	91 e0       	ldi	r25, 0x01	; 1
    2540:	01 97       	sbiw	r24, 0x01	; 1
    2542:	f1 f7       	brne	.-4      	; 0x2540 <NRF24L01_RX_Mode+0x1a>
    2544:	00 c0       	rjmp	.+0      	; 0x2546 <NRF24L01_RX_Mode+0x20>
    2546:	00 00       	nop
	_delay_us(150); //Задержка минимум 130 мкс
	// Flush buffers
	NRF24_FlushRX();
    2548:	0e 94 69 11 	call	0x22d2	; 0x22d2 <NRF24_FlushRX>
	NRF24_FlushTX();
    254c:	0e 94 78 11 	call	0x22f0	; 0x22f0 <NRF24_FlushTX>
    2550:	08 95       	ret

00002552 <NRF24_ini>:
char Year[4];

//-------------------------------------------------------------
void NRF24_ini(void)
{
	LOW_CE;
    2552:	85 b1       	in	r24, 0x05	; 5
    2554:	8d 7f       	andi	r24, 0xFD	; 253
    2556:	85 b9       	out	0x05, r24	; 5
	#else
		//round up by default
		__ticks_dc = (uint32_t)(ceil(fabs(__tmp)));
	#endif

	__builtin_avr_delay_cycles(__ticks_dc);
    2558:	8f e0       	ldi	r24, 0x0F	; 15
    255a:	97 e2       	ldi	r25, 0x27	; 39
    255c:	01 97       	sbiw	r24, 0x01	; 1
    255e:	f1 f7       	brne	.-4      	; 0x255c <NRF24_ini+0xa>
    2560:	00 c0       	rjmp	.+0      	; 0x2562 <NRF24_ini+0x10>
    2562:	00 00       	nop
	_delay_ms(5);
	nRF_write_register(CONFIG, 0x0a); // Set PWR_UP bit, enable CRC(1 byte) &Prim_RX:0 (Transmitter)
    2564:	6a e0       	ldi	r22, 0x0A	; 10
    2566:	80 e0       	ldi	r24, 0x00	; 0
    2568:	0e 94 f0 11 	call	0x23e0	; 0x23e0 <nRF_write_register>
    256c:	8f e0       	ldi	r24, 0x0F	; 15
    256e:	97 e2       	ldi	r25, 0x27	; 39
    2570:	01 97       	sbiw	r24, 0x01	; 1
    2572:	f1 f7       	brne	.-4      	; 0x2570 <NRF24_ini+0x1e>
    2574:	00 c0       	rjmp	.+0      	; 0x2576 <NRF24_ini+0x24>
    2576:	00 00       	nop
	_delay_ms(5);
	nRF_write_register(EN_AA, 0x02); // Enable Pipe1
    2578:	62 e0       	ldi	r22, 0x02	; 2
    257a:	81 e0       	ldi	r24, 0x01	; 1
    257c:	0e 94 f0 11 	call	0x23e0	; 0x23e0 <nRF_write_register>
	nRF_write_register(EN_RXADDR, 0x02); // Enable Pipe1
    2580:	62 e0       	ldi	r22, 0x02	; 2
    2582:	82 e0       	ldi	r24, 0x02	; 2
    2584:	0e 94 f0 11 	call	0x23e0	; 0x23e0 <nRF_write_register>
	nRF_write_register(SETUP_AW, 0x01); // Setup address width=3 bytes
    2588:	61 e0       	ldi	r22, 0x01	; 1
    258a:	83 e0       	ldi	r24, 0x03	; 3
    258c:	0e 94 f0 11 	call	0x23e0	; 0x23e0 <nRF_write_register>
	nRF_write_register(SETUP_RETR, 0x5F); // // 1500us, 15 retrans
    2590:	6f e5       	ldi	r22, 0x5F	; 95
    2592:	84 e0       	ldi	r24, 0x04	; 4
    2594:	0e 94 f0 11 	call	0x23e0	; 0x23e0 <nRF_write_register>
	NRF24_ToggleFeatures();
    2598:	0e 94 87 11 	call	0x230e	; 0x230e <NRF24_ToggleFeatures>
	nRF_write_register(FEATURE, 0);
    259c:	60 e0       	ldi	r22, 0x00	; 0
    259e:	8d e1       	ldi	r24, 0x1D	; 29
    25a0:	0e 94 f0 11 	call	0x23e0	; 0x23e0 <nRF_write_register>
	nRF_write_register(DYNPD, 0);
    25a4:	60 e0       	ldi	r22, 0x00	; 0
    25a6:	8c e1       	ldi	r24, 0x1C	; 28
    25a8:	0e 94 f0 11 	call	0x23e0	; 0x23e0 <nRF_write_register>
	nRF_write_register(STATUS, 0x70);//Reset flags for IRQ
    25ac:	60 e7       	ldi	r22, 0x70	; 112
    25ae:	87 e0       	ldi	r24, 0x07	; 7
    25b0:	0e 94 f0 11 	call	0x23e0	; 0x23e0 <nRF_write_register>
	nRF_write_register(RF_CH, 76); // частота 2476 MHz
    25b4:	6c e4       	ldi	r22, 0x4C	; 76
    25b6:	85 e0       	ldi	r24, 0x05	; 5
    25b8:	0e 94 f0 11 	call	0x23e0	; 0x23e0 <nRF_write_register>
	nRF_write_register(RF_SETUP, 0x06); //TX_PWR:0dBm, Datarate:1Mbps
    25bc:	66 e0       	ldi	r22, 0x06	; 6
    25be:	86 e0       	ldi	r24, 0x06	; 6
    25c0:	0e 94 f0 11 	call	0x23e0	; 0x23e0 <nRF_write_register>
	NRF24_Write_Buf(TX_ADDR, TX_ADDRESS, TX_ADR_WIDTH);
    25c4:	43 e0       	ldi	r20, 0x03	; 3
    25c6:	66 e1       	ldi	r22, 0x16	; 22
    25c8:	71 e0       	ldi	r23, 0x01	; 1
    25ca:	80 e1       	ldi	r24, 0x10	; 16
    25cc:	0e 94 c3 11 	call	0x2386	; 0x2386 <NRF24_Write_Buf>
	NRF24_Write_Buf(RX_ADDR_P1, TX_ADDRESS, TX_ADR_WIDTH);
    25d0:	43 e0       	ldi	r20, 0x03	; 3
    25d2:	66 e1       	ldi	r22, 0x16	; 22
    25d4:	71 e0       	ldi	r23, 0x01	; 1
    25d6:	8b e0       	ldi	r24, 0x0B	; 11
    25d8:	0e 94 c3 11 	call	0x2386	; 0x2386 <NRF24_Write_Buf>
	nRF_write_register(RX_PW_P1, TX_PLOAD_WIDTH); //Number of bytes in RX payload in data pipe 1
    25dc:	65 e0       	ldi	r22, 0x05	; 5
    25de:	82 e1       	ldi	r24, 0x12	; 18
    25e0:	0e 94 f0 11 	call	0x23e0	; 0x23e0 <nRF_write_register>
	//пока уходим в режим приёмника
	NRF24L01_RX_Mode();
    25e4:	0e 94 93 12 	call	0x2526	; 0x2526 <NRF24L01_RX_Mode>
    25e8:	08 95       	ret

000025ea <RTC_ConvertFromBinDec>:
	I2C_SendByte(RTC_ConvertFromBinDec(wday));       // 0x03 день недели (воскресенье - 1, пн 2, вт 3, ср 4, чт 5, пт 6, сб 7)
	I2C_SendByte(RTC_ConvertFromBinDec(day));        // 0x04 день месяц
	I2C_SendByte(RTC_ConvertFromBinDec(month));      // 0x05 месяц
	I2C_SendByte(RTC_ConvertFromBinDec(year));       // 0x06 год
	I2C_StopCondition();                // остановка i2c
}
    25ea:	9d ec       	ldi	r25, 0xCD	; 205
    25ec:	89 9f       	mul	r24, r25
    25ee:	91 2d       	mov	r25, r1
    25f0:	11 24       	eor	r1, r1
    25f2:	96 95       	lsr	r25
    25f4:	96 95       	lsr	r25
    25f6:	96 95       	lsr	r25
    25f8:	20 e1       	ldi	r18, 0x10	; 16
    25fa:	92 9f       	mul	r25, r18
    25fc:	a0 01       	movw	r20, r0
    25fe:	11 24       	eor	r1, r1
    2600:	99 0f       	add	r25, r25
    2602:	29 2f       	mov	r18, r25
    2604:	22 0f       	add	r18, r18
    2606:	22 0f       	add	r18, r18
    2608:	92 0f       	add	r25, r18
    260a:	89 1b       	sub	r24, r25
    260c:	84 2b       	or	r24, r20
    260e:	08 95       	ret

00002610 <RTC_ConvertFromDec>:
    2610:	98 2f       	mov	r25, r24
    2612:	92 95       	swap	r25
    2614:	9f 70       	andi	r25, 0x0F	; 15
    2616:	99 0f       	add	r25, r25
    2618:	29 2f       	mov	r18, r25
    261a:	22 0f       	add	r18, r18
    261c:	22 0f       	add	r18, r18
    261e:	92 0f       	add	r25, r18
    2620:	8f 70       	andi	r24, 0x0F	; 15
    2622:	89 0f       	add	r24, r25
    2624:	08 95       	ret

00002626 <RTC_init>:
    2626:	0e 94 f8 13 	call	0x27f0	; 0x27f0 <I2C_StartCondition>
    262a:	80 ed       	ldi	r24, 0xD0	; 208
    262c:	0e 94 04 14 	call	0x2808	; 0x2808 <I2C_SendByte>
    2630:	8e e0       	ldi	r24, 0x0E	; 14
    2632:	0e 94 04 14 	call	0x2808	; 0x2808 <I2C_SendByte>
    2636:	80 e2       	ldi	r24, 0x20	; 32
    2638:	0e 94 04 14 	call	0x2808	; 0x2808 <I2C_SendByte>
    263c:	88 e0       	ldi	r24, 0x08	; 8
    263e:	0e 94 04 14 	call	0x2808	; 0x2808 <I2C_SendByte>
    2642:	0e 94 00 14 	call	0x2800	; 0x2800 <I2C_StopCondition>
    2646:	08 95       	ret

00002648 <ModifyRTC>:
	t2=t2*5;
}
*/
void ModifyRTC(void)
{
	I2C_StartCondition();
    2648:	0e 94 f8 13 	call	0x27f0	; 0x27f0 <I2C_StartCondition>
	I2C_SendByte(0b11010000);
    264c:	80 ed       	ldi	r24, 0xD0	; 208
    264e:	0e 94 04 14 	call	0x2808	; 0x2808 <I2C_SendByte>
	switch(clock_change_mode)
    2652:	80 91 f9 07 	lds	r24, 0x07F9	; 0x8007f9 <clock_change_mode>
    2656:	83 30       	cpi	r24, 0x03	; 3
    2658:	99 f1       	breq	.+102    	; 0x26c0 <ModifyRTC+0x78>
    265a:	28 f4       	brcc	.+10     	; 0x2666 <ModifyRTC+0x1e>
    265c:	81 30       	cpi	r24, 0x01	; 1
    265e:	61 f0       	breq	.+24     	; 0x2678 <ModifyRTC+0x30>
    2660:	82 30       	cpi	r24, 0x02	; 2
    2662:	e1 f0       	breq	.+56     	; 0x269c <ModifyRTC+0x54>
    2664:	be c0       	rjmp	.+380    	; 0x27e2 <ModifyRTC+0x19a>
    2666:	85 30       	cpi	r24, 0x05	; 5
    2668:	09 f4       	brne	.+2      	; 0x266c <ModifyRTC+0x24>
    266a:	98 c0       	rjmp	.+304    	; 0x279c <ModifyRTC+0x154>
    266c:	08 f4       	brcc	.+2      	; 0x2670 <ModifyRTC+0x28>
    266e:	84 c0       	rjmp	.+264    	; 0x2778 <ModifyRTC+0x130>
    2670:	86 30       	cpi	r24, 0x06	; 6
    2672:	09 f4       	brne	.+2      	; 0x2676 <ModifyRTC+0x2e>
    2674:	a5 c0       	rjmp	.+330    	; 0x27c0 <ModifyRTC+0x178>
    2676:	b5 c0       	rjmp	.+362    	; 0x27e2 <ModifyRTC+0x19a>
	{
		case MODE_CHANGE_HOURS: //часы
		{
			I2C_SendByte(2);//Переходим на 0x02 — байт часов
    2678:	82 e0       	ldi	r24, 0x02	; 2
    267a:	0e 94 04 14 	call	0x2808	; 0x2808 <I2C_SendByte>
			if (hour < 23) I2C_SendByte(RTC_ConvertFromBinDec( hour ));
    267e:	80 91 f2 07 	lds	r24, 0x07F2	; 0x8007f2 <hour>
    2682:	87 31       	cpi	r24, 0x17	; 23
    2684:	28 f4       	brcc	.+10     	; 0x2690 <ModifyRTC+0x48>
    2686:	0e 94 f5 12 	call	0x25ea	; 0x25ea <RTC_ConvertFromBinDec>
    268a:	0e 94 04 14 	call	0x2808	; 0x2808 <I2C_SendByte>
    268e:	a9 c0       	rjmp	.+338    	; 0x27e2 <ModifyRTC+0x19a>
			else I2C_SendByte(RTC_ConvertFromBinDec(0));
    2690:	80 e0       	ldi	r24, 0x00	; 0
    2692:	0e 94 f5 12 	call	0x25ea	; 0x25ea <RTC_ConvertFromBinDec>
    2696:	0e 94 04 14 	call	0x2808	; 0x2808 <I2C_SendByte>
    269a:	a3 c0       	rjmp	.+326    	; 0x27e2 <ModifyRTC+0x19a>
			break;
		}
		case MODE_CHANGE_MINUTES: // минуты
		{
			I2C_SendByte(1);//Переходим на 0x01 — байт минут
    269c:	81 e0       	ldi	r24, 0x01	; 1
    269e:	0e 94 04 14 	call	0x2808	; 0x2808 <I2C_SendByte>
			if(min<59) I2C_SendByte(RTC_ConvertFromBinDec(min));
    26a2:	80 91 fe 07 	lds	r24, 0x07FE	; 0x8007fe <min>
    26a6:	8b 33       	cpi	r24, 0x3B	; 59
    26a8:	28 f4       	brcc	.+10     	; 0x26b4 <ModifyRTC+0x6c>
    26aa:	0e 94 f5 12 	call	0x25ea	; 0x25ea <RTC_ConvertFromBinDec>
    26ae:	0e 94 04 14 	call	0x2808	; 0x2808 <I2C_SendByte>
    26b2:	97 c0       	rjmp	.+302    	; 0x27e2 <ModifyRTC+0x19a>
			else I2C_SendByte(RTC_ConvertFromBinDec(0));
    26b4:	80 e0       	ldi	r24, 0x00	; 0
    26b6:	0e 94 f5 12 	call	0x25ea	; 0x25ea <RTC_ConvertFromBinDec>
    26ba:	0e 94 04 14 	call	0x2808	; 0x2808 <I2C_SendByte>
    26be:	91 c0       	rjmp	.+290    	; 0x27e2 <ModifyRTC+0x19a>
			break;
		}
		case MODE_CHANGE_DATE: // дата
		{
			I2C_SendByte(4);//Переходим на 0x04 — байт даты
    26c0:	84 e0       	ldi	r24, 0x04	; 4
    26c2:	0e 94 04 14 	call	0x2808	; 0x2808 <I2C_SendByte>
			if (month==2) //февраль
    26c6:	80 91 ee 07 	lds	r24, 0x07EE	; 0x8007ee <month>
    26ca:	82 30       	cpi	r24, 0x02	; 2
    26cc:	11 f5       	brne	.+68     	; 0x2712 <ModifyRTC+0xca>
			{
				if(year%4==0) //високосный год
    26ce:	80 91 07 08 	lds	r24, 0x0807	; 0x800807 <year>
    26d2:	83 70       	andi	r24, 0x03	; 3
    26d4:	79 f4       	brne	.+30     	; 0x26f4 <ModifyRTC+0xac>
				{
					if(date<29) I2C_SendByte(RTC_ConvertFromBinDec(date));
    26d6:	80 91 0b 08 	lds	r24, 0x080B	; 0x80080b <date>
    26da:	8d 31       	cpi	r24, 0x1D	; 29
    26dc:	28 f4       	brcc	.+10     	; 0x26e8 <ModifyRTC+0xa0>
    26de:	0e 94 f5 12 	call	0x25ea	; 0x25ea <RTC_ConvertFromBinDec>
    26e2:	0e 94 04 14 	call	0x2808	; 0x2808 <I2C_SendByte>
    26e6:	7d c0       	rjmp	.+250    	; 0x27e2 <ModifyRTC+0x19a>
					else I2C_SendByte(RTC_ConvertFromBinDec(1));
    26e8:	81 e0       	ldi	r24, 0x01	; 1
    26ea:	0e 94 f5 12 	call	0x25ea	; 0x25ea <RTC_ConvertFromBinDec>
    26ee:	0e 94 04 14 	call	0x2808	; 0x2808 <I2C_SendByte>
    26f2:	77 c0       	rjmp	.+238    	; 0x27e2 <ModifyRTC+0x19a>
				}
				else
				{
					if(date<28) I2C_SendByte(RTC_ConvertFromBinDec(date));
    26f4:	80 91 0b 08 	lds	r24, 0x080B	; 0x80080b <date>
    26f8:	8c 31       	cpi	r24, 0x1C	; 28
    26fa:	28 f4       	brcc	.+10     	; 0x2706 <ModifyRTC+0xbe>
    26fc:	0e 94 f5 12 	call	0x25ea	; 0x25ea <RTC_ConvertFromBinDec>
    2700:	0e 94 04 14 	call	0x2808	; 0x2808 <I2C_SendByte>
    2704:	6e c0       	rjmp	.+220    	; 0x27e2 <ModifyRTC+0x19a>
					else I2C_SendByte(RTC_ConvertFromBinDec(1));
    2706:	81 e0       	ldi	r24, 0x01	; 1
    2708:	0e 94 f5 12 	call	0x25ea	; 0x25ea <RTC_ConvertFromBinDec>
    270c:	0e 94 04 14 	call	0x2808	; 0x2808 <I2C_SendByte>
    2710:	68 c0       	rjmp	.+208    	; 0x27e2 <ModifyRTC+0x19a>
				}
			}
			else if ((month==4)|(month==6)|(month==9)|(month==11))
    2712:	21 e0       	ldi	r18, 0x01	; 1
    2714:	84 30       	cpi	r24, 0x04	; 4
    2716:	09 f0       	breq	.+2      	; 0x271a <ModifyRTC+0xd2>
    2718:	20 e0       	ldi	r18, 0x00	; 0
    271a:	91 e0       	ldi	r25, 0x01	; 1
    271c:	86 30       	cpi	r24, 0x06	; 6
    271e:	09 f0       	breq	.+2      	; 0x2722 <ModifyRTC+0xda>
    2720:	90 e0       	ldi	r25, 0x00	; 0
    2722:	29 2b       	or	r18, r25
    2724:	91 e0       	ldi	r25, 0x01	; 1
    2726:	89 30       	cpi	r24, 0x09	; 9
    2728:	09 f0       	breq	.+2      	; 0x272c <ModifyRTC+0xe4>
    272a:	90 e0       	ldi	r25, 0x00	; 0
    272c:	31 e0       	ldi	r19, 0x01	; 1
    272e:	8b 30       	cpi	r24, 0x0B	; 11
    2730:	09 f0       	breq	.+2      	; 0x2734 <ModifyRTC+0xec>
    2732:	30 e0       	ldi	r19, 0x00	; 0
    2734:	92 2b       	or	r25, r18
    2736:	11 f4       	brne	.+4      	; 0x273c <ModifyRTC+0xf4>
    2738:	33 23       	and	r19, r19
    273a:	79 f0       	breq	.+30     	; 0x275a <ModifyRTC+0x112>
			{
				if(date<30) I2C_SendByte(RTC_ConvertFromBinDec(date));
    273c:	80 91 0b 08 	lds	r24, 0x080B	; 0x80080b <date>
    2740:	8e 31       	cpi	r24, 0x1E	; 30
    2742:	28 f4       	brcc	.+10     	; 0x274e <ModifyRTC+0x106>
    2744:	0e 94 f5 12 	call	0x25ea	; 0x25ea <RTC_ConvertFromBinDec>
    2748:	0e 94 04 14 	call	0x2808	; 0x2808 <I2C_SendByte>
    274c:	4a c0       	rjmp	.+148    	; 0x27e2 <ModifyRTC+0x19a>
				else I2C_SendByte(RTC_ConvertFromBinDec(1));
    274e:	81 e0       	ldi	r24, 0x01	; 1
    2750:	0e 94 f5 12 	call	0x25ea	; 0x25ea <RTC_ConvertFromBinDec>
    2754:	0e 94 04 14 	call	0x2808	; 0x2808 <I2C_SendByte>
    2758:	44 c0       	rjmp	.+136    	; 0x27e2 <ModifyRTC+0x19a>
			}
			else
			{
				if(date<31) I2C_SendByte(RTC_ConvertFromBinDec(date));
    275a:	80 91 0b 08 	lds	r24, 0x080B	; 0x80080b <date>
    275e:	8f 31       	cpi	r24, 0x1F	; 31
    2760:	28 f4       	brcc	.+10     	; 0x276c <ModifyRTC+0x124>
    2762:	0e 94 f5 12 	call	0x25ea	; 0x25ea <RTC_ConvertFromBinDec>
    2766:	0e 94 04 14 	call	0x2808	; 0x2808 <I2C_SendByte>
    276a:	3b c0       	rjmp	.+118    	; 0x27e2 <ModifyRTC+0x19a>
				else I2C_SendByte(RTC_ConvertFromBinDec(1));
    276c:	81 e0       	ldi	r24, 0x01	; 1
    276e:	0e 94 f5 12 	call	0x25ea	; 0x25ea <RTC_ConvertFromBinDec>
    2772:	0e 94 04 14 	call	0x2808	; 0x2808 <I2C_SendByte>
    2776:	35 c0       	rjmp	.+106    	; 0x27e2 <ModifyRTC+0x19a>
			}
			break;
		}
		case MODE_CHANGE_MONTH: // месяц
		{
			I2C_SendByte(5);//Переходим на 0x05 — байт месяца
    2778:	85 e0       	ldi	r24, 0x05	; 5
    277a:	0e 94 04 14 	call	0x2808	; 0x2808 <I2C_SendByte>
			if(month<12) I2C_SendByte(RTC_ConvertFromBinDec(month));
    277e:	80 91 ee 07 	lds	r24, 0x07EE	; 0x8007ee <month>
    2782:	8c 30       	cpi	r24, 0x0C	; 12
    2784:	28 f4       	brcc	.+10     	; 0x2790 <ModifyRTC+0x148>
    2786:	0e 94 f5 12 	call	0x25ea	; 0x25ea <RTC_ConvertFromBinDec>
    278a:	0e 94 04 14 	call	0x2808	; 0x2808 <I2C_SendByte>
    278e:	29 c0       	rjmp	.+82     	; 0x27e2 <ModifyRTC+0x19a>
			else I2C_SendByte(RTC_ConvertFromBinDec(1));
    2790:	81 e0       	ldi	r24, 0x01	; 1
    2792:	0e 94 f5 12 	call	0x25ea	; 0x25ea <RTC_ConvertFromBinDec>
    2796:	0e 94 04 14 	call	0x2808	; 0x2808 <I2C_SendByte>
    279a:	23 c0       	rjmp	.+70     	; 0x27e2 <ModifyRTC+0x19a>
			break;
		}
		case MODE_CHANGE_YEAR: // год
		{
			I2C_SendByte(6);//Переходим на 0x06 — байт года
    279c:	86 e0       	ldi	r24, 0x06	; 6
    279e:	0e 94 04 14 	call	0x2808	; 0x2808 <I2C_SendByte>
			if(year<99) I2C_SendByte(RTC_ConvertFromBinDec(year));
    27a2:	80 91 07 08 	lds	r24, 0x0807	; 0x800807 <year>
    27a6:	83 36       	cpi	r24, 0x63	; 99
    27a8:	28 f4       	brcc	.+10     	; 0x27b4 <ModifyRTC+0x16c>
    27aa:	0e 94 f5 12 	call	0x25ea	; 0x25ea <RTC_ConvertFromBinDec>
    27ae:	0e 94 04 14 	call	0x2808	; 0x2808 <I2C_SendByte>
    27b2:	17 c0       	rjmp	.+46     	; 0x27e2 <ModifyRTC+0x19a>
			else I2C_SendByte(RTC_ConvertFromBinDec(1));
    27b4:	81 e0       	ldi	r24, 0x01	; 1
    27b6:	0e 94 f5 12 	call	0x25ea	; 0x25ea <RTC_ConvertFromBinDec>
    27ba:	0e 94 04 14 	call	0x2808	; 0x2808 <I2C_SendByte>
    27be:	11 c0       	rjmp	.+34     	; 0x27e2 <ModifyRTC+0x19a>
			break;
		}
		case MODE_CHANGE_WEAKDAY: // день недели
		{
			I2C_SendByte(3);//Переходим на 0x03 — байт дня недели
    27c0:	83 e0       	ldi	r24, 0x03	; 3
    27c2:	0e 94 04 14 	call	0x2808	; 0x2808 <I2C_SendByte>
			if(day<7) I2C_SendByte(RTC_ConvertFromBinDec(day));
    27c6:	80 91 09 08 	lds	r24, 0x0809	; 0x800809 <day>
    27ca:	87 30       	cpi	r24, 0x07	; 7
    27cc:	28 f4       	brcc	.+10     	; 0x27d8 <ModifyRTC+0x190>
    27ce:	0e 94 f5 12 	call	0x25ea	; 0x25ea <RTC_ConvertFromBinDec>
    27d2:	0e 94 04 14 	call	0x2808	; 0x2808 <I2C_SendByte>
    27d6:	05 c0       	rjmp	.+10     	; 0x27e2 <ModifyRTC+0x19a>
			else I2C_SendByte(RTC_ConvertFromBinDec(1));
    27d8:	81 e0       	ldi	r24, 0x01	; 1
    27da:	0e 94 f5 12 	call	0x25ea	; 0x25ea <RTC_ConvertFromBinDec>
    27de:	0e 94 04 14 	call	0x2808	; 0x2808 <I2C_SendByte>
			if(alarmmin<59) EEPROM_write(3,alarmmin+1);
			else EEPROM_write(3,0);
			break;
		}*/
	}
	I2C_StopCondition();
    27e2:	0e 94 00 14 	call	0x2800	; 0x2800 <I2C_StopCondition>
    27e6:	08 95       	ret

000027e8 <I2C_Init>:
{
    I2C_StartCondition(); // Отправим условие START
	I2C_SendByte(addr); // Отправим в шину адрес устройства + бит чтения-записи
	I2C_SendByte(c);// Отправим байт данных
	I2C_StopCondition();// Отправим условие STOP
}
    27e8:	80 e2       	ldi	r24, 0x20	; 32
    27ea:	80 93 b8 00 	sts	0x00B8, r24	; 0x8000b8 <__TEXT_REGION_LENGTH__+0x7f80b8>
    27ee:	08 95       	ret

000027f0 <I2C_StartCondition>:
    27f0:	84 ea       	ldi	r24, 0xA4	; 164
    27f2:	80 93 bc 00 	sts	0x00BC, r24	; 0x8000bc <__TEXT_REGION_LENGTH__+0x7f80bc>
    27f6:	80 91 bc 00 	lds	r24, 0x00BC	; 0x8000bc <__TEXT_REGION_LENGTH__+0x7f80bc>
    27fa:	88 23       	and	r24, r24
    27fc:	e4 f7       	brge	.-8      	; 0x27f6 <I2C_StartCondition+0x6>
    27fe:	08 95       	ret

00002800 <I2C_StopCondition>:
    2800:	84 e9       	ldi	r24, 0x94	; 148
    2802:	80 93 bc 00 	sts	0x00BC, r24	; 0x8000bc <__TEXT_REGION_LENGTH__+0x7f80bc>
    2806:	08 95       	ret

00002808 <I2C_SendByte>:
    2808:	80 93 bb 00 	sts	0x00BB, r24	; 0x8000bb <__TEXT_REGION_LENGTH__+0x7f80bb>
    280c:	84 e8       	ldi	r24, 0x84	; 132
    280e:	80 93 bc 00 	sts	0x00BC, r24	; 0x8000bc <__TEXT_REGION_LENGTH__+0x7f80bc>
    2812:	80 91 bc 00 	lds	r24, 0x00BC	; 0x8000bc <__TEXT_REGION_LENGTH__+0x7f80bc>
    2816:	88 23       	and	r24, r24
    2818:	e4 f7       	brge	.-8      	; 0x2812 <I2C_SendByte+0xa>
    281a:	08 95       	ret

0000281c <I2C_ReadByte>:
unsigned char I2C_ReadByte(void)
{
	TWCR = (1<<TWINT)|(1<<TWEN)|(1<<TWEA);
    281c:	84 ec       	ldi	r24, 0xC4	; 196
    281e:	80 93 bc 00 	sts	0x00BC, r24	; 0x8000bc <__TEXT_REGION_LENGTH__+0x7f80bc>
	while (!(TWCR & (1<<TWINT)));//ожидание установки бита TWIN
    2822:	80 91 bc 00 	lds	r24, 0x00BC	; 0x8000bc <__TEXT_REGION_LENGTH__+0x7f80bc>
    2826:	88 23       	and	r24, r24
    2828:	e4 f7       	brge	.-8      	; 0x2822 <I2C_ReadByte+0x6>
	return TWDR;//читаем регистр данных
    282a:	80 91 bb 00 	lds	r24, 0x00BB	; 0x8000bb <__TEXT_REGION_LENGTH__+0x7f80bb>
}
    282e:	08 95       	ret

00002830 <I2C_ReadLastByte>:
unsigned char I2C_ReadLastByte(void)
{
	TWCR = (1<<TWINT)|(1<<TWEN);
    2830:	84 e8       	ldi	r24, 0x84	; 132
    2832:	80 93 bc 00 	sts	0x00BC, r24	; 0x8000bc <__TEXT_REGION_LENGTH__+0x7f80bc>
	while (!(TWCR & (1<<TWINT)));//ожидание установки бита TWIN
    2836:	80 91 bc 00 	lds	r24, 0x00BC	; 0x8000bc <__TEXT_REGION_LENGTH__+0x7f80bc>
    283a:	88 23       	and	r24, r24
    283c:	e4 f7       	brge	.-8      	; 0x2836 <I2C_ReadLastByte+0x6>
	return TWDR;//читаем регистр данных
    283e:	80 91 bb 00 	lds	r24, 0x00BB	; 0x8000bb <__TEXT_REGION_LENGTH__+0x7f80bb>
    2842:	08 95       	ret

00002844 <USART_Init>:
 */ 
#include "usart.h"

void USART_Init( unsigned int speed)//Инициализация модуля USART
{	
  UBRR0H = (unsigned char)(speed>>8);
    2844:	90 93 c5 00 	sts	0x00C5, r25	; 0x8000c5 <__TEXT_REGION_LENGTH__+0x7f80c5>
  UBRR0L = (unsigned char)speed;
    2848:	80 93 c4 00 	sts	0x00C4, r24	; 0x8000c4 <__TEXT_REGION_LENGTH__+0x7f80c4>
  UCSR0B=(1<<RXEN0)|( 1<<TXEN0); //Включаем прием и передачу по USART
    284c:	e1 ec       	ldi	r30, 0xC1	; 193
    284e:	f0 e0       	ldi	r31, 0x00	; 0
    2850:	88 e1       	ldi	r24, 0x18	; 24
    2852:	80 83       	st	Z, r24
  UCSR0B |= (1<<RXCIE0); //Разрешаем прерывание при приеме
    2854:	80 81       	ld	r24, Z
    2856:	80 68       	ori	r24, 0x80	; 128
    2858:	80 83       	st	Z, r24
  UCSR0A |= (1<<U2X0); // Для 8 мгц, удвоение скорости
    285a:	e0 ec       	ldi	r30, 0xC0	; 192
    285c:	f0 e0       	ldi	r31, 0x00	; 0
    285e:	80 81       	ld	r24, Z
    2860:	82 60       	ori	r24, 0x02	; 2
    2862:	80 83       	st	Z, r24
  UCSR0C |= (1<<USBS0)|(1<<UCSZ01)|(1<<UCSZ00);// Обращаемся именно к регистру UCSRC (URSEL=1),
    2864:	e2 ec       	ldi	r30, 0xC2	; 194
    2866:	f0 e0       	ldi	r31, 0x00	; 0
    2868:	80 81       	ld	r24, Z
    286a:	8e 60       	ori	r24, 0x0E	; 14
    286c:	80 83       	st	Z, r24
    286e:	08 95       	ret

00002870 <USART_Transmit>:
  //ассинхронный режим (UMSEL=0), без контроля четности (UPM1=0 и UPM0=0),
  //2 стоп-бит (USBS=1), 8-бит посылка (UCSZ1=1 и UCSZ0=1)
  //UCSRC |= (1<<UPM1);//четность
}
void USART_Transmit( char* data ) //Функция отправки данных
{
    2870:	dc 01       	movw	r26, r24
  uint8_t i;
  for (i = 0; i < strlen(data); i++)
    2872:	80 e0       	ldi	r24, 0x00	; 0
    2874:	0b c0       	rjmp	.+22     	; 0x288c <USART_Transmit+0x1c>
  {
	  while ( !(UCSR0A & (1<<UDRE0)) ); //Ожидание опустошения буфера приема
    2876:	90 91 c0 00 	lds	r25, 0x00C0	; 0x8000c0 <__TEXT_REGION_LENGTH__+0x7f80c0>
    287a:	95 ff       	sbrs	r25, 5
    287c:	fc cf       	rjmp	.-8      	; 0x2876 <USART_Transmit+0x6>
	  UDR0 = data[i]; //Начало передачи данных
    287e:	fd 01       	movw	r30, r26
    2880:	e2 0f       	add	r30, r18
    2882:	f3 1f       	adc	r31, r19
    2884:	90 81       	ld	r25, Z
    2886:	90 93 c6 00 	sts	0x00C6, r25	; 0x8000c6 <__TEXT_REGION_LENGTH__+0x7f80c6>
  //UCSRC |= (1<<UPM1);//четность
}
void USART_Transmit( char* data ) //Функция отправки данных
{
  uint8_t i;
  for (i = 0; i < strlen(data); i++)
    288a:	8f 5f       	subi	r24, 0xFF	; 255
    288c:	28 2f       	mov	r18, r24
    288e:	30 e0       	ldi	r19, 0x00	; 0
    2890:	fd 01       	movw	r30, r26
    2892:	01 90       	ld	r0, Z+
    2894:	00 20       	and	r0, r0
    2896:	e9 f7       	brne	.-6      	; 0x2892 <USART_Transmit+0x22>
    2898:	31 97       	sbiw	r30, 0x01	; 1
    289a:	ea 1b       	sub	r30, r26
    289c:	fb 0b       	sbc	r31, r27
    289e:	2e 17       	cp	r18, r30
    28a0:	3f 07       	cpc	r19, r31
    28a2:	48 f3       	brcs	.-46     	; 0x2876 <USART_Transmit+0x6>
  {
	  while ( !(UCSR0A & (1<<UDRE0)) ); //Ожидание опустошения буфера приема
	  UDR0 = data[i]; //Начало передачи данных
  }

}
    28a4:	08 95       	ret

000028a6 <Print_Menu_Page>:
	LCD_12864_Draw_pixel(113, 48);
	LCD_12864_Draw_pixel(113, 49);
	LCD_12864_Draw_pixel(114, 50);
	LCD_12864_Draw_pixel(112, 49);
	LCD_12864_Draw_pixel(111, 49);
	LCD_12864_Draw_pixel(110, 50);
    28a6:	cf 93       	push	r28
    28a8:	df 93       	push	r29
    28aa:	ec 01       	movw	r28, r24
    28ac:	81 e0       	ldi	r24, 0x01	; 1
    28ae:	0e 94 c9 07 	call	0xf92	; 0xf92 <LCD_12864_GrapnicMode>
    28b2:	0e 94 0d 0c 	call	0x181a	; 0x181a <LCD_12864_Clean_Frame_buffer>
    28b6:	21 e7       	ldi	r18, 0x71	; 113
    28b8:	31 e0       	ldi	r19, 0x01	; 1
    28ba:	41 e0       	ldi	r20, 0x01	; 1
    28bc:	60 e0       	ldi	r22, 0x00	; 0
    28be:	8e e1       	ldi	r24, 0x1E	; 30
    28c0:	90 e0       	ldi	r25, 0x00	; 0
    28c2:	0e 94 6b 0b 	call	0x16d6	; 0x16d6 <LCD_12864_Decode_UTF8>
    28c6:	80 91 fa 02 	lds	r24, 0x02FA	; 0x8002fa <cnt>
    28ca:	83 78       	andi	r24, 0x83	; 131
    28cc:	1c f4       	brge	.+6      	; 0x28d4 <Print_Menu_Page+0x2e>
    28ce:	81 50       	subi	r24, 0x01	; 1
    28d0:	8c 6f       	ori	r24, 0xFC	; 252
    28d2:	8f 5f       	subi	r24, 0xFF	; 255
    28d4:	81 30       	cpi	r24, 0x01	; 1
    28d6:	61 f1       	breq	.+88     	; 0x2930 <Print_Menu_Page+0x8a>
    28d8:	1c f4       	brge	.+6      	; 0x28e0 <Print_Menu_Page+0x3a>
    28da:	88 23       	and	r24, r24
    28dc:	41 f0       	breq	.+16     	; 0x28ee <Print_Menu_Page+0x48>
    28de:	8a c0       	rjmp	.+276    	; 0x29f4 <Print_Menu_Page+0x14e>
    28e0:	82 30       	cpi	r24, 0x02	; 2
    28e2:	09 f4       	brne	.+2      	; 0x28e6 <Print_Menu_Page+0x40>
    28e4:	46 c0       	rjmp	.+140    	; 0x2972 <Print_Menu_Page+0xcc>
    28e6:	83 30       	cpi	r24, 0x03	; 3
    28e8:	09 f4       	brne	.+2      	; 0x28ec <Print_Menu_Page+0x46>
    28ea:	64 c0       	rjmp	.+200    	; 0x29b4 <Print_Menu_Page+0x10e>
    28ec:	83 c0       	rjmp	.+262    	; 0x29f4 <Print_Menu_Page+0x14e>
    28ee:	2e e7       	ldi	r18, 0x7E	; 126
    28f0:	31 e0       	ldi	r19, 0x01	; 1
    28f2:	41 e0       	ldi	r20, 0x01	; 1
    28f4:	62 e0       	ldi	r22, 0x02	; 2
    28f6:	8f e0       	ldi	r24, 0x0F	; 15
    28f8:	90 e0       	ldi	r25, 0x00	; 0
    28fa:	0e 94 6b 0b 	call	0x16d6	; 0x16d6 <LCD_12864_Decode_UTF8>
    28fe:	20 e9       	ldi	r18, 0x90	; 144
    2900:	31 e0       	ldi	r19, 0x01	; 1
    2902:	40 e0       	ldi	r20, 0x00	; 0
    2904:	63 e0       	ldi	r22, 0x03	; 3
    2906:	8f e0       	ldi	r24, 0x0F	; 15
    2908:	90 e0       	ldi	r25, 0x00	; 0
    290a:	0e 94 6b 0b 	call	0x16d6	; 0x16d6 <LCD_12864_Decode_UTF8>
    290e:	22 ea       	ldi	r18, 0xA2	; 162
    2910:	31 e0       	ldi	r19, 0x01	; 1
    2912:	40 e0       	ldi	r20, 0x00	; 0
    2914:	64 e0       	ldi	r22, 0x04	; 4
    2916:	8f e0       	ldi	r24, 0x0F	; 15
    2918:	90 e0       	ldi	r25, 0x00	; 0
    291a:	0e 94 6b 0b 	call	0x16d6	; 0x16d6 <LCD_12864_Decode_UTF8>
    291e:	2a ea       	ldi	r18, 0xAA	; 170
    2920:	31 e0       	ldi	r19, 0x01	; 1
    2922:	40 e0       	ldi	r20, 0x00	; 0
    2924:	65 e0       	ldi	r22, 0x05	; 5
    2926:	8f e0       	ldi	r24, 0x0F	; 15
    2928:	90 e0       	ldi	r25, 0x00	; 0
    292a:	0e 94 6b 0b 	call	0x16d6	; 0x16d6 <LCD_12864_Decode_UTF8>
    292e:	62 c0       	rjmp	.+196    	; 0x29f4 <Print_Menu_Page+0x14e>
    2930:	2e e7       	ldi	r18, 0x7E	; 126
    2932:	31 e0       	ldi	r19, 0x01	; 1
    2934:	40 e0       	ldi	r20, 0x00	; 0
    2936:	62 e0       	ldi	r22, 0x02	; 2
    2938:	8f e0       	ldi	r24, 0x0F	; 15
    293a:	90 e0       	ldi	r25, 0x00	; 0
    293c:	0e 94 6b 0b 	call	0x16d6	; 0x16d6 <LCD_12864_Decode_UTF8>
    2940:	20 e9       	ldi	r18, 0x90	; 144
    2942:	31 e0       	ldi	r19, 0x01	; 1
    2944:	41 e0       	ldi	r20, 0x01	; 1
    2946:	63 e0       	ldi	r22, 0x03	; 3
    2948:	8f e0       	ldi	r24, 0x0F	; 15
    294a:	90 e0       	ldi	r25, 0x00	; 0
    294c:	0e 94 6b 0b 	call	0x16d6	; 0x16d6 <LCD_12864_Decode_UTF8>
    2950:	22 ea       	ldi	r18, 0xA2	; 162
    2952:	31 e0       	ldi	r19, 0x01	; 1
    2954:	40 e0       	ldi	r20, 0x00	; 0
    2956:	64 e0       	ldi	r22, 0x04	; 4
    2958:	8f e0       	ldi	r24, 0x0F	; 15
    295a:	90 e0       	ldi	r25, 0x00	; 0
    295c:	0e 94 6b 0b 	call	0x16d6	; 0x16d6 <LCD_12864_Decode_UTF8>
    2960:	2a ea       	ldi	r18, 0xAA	; 170
    2962:	31 e0       	ldi	r19, 0x01	; 1
    2964:	40 e0       	ldi	r20, 0x00	; 0
    2966:	65 e0       	ldi	r22, 0x05	; 5
    2968:	8f e0       	ldi	r24, 0x0F	; 15
    296a:	90 e0       	ldi	r25, 0x00	; 0
    296c:	0e 94 6b 0b 	call	0x16d6	; 0x16d6 <LCD_12864_Decode_UTF8>
    2970:	41 c0       	rjmp	.+130    	; 0x29f4 <Print_Menu_Page+0x14e>
    2972:	2e e7       	ldi	r18, 0x7E	; 126
    2974:	31 e0       	ldi	r19, 0x01	; 1
    2976:	40 e0       	ldi	r20, 0x00	; 0
    2978:	62 e0       	ldi	r22, 0x02	; 2
    297a:	8f e0       	ldi	r24, 0x0F	; 15
    297c:	90 e0       	ldi	r25, 0x00	; 0
    297e:	0e 94 6b 0b 	call	0x16d6	; 0x16d6 <LCD_12864_Decode_UTF8>
    2982:	20 e9       	ldi	r18, 0x90	; 144
    2984:	31 e0       	ldi	r19, 0x01	; 1
    2986:	40 e0       	ldi	r20, 0x00	; 0
    2988:	63 e0       	ldi	r22, 0x03	; 3
    298a:	8f e0       	ldi	r24, 0x0F	; 15
    298c:	90 e0       	ldi	r25, 0x00	; 0
    298e:	0e 94 6b 0b 	call	0x16d6	; 0x16d6 <LCD_12864_Decode_UTF8>
    2992:	22 ea       	ldi	r18, 0xA2	; 162
    2994:	31 e0       	ldi	r19, 0x01	; 1
    2996:	41 e0       	ldi	r20, 0x01	; 1
    2998:	64 e0       	ldi	r22, 0x04	; 4
    299a:	8f e0       	ldi	r24, 0x0F	; 15
    299c:	90 e0       	ldi	r25, 0x00	; 0
    299e:	0e 94 6b 0b 	call	0x16d6	; 0x16d6 <LCD_12864_Decode_UTF8>
    29a2:	2a ea       	ldi	r18, 0xAA	; 170
    29a4:	31 e0       	ldi	r19, 0x01	; 1
    29a6:	40 e0       	ldi	r20, 0x00	; 0
    29a8:	65 e0       	ldi	r22, 0x05	; 5
    29aa:	8f e0       	ldi	r24, 0x0F	; 15
    29ac:	90 e0       	ldi	r25, 0x00	; 0
    29ae:	0e 94 6b 0b 	call	0x16d6	; 0x16d6 <LCD_12864_Decode_UTF8>
    29b2:	20 c0       	rjmp	.+64     	; 0x29f4 <Print_Menu_Page+0x14e>
    29b4:	2e e7       	ldi	r18, 0x7E	; 126
    29b6:	31 e0       	ldi	r19, 0x01	; 1
    29b8:	40 e0       	ldi	r20, 0x00	; 0
    29ba:	62 e0       	ldi	r22, 0x02	; 2
    29bc:	8f e0       	ldi	r24, 0x0F	; 15
    29be:	90 e0       	ldi	r25, 0x00	; 0
    29c0:	0e 94 6b 0b 	call	0x16d6	; 0x16d6 <LCD_12864_Decode_UTF8>
    29c4:	20 e9       	ldi	r18, 0x90	; 144
    29c6:	31 e0       	ldi	r19, 0x01	; 1
    29c8:	40 e0       	ldi	r20, 0x00	; 0
    29ca:	63 e0       	ldi	r22, 0x03	; 3
    29cc:	8f e0       	ldi	r24, 0x0F	; 15
    29ce:	90 e0       	ldi	r25, 0x00	; 0
    29d0:	0e 94 6b 0b 	call	0x16d6	; 0x16d6 <LCD_12864_Decode_UTF8>
    29d4:	22 ea       	ldi	r18, 0xA2	; 162
    29d6:	31 e0       	ldi	r19, 0x01	; 1
    29d8:	40 e0       	ldi	r20, 0x00	; 0
    29da:	64 e0       	ldi	r22, 0x04	; 4
    29dc:	8f e0       	ldi	r24, 0x0F	; 15
    29de:	90 e0       	ldi	r25, 0x00	; 0
    29e0:	0e 94 6b 0b 	call	0x16d6	; 0x16d6 <LCD_12864_Decode_UTF8>
    29e4:	2a ea       	ldi	r18, 0xAA	; 170
    29e6:	31 e0       	ldi	r19, 0x01	; 1
    29e8:	41 e0       	ldi	r20, 0x01	; 1
    29ea:	65 e0       	ldi	r22, 0x05	; 5
    29ec:	8f e0       	ldi	r24, 0x0F	; 15
    29ee:	90 e0       	ldi	r25, 0x00	; 0
    29f0:	0e 94 6b 0b 	call	0x16d6	; 0x16d6 <LCD_12864_Decode_UTF8>
    29f4:	ce 01       	movw	r24, r28
    29f6:	0e 94 e8 07 	call	0xfd0	; 0xfd0 <LCD_12864_Draw_bitmap>
    29fa:	80 e0       	ldi	r24, 0x00	; 0
    29fc:	0e 94 c9 07 	call	0xf92	; 0xf92 <LCD_12864_GrapnicMode>
    2a00:	df 91       	pop	r29
    2a02:	cf 91       	pop	r28
    2a04:	08 95       	ret

00002a06 <Print_Page_About>:
    2a06:	cf 93       	push	r28
    2a08:	df 93       	push	r29
    2a0a:	ec 01       	movw	r28, r24
    2a0c:	81 e0       	ldi	r24, 0x01	; 1
    2a0e:	0e 94 c9 07 	call	0xf92	; 0xf92 <LCD_12864_GrapnicMode>
    2a12:	0e 94 0d 0c 	call	0x181a	; 0x181a <LCD_12864_Clean_Frame_buffer>
    2a16:	23 eb       	ldi	r18, 0xB3	; 179
    2a18:	31 e0       	ldi	r19, 0x01	; 1
    2a1a:	41 e0       	ldi	r20, 0x01	; 1
    2a1c:	60 e0       	ldi	r22, 0x00	; 0
    2a1e:	89 e1       	ldi	r24, 0x19	; 25
    2a20:	90 e0       	ldi	r25, 0x00	; 0
    2a22:	0e 94 6b 0b 	call	0x16d6	; 0x16d6 <LCD_12864_Decode_UTF8>
    2a26:	21 ec       	ldi	r18, 0xC1	; 193
    2a28:	31 e0       	ldi	r19, 0x01	; 1
    2a2a:	40 e0       	ldi	r20, 0x00	; 0
    2a2c:	61 e0       	ldi	r22, 0x01	; 1
    2a2e:	82 e0       	ldi	r24, 0x02	; 2
    2a30:	90 e0       	ldi	r25, 0x00	; 0
    2a32:	0e 94 6b 0b 	call	0x16d6	; 0x16d6 <LCD_12864_Decode_UTF8>
    2a36:	26 ed       	ldi	r18, 0xD6	; 214
    2a38:	31 e0       	ldi	r19, 0x01	; 1
    2a3a:	40 e0       	ldi	r20, 0x00	; 0
    2a3c:	62 e0       	ldi	r22, 0x02	; 2
    2a3e:	80 e0       	ldi	r24, 0x00	; 0
    2a40:	90 e0       	ldi	r25, 0x00	; 0
    2a42:	0e 94 6b 0b 	call	0x16d6	; 0x16d6 <LCD_12864_Decode_UTF8>
    2a46:	2b ee       	ldi	r18, 0xEB	; 235
    2a48:	31 e0       	ldi	r19, 0x01	; 1
    2a4a:	40 e0       	ldi	r20, 0x00	; 0
    2a4c:	63 e0       	ldi	r22, 0x03	; 3
    2a4e:	80 e0       	ldi	r24, 0x00	; 0
    2a50:	90 e0       	ldi	r25, 0x00	; 0
    2a52:	0e 94 6b 0b 	call	0x16d6	; 0x16d6 <LCD_12864_Decode_UTF8>
    2a56:	20 e0       	ldi	r18, 0x00	; 0
    2a58:	32 e0       	ldi	r19, 0x02	; 2
    2a5a:	40 e0       	ldi	r20, 0x00	; 0
    2a5c:	64 e0       	ldi	r22, 0x04	; 4
    2a5e:	80 e0       	ldi	r24, 0x00	; 0
    2a60:	90 e0       	ldi	r25, 0x00	; 0
    2a62:	0e 94 6b 0b 	call	0x16d6	; 0x16d6 <LCD_12864_Decode_UTF8>
    2a66:	26 e1       	ldi	r18, 0x16	; 22
    2a68:	32 e0       	ldi	r19, 0x02	; 2
    2a6a:	40 e0       	ldi	r20, 0x00	; 0
    2a6c:	65 e0       	ldi	r22, 0x05	; 5
    2a6e:	80 e0       	ldi	r24, 0x00	; 0
    2a70:	90 e0       	ldi	r25, 0x00	; 0
    2a72:	0e 94 6b 0b 	call	0x16d6	; 0x16d6 <LCD_12864_Decode_UTF8>
    2a76:	2b e2       	ldi	r18, 0x2B	; 43
    2a78:	32 e0       	ldi	r19, 0x02	; 2
    2a7a:	40 e0       	ldi	r20, 0x00	; 0
    2a7c:	66 e0       	ldi	r22, 0x06	; 6
    2a7e:	80 e0       	ldi	r24, 0x00	; 0
    2a80:	90 e0       	ldi	r25, 0x00	; 0
    2a82:	0e 94 6b 0b 	call	0x16d6	; 0x16d6 <LCD_12864_Decode_UTF8>
    2a86:	20 e4       	ldi	r18, 0x40	; 64
    2a88:	32 e0       	ldi	r19, 0x02	; 2
    2a8a:	41 e0       	ldi	r20, 0x01	; 1
    2a8c:	67 e0       	ldi	r22, 0x07	; 7
    2a8e:	89 e1       	ldi	r24, 0x19	; 25
    2a90:	90 e0       	ldi	r25, 0x00	; 0
    2a92:	0e 94 6b 0b 	call	0x16d6	; 0x16d6 <LCD_12864_Decode_UTF8>
    2a96:	ce 01       	movw	r24, r28
    2a98:	0e 94 e8 07 	call	0xfd0	; 0xfd0 <LCD_12864_Draw_bitmap>
    2a9c:	80 e0       	ldi	r24, 0x00	; 0
    2a9e:	0e 94 c9 07 	call	0xf92	; 0xf92 <LCD_12864_GrapnicMode>
    2aa2:	df 91       	pop	r29
    2aa4:	cf 91       	pop	r28
    2aa6:	08 95       	ret

00002aa8 <Print_Page_Dop_Info>:
    2aa8:	cf 93       	push	r28
    2aaa:	df 93       	push	r29
    2aac:	ec 01       	movw	r28, r24
    2aae:	81 e0       	ldi	r24, 0x01	; 1
    2ab0:	0e 94 c9 07 	call	0xf92	; 0xf92 <LCD_12864_GrapnicMode>
    2ab4:	0e 94 0d 0c 	call	0x181a	; 0x181a <LCD_12864_Clean_Frame_buffer>
    2ab8:	2d e4       	ldi	r18, 0x4D	; 77
    2aba:	32 e0       	ldi	r19, 0x02	; 2
    2abc:	41 e0       	ldi	r20, 0x01	; 1
    2abe:	60 e0       	ldi	r22, 0x00	; 0
    2ac0:	85 e0       	ldi	r24, 0x05	; 5
    2ac2:	90 e0       	ldi	r25, 0x00	; 0
    2ac4:	0e 94 6b 0b 	call	0x16d6	; 0x16d6 <LCD_12864_Decode_UTF8>
    2ac8:	21 e6       	ldi	r18, 0x61	; 97
    2aca:	32 e0       	ldi	r19, 0x02	; 2
    2acc:	40 e0       	ldi	r20, 0x00	; 0
    2ace:	61 e0       	ldi	r22, 0x01	; 1
    2ad0:	80 e0       	ldi	r24, 0x00	; 0
    2ad2:	90 e0       	ldi	r25, 0x00	; 0
    2ad4:	0e 94 6b 0b 	call	0x16d6	; 0x16d6 <LCD_12864_Decode_UTF8>
    2ad8:	25 e7       	ldi	r18, 0x75	; 117
    2ada:	32 e0       	ldi	r19, 0x02	; 2
    2adc:	40 e0       	ldi	r20, 0x00	; 0
    2ade:	62 e0       	ldi	r22, 0x02	; 2
    2ae0:	80 e0       	ldi	r24, 0x00	; 0
    2ae2:	90 e0       	ldi	r25, 0x00	; 0
    2ae4:	0e 94 6b 0b 	call	0x16d6	; 0x16d6 <LCD_12864_Decode_UTF8>
    2ae8:	22 e0       	ldi	r18, 0x02	; 2
    2aea:	31 e0       	ldi	r19, 0x01	; 1
    2aec:	40 e0       	ldi	r20, 0x00	; 0
    2aee:	63 e0       	ldi	r22, 0x03	; 3
    2af0:	80 e0       	ldi	r24, 0x00	; 0
    2af2:	90 e0       	ldi	r25, 0x00	; 0
    2af4:	0e 94 6b 0b 	call	0x16d6	; 0x16d6 <LCD_12864_Decode_UTF8>
    2af8:	20 e4       	ldi	r18, 0x40	; 64
    2afa:	32 e0       	ldi	r19, 0x02	; 2
    2afc:	41 e0       	ldi	r20, 0x01	; 1
    2afe:	67 e0       	ldi	r22, 0x07	; 7
    2b00:	89 e1       	ldi	r24, 0x19	; 25
    2b02:	90 e0       	ldi	r25, 0x00	; 0
    2b04:	0e 94 6b 0b 	call	0x16d6	; 0x16d6 <LCD_12864_Decode_UTF8>
    2b08:	ce 01       	movw	r24, r28
    2b0a:	0e 94 e8 07 	call	0xfd0	; 0xfd0 <LCD_12864_Draw_bitmap>
    2b0e:	80 e0       	ldi	r24, 0x00	; 0
    2b10:	0e 94 c9 07 	call	0xf92	; 0xf92 <LCD_12864_GrapnicMode>
    2b14:	df 91       	pop	r29
    2b16:	cf 91       	pop	r28
    2b18:	08 95       	ret

00002b1a <DrawCloudsWithRain>:

}
void DrawCloudsWithRain(void)
{
	//облако№1
	LCD_12864_Draw_line(90, 57, 106, 57);
    2b1a:	29 e3       	ldi	r18, 0x39	; 57
    2b1c:	4a e6       	ldi	r20, 0x6A	; 106
    2b1e:	69 e3       	ldi	r22, 0x39	; 57
    2b20:	8a e5       	ldi	r24, 0x5A	; 90
    2b22:	0e 94 18 0c 	call	0x1830	; 0x1830 <LCD_12864_Draw_line>
	LCD_12864_Draw_pixel(89, 56);
    2b26:	68 e3       	ldi	r22, 0x38	; 56
    2b28:	89 e5       	ldi	r24, 0x59	; 89
    2b2a:	0e 94 c6 06 	call	0xd8c	; 0xd8c <LCD_12864_Draw_pixel>
	LCD_12864_Draw_pixel(88, 55);
    2b2e:	67 e3       	ldi	r22, 0x37	; 55
    2b30:	88 e5       	ldi	r24, 0x58	; 88
    2b32:	0e 94 c6 06 	call	0xd8c	; 0xd8c <LCD_12864_Draw_pixel>
	LCD_12864_Draw_pixel(87, 54);
    2b36:	66 e3       	ldi	r22, 0x36	; 54
    2b38:	87 e5       	ldi	r24, 0x57	; 87
    2b3a:	0e 94 c6 06 	call	0xd8c	; 0xd8c <LCD_12864_Draw_pixel>
	LCD_12864_Draw_pixel(87, 53);
    2b3e:	65 e3       	ldi	r22, 0x35	; 53
    2b40:	87 e5       	ldi	r24, 0x57	; 87
    2b42:	0e 94 c6 06 	call	0xd8c	; 0xd8c <LCD_12864_Draw_pixel>
	LCD_12864_Draw_pixel(87, 52);
    2b46:	64 e3       	ldi	r22, 0x34	; 52
    2b48:	87 e5       	ldi	r24, 0x57	; 87
    2b4a:	0e 94 c6 06 	call	0xd8c	; 0xd8c <LCD_12864_Draw_pixel>
	LCD_12864_Draw_pixel(88, 51);
    2b4e:	63 e3       	ldi	r22, 0x33	; 51
    2b50:	88 e5       	ldi	r24, 0x58	; 88
    2b52:	0e 94 c6 06 	call	0xd8c	; 0xd8c <LCD_12864_Draw_pixel>
	LCD_12864_Draw_pixel(89, 50);
    2b56:	62 e3       	ldi	r22, 0x32	; 50
    2b58:	89 e5       	ldi	r24, 0x59	; 89
    2b5a:	0e 94 c6 06 	call	0xd8c	; 0xd8c <LCD_12864_Draw_pixel>
	LCD_12864_Draw_pixel(90, 50);
    2b5e:	62 e3       	ldi	r22, 0x32	; 50
    2b60:	8a e5       	ldi	r24, 0x5A	; 90
    2b62:	0e 94 c6 06 	call	0xd8c	; 0xd8c <LCD_12864_Draw_pixel>
	LCD_12864_Draw_pixel(91, 50);
    2b66:	62 e3       	ldi	r22, 0x32	; 50
    2b68:	8b e5       	ldi	r24, 0x5B	; 91
    2b6a:	0e 94 c6 06 	call	0xd8c	; 0xd8c <LCD_12864_Draw_pixel>
	LCD_12864_Draw_pixel(92, 50);
    2b6e:	62 e3       	ldi	r22, 0x32	; 50
    2b70:	8c e5       	ldi	r24, 0x5C	; 92
    2b72:	0e 94 c6 06 	call	0xd8c	; 0xd8c <LCD_12864_Draw_pixel>
	LCD_12864_Draw_pixel(94, 51);
    2b76:	63 e3       	ldi	r22, 0x33	; 51
    2b78:	8e e5       	ldi	r24, 0x5E	; 94
    2b7a:	0e 94 c6 06 	call	0xd8c	; 0xd8c <LCD_12864_Draw_pixel>
	LCD_12864_Draw_pixel(93, 50);
    2b7e:	62 e3       	ldi	r22, 0x32	; 50
    2b80:	8d e5       	ldi	r24, 0x5D	; 93
    2b82:	0e 94 c6 06 	call	0xd8c	; 0xd8c <LCD_12864_Draw_pixel>
	LCD_12864_Draw_pixel(92, 49);
    2b86:	61 e3       	ldi	r22, 0x31	; 49
    2b88:	8c e5       	ldi	r24, 0x5C	; 92
    2b8a:	0e 94 c6 06 	call	0xd8c	; 0xd8c <LCD_12864_Draw_pixel>
	LCD_12864_Draw_pixel(92, 48);
    2b8e:	60 e3       	ldi	r22, 0x30	; 48
    2b90:	8c e5       	ldi	r24, 0x5C	; 92
    2b92:	0e 94 c6 06 	call	0xd8c	; 0xd8c <LCD_12864_Draw_pixel>
	LCD_12864_Draw_pixel(92, 47);
    2b96:	6f e2       	ldi	r22, 0x2F	; 47
    2b98:	8c e5       	ldi	r24, 0x5C	; 92
    2b9a:	0e 94 c6 06 	call	0xd8c	; 0xd8c <LCD_12864_Draw_pixel>
	LCD_12864_Draw_pixel(92, 46);
    2b9e:	6e e2       	ldi	r22, 0x2E	; 46
    2ba0:	8c e5       	ldi	r24, 0x5C	; 92
    2ba2:	0e 94 c6 06 	call	0xd8c	; 0xd8c <LCD_12864_Draw_pixel>
	LCD_12864_Draw_pixel(93, 45);
    2ba6:	6d e2       	ldi	r22, 0x2D	; 45
    2ba8:	8d e5       	ldi	r24, 0x5D	; 93
    2baa:	0e 94 c6 06 	call	0xd8c	; 0xd8c <LCD_12864_Draw_pixel>
	LCD_12864_Draw_pixel(94, 44);
    2bae:	6c e2       	ldi	r22, 0x2C	; 44
    2bb0:	8e e5       	ldi	r24, 0x5E	; 94
    2bb2:	0e 94 c6 06 	call	0xd8c	; 0xd8c <LCD_12864_Draw_pixel>
	LCD_12864_Draw_pixel(95, 44);
    2bb6:	6c e2       	ldi	r22, 0x2C	; 44
    2bb8:	8f e5       	ldi	r24, 0x5F	; 95
    2bba:	0e 94 c6 06 	call	0xd8c	; 0xd8c <LCD_12864_Draw_pixel>
	LCD_12864_Draw_pixel(96, 44);
    2bbe:	6c e2       	ldi	r22, 0x2C	; 44
    2bc0:	80 e6       	ldi	r24, 0x60	; 96
    2bc2:	0e 94 c6 06 	call	0xd8c	; 0xd8c <LCD_12864_Draw_pixel>
	LCD_12864_Draw_pixel(97, 44);
    2bc6:	6c e2       	ldi	r22, 0x2C	; 44
    2bc8:	81 e6       	ldi	r24, 0x61	; 97
    2bca:	0e 94 c6 06 	call	0xd8c	; 0xd8c <LCD_12864_Draw_pixel>
	LCD_12864_Draw_pixel(98, 44);
    2bce:	6c e2       	ldi	r22, 0x2C	; 44
    2bd0:	82 e6       	ldi	r24, 0x62	; 98
    2bd2:	0e 94 c6 06 	call	0xd8c	; 0xd8c <LCD_12864_Draw_pixel>
	LCD_12864_Draw_pixel(99, 44);
    2bd6:	6c e2       	ldi	r22, 0x2C	; 44
    2bd8:	83 e6       	ldi	r24, 0x63	; 99
    2bda:	0e 94 c6 06 	call	0xd8c	; 0xd8c <LCD_12864_Draw_pixel>
	LCD_12864_Draw_pixel(100, 44);
    2bde:	6c e2       	ldi	r22, 0x2C	; 44
    2be0:	84 e6       	ldi	r24, 0x64	; 100
    2be2:	0e 94 c6 06 	call	0xd8c	; 0xd8c <LCD_12864_Draw_pixel>
	LCD_12864_Draw_pixel(101, 45);
    2be6:	6d e2       	ldi	r22, 0x2D	; 45
    2be8:	85 e6       	ldi	r24, 0x65	; 101
    2bea:	0e 94 c6 06 	call	0xd8c	; 0xd8c <LCD_12864_Draw_pixel>
	LCD_12864_Draw_pixel(102, 46);
    2bee:	6e e2       	ldi	r22, 0x2E	; 46
    2bf0:	86 e6       	ldi	r24, 0x66	; 102
    2bf2:	0e 94 c6 06 	call	0xd8c	; 0xd8c <LCD_12864_Draw_pixel>
	LCD_12864_Draw_pixel(102, 47);
    2bf6:	6f e2       	ldi	r22, 0x2F	; 47
    2bf8:	86 e6       	ldi	r24, 0x66	; 102
    2bfa:	0e 94 c6 06 	call	0xd8c	; 0xd8c <LCD_12864_Draw_pixel>
	LCD_12864_Draw_pixel(102, 48);
    2bfe:	60 e3       	ldi	r22, 0x30	; 48
    2c00:	86 e6       	ldi	r24, 0x66	; 102
    2c02:	0e 94 c6 06 	call	0xd8c	; 0xd8c <LCD_12864_Draw_pixel>
	LCD_12864_Draw_pixel(101, 49);
    2c06:	61 e3       	ldi	r22, 0x31	; 49
    2c08:	85 e6       	ldi	r24, 0x65	; 101
    2c0a:	0e 94 c6 06 	call	0xd8c	; 0xd8c <LCD_12864_Draw_pixel>
	LCD_12864_Draw_pixel(102, 48);
    2c0e:	60 e3       	ldi	r22, 0x30	; 48
    2c10:	86 e6       	ldi	r24, 0x66	; 102
    2c12:	0e 94 c6 06 	call	0xd8c	; 0xd8c <LCD_12864_Draw_pixel>
	LCD_12864_Draw_pixel(103, 48);
    2c16:	60 e3       	ldi	r22, 0x30	; 48
    2c18:	87 e6       	ldi	r24, 0x67	; 103
    2c1a:	0e 94 c6 06 	call	0xd8c	; 0xd8c <LCD_12864_Draw_pixel>
	LCD_12864_Draw_pixel(104, 48);
    2c1e:	60 e3       	ldi	r22, 0x30	; 48
    2c20:	88 e6       	ldi	r24, 0x68	; 104
    2c22:	0e 94 c6 06 	call	0xd8c	; 0xd8c <LCD_12864_Draw_pixel>
	LCD_12864_Draw_pixel(105, 48);
    2c26:	60 e3       	ldi	r22, 0x30	; 48
    2c28:	89 e6       	ldi	r24, 0x69	; 105
    2c2a:	0e 94 c6 06 	call	0xd8c	; 0xd8c <LCD_12864_Draw_pixel>
	
	LCD_12864_Draw_pixel(107, 56);
    2c2e:	68 e3       	ldi	r22, 0x38	; 56
    2c30:	8b e6       	ldi	r24, 0x6B	; 107
    2c32:	0e 94 c6 06 	call	0xd8c	; 0xd8c <LCD_12864_Draw_pixel>
	LCD_12864_Draw_pixel(108, 55);
    2c36:	67 e3       	ldi	r22, 0x37	; 55
    2c38:	8c e6       	ldi	r24, 0x6C	; 108
    2c3a:	0e 94 c6 06 	call	0xd8c	; 0xd8c <LCD_12864_Draw_pixel>
	LCD_12864_Draw_pixel(109, 54);
    2c3e:	66 e3       	ldi	r22, 0x36	; 54
    2c40:	8d e6       	ldi	r24, 0x6D	; 109
    2c42:	0e 94 c6 06 	call	0xd8c	; 0xd8c <LCD_12864_Draw_pixel>
	LCD_12864_Draw_pixel(109, 53);
    2c46:	65 e3       	ldi	r22, 0x35	; 53
    2c48:	8d e6       	ldi	r24, 0x6D	; 109
    2c4a:	0e 94 c6 06 	call	0xd8c	; 0xd8c <LCD_12864_Draw_pixel>
	LCD_12864_Draw_pixel(109, 52);
    2c4e:	64 e3       	ldi	r22, 0x34	; 52
    2c50:	8d e6       	ldi	r24, 0x6D	; 109
    2c52:	0e 94 c6 06 	call	0xd8c	; 0xd8c <LCD_12864_Draw_pixel>
	LCD_12864_Draw_pixel(109, 51);
    2c56:	63 e3       	ldi	r22, 0x33	; 51
    2c58:	8d e6       	ldi	r24, 0x6D	; 109
    2c5a:	0e 94 c6 06 	call	0xd8c	; 0xd8c <LCD_12864_Draw_pixel>
	LCD_12864_Draw_pixel(108, 50);
    2c5e:	62 e3       	ldi	r22, 0x32	; 50
    2c60:	8c e6       	ldi	r24, 0x6C	; 108
    2c62:	0e 94 c6 06 	call	0xd8c	; 0xd8c <LCD_12864_Draw_pixel>
	LCD_12864_Draw_pixel(107, 49);
    2c66:	61 e3       	ldi	r22, 0x31	; 49
    2c68:	8b e6       	ldi	r24, 0x6B	; 107
    2c6a:	0e 94 c6 06 	call	0xd8c	; 0xd8c <LCD_12864_Draw_pixel>
	LCD_12864_Draw_pixel(106, 48);
    2c6e:	60 e3       	ldi	r22, 0x30	; 48
    2c70:	8a e6       	ldi	r24, 0x6A	; 106
    2c72:	0e 94 c6 06 	call	0xd8c	; 0xd8c <LCD_12864_Draw_pixel>
	//облако№2
	LCD_12864_Draw_line(110, 55, 121, 55);
    2c76:	27 e3       	ldi	r18, 0x37	; 55
    2c78:	49 e7       	ldi	r20, 0x79	; 121
    2c7a:	67 e3       	ldi	r22, 0x37	; 55
    2c7c:	8e e6       	ldi	r24, 0x6E	; 110
    2c7e:	0e 94 18 0c 	call	0x1830	; 0x1830 <LCD_12864_Draw_line>
	LCD_12864_Draw_pixel(122, 54);
    2c82:	66 e3       	ldi	r22, 0x36	; 54
    2c84:	8a e7       	ldi	r24, 0x7A	; 122
    2c86:	0e 94 c6 06 	call	0xd8c	; 0xd8c <LCD_12864_Draw_pixel>
	LCD_12864_Draw_pixel(122, 53);
    2c8a:	65 e3       	ldi	r22, 0x35	; 53
    2c8c:	8a e7       	ldi	r24, 0x7A	; 122
    2c8e:	0e 94 c6 06 	call	0xd8c	; 0xd8c <LCD_12864_Draw_pixel>
	LCD_12864_Draw_pixel(122, 52);
    2c92:	64 e3       	ldi	r22, 0x34	; 52
    2c94:	8a e7       	ldi	r24, 0x7A	; 122
    2c96:	0e 94 c6 06 	call	0xd8c	; 0xd8c <LCD_12864_Draw_pixel>
	LCD_12864_Draw_pixel(122, 51);
    2c9a:	63 e3       	ldi	r22, 0x33	; 51
    2c9c:	8a e7       	ldi	r24, 0x7A	; 122
    2c9e:	0e 94 c6 06 	call	0xd8c	; 0xd8c <LCD_12864_Draw_pixel>
	LCD_12864_Draw_pixel(121, 50);
    2ca2:	62 e3       	ldi	r22, 0x32	; 50
    2ca4:	89 e7       	ldi	r24, 0x79	; 121
    2ca6:	0e 94 c6 06 	call	0xd8c	; 0xd8c <LCD_12864_Draw_pixel>
	LCD_12864_Draw_pixel(120, 49);
    2caa:	61 e3       	ldi	r22, 0x31	; 49
    2cac:	88 e7       	ldi	r24, 0x78	; 120
    2cae:	0e 94 c6 06 	call	0xd8c	; 0xd8c <LCD_12864_Draw_pixel>
	LCD_12864_Draw_pixel(119, 49);
    2cb2:	61 e3       	ldi	r22, 0x31	; 49
    2cb4:	87 e7       	ldi	r24, 0x77	; 119
    2cb6:	0e 94 c6 06 	call	0xd8c	; 0xd8c <LCD_12864_Draw_pixel>
	LCD_12864_Draw_pixel(118, 49);
    2cba:	61 e3       	ldi	r22, 0x31	; 49
    2cbc:	86 e7       	ldi	r24, 0x76	; 118
    2cbe:	0e 94 c6 06 	call	0xd8c	; 0xd8c <LCD_12864_Draw_pixel>
	LCD_12864_Draw_pixel(117, 50);
    2cc2:	62 e3       	ldi	r22, 0x32	; 50
    2cc4:	85 e7       	ldi	r24, 0x75	; 117
    2cc6:	0e 94 c6 06 	call	0xd8c	; 0xd8c <LCD_12864_Draw_pixel>
	LCD_12864_Draw_pixel(118, 48);
    2cca:	60 e3       	ldi	r22, 0x30	; 48
    2ccc:	86 e7       	ldi	r24, 0x76	; 118
    2cce:	0e 94 c6 06 	call	0xd8c	; 0xd8c <LCD_12864_Draw_pixel>
	LCD_12864_Draw_pixel(118, 47);
    2cd2:	6f e2       	ldi	r22, 0x2F	; 47
    2cd4:	86 e7       	ldi	r24, 0x76	; 118
    2cd6:	0e 94 c6 06 	call	0xd8c	; 0xd8c <LCD_12864_Draw_pixel>
	LCD_12864_Draw_pixel(117, 46);
    2cda:	6e e2       	ldi	r22, 0x2E	; 46
    2cdc:	85 e7       	ldi	r24, 0x75	; 117
    2cde:	0e 94 c6 06 	call	0xd8c	; 0xd8c <LCD_12864_Draw_pixel>
	LCD_12864_Draw_pixel(116, 46);
    2ce2:	6e e2       	ldi	r22, 0x2E	; 46
    2ce4:	84 e7       	ldi	r24, 0x74	; 116
    2ce6:	0e 94 c6 06 	call	0xd8c	; 0xd8c <LCD_12864_Draw_pixel>
	
	LCD_12864_Draw_pixel(115, 46);
    2cea:	6e e2       	ldi	r22, 0x2E	; 46
    2cec:	83 e7       	ldi	r24, 0x73	; 115
    2cee:	0e 94 c6 06 	call	0xd8c	; 0xd8c <LCD_12864_Draw_pixel>
	LCD_12864_Draw_pixel(114, 46);
    2cf2:	6e e2       	ldi	r22, 0x2E	; 46
    2cf4:	82 e7       	ldi	r24, 0x72	; 114
    2cf6:	0e 94 c6 06 	call	0xd8c	; 0xd8c <LCD_12864_Draw_pixel>
	LCD_12864_Draw_pixel(113, 47);
    2cfa:	6f e2       	ldi	r22, 0x2F	; 47
    2cfc:	81 e7       	ldi	r24, 0x71	; 113
    2cfe:	0e 94 c6 06 	call	0xd8c	; 0xd8c <LCD_12864_Draw_pixel>
	LCD_12864_Draw_pixel(113, 48);
    2d02:	60 e3       	ldi	r22, 0x30	; 48
    2d04:	81 e7       	ldi	r24, 0x71	; 113
    2d06:	0e 94 c6 06 	call	0xd8c	; 0xd8c <LCD_12864_Draw_pixel>
	LCD_12864_Draw_pixel(113, 49);
    2d0a:	61 e3       	ldi	r22, 0x31	; 49
    2d0c:	81 e7       	ldi	r24, 0x71	; 113
    2d0e:	0e 94 c6 06 	call	0xd8c	; 0xd8c <LCD_12864_Draw_pixel>
	LCD_12864_Draw_pixel(114, 50);
    2d12:	62 e3       	ldi	r22, 0x32	; 50
    2d14:	82 e7       	ldi	r24, 0x72	; 114
    2d16:	0e 94 c6 06 	call	0xd8c	; 0xd8c <LCD_12864_Draw_pixel>
	LCD_12864_Draw_pixel(112, 49);
    2d1a:	61 e3       	ldi	r22, 0x31	; 49
    2d1c:	80 e7       	ldi	r24, 0x70	; 112
    2d1e:	0e 94 c6 06 	call	0xd8c	; 0xd8c <LCD_12864_Draw_pixel>
	LCD_12864_Draw_pixel(111, 49);
    2d22:	61 e3       	ldi	r22, 0x31	; 49
    2d24:	8f e6       	ldi	r24, 0x6F	; 111
    2d26:	0e 94 c6 06 	call	0xd8c	; 0xd8c <LCD_12864_Draw_pixel>
	LCD_12864_Draw_pixel(110, 50);
    2d2a:	62 e3       	ldi	r22, 0x32	; 50
    2d2c:	8e e6       	ldi	r24, 0x6E	; 110
    2d2e:	0e 94 c6 06 	call	0xd8c	; 0xd8c <LCD_12864_Draw_pixel>

	LCD_12864_Draw_line(91, 59, 89, 61);
    2d32:	2d e3       	ldi	r18, 0x3D	; 61
    2d34:	49 e5       	ldi	r20, 0x59	; 89
    2d36:	6b e3       	ldi	r22, 0x3B	; 59
    2d38:	8b e5       	ldi	r24, 0x5B	; 91
    2d3a:	0e 94 18 0c 	call	0x1830	; 0x1830 <LCD_12864_Draw_line>
	LCD_12864_Draw_line(94, 59, 92, 61);
    2d3e:	2d e3       	ldi	r18, 0x3D	; 61
    2d40:	4c e5       	ldi	r20, 0x5C	; 92
    2d42:	6b e3       	ldi	r22, 0x3B	; 59
    2d44:	8e e5       	ldi	r24, 0x5E	; 94
    2d46:	0e 94 18 0c 	call	0x1830	; 0x1830 <LCD_12864_Draw_line>
	LCD_12864_Draw_line(97, 59, 95, 61);
    2d4a:	2d e3       	ldi	r18, 0x3D	; 61
    2d4c:	4f e5       	ldi	r20, 0x5F	; 95
    2d4e:	6b e3       	ldi	r22, 0x3B	; 59
    2d50:	81 e6       	ldi	r24, 0x61	; 97
    2d52:	0e 94 18 0c 	call	0x1830	; 0x1830 <LCD_12864_Draw_line>
	LCD_12864_Draw_line(100, 59, 98, 61);
    2d56:	2d e3       	ldi	r18, 0x3D	; 61
    2d58:	42 e6       	ldi	r20, 0x62	; 98
    2d5a:	6b e3       	ldi	r22, 0x3B	; 59
    2d5c:	84 e6       	ldi	r24, 0x64	; 100
    2d5e:	0e 94 18 0c 	call	0x1830	; 0x1830 <LCD_12864_Draw_line>
	LCD_12864_Draw_line(103, 59, 101, 61);
    2d62:	2d e3       	ldi	r18, 0x3D	; 61
    2d64:	45 e6       	ldi	r20, 0x65	; 101
    2d66:	6b e3       	ldi	r22, 0x3B	; 59
    2d68:	87 e6       	ldi	r24, 0x67	; 103
    2d6a:	0e 94 18 0c 	call	0x1830	; 0x1830 <LCD_12864_Draw_line>
	LCD_12864_Draw_line(106, 59, 104, 61);
    2d6e:	2d e3       	ldi	r18, 0x3D	; 61
    2d70:	48 e6       	ldi	r20, 0x68	; 104
    2d72:	6b e3       	ldi	r22, 0x3B	; 59
    2d74:	8a e6       	ldi	r24, 0x6A	; 106
    2d76:	0e 94 18 0c 	call	0x1830	; 0x1830 <LCD_12864_Draw_line>
	
	LCD_12864_Draw_line(111, 57, 110, 58);
    2d7a:	2a e3       	ldi	r18, 0x3A	; 58
    2d7c:	4e e6       	ldi	r20, 0x6E	; 110
    2d7e:	69 e3       	ldi	r22, 0x39	; 57
    2d80:	8f e6       	ldi	r24, 0x6F	; 111
    2d82:	0e 94 18 0c 	call	0x1830	; 0x1830 <LCD_12864_Draw_line>
	LCD_12864_Draw_line(114, 57, 113, 58);
    2d86:	2a e3       	ldi	r18, 0x3A	; 58
    2d88:	41 e7       	ldi	r20, 0x71	; 113
    2d8a:	69 e3       	ldi	r22, 0x39	; 57
    2d8c:	82 e7       	ldi	r24, 0x72	; 114
    2d8e:	0e 94 18 0c 	call	0x1830	; 0x1830 <LCD_12864_Draw_line>
	LCD_12864_Draw_line(117, 57, 116, 58);
    2d92:	2a e3       	ldi	r18, 0x3A	; 58
    2d94:	44 e7       	ldi	r20, 0x74	; 116
    2d96:	69 e3       	ldi	r22, 0x39	; 57
    2d98:	85 e7       	ldi	r24, 0x75	; 117
    2d9a:	0e 94 18 0c 	call	0x1830	; 0x1830 <LCD_12864_Draw_line>
	LCD_12864_Draw_line(120, 57, 119, 58);
    2d9e:	2a e3       	ldi	r18, 0x3A	; 58
    2da0:	47 e7       	ldi	r20, 0x77	; 119
    2da2:	69 e3       	ldi	r22, 0x39	; 57
    2da4:	88 e7       	ldi	r24, 0x78	; 120
    2da6:	0e 94 18 0c 	call	0x1830	; 0x1830 <LCD_12864_Draw_line>
    2daa:	08 95       	ret

00002dac <DrawWeatherVane>:
}
void DrawWeatherVane(void)
{
	LCD_12864_Draw_circle(11, 52, 9);
    2dac:	49 e0       	ldi	r20, 0x09	; 9
    2dae:	64 e3       	ldi	r22, 0x34	; 52
    2db0:	8b e0       	ldi	r24, 0x0B	; 11
    2db2:	0e 94 78 0c 	call	0x18f0	; 0x18f0 <LCD_12864_Draw_circle>
	//---------N-----------------
	LCD_12864_Clean_pixel(11, 44);
    2db6:	6c e2       	ldi	r22, 0x2C	; 44
    2db8:	8b e0       	ldi	r24, 0x0B	; 11
    2dba:	0e 94 e7 06 	call	0xdce	; 0xdce <LCD_12864_Clean_pixel>
	LCD_12864_Clean_pixel(10, 44);
    2dbe:	6c e2       	ldi	r22, 0x2C	; 44
    2dc0:	8a e0       	ldi	r24, 0x0A	; 10
    2dc2:	0e 94 e7 06 	call	0xdce	; 0xdce <LCD_12864_Clean_pixel>
	LCD_12864_Clean_pixel(9, 44);
    2dc6:	6c e2       	ldi	r22, 0x2C	; 44
    2dc8:	89 e0       	ldi	r24, 0x09	; 9
    2dca:	0e 94 e7 06 	call	0xdce	; 0xdce <LCD_12864_Clean_pixel>
	LCD_12864_Clean_pixel(8, 44);
    2dce:	6c e2       	ldi	r22, 0x2C	; 44
    2dd0:	88 e0       	ldi	r24, 0x08	; 8
    2dd2:	0e 94 e7 06 	call	0xdce	; 0xdce <LCD_12864_Clean_pixel>
	LCD_12864_Clean_pixel(12, 44);
    2dd6:	6c e2       	ldi	r22, 0x2C	; 44
    2dd8:	8c e0       	ldi	r24, 0x0C	; 12
    2dda:	0e 94 e7 06 	call	0xdce	; 0xdce <LCD_12864_Clean_pixel>
	LCD_12864_Clean_pixel(13, 44);
    2dde:	6c e2       	ldi	r22, 0x2C	; 44
    2de0:	8d e0       	ldi	r24, 0x0D	; 13
    2de2:	0e 94 e7 06 	call	0xdce	; 0xdce <LCD_12864_Clean_pixel>
	LCD_12864_Clean_pixel(14, 44);
    2de6:	6c e2       	ldi	r22, 0x2C	; 44
    2de8:	8e e0       	ldi	r24, 0x0E	; 14
    2dea:	0e 94 e7 06 	call	0xdce	; 0xdce <LCD_12864_Clean_pixel>
	LCD_12864_Draw_pixel(9, 43);
    2dee:	6b e2       	ldi	r22, 0x2B	; 43
    2df0:	89 e0       	ldi	r24, 0x09	; 9
    2df2:	0e 94 c6 06 	call	0xd8c	; 0xd8c <LCD_12864_Draw_pixel>
	LCD_12864_Draw_pixel(9, 44);
    2df6:	6c e2       	ldi	r22, 0x2C	; 44
    2df8:	89 e0       	ldi	r24, 0x09	; 9
    2dfa:	0e 94 c6 06 	call	0xd8c	; 0xd8c <LCD_12864_Draw_pixel>
	LCD_12864_Draw_pixel(9, 45);
    2dfe:	6d e2       	ldi	r22, 0x2D	; 45
    2e00:	89 e0       	ldi	r24, 0x09	; 9
    2e02:	0e 94 c6 06 	call	0xd8c	; 0xd8c <LCD_12864_Draw_pixel>
	LCD_12864_Draw_pixel(9, 42);
    2e06:	6a e2       	ldi	r22, 0x2A	; 42
    2e08:	89 e0       	ldi	r24, 0x09	; 9
    2e0a:	0e 94 c6 06 	call	0xd8c	; 0xd8c <LCD_12864_Draw_pixel>
	LCD_12864_Draw_pixel(9, 41);
    2e0e:	69 e2       	ldi	r22, 0x29	; 41
    2e10:	89 e0       	ldi	r24, 0x09	; 9
    2e12:	0e 94 c6 06 	call	0xd8c	; 0xd8c <LCD_12864_Draw_pixel>
	LCD_12864_Draw_pixel(10, 42);
    2e16:	6a e2       	ldi	r22, 0x2A	; 42
    2e18:	8a e0       	ldi	r24, 0x0A	; 10
    2e1a:	0e 94 c6 06 	call	0xd8c	; 0xd8c <LCD_12864_Draw_pixel>
	LCD_12864_Draw_pixel(11, 43);
    2e1e:	6b e2       	ldi	r22, 0x2B	; 43
    2e20:	8b e0       	ldi	r24, 0x0B	; 11
    2e22:	0e 94 c6 06 	call	0xd8c	; 0xd8c <LCD_12864_Draw_pixel>
	LCD_12864_Draw_pixel(12, 44);
    2e26:	6c e2       	ldi	r22, 0x2C	; 44
    2e28:	8c e0       	ldi	r24, 0x0C	; 12
    2e2a:	0e 94 c6 06 	call	0xd8c	; 0xd8c <LCD_12864_Draw_pixel>
	LCD_12864_Draw_pixel(13, 43);
    2e2e:	6b e2       	ldi	r22, 0x2B	; 43
    2e30:	8d e0       	ldi	r24, 0x0D	; 13
    2e32:	0e 94 c6 06 	call	0xd8c	; 0xd8c <LCD_12864_Draw_pixel>
	LCD_12864_Draw_pixel(13, 44);
    2e36:	6c e2       	ldi	r22, 0x2C	; 44
    2e38:	8d e0       	ldi	r24, 0x0D	; 13
    2e3a:	0e 94 c6 06 	call	0xd8c	; 0xd8c <LCD_12864_Draw_pixel>
	LCD_12864_Draw_pixel(13, 45);
    2e3e:	6d e2       	ldi	r22, 0x2D	; 45
    2e40:	8d e0       	ldi	r24, 0x0D	; 13
    2e42:	0e 94 c6 06 	call	0xd8c	; 0xd8c <LCD_12864_Draw_pixel>
	LCD_12864_Draw_pixel(13, 42);
    2e46:	6a e2       	ldi	r22, 0x2A	; 42
    2e48:	8d e0       	ldi	r24, 0x0D	; 13
    2e4a:	0e 94 c6 06 	call	0xd8c	; 0xd8c <LCD_12864_Draw_pixel>
	LCD_12864_Draw_pixel(13, 41);
    2e4e:	69 e2       	ldi	r22, 0x29	; 41
    2e50:	8d e0       	ldi	r24, 0x0D	; 13
    2e52:	0e 94 c6 06 	call	0xd8c	; 0xd8c <LCD_12864_Draw_pixel>
	//---------S-----------------
	LCD_12864_Clean_pixel(11, 61);
    2e56:	6d e3       	ldi	r22, 0x3D	; 61
    2e58:	8b e0       	ldi	r24, 0x0B	; 11
    2e5a:	0e 94 e7 06 	call	0xdce	; 0xdce <LCD_12864_Clean_pixel>
	LCD_12864_Clean_pixel(10, 61);
    2e5e:	6d e3       	ldi	r22, 0x3D	; 61
    2e60:	8a e0       	ldi	r24, 0x0A	; 10
    2e62:	0e 94 e7 06 	call	0xdce	; 0xdce <LCD_12864_Clean_pixel>
	LCD_12864_Clean_pixel(9, 61);
    2e66:	6d e3       	ldi	r22, 0x3D	; 61
    2e68:	89 e0       	ldi	r24, 0x09	; 9
    2e6a:	0e 94 e7 06 	call	0xdce	; 0xdce <LCD_12864_Clean_pixel>
	LCD_12864_Clean_pixel(8, 61);
    2e6e:	6d e3       	ldi	r22, 0x3D	; 61
    2e70:	88 e0       	ldi	r24, 0x08	; 8
    2e72:	0e 94 e7 06 	call	0xdce	; 0xdce <LCD_12864_Clean_pixel>
	LCD_12864_Clean_pixel(12, 61);
    2e76:	6d e3       	ldi	r22, 0x3D	; 61
    2e78:	8c e0       	ldi	r24, 0x0C	; 12
    2e7a:	0e 94 e7 06 	call	0xdce	; 0xdce <LCD_12864_Clean_pixel>
	LCD_12864_Clean_pixel(13, 61);
    2e7e:	6d e3       	ldi	r22, 0x3D	; 61
    2e80:	8d e0       	ldi	r24, 0x0D	; 13
    2e82:	0e 94 e7 06 	call	0xdce	; 0xdce <LCD_12864_Clean_pixel>
	LCD_12864_Clean_pixel(14, 61);
    2e86:	6d e3       	ldi	r22, 0x3D	; 61
    2e88:	8e e0       	ldi	r24, 0x0E	; 14
    2e8a:	0e 94 e7 06 	call	0xdce	; 0xdce <LCD_12864_Clean_pixel>
	LCD_12864_Draw_pixel(9, 60);
    2e8e:	6c e3       	ldi	r22, 0x3C	; 60
    2e90:	89 e0       	ldi	r24, 0x09	; 9
    2e92:	0e 94 c6 06 	call	0xd8c	; 0xd8c <LCD_12864_Draw_pixel>
	LCD_12864_Draw_pixel(9, 63);
    2e96:	6f e3       	ldi	r22, 0x3F	; 63
    2e98:	89 e0       	ldi	r24, 0x09	; 9
    2e9a:	0e 94 c6 06 	call	0xd8c	; 0xd8c <LCD_12864_Draw_pixel>
	LCD_12864_Draw_pixel(10, 61);
    2e9e:	6d e3       	ldi	r22, 0x3D	; 61
    2ea0:	8a e0       	ldi	r24, 0x0A	; 10
    2ea2:	0e 94 c6 06 	call	0xd8c	; 0xd8c <LCD_12864_Draw_pixel>
	LCD_12864_Draw_pixel(10, 59);
    2ea6:	6b e3       	ldi	r22, 0x3B	; 59
    2ea8:	8a e0       	ldi	r24, 0x0A	; 10
    2eaa:	0e 94 c6 06 	call	0xd8c	; 0xd8c <LCD_12864_Draw_pixel>
	LCD_12864_Draw_pixel(10, 63);
    2eae:	6f e3       	ldi	r22, 0x3F	; 63
    2eb0:	8a e0       	ldi	r24, 0x0A	; 10
    2eb2:	0e 94 c6 06 	call	0xd8c	; 0xd8c <LCD_12864_Draw_pixel>
	LCD_12864_Draw_pixel(11, 61);
    2eb6:	6d e3       	ldi	r22, 0x3D	; 61
    2eb8:	8b e0       	ldi	r24, 0x0B	; 11
    2eba:	0e 94 c6 06 	call	0xd8c	; 0xd8c <LCD_12864_Draw_pixel>
	LCD_12864_Draw_pixel(11, 59);
    2ebe:	6b e3       	ldi	r22, 0x3B	; 59
    2ec0:	8b e0       	ldi	r24, 0x0B	; 11
    2ec2:	0e 94 c6 06 	call	0xd8c	; 0xd8c <LCD_12864_Draw_pixel>
	LCD_12864_Draw_pixel(11, 63);
    2ec6:	6f e3       	ldi	r22, 0x3F	; 63
    2ec8:	8b e0       	ldi	r24, 0x0B	; 11
    2eca:	0e 94 c6 06 	call	0xd8c	; 0xd8c <LCD_12864_Draw_pixel>
	LCD_12864_Draw_pixel(12, 61);
    2ece:	6d e3       	ldi	r22, 0x3D	; 61
    2ed0:	8c e0       	ldi	r24, 0x0C	; 12
    2ed2:	0e 94 c6 06 	call	0xd8c	; 0xd8c <LCD_12864_Draw_pixel>
	LCD_12864_Draw_pixel(12, 59);
    2ed6:	6b e3       	ldi	r22, 0x3B	; 59
    2ed8:	8c e0       	ldi	r24, 0x0C	; 12
    2eda:	0e 94 c6 06 	call	0xd8c	; 0xd8c <LCD_12864_Draw_pixel>
	LCD_12864_Draw_pixel(12, 63);
    2ede:	6f e3       	ldi	r22, 0x3F	; 63
    2ee0:	8c e0       	ldi	r24, 0x0C	; 12
    2ee2:	0e 94 c6 06 	call	0xd8c	; 0xd8c <LCD_12864_Draw_pixel>
	LCD_12864_Draw_pixel(13, 62);
    2ee6:	6e e3       	ldi	r22, 0x3E	; 62
    2ee8:	8d e0       	ldi	r24, 0x0D	; 13
    2eea:	0e 94 c6 06 	call	0xd8c	; 0xd8c <LCD_12864_Draw_pixel>
	LCD_12864_Draw_pixel(13, 59);
    2eee:	6b e3       	ldi	r22, 0x3B	; 59
    2ef0:	8d e0       	ldi	r24, 0x0D	; 13
    2ef2:	0e 94 c6 06 	call	0xd8c	; 0xd8c <LCD_12864_Draw_pixel>
	//---------E-----------------
	LCD_12864_Clean_pixel(20, 52);
    2ef6:	64 e3       	ldi	r22, 0x34	; 52
    2ef8:	84 e1       	ldi	r24, 0x14	; 20
    2efa:	0e 94 e7 06 	call	0xdce	; 0xdce <LCD_12864_Clean_pixel>
	LCD_12864_Clean_pixel(20, 53);
    2efe:	65 e3       	ldi	r22, 0x35	; 53
    2f00:	84 e1       	ldi	r24, 0x14	; 20
    2f02:	0e 94 e7 06 	call	0xdce	; 0xdce <LCD_12864_Clean_pixel>
	LCD_12864_Clean_pixel(20, 54);
    2f06:	66 e3       	ldi	r22, 0x36	; 54
    2f08:	84 e1       	ldi	r24, 0x14	; 20
    2f0a:	0e 94 e7 06 	call	0xdce	; 0xdce <LCD_12864_Clean_pixel>
	LCD_12864_Clean_pixel(19, 55);
    2f0e:	67 e3       	ldi	r22, 0x37	; 55
    2f10:	83 e1       	ldi	r24, 0x13	; 19
    2f12:	0e 94 e7 06 	call	0xdce	; 0xdce <LCD_12864_Clean_pixel>
	LCD_12864_Draw_pixel(19, 48);
    2f16:	60 e3       	ldi	r22, 0x30	; 48
    2f18:	83 e1       	ldi	r24, 0x13	; 19
    2f1a:	0e 94 c6 06 	call	0xd8c	; 0xd8c <LCD_12864_Draw_pixel>
	LCD_12864_Clean_pixel(20, 51);
    2f1e:	63 e3       	ldi	r22, 0x33	; 51
    2f20:	84 e1       	ldi	r24, 0x14	; 20
    2f22:	0e 94 e7 06 	call	0xdce	; 0xdce <LCD_12864_Clean_pixel>
	LCD_12864_Clean_pixel(20, 50);
    2f26:	62 e3       	ldi	r22, 0x32	; 50
    2f28:	84 e1       	ldi	r24, 0x14	; 20
    2f2a:	0e 94 e7 06 	call	0xdce	; 0xdce <LCD_12864_Clean_pixel>
	LCD_12864_Draw_pixel(20, 52);
    2f2e:	64 e3       	ldi	r22, 0x34	; 52
    2f30:	84 e1       	ldi	r24, 0x14	; 20
    2f32:	0e 94 c6 06 	call	0xd8c	; 0xd8c <LCD_12864_Draw_pixel>
	LCD_12864_Draw_pixel(20, 50);
    2f36:	62 e3       	ldi	r22, 0x32	; 50
    2f38:	84 e1       	ldi	r24, 0x14	; 20
    2f3a:	0e 94 c6 06 	call	0xd8c	; 0xd8c <LCD_12864_Draw_pixel>
	LCD_12864_Draw_pixel(20, 54);
    2f3e:	66 e3       	ldi	r22, 0x36	; 54
    2f40:	84 e1       	ldi	r24, 0x14	; 20
    2f42:	0e 94 c6 06 	call	0xd8c	; 0xd8c <LCD_12864_Draw_pixel>
	LCD_12864_Draw_pixel(21, 52);
    2f46:	64 e3       	ldi	r22, 0x34	; 52
    2f48:	85 e1       	ldi	r24, 0x15	; 21
    2f4a:	0e 94 c6 06 	call	0xd8c	; 0xd8c <LCD_12864_Draw_pixel>
	LCD_12864_Draw_pixel(21, 50);
    2f4e:	62 e3       	ldi	r22, 0x32	; 50
    2f50:	85 e1       	ldi	r24, 0x15	; 21
    2f52:	0e 94 c6 06 	call	0xd8c	; 0xd8c <LCD_12864_Draw_pixel>
	LCD_12864_Draw_pixel(21, 54);
    2f56:	66 e3       	ldi	r22, 0x36	; 54
    2f58:	85 e1       	ldi	r24, 0x15	; 21
    2f5a:	0e 94 c6 06 	call	0xd8c	; 0xd8c <LCD_12864_Draw_pixel>
	LCD_12864_Draw_pixel(22, 52);
    2f5e:	64 e3       	ldi	r22, 0x34	; 52
    2f60:	86 e1       	ldi	r24, 0x16	; 22
    2f62:	0e 94 c6 06 	call	0xd8c	; 0xd8c <LCD_12864_Draw_pixel>
	LCD_12864_Draw_pixel(22, 50);
    2f66:	62 e3       	ldi	r22, 0x32	; 50
    2f68:	86 e1       	ldi	r24, 0x16	; 22
    2f6a:	0e 94 c6 06 	call	0xd8c	; 0xd8c <LCD_12864_Draw_pixel>
	LCD_12864_Draw_pixel(22, 54);
    2f6e:	66 e3       	ldi	r22, 0x36	; 54
    2f70:	86 e1       	ldi	r24, 0x16	; 22
    2f72:	0e 94 c6 06 	call	0xd8c	; 0xd8c <LCD_12864_Draw_pixel>
	LCD_12864_Draw_pixel(19, 52);
    2f76:	64 e3       	ldi	r22, 0x34	; 52
    2f78:	83 e1       	ldi	r24, 0x13	; 19
    2f7a:	0e 94 c6 06 	call	0xd8c	; 0xd8c <LCD_12864_Draw_pixel>
	LCD_12864_Draw_pixel(19, 50);
    2f7e:	62 e3       	ldi	r22, 0x32	; 50
    2f80:	83 e1       	ldi	r24, 0x13	; 19
    2f82:	0e 94 c6 06 	call	0xd8c	; 0xd8c <LCD_12864_Draw_pixel>
	LCD_12864_Draw_pixel(19, 54);
    2f86:	66 e3       	ldi	r22, 0x36	; 54
    2f88:	83 e1       	ldi	r24, 0x13	; 19
    2f8a:	0e 94 c6 06 	call	0xd8c	; 0xd8c <LCD_12864_Draw_pixel>
	LCD_12864_Draw_pixel(18, 52);
    2f8e:	64 e3       	ldi	r22, 0x34	; 52
    2f90:	82 e1       	ldi	r24, 0x12	; 18
    2f92:	0e 94 c6 06 	call	0xd8c	; 0xd8c <LCD_12864_Draw_pixel>
	LCD_12864_Draw_pixel(18, 53);
    2f96:	65 e3       	ldi	r22, 0x35	; 53
    2f98:	82 e1       	ldi	r24, 0x12	; 18
    2f9a:	0e 94 c6 06 	call	0xd8c	; 0xd8c <LCD_12864_Draw_pixel>
	LCD_12864_Draw_pixel(18, 54);
    2f9e:	66 e3       	ldi	r22, 0x36	; 54
    2fa0:	82 e1       	ldi	r24, 0x12	; 18
    2fa2:	0e 94 c6 06 	call	0xd8c	; 0xd8c <LCD_12864_Draw_pixel>
	LCD_12864_Draw_pixel(18, 51);
    2fa6:	63 e3       	ldi	r22, 0x33	; 51
    2fa8:	82 e1       	ldi	r24, 0x12	; 18
    2faa:	0e 94 c6 06 	call	0xd8c	; 0xd8c <LCD_12864_Draw_pixel>
	LCD_12864_Draw_pixel(18, 50);
    2fae:	62 e3       	ldi	r22, 0x32	; 50
    2fb0:	82 e1       	ldi	r24, 0x12	; 18
    2fb2:	0e 94 c6 06 	call	0xd8c	; 0xd8c <LCD_12864_Draw_pixel>
	//---------W-----------------
	LCD_12864_Clean_pixel(2, 52);
    2fb6:	64 e3       	ldi	r22, 0x34	; 52
    2fb8:	82 e0       	ldi	r24, 0x02	; 2
    2fba:	0e 94 e7 06 	call	0xdce	; 0xdce <LCD_12864_Clean_pixel>
	LCD_12864_Clean_pixel(2, 53);
    2fbe:	65 e3       	ldi	r22, 0x35	; 53
    2fc0:	82 e0       	ldi	r24, 0x02	; 2
    2fc2:	0e 94 e7 06 	call	0xdce	; 0xdce <LCD_12864_Clean_pixel>
	LCD_12864_Clean_pixel(2, 54);
    2fc6:	66 e3       	ldi	r22, 0x36	; 54
    2fc8:	82 e0       	ldi	r24, 0x02	; 2
    2fca:	0e 94 e7 06 	call	0xdce	; 0xdce <LCD_12864_Clean_pixel>
	LCD_12864_Clean_pixel(3, 55);
    2fce:	67 e3       	ldi	r22, 0x37	; 55
    2fd0:	83 e0       	ldi	r24, 0x03	; 3
    2fd2:	0e 94 e7 06 	call	0xdce	; 0xdce <LCD_12864_Clean_pixel>
	LCD_12864_Draw_pixel(3, 48);
    2fd6:	60 e3       	ldi	r22, 0x30	; 48
    2fd8:	83 e0       	ldi	r24, 0x03	; 3
    2fda:	0e 94 c6 06 	call	0xd8c	; 0xd8c <LCD_12864_Draw_pixel>
	LCD_12864_Clean_pixel(2, 51);
    2fde:	63 e3       	ldi	r22, 0x33	; 51
    2fe0:	82 e0       	ldi	r24, 0x02	; 2
    2fe2:	0e 94 e7 06 	call	0xdce	; 0xdce <LCD_12864_Clean_pixel>
	LCD_12864_Clean_pixel(2, 50);
    2fe6:	62 e3       	ldi	r22, 0x32	; 50
    2fe8:	82 e0       	ldi	r24, 0x02	; 2
    2fea:	0e 94 e7 06 	call	0xdce	; 0xdce <LCD_12864_Clean_pixel>
	LCD_12864_Draw_pixel(2, 52);
    2fee:	64 e3       	ldi	r22, 0x34	; 52
    2ff0:	82 e0       	ldi	r24, 0x02	; 2
    2ff2:	0e 94 c6 06 	call	0xd8c	; 0xd8c <LCD_12864_Draw_pixel>
	LCD_12864_Draw_pixel(2, 53);
    2ff6:	65 e3       	ldi	r22, 0x35	; 53
    2ff8:	82 e0       	ldi	r24, 0x02	; 2
    2ffa:	0e 94 c6 06 	call	0xd8c	; 0xd8c <LCD_12864_Draw_pixel>
	LCD_12864_Draw_pixel(3, 54);
    2ffe:	66 e3       	ldi	r22, 0x36	; 54
    3000:	83 e0       	ldi	r24, 0x03	; 3
    3002:	0e 94 c6 06 	call	0xd8c	; 0xd8c <LCD_12864_Draw_pixel>
	LCD_12864_Draw_pixel(4, 52);
    3006:	64 e3       	ldi	r22, 0x34	; 52
    3008:	84 e0       	ldi	r24, 0x04	; 4
    300a:	0e 94 c6 06 	call	0xd8c	; 0xd8c <LCD_12864_Draw_pixel>
	LCD_12864_Draw_pixel(4, 53);
    300e:	65 e3       	ldi	r22, 0x35	; 53
    3010:	84 e0       	ldi	r24, 0x04	; 4
    3012:	0e 94 c6 06 	call	0xd8c	; 0xd8c <LCD_12864_Draw_pixel>
	LCD_12864_Draw_pixel(4, 51);
    3016:	63 e3       	ldi	r22, 0x33	; 51
    3018:	84 e0       	ldi	r24, 0x04	; 4
    301a:	0e 94 c6 06 	call	0xd8c	; 0xd8c <LCD_12864_Draw_pixel>
	LCD_12864_Draw_pixel(4, 50);
    301e:	62 e3       	ldi	r22, 0x32	; 50
    3020:	84 e0       	ldi	r24, 0x04	; 4
    3022:	0e 94 c6 06 	call	0xd8c	; 0xd8c <LCD_12864_Draw_pixel>
	LCD_12864_Draw_pixel(1, 54);
    3026:	66 e3       	ldi	r22, 0x36	; 54
    3028:	81 e0       	ldi	r24, 0x01	; 1
    302a:	0e 94 c6 06 	call	0xd8c	; 0xd8c <LCD_12864_Draw_pixel>
	LCD_12864_Draw_pixel(0, 52);
    302e:	64 e3       	ldi	r22, 0x34	; 52
    3030:	80 e0       	ldi	r24, 0x00	; 0
    3032:	0e 94 c6 06 	call	0xd8c	; 0xd8c <LCD_12864_Draw_pixel>
	LCD_12864_Draw_pixel(0, 53);
    3036:	65 e3       	ldi	r22, 0x35	; 53
    3038:	80 e0       	ldi	r24, 0x00	; 0
    303a:	0e 94 c6 06 	call	0xd8c	; 0xd8c <LCD_12864_Draw_pixel>
	LCD_12864_Draw_pixel(0, 51);
    303e:	63 e3       	ldi	r22, 0x33	; 51
    3040:	80 e0       	ldi	r24, 0x00	; 0
    3042:	0e 94 c6 06 	call	0xd8c	; 0xd8c <LCD_12864_Draw_pixel>
	LCD_12864_Draw_pixel(0, 50);
    3046:	62 e3       	ldi	r22, 0x32	; 50
    3048:	80 e0       	ldi	r24, 0x00	; 0
    304a:	0e 94 c6 06 	call	0xd8c	; 0xd8c <LCD_12864_Draw_pixel>
	//---------Стрелка-----------------
	//--точка в центре---
	LCD_12864_Draw_pixel(11, 52);
    304e:	64 e3       	ldi	r22, 0x34	; 52
    3050:	8b e0       	ldi	r24, 0x0B	; 11
    3052:	0e 94 c6 06 	call	0xd8c	; 0xd8c <LCD_12864_Draw_pixel>
	if (!strcmp(wind_direction, "N"))
    3056:	68 e8       	ldi	r22, 0x88	; 136
    3058:	72 e0       	ldi	r23, 0x02	; 2
    305a:	81 e7       	ldi	r24, 0x71	; 113
    305c:	93 e0       	ldi	r25, 0x03	; 3
    305e:	0e 94 ae 2a 	call	0x555c	; 0x555c <strcmp>
    3062:	89 2b       	or	r24, r25
    3064:	09 f0       	breq	.+2      	; 0x3068 <DrawWeatherVane+0x2bc>
    3066:	41 c0       	rjmp	.+130    	; 0x30ea <DrawWeatherVane+0x33e>
	{
		LCD_12864_Draw_pixel(10, 53);
    3068:	65 e3       	ldi	r22, 0x35	; 53
    306a:	8a e0       	ldi	r24, 0x0A	; 10
    306c:	0e 94 c6 06 	call	0xd8c	; 0xd8c <LCD_12864_Draw_pixel>
		LCD_12864_Draw_pixel(10, 54);
    3070:	66 e3       	ldi	r22, 0x36	; 54
    3072:	8a e0       	ldi	r24, 0x0A	; 10
    3074:	0e 94 c6 06 	call	0xd8c	; 0xd8c <LCD_12864_Draw_pixel>
		LCD_12864_Draw_pixel(12, 53);
    3078:	65 e3       	ldi	r22, 0x35	; 53
    307a:	8c e0       	ldi	r24, 0x0C	; 12
    307c:	0e 94 c6 06 	call	0xd8c	; 0xd8c <LCD_12864_Draw_pixel>
		LCD_12864_Draw_pixel(12, 54);
    3080:	66 e3       	ldi	r22, 0x36	; 54
    3082:	8c e0       	ldi	r24, 0x0C	; 12
    3084:	0e 94 c6 06 	call	0xd8c	; 0xd8c <LCD_12864_Draw_pixel>
		LCD_12864_Draw_pixel(11, 51);
    3088:	63 e3       	ldi	r22, 0x33	; 51
    308a:	8b e0       	ldi	r24, 0x0B	; 11
    308c:	0e 94 c6 06 	call	0xd8c	; 0xd8c <LCD_12864_Draw_pixel>
		LCD_12864_Draw_pixel(11, 50);
    3090:	62 e3       	ldi	r22, 0x32	; 50
    3092:	8b e0       	ldi	r24, 0x0B	; 11
    3094:	0e 94 c6 06 	call	0xd8c	; 0xd8c <LCD_12864_Draw_pixel>
		LCD_12864_Draw_pixel(11, 49);
    3098:	61 e3       	ldi	r22, 0x31	; 49
    309a:	8b e0       	ldi	r24, 0x0B	; 11
    309c:	0e 94 c6 06 	call	0xd8c	; 0xd8c <LCD_12864_Draw_pixel>
		LCD_12864_Draw_pixel(11, 48);
    30a0:	60 e3       	ldi	r22, 0x30	; 48
    30a2:	8b e0       	ldi	r24, 0x0B	; 11
    30a4:	0e 94 c6 06 	call	0xd8c	; 0xd8c <LCD_12864_Draw_pixel>
		LCD_12864_Draw_pixel(11, 47);
    30a8:	6f e2       	ldi	r22, 0x2F	; 47
    30aa:	8b e0       	ldi	r24, 0x0B	; 11
    30ac:	0e 94 c6 06 	call	0xd8c	; 0xd8c <LCD_12864_Draw_pixel>
		LCD_12864_Draw_pixel(11, 46);
    30b0:	6e e2       	ldi	r22, 0x2E	; 46
    30b2:	8b e0       	ldi	r24, 0x0B	; 11
    30b4:	0e 94 c6 06 	call	0xd8c	; 0xd8c <LCD_12864_Draw_pixel>
		LCD_12864_Draw_pixel(10, 47);
    30b8:	6f e2       	ldi	r22, 0x2F	; 47
    30ba:	8a e0       	ldi	r24, 0x0A	; 10
    30bc:	0e 94 c6 06 	call	0xd8c	; 0xd8c <LCD_12864_Draw_pixel>
		LCD_12864_Draw_pixel(12, 47);
    30c0:	6f e2       	ldi	r22, 0x2F	; 47
    30c2:	8c e0       	ldi	r24, 0x0C	; 12
    30c4:	0e 94 c6 06 	call	0xd8c	; 0xd8c <LCD_12864_Draw_pixel>
		LCD_12864_Draw_pixel(10, 48);
    30c8:	60 e3       	ldi	r22, 0x30	; 48
    30ca:	8a e0       	ldi	r24, 0x0A	; 10
    30cc:	0e 94 c6 06 	call	0xd8c	; 0xd8c <LCD_12864_Draw_pixel>
		LCD_12864_Draw_pixel(9, 48);
    30d0:	60 e3       	ldi	r22, 0x30	; 48
    30d2:	89 e0       	ldi	r24, 0x09	; 9
    30d4:	0e 94 c6 06 	call	0xd8c	; 0xd8c <LCD_12864_Draw_pixel>
		LCD_12864_Draw_pixel(12, 48);
    30d8:	60 e3       	ldi	r22, 0x30	; 48
    30da:	8c e0       	ldi	r24, 0x0C	; 12
    30dc:	0e 94 c6 06 	call	0xd8c	; 0xd8c <LCD_12864_Draw_pixel>
		LCD_12864_Draw_pixel(13, 48);
    30e0:	60 e3       	ldi	r22, 0x30	; 48
    30e2:	8d e0       	ldi	r24, 0x0D	; 13
    30e4:	0e 94 c6 06 	call	0xd8c	; 0xd8c <LCD_12864_Draw_pixel>
    30e8:	08 95       	ret
	}
	else if (!strcmp(wind_direction, "S"))
    30ea:	6a e8       	ldi	r22, 0x8A	; 138
    30ec:	72 e0       	ldi	r23, 0x02	; 2
    30ee:	81 e7       	ldi	r24, 0x71	; 113
    30f0:	93 e0       	ldi	r25, 0x03	; 3
    30f2:	0e 94 ae 2a 	call	0x555c	; 0x555c <strcmp>
    30f6:	89 2b       	or	r24, r25
    30f8:	09 f0       	breq	.+2      	; 0x30fc <DrawWeatherVane+0x350>
    30fa:	41 c0       	rjmp	.+130    	; 0x317e <DrawWeatherVane+0x3d2>
	{
		LCD_12864_Draw_pixel(10, 50);
    30fc:	62 e3       	ldi	r22, 0x32	; 50
    30fe:	8a e0       	ldi	r24, 0x0A	; 10
    3100:	0e 94 c6 06 	call	0xd8c	; 0xd8c <LCD_12864_Draw_pixel>
		LCD_12864_Draw_pixel(10, 51);
    3104:	63 e3       	ldi	r22, 0x33	; 51
    3106:	8a e0       	ldi	r24, 0x0A	; 10
    3108:	0e 94 c6 06 	call	0xd8c	; 0xd8c <LCD_12864_Draw_pixel>
		LCD_12864_Draw_pixel(12, 50);
    310c:	62 e3       	ldi	r22, 0x32	; 50
    310e:	8c e0       	ldi	r24, 0x0C	; 12
    3110:	0e 94 c6 06 	call	0xd8c	; 0xd8c <LCD_12864_Draw_pixel>
		LCD_12864_Draw_pixel(12, 51);
    3114:	63 e3       	ldi	r22, 0x33	; 51
    3116:	8c e0       	ldi	r24, 0x0C	; 12
    3118:	0e 94 c6 06 	call	0xd8c	; 0xd8c <LCD_12864_Draw_pixel>
		LCD_12864_Draw_pixel(11, 53);
    311c:	65 e3       	ldi	r22, 0x35	; 53
    311e:	8b e0       	ldi	r24, 0x0B	; 11
    3120:	0e 94 c6 06 	call	0xd8c	; 0xd8c <LCD_12864_Draw_pixel>
		LCD_12864_Draw_pixel(11, 54);
    3124:	66 e3       	ldi	r22, 0x36	; 54
    3126:	8b e0       	ldi	r24, 0x0B	; 11
    3128:	0e 94 c6 06 	call	0xd8c	; 0xd8c <LCD_12864_Draw_pixel>
		LCD_12864_Draw_pixel(11, 55);
    312c:	67 e3       	ldi	r22, 0x37	; 55
    312e:	8b e0       	ldi	r24, 0x0B	; 11
    3130:	0e 94 c6 06 	call	0xd8c	; 0xd8c <LCD_12864_Draw_pixel>
		LCD_12864_Draw_pixel(11, 56);
    3134:	68 e3       	ldi	r22, 0x38	; 56
    3136:	8b e0       	ldi	r24, 0x0B	; 11
    3138:	0e 94 c6 06 	call	0xd8c	; 0xd8c <LCD_12864_Draw_pixel>
		LCD_12864_Draw_pixel(11, 57);
    313c:	69 e3       	ldi	r22, 0x39	; 57
    313e:	8b e0       	ldi	r24, 0x0B	; 11
    3140:	0e 94 c6 06 	call	0xd8c	; 0xd8c <LCD_12864_Draw_pixel>
		LCD_12864_Draw_pixel(11, 58);
    3144:	6a e3       	ldi	r22, 0x3A	; 58
    3146:	8b e0       	ldi	r24, 0x0B	; 11
    3148:	0e 94 c6 06 	call	0xd8c	; 0xd8c <LCD_12864_Draw_pixel>
		LCD_12864_Draw_pixel(10, 57);
    314c:	69 e3       	ldi	r22, 0x39	; 57
    314e:	8a e0       	ldi	r24, 0x0A	; 10
    3150:	0e 94 c6 06 	call	0xd8c	; 0xd8c <LCD_12864_Draw_pixel>
		LCD_12864_Draw_pixel(12, 57);
    3154:	69 e3       	ldi	r22, 0x39	; 57
    3156:	8c e0       	ldi	r24, 0x0C	; 12
    3158:	0e 94 c6 06 	call	0xd8c	; 0xd8c <LCD_12864_Draw_pixel>
		LCD_12864_Draw_pixel(10, 56);
    315c:	68 e3       	ldi	r22, 0x38	; 56
    315e:	8a e0       	ldi	r24, 0x0A	; 10
    3160:	0e 94 c6 06 	call	0xd8c	; 0xd8c <LCD_12864_Draw_pixel>
		LCD_12864_Draw_pixel(9, 56);
    3164:	68 e3       	ldi	r22, 0x38	; 56
    3166:	89 e0       	ldi	r24, 0x09	; 9
    3168:	0e 94 c6 06 	call	0xd8c	; 0xd8c <LCD_12864_Draw_pixel>
		LCD_12864_Draw_pixel(12, 56);
    316c:	68 e3       	ldi	r22, 0x38	; 56
    316e:	8c e0       	ldi	r24, 0x0C	; 12
    3170:	0e 94 c6 06 	call	0xd8c	; 0xd8c <LCD_12864_Draw_pixel>
		LCD_12864_Draw_pixel(13, 56);
    3174:	68 e3       	ldi	r22, 0x38	; 56
    3176:	8d e0       	ldi	r24, 0x0D	; 13
    3178:	0e 94 c6 06 	call	0xd8c	; 0xd8c <LCD_12864_Draw_pixel>
    317c:	08 95       	ret
	}
	else if (!strcmp(wind_direction, "E"))
    317e:	6e e8       	ldi	r22, 0x8E	; 142
    3180:	72 e0       	ldi	r23, 0x02	; 2
    3182:	81 e7       	ldi	r24, 0x71	; 113
    3184:	93 e0       	ldi	r25, 0x03	; 3
    3186:	0e 94 ae 2a 	call	0x555c	; 0x555c <strcmp>
    318a:	89 2b       	or	r24, r25
    318c:	09 f0       	breq	.+2      	; 0x3190 <DrawWeatherVane+0x3e4>
    318e:	41 c0       	rjmp	.+130    	; 0x3212 <DrawWeatherVane+0x466>
	{
		LCD_12864_Draw_pixel(9, 51);
    3190:	63 e3       	ldi	r22, 0x33	; 51
    3192:	89 e0       	ldi	r24, 0x09	; 9
    3194:	0e 94 c6 06 	call	0xd8c	; 0xd8c <LCD_12864_Draw_pixel>
		LCD_12864_Draw_pixel(10, 51);
    3198:	63 e3       	ldi	r22, 0x33	; 51
    319a:	8a e0       	ldi	r24, 0x0A	; 10
    319c:	0e 94 c6 06 	call	0xd8c	; 0xd8c <LCD_12864_Draw_pixel>
		LCD_12864_Draw_pixel(9, 53);
    31a0:	65 e3       	ldi	r22, 0x35	; 53
    31a2:	89 e0       	ldi	r24, 0x09	; 9
    31a4:	0e 94 c6 06 	call	0xd8c	; 0xd8c <LCD_12864_Draw_pixel>
		LCD_12864_Draw_pixel(10, 53);
    31a8:	65 e3       	ldi	r22, 0x35	; 53
    31aa:	8a e0       	ldi	r24, 0x0A	; 10
    31ac:	0e 94 c6 06 	call	0xd8c	; 0xd8c <LCD_12864_Draw_pixel>
		LCD_12864_Draw_pixel(12, 52);
    31b0:	64 e3       	ldi	r22, 0x34	; 52
    31b2:	8c e0       	ldi	r24, 0x0C	; 12
    31b4:	0e 94 c6 06 	call	0xd8c	; 0xd8c <LCD_12864_Draw_pixel>
		LCD_12864_Draw_pixel(13, 52);
    31b8:	64 e3       	ldi	r22, 0x34	; 52
    31ba:	8d e0       	ldi	r24, 0x0D	; 13
    31bc:	0e 94 c6 06 	call	0xd8c	; 0xd8c <LCD_12864_Draw_pixel>
		LCD_12864_Draw_pixel(14, 52);
    31c0:	64 e3       	ldi	r22, 0x34	; 52
    31c2:	8e e0       	ldi	r24, 0x0E	; 14
    31c4:	0e 94 c6 06 	call	0xd8c	; 0xd8c <LCD_12864_Draw_pixel>
		LCD_12864_Draw_pixel(15, 52);
    31c8:	64 e3       	ldi	r22, 0x34	; 52
    31ca:	8f e0       	ldi	r24, 0x0F	; 15
    31cc:	0e 94 c6 06 	call	0xd8c	; 0xd8c <LCD_12864_Draw_pixel>
		LCD_12864_Draw_pixel(16, 52);
    31d0:	64 e3       	ldi	r22, 0x34	; 52
    31d2:	80 e1       	ldi	r24, 0x10	; 16
    31d4:	0e 94 c6 06 	call	0xd8c	; 0xd8c <LCD_12864_Draw_pixel>
		LCD_12864_Draw_pixel(17, 52);
    31d8:	64 e3       	ldi	r22, 0x34	; 52
    31da:	81 e1       	ldi	r24, 0x11	; 17
    31dc:	0e 94 c6 06 	call	0xd8c	; 0xd8c <LCD_12864_Draw_pixel>
		LCD_12864_Draw_pixel(16, 51);
    31e0:	63 e3       	ldi	r22, 0x33	; 51
    31e2:	80 e1       	ldi	r24, 0x10	; 16
    31e4:	0e 94 c6 06 	call	0xd8c	; 0xd8c <LCD_12864_Draw_pixel>
		LCD_12864_Draw_pixel(16, 53);
    31e8:	65 e3       	ldi	r22, 0x35	; 53
    31ea:	80 e1       	ldi	r24, 0x10	; 16
    31ec:	0e 94 c6 06 	call	0xd8c	; 0xd8c <LCD_12864_Draw_pixel>
		LCD_12864_Draw_pixel(15, 53);
    31f0:	65 e3       	ldi	r22, 0x35	; 53
    31f2:	8f e0       	ldi	r24, 0x0F	; 15
    31f4:	0e 94 c6 06 	call	0xd8c	; 0xd8c <LCD_12864_Draw_pixel>
		LCD_12864_Draw_pixel(15, 54);
    31f8:	66 e3       	ldi	r22, 0x36	; 54
    31fa:	8f e0       	ldi	r24, 0x0F	; 15
    31fc:	0e 94 c6 06 	call	0xd8c	; 0xd8c <LCD_12864_Draw_pixel>
		LCD_12864_Draw_pixel(15, 51);
    3200:	63 e3       	ldi	r22, 0x33	; 51
    3202:	8f e0       	ldi	r24, 0x0F	; 15
    3204:	0e 94 c6 06 	call	0xd8c	; 0xd8c <LCD_12864_Draw_pixel>
		LCD_12864_Draw_pixel(15, 50);
    3208:	62 e3       	ldi	r22, 0x32	; 50
    320a:	8f e0       	ldi	r24, 0x0F	; 15
    320c:	0e 94 c6 06 	call	0xd8c	; 0xd8c <LCD_12864_Draw_pixel>
    3210:	08 95       	ret
	}
	else if (!strcmp(wind_direction, "W"))
    3212:	62 e9       	ldi	r22, 0x92	; 146
    3214:	72 e0       	ldi	r23, 0x02	; 2
    3216:	81 e7       	ldi	r24, 0x71	; 113
    3218:	93 e0       	ldi	r25, 0x03	; 3
    321a:	0e 94 ae 2a 	call	0x555c	; 0x555c <strcmp>
    321e:	89 2b       	or	r24, r25
    3220:	09 f0       	breq	.+2      	; 0x3224 <DrawWeatherVane+0x478>
    3222:	41 c0       	rjmp	.+130    	; 0x32a6 <DrawWeatherVane+0x4fa>
	{
		LCD_12864_Draw_pixel(13, 51);
    3224:	63 e3       	ldi	r22, 0x33	; 51
    3226:	8d e0       	ldi	r24, 0x0D	; 13
    3228:	0e 94 c6 06 	call	0xd8c	; 0xd8c <LCD_12864_Draw_pixel>
		LCD_12864_Draw_pixel(12, 51);
    322c:	63 e3       	ldi	r22, 0x33	; 51
    322e:	8c e0       	ldi	r24, 0x0C	; 12
    3230:	0e 94 c6 06 	call	0xd8c	; 0xd8c <LCD_12864_Draw_pixel>
		LCD_12864_Draw_pixel(13, 53);
    3234:	65 e3       	ldi	r22, 0x35	; 53
    3236:	8d e0       	ldi	r24, 0x0D	; 13
    3238:	0e 94 c6 06 	call	0xd8c	; 0xd8c <LCD_12864_Draw_pixel>
		LCD_12864_Draw_pixel(12, 53);
    323c:	65 e3       	ldi	r22, 0x35	; 53
    323e:	8c e0       	ldi	r24, 0x0C	; 12
    3240:	0e 94 c6 06 	call	0xd8c	; 0xd8c <LCD_12864_Draw_pixel>
		LCD_12864_Draw_pixel(10, 52);
    3244:	64 e3       	ldi	r22, 0x34	; 52
    3246:	8a e0       	ldi	r24, 0x0A	; 10
    3248:	0e 94 c6 06 	call	0xd8c	; 0xd8c <LCD_12864_Draw_pixel>
		LCD_12864_Draw_pixel(9, 52);
    324c:	64 e3       	ldi	r22, 0x34	; 52
    324e:	89 e0       	ldi	r24, 0x09	; 9
    3250:	0e 94 c6 06 	call	0xd8c	; 0xd8c <LCD_12864_Draw_pixel>
		LCD_12864_Draw_pixel(8, 52);
    3254:	64 e3       	ldi	r22, 0x34	; 52
    3256:	88 e0       	ldi	r24, 0x08	; 8
    3258:	0e 94 c6 06 	call	0xd8c	; 0xd8c <LCD_12864_Draw_pixel>
		LCD_12864_Draw_pixel(7, 52);
    325c:	64 e3       	ldi	r22, 0x34	; 52
    325e:	87 e0       	ldi	r24, 0x07	; 7
    3260:	0e 94 c6 06 	call	0xd8c	; 0xd8c <LCD_12864_Draw_pixel>
		LCD_12864_Draw_pixel(6, 52);
    3264:	64 e3       	ldi	r22, 0x34	; 52
    3266:	86 e0       	ldi	r24, 0x06	; 6
    3268:	0e 94 c6 06 	call	0xd8c	; 0xd8c <LCD_12864_Draw_pixel>
		LCD_12864_Draw_pixel(5, 52);
    326c:	64 e3       	ldi	r22, 0x34	; 52
    326e:	85 e0       	ldi	r24, 0x05	; 5
    3270:	0e 94 c6 06 	call	0xd8c	; 0xd8c <LCD_12864_Draw_pixel>
		LCD_12864_Draw_pixel(6, 51);
    3274:	63 e3       	ldi	r22, 0x33	; 51
    3276:	86 e0       	ldi	r24, 0x06	; 6
    3278:	0e 94 c6 06 	call	0xd8c	; 0xd8c <LCD_12864_Draw_pixel>
		LCD_12864_Draw_pixel(6, 53);
    327c:	65 e3       	ldi	r22, 0x35	; 53
    327e:	86 e0       	ldi	r24, 0x06	; 6
    3280:	0e 94 c6 06 	call	0xd8c	; 0xd8c <LCD_12864_Draw_pixel>
		LCD_12864_Draw_pixel(7, 53);
    3284:	65 e3       	ldi	r22, 0x35	; 53
    3286:	87 e0       	ldi	r24, 0x07	; 7
    3288:	0e 94 c6 06 	call	0xd8c	; 0xd8c <LCD_12864_Draw_pixel>
		LCD_12864_Draw_pixel(7, 54);
    328c:	66 e3       	ldi	r22, 0x36	; 54
    328e:	87 e0       	ldi	r24, 0x07	; 7
    3290:	0e 94 c6 06 	call	0xd8c	; 0xd8c <LCD_12864_Draw_pixel>
		LCD_12864_Draw_pixel(7, 51);
    3294:	63 e3       	ldi	r22, 0x33	; 51
    3296:	87 e0       	ldi	r24, 0x07	; 7
    3298:	0e 94 c6 06 	call	0xd8c	; 0xd8c <LCD_12864_Draw_pixel>
		LCD_12864_Draw_pixel(7, 50);
    329c:	62 e3       	ldi	r22, 0x32	; 50
    329e:	87 e0       	ldi	r24, 0x07	; 7
    32a0:	0e 94 c6 06 	call	0xd8c	; 0xd8c <LCD_12864_Draw_pixel>
    32a4:	08 95       	ret
	}
	else if (!strcmp(wind_direction, "N-E"))
    32a6:	6c e8       	ldi	r22, 0x8C	; 140
    32a8:	72 e0       	ldi	r23, 0x02	; 2
    32aa:	81 e7       	ldi	r24, 0x71	; 113
    32ac:	93 e0       	ldi	r25, 0x03	; 3
    32ae:	0e 94 ae 2a 	call	0x555c	; 0x555c <strcmp>
    32b2:	89 2b       	or	r24, r25
    32b4:	b9 f5       	brne	.+110    	; 0x3324 <DrawWeatherVane+0x578>
	{
		LCD_12864_Draw_pixel(10, 51);
    32b6:	63 e3       	ldi	r22, 0x33	; 51
    32b8:	8a e0       	ldi	r24, 0x0A	; 10
    32ba:	0e 94 c6 06 	call	0xd8c	; 0xd8c <LCD_12864_Draw_pixel>
		LCD_12864_Draw_pixel(9, 52);
    32be:	64 e3       	ldi	r22, 0x34	; 52
    32c0:	89 e0       	ldi	r24, 0x09	; 9
    32c2:	0e 94 c6 06 	call	0xd8c	; 0xd8c <LCD_12864_Draw_pixel>
		LCD_12864_Draw_pixel(12, 53);
    32c6:	65 e3       	ldi	r22, 0x35	; 53
    32c8:	8c e0       	ldi	r24, 0x0C	; 12
    32ca:	0e 94 c6 06 	call	0xd8c	; 0xd8c <LCD_12864_Draw_pixel>
		LCD_12864_Draw_pixel(11, 54);
    32ce:	66 e3       	ldi	r22, 0x36	; 54
    32d0:	8b e0       	ldi	r24, 0x0B	; 11
    32d2:	0e 94 c6 06 	call	0xd8c	; 0xd8c <LCD_12864_Draw_pixel>
		LCD_12864_Draw_line(11, 52, 16, 47);
    32d6:	2f e2       	ldi	r18, 0x2F	; 47
    32d8:	40 e1       	ldi	r20, 0x10	; 16
    32da:	64 e3       	ldi	r22, 0x34	; 52
    32dc:	8b e0       	ldi	r24, 0x0B	; 11
    32de:	0e 94 18 0c 	call	0x1830	; 0x1830 <LCD_12864_Draw_line>
		LCD_12864_Draw_pixel(15, 47);
    32e2:	6f e2       	ldi	r22, 0x2F	; 47
    32e4:	8f e0       	ldi	r24, 0x0F	; 15
    32e6:	0e 94 c6 06 	call	0xd8c	; 0xd8c <LCD_12864_Draw_pixel>
		LCD_12864_Draw_pixel(14, 47);
    32ea:	6f e2       	ldi	r22, 0x2F	; 47
    32ec:	8e e0       	ldi	r24, 0x0E	; 14
    32ee:	0e 94 c6 06 	call	0xd8c	; 0xd8c <LCD_12864_Draw_pixel>
		LCD_12864_Draw_pixel(13, 47);
    32f2:	6f e2       	ldi	r22, 0x2F	; 47
    32f4:	8d e0       	ldi	r24, 0x0D	; 13
    32f6:	0e 94 c6 06 	call	0xd8c	; 0xd8c <LCD_12864_Draw_pixel>
		LCD_12864_Draw_pixel(14, 48);
    32fa:	60 e3       	ldi	r22, 0x30	; 48
    32fc:	8e e0       	ldi	r24, 0x0E	; 14
    32fe:	0e 94 c6 06 	call	0xd8c	; 0xd8c <LCD_12864_Draw_pixel>
		LCD_12864_Draw_pixel(16, 48);
    3302:	60 e3       	ldi	r22, 0x30	; 48
    3304:	80 e1       	ldi	r24, 0x10	; 16
    3306:	0e 94 c6 06 	call	0xd8c	; 0xd8c <LCD_12864_Draw_pixel>
		LCD_12864_Draw_pixel(16, 49);
    330a:	61 e3       	ldi	r22, 0x31	; 49
    330c:	80 e1       	ldi	r24, 0x10	; 16
    330e:	0e 94 c6 06 	call	0xd8c	; 0xd8c <LCD_12864_Draw_pixel>
		LCD_12864_Draw_pixel(15, 49);
    3312:	61 e3       	ldi	r22, 0x31	; 49
    3314:	8f e0       	ldi	r24, 0x0F	; 15
    3316:	0e 94 c6 06 	call	0xd8c	; 0xd8c <LCD_12864_Draw_pixel>
		LCD_12864_Draw_pixel(16, 50);
    331a:	62 e3       	ldi	r22, 0x32	; 50
    331c:	80 e1       	ldi	r24, 0x10	; 16
    331e:	0e 94 c6 06 	call	0xd8c	; 0xd8c <LCD_12864_Draw_pixel>
    3322:	08 95       	ret
	}
	else if (!strcmp(wind_direction, "N-W"))
    3324:	60 e9       	ldi	r22, 0x90	; 144
    3326:	72 e0       	ldi	r23, 0x02	; 2
    3328:	81 e7       	ldi	r24, 0x71	; 113
    332a:	93 e0       	ldi	r25, 0x03	; 3
    332c:	0e 94 ae 2a 	call	0x555c	; 0x555c <strcmp>
    3330:	89 2b       	or	r24, r25
    3332:	b9 f5       	brne	.+110    	; 0x33a2 <DrawWeatherVane+0x5f6>
	{
		LCD_12864_Draw_pixel(12, 51);
    3334:	63 e3       	ldi	r22, 0x33	; 51
    3336:	8c e0       	ldi	r24, 0x0C	; 12
    3338:	0e 94 c6 06 	call	0xd8c	; 0xd8c <LCD_12864_Draw_pixel>
		LCD_12864_Draw_pixel(13, 52);
    333c:	64 e3       	ldi	r22, 0x34	; 52
    333e:	8d e0       	ldi	r24, 0x0D	; 13
    3340:	0e 94 c6 06 	call	0xd8c	; 0xd8c <LCD_12864_Draw_pixel>
		LCD_12864_Draw_pixel(10, 53);
    3344:	65 e3       	ldi	r22, 0x35	; 53
    3346:	8a e0       	ldi	r24, 0x0A	; 10
    3348:	0e 94 c6 06 	call	0xd8c	; 0xd8c <LCD_12864_Draw_pixel>
		LCD_12864_Draw_pixel(11, 54);
    334c:	66 e3       	ldi	r22, 0x36	; 54
    334e:	8b e0       	ldi	r24, 0x0B	; 11
    3350:	0e 94 c6 06 	call	0xd8c	; 0xd8c <LCD_12864_Draw_pixel>
		LCD_12864_Draw_line(11, 52, 6, 47);
    3354:	2f e2       	ldi	r18, 0x2F	; 47
    3356:	46 e0       	ldi	r20, 0x06	; 6
    3358:	64 e3       	ldi	r22, 0x34	; 52
    335a:	8b e0       	ldi	r24, 0x0B	; 11
    335c:	0e 94 18 0c 	call	0x1830	; 0x1830 <LCD_12864_Draw_line>
		LCD_12864_Draw_pixel(7, 47);
    3360:	6f e2       	ldi	r22, 0x2F	; 47
    3362:	87 e0       	ldi	r24, 0x07	; 7
    3364:	0e 94 c6 06 	call	0xd8c	; 0xd8c <LCD_12864_Draw_pixel>
		LCD_12864_Draw_pixel(8, 47);
    3368:	6f e2       	ldi	r22, 0x2F	; 47
    336a:	88 e0       	ldi	r24, 0x08	; 8
    336c:	0e 94 c6 06 	call	0xd8c	; 0xd8c <LCD_12864_Draw_pixel>
		LCD_12864_Draw_pixel(9, 47);
    3370:	6f e2       	ldi	r22, 0x2F	; 47
    3372:	89 e0       	ldi	r24, 0x09	; 9
    3374:	0e 94 c6 06 	call	0xd8c	; 0xd8c <LCD_12864_Draw_pixel>
		LCD_12864_Draw_pixel(8, 48);
    3378:	60 e3       	ldi	r22, 0x30	; 48
    337a:	88 e0       	ldi	r24, 0x08	; 8
    337c:	0e 94 c6 06 	call	0xd8c	; 0xd8c <LCD_12864_Draw_pixel>
		LCD_12864_Draw_pixel(6, 48);
    3380:	60 e3       	ldi	r22, 0x30	; 48
    3382:	86 e0       	ldi	r24, 0x06	; 6
    3384:	0e 94 c6 06 	call	0xd8c	; 0xd8c <LCD_12864_Draw_pixel>
		LCD_12864_Draw_pixel(6, 49);
    3388:	61 e3       	ldi	r22, 0x31	; 49
    338a:	86 e0       	ldi	r24, 0x06	; 6
    338c:	0e 94 c6 06 	call	0xd8c	; 0xd8c <LCD_12864_Draw_pixel>
		LCD_12864_Draw_pixel(6, 50);
    3390:	62 e3       	ldi	r22, 0x32	; 50
    3392:	86 e0       	ldi	r24, 0x06	; 6
    3394:	0e 94 c6 06 	call	0xd8c	; 0xd8c <LCD_12864_Draw_pixel>
		LCD_12864_Draw_pixel(7, 49);
    3398:	61 e3       	ldi	r22, 0x31	; 49
    339a:	87 e0       	ldi	r24, 0x07	; 7
    339c:	0e 94 c6 06 	call	0xd8c	; 0xd8c <LCD_12864_Draw_pixel>
    33a0:	08 95       	ret
	}
	else if (!strcmp(wind_direction, "S-E"))
    33a2:	64 e9       	ldi	r22, 0x94	; 148
    33a4:	72 e0       	ldi	r23, 0x02	; 2
    33a6:	81 e7       	ldi	r24, 0x71	; 113
    33a8:	93 e0       	ldi	r25, 0x03	; 3
    33aa:	0e 94 ae 2a 	call	0x555c	; 0x555c <strcmp>
    33ae:	89 2b       	or	r24, r25
    33b0:	b9 f5       	brne	.+110    	; 0x3420 <DrawWeatherVane+0x674>
	{
		LCD_12864_Draw_pixel(11, 50);
    33b2:	62 e3       	ldi	r22, 0x32	; 50
    33b4:	8b e0       	ldi	r24, 0x0B	; 11
    33b6:	0e 94 c6 06 	call	0xd8c	; 0xd8c <LCD_12864_Draw_pixel>
		LCD_12864_Draw_pixel(12, 51);
    33ba:	63 e3       	ldi	r22, 0x33	; 51
    33bc:	8c e0       	ldi	r24, 0x0C	; 12
    33be:	0e 94 c6 06 	call	0xd8c	; 0xd8c <LCD_12864_Draw_pixel>
		LCD_12864_Draw_pixel(10, 53);
    33c2:	65 e3       	ldi	r22, 0x35	; 53
    33c4:	8a e0       	ldi	r24, 0x0A	; 10
    33c6:	0e 94 c6 06 	call	0xd8c	; 0xd8c <LCD_12864_Draw_pixel>
		LCD_12864_Draw_pixel(9, 52);
    33ca:	64 e3       	ldi	r22, 0x34	; 52
    33cc:	89 e0       	ldi	r24, 0x09	; 9
    33ce:	0e 94 c6 06 	call	0xd8c	; 0xd8c <LCD_12864_Draw_pixel>
		LCD_12864_Draw_line(11, 52, 16, 57);
    33d2:	29 e3       	ldi	r18, 0x39	; 57
    33d4:	40 e1       	ldi	r20, 0x10	; 16
    33d6:	64 e3       	ldi	r22, 0x34	; 52
    33d8:	8b e0       	ldi	r24, 0x0B	; 11
    33da:	0e 94 18 0c 	call	0x1830	; 0x1830 <LCD_12864_Draw_line>
		LCD_12864_Draw_pixel(16, 56);
    33de:	68 e3       	ldi	r22, 0x38	; 56
    33e0:	80 e1       	ldi	r24, 0x10	; 16
    33e2:	0e 94 c6 06 	call	0xd8c	; 0xd8c <LCD_12864_Draw_pixel>
		LCD_12864_Draw_pixel(15, 57);
    33e6:	69 e3       	ldi	r22, 0x39	; 57
    33e8:	8f e0       	ldi	r24, 0x0F	; 15
    33ea:	0e 94 c6 06 	call	0xd8c	; 0xd8c <LCD_12864_Draw_pixel>
		LCD_12864_Draw_pixel(15, 55);
    33ee:	67 e3       	ldi	r22, 0x37	; 55
    33f0:	8f e0       	ldi	r24, 0x0F	; 15
    33f2:	0e 94 c6 06 	call	0xd8c	; 0xd8c <LCD_12864_Draw_pixel>
		LCD_12864_Draw_pixel(16, 55);
    33f6:	67 e3       	ldi	r22, 0x37	; 55
    33f8:	80 e1       	ldi	r24, 0x10	; 16
    33fa:	0e 94 c6 06 	call	0xd8c	; 0xd8c <LCD_12864_Draw_pixel>
		LCD_12864_Draw_pixel(16, 54);
    33fe:	66 e3       	ldi	r22, 0x36	; 54
    3400:	80 e1       	ldi	r24, 0x10	; 16
    3402:	0e 94 c6 06 	call	0xd8c	; 0xd8c <LCD_12864_Draw_pixel>
		LCD_12864_Draw_pixel(14, 56);
    3406:	68 e3       	ldi	r22, 0x38	; 56
    3408:	8e e0       	ldi	r24, 0x0E	; 14
    340a:	0e 94 c6 06 	call	0xd8c	; 0xd8c <LCD_12864_Draw_pixel>
		LCD_12864_Draw_pixel(14, 57);
    340e:	69 e3       	ldi	r22, 0x39	; 57
    3410:	8e e0       	ldi	r24, 0x0E	; 14
    3412:	0e 94 c6 06 	call	0xd8c	; 0xd8c <LCD_12864_Draw_pixel>
		LCD_12864_Draw_pixel(13, 57);
    3416:	69 e3       	ldi	r22, 0x39	; 57
    3418:	8d e0       	ldi	r24, 0x0D	; 13
    341a:	0e 94 c6 06 	call	0xd8c	; 0xd8c <LCD_12864_Draw_pixel>
    341e:	08 95       	ret
	}
	else if (!strcmp(wind_direction, "S-W"))
    3420:	68 e9       	ldi	r22, 0x98	; 152
    3422:	72 e0       	ldi	r23, 0x02	; 2
    3424:	81 e7       	ldi	r24, 0x71	; 113
    3426:	93 e0       	ldi	r25, 0x03	; 3
    3428:	0e 94 ae 2a 	call	0x555c	; 0x555c <strcmp>
    342c:	89 2b       	or	r24, r25
    342e:	b1 f5       	brne	.+108    	; 0x349c <DrawWeatherVane+0x6f0>
	{
		LCD_12864_Draw_pixel(11, 50);
    3430:	62 e3       	ldi	r22, 0x32	; 50
    3432:	8b e0       	ldi	r24, 0x0B	; 11
    3434:	0e 94 c6 06 	call	0xd8c	; 0xd8c <LCD_12864_Draw_pixel>
		LCD_12864_Draw_pixel(10, 51);
    3438:	63 e3       	ldi	r22, 0x33	; 51
    343a:	8a e0       	ldi	r24, 0x0A	; 10
    343c:	0e 94 c6 06 	call	0xd8c	; 0xd8c <LCD_12864_Draw_pixel>
		LCD_12864_Draw_pixel(13, 52);
    3440:	64 e3       	ldi	r22, 0x34	; 52
    3442:	8d e0       	ldi	r24, 0x0D	; 13
    3444:	0e 94 c6 06 	call	0xd8c	; 0xd8c <LCD_12864_Draw_pixel>
		LCD_12864_Draw_pixel(12, 53);
    3448:	65 e3       	ldi	r22, 0x35	; 53
    344a:	8c e0       	ldi	r24, 0x0C	; 12
    344c:	0e 94 c6 06 	call	0xd8c	; 0xd8c <LCD_12864_Draw_pixel>
		LCD_12864_Draw_line(11, 52, 6, 57);
    3450:	29 e3       	ldi	r18, 0x39	; 57
    3452:	46 e0       	ldi	r20, 0x06	; 6
    3454:	64 e3       	ldi	r22, 0x34	; 52
    3456:	8b e0       	ldi	r24, 0x0B	; 11
    3458:	0e 94 18 0c 	call	0x1830	; 0x1830 <LCD_12864_Draw_line>
		LCD_12864_Draw_pixel(6, 56);
    345c:	68 e3       	ldi	r22, 0x38	; 56
    345e:	86 e0       	ldi	r24, 0x06	; 6
    3460:	0e 94 c6 06 	call	0xd8c	; 0xd8c <LCD_12864_Draw_pixel>
		LCD_12864_Draw_pixel(6, 55);
    3464:	67 e3       	ldi	r22, 0x37	; 55
    3466:	86 e0       	ldi	r24, 0x06	; 6
    3468:	0e 94 c6 06 	call	0xd8c	; 0xd8c <LCD_12864_Draw_pixel>
		LCD_12864_Draw_pixel(7, 55);
    346c:	67 e3       	ldi	r22, 0x37	; 55
    346e:	87 e0       	ldi	r24, 0x07	; 7
    3470:	0e 94 c6 06 	call	0xd8c	; 0xd8c <LCD_12864_Draw_pixel>
		LCD_12864_Draw_pixel(6, 54);
    3474:	66 e3       	ldi	r22, 0x36	; 54
    3476:	86 e0       	ldi	r24, 0x06	; 6
    3478:	0e 94 c6 06 	call	0xd8c	; 0xd8c <LCD_12864_Draw_pixel>
		LCD_12864_Draw_pixel(7, 57);
    347c:	69 e3       	ldi	r22, 0x39	; 57
    347e:	87 e0       	ldi	r24, 0x07	; 7
    3480:	0e 94 c6 06 	call	0xd8c	; 0xd8c <LCD_12864_Draw_pixel>
		LCD_12864_Draw_pixel(8, 57);
    3484:	69 e3       	ldi	r22, 0x39	; 57
    3486:	88 e0       	ldi	r24, 0x08	; 8
    3488:	0e 94 c6 06 	call	0xd8c	; 0xd8c <LCD_12864_Draw_pixel>
		LCD_12864_Draw_pixel(8, 56);
    348c:	68 e3       	ldi	r22, 0x38	; 56
    348e:	88 e0       	ldi	r24, 0x08	; 8
    3490:	0e 94 c6 06 	call	0xd8c	; 0xd8c <LCD_12864_Draw_pixel>
		LCD_12864_Draw_pixel(9, 57);
    3494:	69 e3       	ldi	r22, 0x39	; 57
    3496:	89 e0       	ldi	r24, 0x09	; 9
    3498:	0e 94 c6 06 	call	0xd8c	; 0xd8c <LCD_12864_Draw_pixel>
    349c:	08 95       	ret

0000349e <Convert_to_string_Clock>:
	
	Convert_to_string_Clock();
}
void Convert_to_string_Clock(void)
{
	if ((sec >= 0) && (sec <= 9)) {
    349e:	80 91 08 08 	lds	r24, 0x0808	; 0x800808 <sec>
    34a2:	8a 30       	cpi	r24, 0x0A	; 10
    34a4:	98 f4       	brcc	.+38     	; 0x34cc <Convert_to_string_Clock+0x2e>
		sprintf(seconds,"0%d",sec);
    34a6:	1f 92       	push	r1
    34a8:	8f 93       	push	r24
    34aa:	8c e9       	ldi	r24, 0x9C	; 156
    34ac:	92 e0       	ldi	r25, 0x02	; 2
    34ae:	9f 93       	push	r25
    34b0:	8f 93       	push	r24
    34b2:	8a ef       	ldi	r24, 0xFA	; 250
    34b4:	97 e0       	ldi	r25, 0x07	; 7
    34b6:	9f 93       	push	r25
    34b8:	8f 93       	push	r24
    34ba:	0e 94 fe 2a 	call	0x55fc	; 0x55fc <sprintf>
    34be:	0f 90       	pop	r0
    34c0:	0f 90       	pop	r0
    34c2:	0f 90       	pop	r0
    34c4:	0f 90       	pop	r0
    34c6:	0f 90       	pop	r0
    34c8:	0f 90       	pop	r0
    34ca:	12 c0       	rjmp	.+36     	; 0x34f0 <Convert_to_string_Clock+0x52>
	}
	else {
		sprintf(seconds,"%d",sec);
    34cc:	1f 92       	push	r1
    34ce:	8f 93       	push	r24
    34d0:	8d e9       	ldi	r24, 0x9D	; 157
    34d2:	92 e0       	ldi	r25, 0x02	; 2
    34d4:	9f 93       	push	r25
    34d6:	8f 93       	push	r24
    34d8:	8a ef       	ldi	r24, 0xFA	; 250
    34da:	97 e0       	ldi	r25, 0x07	; 7
    34dc:	9f 93       	push	r25
    34de:	8f 93       	push	r24
    34e0:	0e 94 fe 2a 	call	0x55fc	; 0x55fc <sprintf>
    34e4:	0f 90       	pop	r0
    34e6:	0f 90       	pop	r0
    34e8:	0f 90       	pop	r0
    34ea:	0f 90       	pop	r0
    34ec:	0f 90       	pop	r0
    34ee:	0f 90       	pop	r0
	}
	if ((min >= 0) && (min <= 9)) {
    34f0:	80 91 fe 07 	lds	r24, 0x07FE	; 0x8007fe <min>
    34f4:	8a 30       	cpi	r24, 0x0A	; 10
    34f6:	98 f4       	brcc	.+38     	; 0x351e <Convert_to_string_Clock+0x80>
		sprintf(minutes,"0%d",min);
    34f8:	1f 92       	push	r1
    34fa:	8f 93       	push	r24
    34fc:	8c e9       	ldi	r24, 0x9C	; 156
    34fe:	92 e0       	ldi	r25, 0x02	; 2
    3500:	9f 93       	push	r25
    3502:	8f 93       	push	r24
    3504:	8d e0       	ldi	r24, 0x0D	; 13
    3506:	98 e0       	ldi	r25, 0x08	; 8
    3508:	9f 93       	push	r25
    350a:	8f 93       	push	r24
    350c:	0e 94 fe 2a 	call	0x55fc	; 0x55fc <sprintf>
    3510:	0f 90       	pop	r0
    3512:	0f 90       	pop	r0
    3514:	0f 90       	pop	r0
    3516:	0f 90       	pop	r0
    3518:	0f 90       	pop	r0
    351a:	0f 90       	pop	r0
    351c:	12 c0       	rjmp	.+36     	; 0x3542 <Convert_to_string_Clock+0xa4>
	}
	else {
		sprintf(minutes,"%d",min);
    351e:	1f 92       	push	r1
    3520:	8f 93       	push	r24
    3522:	8d e9       	ldi	r24, 0x9D	; 157
    3524:	92 e0       	ldi	r25, 0x02	; 2
    3526:	9f 93       	push	r25
    3528:	8f 93       	push	r24
    352a:	8d e0       	ldi	r24, 0x0D	; 13
    352c:	98 e0       	ldi	r25, 0x08	; 8
    352e:	9f 93       	push	r25
    3530:	8f 93       	push	r24
    3532:	0e 94 fe 2a 	call	0x55fc	; 0x55fc <sprintf>
    3536:	0f 90       	pop	r0
    3538:	0f 90       	pop	r0
    353a:	0f 90       	pop	r0
    353c:	0f 90       	pop	r0
    353e:	0f 90       	pop	r0
    3540:	0f 90       	pop	r0
	}
	if ((hour >= 0) && (hour <= 9)) {
    3542:	80 91 f2 07 	lds	r24, 0x07F2	; 0x8007f2 <hour>
    3546:	8a 30       	cpi	r24, 0x0A	; 10
    3548:	98 f4       	brcc	.+38     	; 0x3570 <Convert_to_string_Clock+0xd2>
		sprintf(hours,"0%d",hour);
    354a:	1f 92       	push	r1
    354c:	8f 93       	push	r24
    354e:	8c e9       	ldi	r24, 0x9C	; 156
    3550:	92 e0       	ldi	r25, 0x02	; 2
    3552:	9f 93       	push	r25
    3554:	8f 93       	push	r24
    3556:	81 e1       	ldi	r24, 0x11	; 17
    3558:	98 e0       	ldi	r25, 0x08	; 8
    355a:	9f 93       	push	r25
    355c:	8f 93       	push	r24
    355e:	0e 94 fe 2a 	call	0x55fc	; 0x55fc <sprintf>
    3562:	0f 90       	pop	r0
    3564:	0f 90       	pop	r0
    3566:	0f 90       	pop	r0
    3568:	0f 90       	pop	r0
    356a:	0f 90       	pop	r0
    356c:	0f 90       	pop	r0
    356e:	12 c0       	rjmp	.+36     	; 0x3594 <Convert_to_string_Clock+0xf6>
	}
	else {
		sprintf(hours,"%d",hour);
    3570:	1f 92       	push	r1
    3572:	8f 93       	push	r24
    3574:	8d e9       	ldi	r24, 0x9D	; 157
    3576:	92 e0       	ldi	r25, 0x02	; 2
    3578:	9f 93       	push	r25
    357a:	8f 93       	push	r24
    357c:	81 e1       	ldi	r24, 0x11	; 17
    357e:	98 e0       	ldi	r25, 0x08	; 8
    3580:	9f 93       	push	r25
    3582:	8f 93       	push	r24
    3584:	0e 94 fe 2a 	call	0x55fc	; 0x55fc <sprintf>
    3588:	0f 90       	pop	r0
    358a:	0f 90       	pop	r0
    358c:	0f 90       	pop	r0
    358e:	0f 90       	pop	r0
    3590:	0f 90       	pop	r0
    3592:	0f 90       	pop	r0
	}
	if ((date >= 0) && (date <= 9)) {
    3594:	80 91 0b 08 	lds	r24, 0x080B	; 0x80080b <date>
    3598:	8a 30       	cpi	r24, 0x0A	; 10
    359a:	98 f4       	brcc	.+38     	; 0x35c2 <Convert_to_string_Clock+0x124>
		sprintf(mounthday,"0%d",date);
    359c:	1f 92       	push	r1
    359e:	8f 93       	push	r24
    35a0:	8c e9       	ldi	r24, 0x9C	; 156
    35a2:	92 e0       	ldi	r25, 0x02	; 2
    35a4:	9f 93       	push	r25
    35a6:	8f 93       	push	r24
    35a8:	83 e0       	ldi	r24, 0x03	; 3
    35aa:	98 e0       	ldi	r25, 0x08	; 8
    35ac:	9f 93       	push	r25
    35ae:	8f 93       	push	r24
    35b0:	0e 94 fe 2a 	call	0x55fc	; 0x55fc <sprintf>
    35b4:	0f 90       	pop	r0
    35b6:	0f 90       	pop	r0
    35b8:	0f 90       	pop	r0
    35ba:	0f 90       	pop	r0
    35bc:	0f 90       	pop	r0
    35be:	0f 90       	pop	r0
    35c0:	12 c0       	rjmp	.+36     	; 0x35e6 <Convert_to_string_Clock+0x148>
	}
	else {
		sprintf(mounthday,"%d",date);
    35c2:	1f 92       	push	r1
    35c4:	8f 93       	push	r24
    35c6:	8d e9       	ldi	r24, 0x9D	; 157
    35c8:	92 e0       	ldi	r25, 0x02	; 2
    35ca:	9f 93       	push	r25
    35cc:	8f 93       	push	r24
    35ce:	83 e0       	ldi	r24, 0x03	; 3
    35d0:	98 e0       	ldi	r25, 0x08	; 8
    35d2:	9f 93       	push	r25
    35d4:	8f 93       	push	r24
    35d6:	0e 94 fe 2a 	call	0x55fc	; 0x55fc <sprintf>
    35da:	0f 90       	pop	r0
    35dc:	0f 90       	pop	r0
    35de:	0f 90       	pop	r0
    35e0:	0f 90       	pop	r0
    35e2:	0f 90       	pop	r0
    35e4:	0f 90       	pop	r0
	}
	if ((year >= 0) && (year <= 9)) {
    35e6:	80 91 07 08 	lds	r24, 0x0807	; 0x800807 <year>
    35ea:	8a 30       	cpi	r24, 0x0A	; 10
    35ec:	98 f4       	brcc	.+38     	; 0x3614 <Convert_to_string_Clock+0x176>
		sprintf(Year,"0%d",year);
    35ee:	1f 92       	push	r1
    35f0:	8f 93       	push	r24
    35f2:	8c e9       	ldi	r24, 0x9C	; 156
    35f4:	92 e0       	ldi	r25, 0x02	; 2
    35f6:	9f 93       	push	r25
    35f8:	8f 93       	push	r24
    35fa:	8f ef       	ldi	r24, 0xFF	; 255
    35fc:	97 e0       	ldi	r25, 0x07	; 7
    35fe:	9f 93       	push	r25
    3600:	8f 93       	push	r24
    3602:	0e 94 fe 2a 	call	0x55fc	; 0x55fc <sprintf>
    3606:	0f 90       	pop	r0
    3608:	0f 90       	pop	r0
    360a:	0f 90       	pop	r0
    360c:	0f 90       	pop	r0
    360e:	0f 90       	pop	r0
    3610:	0f 90       	pop	r0
    3612:	12 c0       	rjmp	.+36     	; 0x3638 <Convert_to_string_Clock+0x19a>
	}
	else {
		sprintf(Year,"%d",year);
    3614:	1f 92       	push	r1
    3616:	8f 93       	push	r24
    3618:	8d e9       	ldi	r24, 0x9D	; 157
    361a:	92 e0       	ldi	r25, 0x02	; 2
    361c:	9f 93       	push	r25
    361e:	8f 93       	push	r24
    3620:	8f ef       	ldi	r24, 0xFF	; 255
    3622:	97 e0       	ldi	r25, 0x07	; 7
    3624:	9f 93       	push	r25
    3626:	8f 93       	push	r24
    3628:	0e 94 fe 2a 	call	0x55fc	; 0x55fc <sprintf>
    362c:	0f 90       	pop	r0
    362e:	0f 90       	pop	r0
    3630:	0f 90       	pop	r0
    3632:	0f 90       	pop	r0
    3634:	0f 90       	pop	r0
    3636:	0f 90       	pop	r0
	}
	switch (day)
    3638:	e0 91 09 08 	lds	r30, 0x0809	; 0x800809 <day>
    363c:	8e 2f       	mov	r24, r30
    363e:	90 e0       	ldi	r25, 0x00	; 0
    3640:	fc 01       	movw	r30, r24
    3642:	31 97       	sbiw	r30, 0x01	; 1
    3644:	e7 30       	cpi	r30, 0x07	; 7
    3646:	f1 05       	cpc	r31, r1
    3648:	d8 f5       	brcc	.+118    	; 0x36c0 <Convert_to_string_Clock+0x222>
    364a:	e5 5c       	subi	r30, 0xC5	; 197
    364c:	ff 4f       	sbci	r31, 0xFF	; 255
    364e:	0c 94 5a 29 	jmp	0x52b4	; 0x52b4 <__tablejump2__>
	{
		case 1:
		sprintf(weakday,"Пн");
    3652:	ea ee       	ldi	r30, 0xEA	; 234
    3654:	f7 e0       	ldi	r31, 0x07	; 7
    3656:	8f ec       	ldi	r24, 0xCF	; 207
    3658:	9d ee       	ldi	r25, 0xED	; 237
    365a:	91 83       	std	Z+1, r25	; 0x01
    365c:	80 83       	st	Z, r24
    365e:	12 82       	std	Z+2, r1	; 0x02
		break;
    3660:	2f c0       	rjmp	.+94     	; 0x36c0 <Convert_to_string_Clock+0x222>
		case 2:
		sprintf(weakday,"Вт");
    3662:	ea ee       	ldi	r30, 0xEA	; 234
    3664:	f7 e0       	ldi	r31, 0x07	; 7
    3666:	82 ec       	ldi	r24, 0xC2	; 194
    3668:	92 ef       	ldi	r25, 0xF2	; 242
    366a:	91 83       	std	Z+1, r25	; 0x01
    366c:	80 83       	st	Z, r24
    366e:	12 82       	std	Z+2, r1	; 0x02
		break;
    3670:	27 c0       	rjmp	.+78     	; 0x36c0 <Convert_to_string_Clock+0x222>
		case 3:
		sprintf(weakday,"Ср");
    3672:	ea ee       	ldi	r30, 0xEA	; 234
    3674:	f7 e0       	ldi	r31, 0x07	; 7
    3676:	81 ed       	ldi	r24, 0xD1	; 209
    3678:	90 ef       	ldi	r25, 0xF0	; 240
    367a:	91 83       	std	Z+1, r25	; 0x01
    367c:	80 83       	st	Z, r24
    367e:	12 82       	std	Z+2, r1	; 0x02
		break;
    3680:	1f c0       	rjmp	.+62     	; 0x36c0 <Convert_to_string_Clock+0x222>
		case 4:
		sprintf(weakday,"Чт");
    3682:	ea ee       	ldi	r30, 0xEA	; 234
    3684:	f7 e0       	ldi	r31, 0x07	; 7
    3686:	87 ed       	ldi	r24, 0xD7	; 215
    3688:	92 ef       	ldi	r25, 0xF2	; 242
    368a:	91 83       	std	Z+1, r25	; 0x01
    368c:	80 83       	st	Z, r24
    368e:	12 82       	std	Z+2, r1	; 0x02
		break;
    3690:	17 c0       	rjmp	.+46     	; 0x36c0 <Convert_to_string_Clock+0x222>
		case 5:
		sprintf(weakday,"Пт");
    3692:	ea ee       	ldi	r30, 0xEA	; 234
    3694:	f7 e0       	ldi	r31, 0x07	; 7
    3696:	8f ec       	ldi	r24, 0xCF	; 207
    3698:	92 ef       	ldi	r25, 0xF2	; 242
    369a:	91 83       	std	Z+1, r25	; 0x01
    369c:	80 83       	st	Z, r24
    369e:	12 82       	std	Z+2, r1	; 0x02
		break;
    36a0:	0f c0       	rjmp	.+30     	; 0x36c0 <Convert_to_string_Clock+0x222>
		case 6:
		sprintf(weakday,"Сб");
    36a2:	ea ee       	ldi	r30, 0xEA	; 234
    36a4:	f7 e0       	ldi	r31, 0x07	; 7
    36a6:	81 ed       	ldi	r24, 0xD1	; 209
    36a8:	91 ee       	ldi	r25, 0xE1	; 225
    36aa:	91 83       	std	Z+1, r25	; 0x01
    36ac:	80 83       	st	Z, r24
    36ae:	12 82       	std	Z+2, r1	; 0x02
		break;
    36b0:	07 c0       	rjmp	.+14     	; 0x36c0 <Convert_to_string_Clock+0x222>
		case 7:
		sprintf(weakday,"Вс");
    36b2:	ea ee       	ldi	r30, 0xEA	; 234
    36b4:	f7 e0       	ldi	r31, 0x07	; 7
    36b6:	82 ec       	ldi	r24, 0xC2	; 194
    36b8:	91 ef       	ldi	r25, 0xF1	; 241
    36ba:	91 83       	std	Z+1, r25	; 0x01
    36bc:	80 83       	st	Z, r24
    36be:	12 82       	std	Z+2, r1	; 0x02
		break;
		default:
		break;
	}
	switch (month)
    36c0:	e0 91 ee 07 	lds	r30, 0x07EE	; 0x8007ee <month>
    36c4:	8e 2f       	mov	r24, r30
    36c6:	90 e0       	ldi	r25, 0x00	; 0
    36c8:	fc 01       	movw	r30, r24
    36ca:	31 97       	sbiw	r30, 0x01	; 1
    36cc:	ec 30       	cpi	r30, 0x0C	; 12
    36ce:	f1 05       	cpc	r31, r1
    36d0:	08 f0       	brcs	.+2      	; 0x36d4 <Convert_to_string_Clock+0x236>
    36d2:	87 c0       	rjmp	.+270    	; 0x37e2 <Convert_to_string_Clock+0x344>
    36d4:	ee 5b       	subi	r30, 0xBE	; 190
    36d6:	ff 4f       	sbci	r31, 0xFF	; 255
    36d8:	0c 94 5a 29 	jmp	0x52b4	; 0x52b4 <__tablejump2__>
	{
		case 1:
		sprintf(Mounth,"Янв");
    36dc:	e3 ef       	ldi	r30, 0xF3	; 243
    36de:	f7 e0       	ldi	r31, 0x07	; 7
    36e0:	8f ed       	ldi	r24, 0xDF	; 223
    36e2:	9d ee       	ldi	r25, 0xED	; 237
    36e4:	91 83       	std	Z+1, r25	; 0x01
    36e6:	80 83       	st	Z, r24
    36e8:	82 ee       	ldi	r24, 0xE2	; 226
    36ea:	90 e0       	ldi	r25, 0x00	; 0
    36ec:	93 83       	std	Z+3, r25	; 0x03
    36ee:	82 83       	std	Z+2, r24	; 0x02
		break;
    36f0:	08 95       	ret
		case 2:
		sprintf(Mounth,"Фев");
    36f2:	e3 ef       	ldi	r30, 0xF3	; 243
    36f4:	f7 e0       	ldi	r31, 0x07	; 7
    36f6:	84 ed       	ldi	r24, 0xD4	; 212
    36f8:	95 ee       	ldi	r25, 0xE5	; 229
    36fa:	91 83       	std	Z+1, r25	; 0x01
    36fc:	80 83       	st	Z, r24
    36fe:	82 ee       	ldi	r24, 0xE2	; 226
    3700:	90 e0       	ldi	r25, 0x00	; 0
    3702:	93 83       	std	Z+3, r25	; 0x03
    3704:	82 83       	std	Z+2, r24	; 0x02
		break;
    3706:	08 95       	ret
		case 3:
		sprintf(Mounth,"Мар");
    3708:	e3 ef       	ldi	r30, 0xF3	; 243
    370a:	f7 e0       	ldi	r31, 0x07	; 7
    370c:	8c ec       	ldi	r24, 0xCC	; 204
    370e:	90 ee       	ldi	r25, 0xE0	; 224
    3710:	91 83       	std	Z+1, r25	; 0x01
    3712:	80 83       	st	Z, r24
    3714:	80 ef       	ldi	r24, 0xF0	; 240
    3716:	90 e0       	ldi	r25, 0x00	; 0
    3718:	93 83       	std	Z+3, r25	; 0x03
    371a:	82 83       	std	Z+2, r24	; 0x02
		break;
    371c:	08 95       	ret
		case 4:
		sprintf(Mounth,"Апр");
    371e:	e3 ef       	ldi	r30, 0xF3	; 243
    3720:	f7 e0       	ldi	r31, 0x07	; 7
    3722:	80 ec       	ldi	r24, 0xC0	; 192
    3724:	9f ee       	ldi	r25, 0xEF	; 239
    3726:	91 83       	std	Z+1, r25	; 0x01
    3728:	80 83       	st	Z, r24
    372a:	80 ef       	ldi	r24, 0xF0	; 240
    372c:	90 e0       	ldi	r25, 0x00	; 0
    372e:	93 83       	std	Z+3, r25	; 0x03
    3730:	82 83       	std	Z+2, r24	; 0x02
		break;
    3732:	08 95       	ret
		case 5:
		sprintf(Mounth,"Май");
    3734:	e3 ef       	ldi	r30, 0xF3	; 243
    3736:	f7 e0       	ldi	r31, 0x07	; 7
    3738:	8c ec       	ldi	r24, 0xCC	; 204
    373a:	90 ee       	ldi	r25, 0xE0	; 224
    373c:	91 83       	std	Z+1, r25	; 0x01
    373e:	80 83       	st	Z, r24
    3740:	89 ee       	ldi	r24, 0xE9	; 233
    3742:	90 e0       	ldi	r25, 0x00	; 0
    3744:	93 83       	std	Z+3, r25	; 0x03
    3746:	82 83       	std	Z+2, r24	; 0x02
		break;
    3748:	08 95       	ret
		case 6:
		sprintf(Mounth,"Июн");
    374a:	e3 ef       	ldi	r30, 0xF3	; 243
    374c:	f7 e0       	ldi	r31, 0x07	; 7
    374e:	88 ec       	ldi	r24, 0xC8	; 200
    3750:	9e ef       	ldi	r25, 0xFE	; 254
    3752:	91 83       	std	Z+1, r25	; 0x01
    3754:	80 83       	st	Z, r24
    3756:	8d ee       	ldi	r24, 0xED	; 237
    3758:	90 e0       	ldi	r25, 0x00	; 0
    375a:	93 83       	std	Z+3, r25	; 0x03
    375c:	82 83       	std	Z+2, r24	; 0x02
		break;
    375e:	08 95       	ret
		case 7:
		sprintf(Mounth,"Июл");
    3760:	e3 ef       	ldi	r30, 0xF3	; 243
    3762:	f7 e0       	ldi	r31, 0x07	; 7
    3764:	88 ec       	ldi	r24, 0xC8	; 200
    3766:	9e ef       	ldi	r25, 0xFE	; 254
    3768:	91 83       	std	Z+1, r25	; 0x01
    376a:	80 83       	st	Z, r24
    376c:	8b ee       	ldi	r24, 0xEB	; 235
    376e:	90 e0       	ldi	r25, 0x00	; 0
    3770:	93 83       	std	Z+3, r25	; 0x03
    3772:	82 83       	std	Z+2, r24	; 0x02
		break;
    3774:	08 95       	ret
		case 8:
		sprintf(Mounth,"Авг");
    3776:	e3 ef       	ldi	r30, 0xF3	; 243
    3778:	f7 e0       	ldi	r31, 0x07	; 7
    377a:	80 ec       	ldi	r24, 0xC0	; 192
    377c:	92 ee       	ldi	r25, 0xE2	; 226
    377e:	91 83       	std	Z+1, r25	; 0x01
    3780:	80 83       	st	Z, r24
    3782:	83 ee       	ldi	r24, 0xE3	; 227
    3784:	90 e0       	ldi	r25, 0x00	; 0
    3786:	93 83       	std	Z+3, r25	; 0x03
    3788:	82 83       	std	Z+2, r24	; 0x02
		break;
    378a:	08 95       	ret
		case 9:
		sprintf(Mounth,"Сен");
    378c:	e3 ef       	ldi	r30, 0xF3	; 243
    378e:	f7 e0       	ldi	r31, 0x07	; 7
    3790:	81 ed       	ldi	r24, 0xD1	; 209
    3792:	95 ee       	ldi	r25, 0xE5	; 229
    3794:	91 83       	std	Z+1, r25	; 0x01
    3796:	80 83       	st	Z, r24
    3798:	8d ee       	ldi	r24, 0xED	; 237
    379a:	90 e0       	ldi	r25, 0x00	; 0
    379c:	93 83       	std	Z+3, r25	; 0x03
    379e:	82 83       	std	Z+2, r24	; 0x02
		break;
    37a0:	08 95       	ret
		case 10:
		sprintf(Mounth,"Окт");
    37a2:	e3 ef       	ldi	r30, 0xF3	; 243
    37a4:	f7 e0       	ldi	r31, 0x07	; 7
    37a6:	8e ec       	ldi	r24, 0xCE	; 206
    37a8:	9a ee       	ldi	r25, 0xEA	; 234
    37aa:	91 83       	std	Z+1, r25	; 0x01
    37ac:	80 83       	st	Z, r24
    37ae:	82 ef       	ldi	r24, 0xF2	; 242
    37b0:	90 e0       	ldi	r25, 0x00	; 0
    37b2:	93 83       	std	Z+3, r25	; 0x03
    37b4:	82 83       	std	Z+2, r24	; 0x02
		break;
    37b6:	08 95       	ret
		case 11:
		sprintf(Mounth,"Ноя");
    37b8:	e3 ef       	ldi	r30, 0xF3	; 243
    37ba:	f7 e0       	ldi	r31, 0x07	; 7
    37bc:	8d ec       	ldi	r24, 0xCD	; 205
    37be:	9e ee       	ldi	r25, 0xEE	; 238
    37c0:	91 83       	std	Z+1, r25	; 0x01
    37c2:	80 83       	st	Z, r24
    37c4:	8f ef       	ldi	r24, 0xFF	; 255
    37c6:	90 e0       	ldi	r25, 0x00	; 0
    37c8:	93 83       	std	Z+3, r25	; 0x03
    37ca:	82 83       	std	Z+2, r24	; 0x02
		break;
    37cc:	08 95       	ret
		case 12:
		sprintf(Mounth,"Дек");
    37ce:	e3 ef       	ldi	r30, 0xF3	; 243
    37d0:	f7 e0       	ldi	r31, 0x07	; 7
    37d2:	84 ec       	ldi	r24, 0xC4	; 196
    37d4:	95 ee       	ldi	r25, 0xE5	; 229
    37d6:	91 83       	std	Z+1, r25	; 0x01
    37d8:	80 83       	st	Z, r24
    37da:	8a ee       	ldi	r24, 0xEA	; 234
    37dc:	90 e0       	ldi	r25, 0x00	; 0
    37de:	93 83       	std	Z+3, r25	; 0x03
    37e0:	82 83       	std	Z+2, r24	; 0x02
    37e2:	08 95       	ret

000037e4 <Print_Page_Clock_Settings>:
	LCD_12864_Draw_bitmap(Frame_buffer);
	LCD_12864_GrapnicMode(0);
}
//Окно настроек времени
void Print_Page_Clock_Settings(uint8_t *Frame_buffer)
{
    37e4:	cf 93       	push	r28
    37e6:	df 93       	push	r29
    37e8:	ec 01       	movw	r28, r24
	Convert_to_string_Clock();
    37ea:	0e 94 4f 1a 	call	0x349e	; 0x349e <Convert_to_string_Clock>
	LCD_12864_GrapnicMode(1);
    37ee:	81 e0       	ldi	r24, 0x01	; 1
    37f0:	0e 94 c9 07 	call	0xf92	; 0xf92 <LCD_12864_GrapnicMode>
	LCD_12864_Clean_Frame_buffer();
    37f4:	0e 94 0d 0c 	call	0x181a	; 0x181a <LCD_12864_Clean_Frame_buffer>
	
	LCD_12864_Decode_UTF8(15, 0, 1, "НАСТРОЙКА ВРЕМЕНИ");
    37f8:	20 ea       	ldi	r18, 0xA0	; 160
    37fa:	32 e0       	ldi	r19, 0x02	; 2
    37fc:	41 e0       	ldi	r20, 0x01	; 1
    37fe:	60 e0       	ldi	r22, 0x00	; 0
    3800:	8f e0       	ldi	r24, 0x0F	; 15
    3802:	90 e0       	ldi	r25, 0x00	; 0
    3804:	0e 94 6b 0b 	call	0x16d6	; 0x16d6 <LCD_12864_Decode_UTF8>
	switch (cnt%7)
    3808:	90 91 fa 02 	lds	r25, 0x02FA	; 0x8002fa <cnt>
    380c:	83 e9       	ldi	r24, 0x93	; 147
    380e:	98 02       	muls	r25, r24
    3810:	81 2d       	mov	r24, r1
    3812:	11 24       	eor	r1, r1
    3814:	89 0f       	add	r24, r25
    3816:	85 95       	asr	r24
    3818:	85 95       	asr	r24
    381a:	e8 2f       	mov	r30, r24
    381c:	97 fd       	sbrc	r25, 7
    381e:	e3 95       	inc	r30
    3820:	8e 2f       	mov	r24, r30
    3822:	88 0f       	add	r24, r24
    3824:	88 0f       	add	r24, r24
    3826:	88 0f       	add	r24, r24
    3828:	8e 1b       	sub	r24, r30
    382a:	e9 2f       	mov	r30, r25
    382c:	e8 1b       	sub	r30, r24
    382e:	8e 2f       	mov	r24, r30
    3830:	ee 0f       	add	r30, r30
    3832:	99 0b       	sbc	r25, r25
    3834:	aa 0b       	sbc	r26, r26
    3836:	bb 0b       	sbc	r27, r27
    3838:	87 30       	cpi	r24, 0x07	; 7
    383a:	91 05       	cpc	r25, r1
    383c:	08 f0       	brcs	.+2      	; 0x3840 <Print_Page_Clock_Settings+0x5c>
    383e:	c3 c1       	rjmp	.+902    	; 0x3bc6 <Print_Page_Clock_Settings+0x3e2>
    3840:	fc 01       	movw	r30, r24
    3842:	e2 5b       	subi	r30, 0xB2	; 178
    3844:	ff 4f       	sbci	r31, 0xFF	; 255
    3846:	0c 94 5a 29 	jmp	0x52b4	; 0x52b4 <__tablejump2__>
	{
		case 0:	if(change_flag)
    384a:	80 91 fc 02 	lds	r24, 0x02FC	; 0x8002fc <change_flag>
    384e:	88 23       	and	r24, r24
    3850:	21 f0       	breq	.+8      	; 0x385a <Print_Page_Clock_Settings+0x76>
				{
					hour = add_cnt;
    3852:	80 91 fb 02 	lds	r24, 0x02FB	; 0x8002fb <add_cnt>
    3856:	80 93 f2 07 	sts	0x07F2, r24	; 0x8007f2 <hour>
				}
				LCD_12864_Print_11_16(32, 2, 1, hours);
    385a:	21 e1       	ldi	r18, 0x11	; 17
    385c:	38 e0       	ldi	r19, 0x08	; 8
    385e:	41 e0       	ldi	r20, 0x01	; 1
    3860:	62 e0       	ldi	r22, 0x02	; 2
    3862:	80 e2       	ldi	r24, 0x20	; 32
    3864:	90 e0       	ldi	r25, 0x00	; 0
    3866:	0e 94 30 0b 	call	0x1660	; 0x1660 <LCD_12864_Print_11_16>
				LCD_12864_Print_11_16(62, 2, 0, minutes);
    386a:	2d e0       	ldi	r18, 0x0D	; 13
    386c:	38 e0       	ldi	r19, 0x08	; 8
    386e:	40 e0       	ldi	r20, 0x00	; 0
    3870:	62 e0       	ldi	r22, 0x02	; 2
    3872:	8e e3       	ldi	r24, 0x3E	; 62
    3874:	90 e0       	ldi	r25, 0x00	; 0
    3876:	0e 94 30 0b 	call	0x1660	; 0x1660 <LCD_12864_Print_11_16>
				LCD_12864_Decode_UTF8(28, 5, 0, weakday);
    387a:	2a ee       	ldi	r18, 0xEA	; 234
    387c:	37 e0       	ldi	r19, 0x07	; 7
    387e:	40 e0       	ldi	r20, 0x00	; 0
    3880:	65 e0       	ldi	r22, 0x05	; 5
    3882:	8c e1       	ldi	r24, 0x1C	; 28
    3884:	90 e0       	ldi	r25, 0x00	; 0
    3886:	0e 94 6b 0b 	call	0x16d6	; 0x16d6 <LCD_12864_Decode_UTF8>
				LCD_12864_Decode_UTF8(49, 5, 0, mounthday);
    388a:	23 e0       	ldi	r18, 0x03	; 3
    388c:	38 e0       	ldi	r19, 0x08	; 8
    388e:	40 e0       	ldi	r20, 0x00	; 0
    3890:	65 e0       	ldi	r22, 0x05	; 5
    3892:	81 e3       	ldi	r24, 0x31	; 49
    3894:	90 e0       	ldi	r25, 0x00	; 0
    3896:	0e 94 6b 0b 	call	0x16d6	; 0x16d6 <LCD_12864_Decode_UTF8>
				LCD_12864_Decode_UTF8(70, 5, 0, Mounth);
    389a:	23 ef       	ldi	r18, 0xF3	; 243
    389c:	37 e0       	ldi	r19, 0x07	; 7
    389e:	40 e0       	ldi	r20, 0x00	; 0
    38a0:	65 e0       	ldi	r22, 0x05	; 5
    38a2:	86 e4       	ldi	r24, 0x46	; 70
    38a4:	90 e0       	ldi	r25, 0x00	; 0
    38a6:	0e 94 6b 0b 	call	0x16d6	; 0x16d6 <LCD_12864_Decode_UTF8>
				LCD_12864_Decode_UTF8(95, 5, 0, Year);
    38aa:	2f ef       	ldi	r18, 0xFF	; 255
    38ac:	37 e0       	ldi	r19, 0x07	; 7
    38ae:	40 e0       	ldi	r20, 0x00	; 0
    38b0:	65 e0       	ldi	r22, 0x05	; 5
    38b2:	8f e5       	ldi	r24, 0x5F	; 95
    38b4:	90 e0       	ldi	r25, 0x00	; 0
    38b6:	0e 94 6b 0b 	call	0x16d6	; 0x16d6 <LCD_12864_Decode_UTF8>
				LCD_12864_Decode_UTF8(25, 7, 0, "Назад в МЕНЮ");
    38ba:	20 e4       	ldi	r18, 0x40	; 64
    38bc:	32 e0       	ldi	r19, 0x02	; 2
    38be:	40 e0       	ldi	r20, 0x00	; 0
    38c0:	67 e0       	ldi	r22, 0x07	; 7
    38c2:	89 e1       	ldi	r24, 0x19	; 25
    38c4:	90 e0       	ldi	r25, 0x00	; 0
    38c6:	0e 94 6b 0b 	call	0x16d6	; 0x16d6 <LCD_12864_Decode_UTF8>
				break;	
    38ca:	7d c1       	rjmp	.+762    	; 0x3bc6 <Print_Page_Clock_Settings+0x3e2>
		case 1: if(change_flag)
    38cc:	80 91 fc 02 	lds	r24, 0x02FC	; 0x8002fc <change_flag>
    38d0:	88 23       	and	r24, r24
    38d2:	21 f0       	breq	.+8      	; 0x38dc <Print_Page_Clock_Settings+0xf8>
				{
					min = add_cnt;
    38d4:	80 91 fb 02 	lds	r24, 0x02FB	; 0x8002fb <add_cnt>
    38d8:	80 93 fe 07 	sts	0x07FE, r24	; 0x8007fe <min>
				}
				LCD_12864_Print_11_16(32, 2, 0, hours);
    38dc:	21 e1       	ldi	r18, 0x11	; 17
    38de:	38 e0       	ldi	r19, 0x08	; 8
    38e0:	40 e0       	ldi	r20, 0x00	; 0
    38e2:	62 e0       	ldi	r22, 0x02	; 2
    38e4:	80 e2       	ldi	r24, 0x20	; 32
    38e6:	90 e0       	ldi	r25, 0x00	; 0
    38e8:	0e 94 30 0b 	call	0x1660	; 0x1660 <LCD_12864_Print_11_16>
				LCD_12864_Print_11_16(62, 2, 1, minutes);
    38ec:	2d e0       	ldi	r18, 0x0D	; 13
    38ee:	38 e0       	ldi	r19, 0x08	; 8
    38f0:	41 e0       	ldi	r20, 0x01	; 1
    38f2:	62 e0       	ldi	r22, 0x02	; 2
    38f4:	8e e3       	ldi	r24, 0x3E	; 62
    38f6:	90 e0       	ldi	r25, 0x00	; 0
    38f8:	0e 94 30 0b 	call	0x1660	; 0x1660 <LCD_12864_Print_11_16>
				LCD_12864_Decode_UTF8(28, 5, 0, weakday);
    38fc:	2a ee       	ldi	r18, 0xEA	; 234
    38fe:	37 e0       	ldi	r19, 0x07	; 7
    3900:	40 e0       	ldi	r20, 0x00	; 0
    3902:	65 e0       	ldi	r22, 0x05	; 5
    3904:	8c e1       	ldi	r24, 0x1C	; 28
    3906:	90 e0       	ldi	r25, 0x00	; 0
    3908:	0e 94 6b 0b 	call	0x16d6	; 0x16d6 <LCD_12864_Decode_UTF8>
				LCD_12864_Decode_UTF8(49, 5, 0, mounthday);
    390c:	23 e0       	ldi	r18, 0x03	; 3
    390e:	38 e0       	ldi	r19, 0x08	; 8
    3910:	40 e0       	ldi	r20, 0x00	; 0
    3912:	65 e0       	ldi	r22, 0x05	; 5
    3914:	81 e3       	ldi	r24, 0x31	; 49
    3916:	90 e0       	ldi	r25, 0x00	; 0
    3918:	0e 94 6b 0b 	call	0x16d6	; 0x16d6 <LCD_12864_Decode_UTF8>
				LCD_12864_Decode_UTF8(70, 5, 0, Mounth);
    391c:	23 ef       	ldi	r18, 0xF3	; 243
    391e:	37 e0       	ldi	r19, 0x07	; 7
    3920:	40 e0       	ldi	r20, 0x00	; 0
    3922:	65 e0       	ldi	r22, 0x05	; 5
    3924:	86 e4       	ldi	r24, 0x46	; 70
    3926:	90 e0       	ldi	r25, 0x00	; 0
    3928:	0e 94 6b 0b 	call	0x16d6	; 0x16d6 <LCD_12864_Decode_UTF8>
				LCD_12864_Decode_UTF8(95, 5, 0, Year);
    392c:	2f ef       	ldi	r18, 0xFF	; 255
    392e:	37 e0       	ldi	r19, 0x07	; 7
    3930:	40 e0       	ldi	r20, 0x00	; 0
    3932:	65 e0       	ldi	r22, 0x05	; 5
    3934:	8f e5       	ldi	r24, 0x5F	; 95
    3936:	90 e0       	ldi	r25, 0x00	; 0
    3938:	0e 94 6b 0b 	call	0x16d6	; 0x16d6 <LCD_12864_Decode_UTF8>
				LCD_12864_Decode_UTF8(25, 7, 0, "Назад в МЕНЮ");
    393c:	20 e4       	ldi	r18, 0x40	; 64
    393e:	32 e0       	ldi	r19, 0x02	; 2
    3940:	40 e0       	ldi	r20, 0x00	; 0
    3942:	67 e0       	ldi	r22, 0x07	; 7
    3944:	89 e1       	ldi	r24, 0x19	; 25
    3946:	90 e0       	ldi	r25, 0x00	; 0
    3948:	0e 94 6b 0b 	call	0x16d6	; 0x16d6 <LCD_12864_Decode_UTF8>
				break;
    394c:	3c c1       	rjmp	.+632    	; 0x3bc6 <Print_Page_Clock_Settings+0x3e2>
		case 2: if(change_flag)
    394e:	80 91 fc 02 	lds	r24, 0x02FC	; 0x8002fc <change_flag>
    3952:	88 23       	and	r24, r24
    3954:	21 f0       	breq	.+8      	; 0x395e <Print_Page_Clock_Settings+0x17a>
				{
					day = add_cnt;
    3956:	80 91 fb 02 	lds	r24, 0x02FB	; 0x8002fb <add_cnt>
    395a:	80 93 09 08 	sts	0x0809, r24	; 0x800809 <day>
				}
				LCD_12864_Print_11_16(32, 2, 0, hours);
    395e:	21 e1       	ldi	r18, 0x11	; 17
    3960:	38 e0       	ldi	r19, 0x08	; 8
    3962:	40 e0       	ldi	r20, 0x00	; 0
    3964:	62 e0       	ldi	r22, 0x02	; 2
    3966:	80 e2       	ldi	r24, 0x20	; 32
    3968:	90 e0       	ldi	r25, 0x00	; 0
    396a:	0e 94 30 0b 	call	0x1660	; 0x1660 <LCD_12864_Print_11_16>
				LCD_12864_Print_11_16(62, 2, 0, minutes);
    396e:	2d e0       	ldi	r18, 0x0D	; 13
    3970:	38 e0       	ldi	r19, 0x08	; 8
    3972:	40 e0       	ldi	r20, 0x00	; 0
    3974:	62 e0       	ldi	r22, 0x02	; 2
    3976:	8e e3       	ldi	r24, 0x3E	; 62
    3978:	90 e0       	ldi	r25, 0x00	; 0
    397a:	0e 94 30 0b 	call	0x1660	; 0x1660 <LCD_12864_Print_11_16>
				LCD_12864_Decode_UTF8(28, 5, 1, weakday);
    397e:	2a ee       	ldi	r18, 0xEA	; 234
    3980:	37 e0       	ldi	r19, 0x07	; 7
    3982:	41 e0       	ldi	r20, 0x01	; 1
    3984:	65 e0       	ldi	r22, 0x05	; 5
    3986:	8c e1       	ldi	r24, 0x1C	; 28
    3988:	90 e0       	ldi	r25, 0x00	; 0
    398a:	0e 94 6b 0b 	call	0x16d6	; 0x16d6 <LCD_12864_Decode_UTF8>
				LCD_12864_Decode_UTF8(49, 5, 0, mounthday);
    398e:	23 e0       	ldi	r18, 0x03	; 3
    3990:	38 e0       	ldi	r19, 0x08	; 8
    3992:	40 e0       	ldi	r20, 0x00	; 0
    3994:	65 e0       	ldi	r22, 0x05	; 5
    3996:	81 e3       	ldi	r24, 0x31	; 49
    3998:	90 e0       	ldi	r25, 0x00	; 0
    399a:	0e 94 6b 0b 	call	0x16d6	; 0x16d6 <LCD_12864_Decode_UTF8>
				LCD_12864_Decode_UTF8(70, 5, 0, Mounth);
    399e:	23 ef       	ldi	r18, 0xF3	; 243
    39a0:	37 e0       	ldi	r19, 0x07	; 7
    39a2:	40 e0       	ldi	r20, 0x00	; 0
    39a4:	65 e0       	ldi	r22, 0x05	; 5
    39a6:	86 e4       	ldi	r24, 0x46	; 70
    39a8:	90 e0       	ldi	r25, 0x00	; 0
    39aa:	0e 94 6b 0b 	call	0x16d6	; 0x16d6 <LCD_12864_Decode_UTF8>
				LCD_12864_Decode_UTF8(95, 5, 0, Year);
    39ae:	2f ef       	ldi	r18, 0xFF	; 255
    39b0:	37 e0       	ldi	r19, 0x07	; 7
    39b2:	40 e0       	ldi	r20, 0x00	; 0
    39b4:	65 e0       	ldi	r22, 0x05	; 5
    39b6:	8f e5       	ldi	r24, 0x5F	; 95
    39b8:	90 e0       	ldi	r25, 0x00	; 0
    39ba:	0e 94 6b 0b 	call	0x16d6	; 0x16d6 <LCD_12864_Decode_UTF8>
				LCD_12864_Decode_UTF8(25, 7, 0, "Назад в МЕНЮ");
    39be:	20 e4       	ldi	r18, 0x40	; 64
    39c0:	32 e0       	ldi	r19, 0x02	; 2
    39c2:	40 e0       	ldi	r20, 0x00	; 0
    39c4:	67 e0       	ldi	r22, 0x07	; 7
    39c6:	89 e1       	ldi	r24, 0x19	; 25
    39c8:	90 e0       	ldi	r25, 0x00	; 0
    39ca:	0e 94 6b 0b 	call	0x16d6	; 0x16d6 <LCD_12864_Decode_UTF8>
				break;
    39ce:	fb c0       	rjmp	.+502    	; 0x3bc6 <Print_Page_Clock_Settings+0x3e2>
		case 3: if(change_flag)
    39d0:	80 91 fc 02 	lds	r24, 0x02FC	; 0x8002fc <change_flag>
    39d4:	88 23       	and	r24, r24
    39d6:	21 f0       	breq	.+8      	; 0x39e0 <Print_Page_Clock_Settings+0x1fc>
				{
					date = add_cnt;
    39d8:	80 91 fb 02 	lds	r24, 0x02FB	; 0x8002fb <add_cnt>
    39dc:	80 93 0b 08 	sts	0x080B, r24	; 0x80080b <date>
				}
				LCD_12864_Print_11_16(32, 2, 0, hours);
    39e0:	21 e1       	ldi	r18, 0x11	; 17
    39e2:	38 e0       	ldi	r19, 0x08	; 8
    39e4:	40 e0       	ldi	r20, 0x00	; 0
    39e6:	62 e0       	ldi	r22, 0x02	; 2
    39e8:	80 e2       	ldi	r24, 0x20	; 32
    39ea:	90 e0       	ldi	r25, 0x00	; 0
    39ec:	0e 94 30 0b 	call	0x1660	; 0x1660 <LCD_12864_Print_11_16>
				LCD_12864_Print_11_16(62, 2, 0, minutes);
    39f0:	2d e0       	ldi	r18, 0x0D	; 13
    39f2:	38 e0       	ldi	r19, 0x08	; 8
    39f4:	40 e0       	ldi	r20, 0x00	; 0
    39f6:	62 e0       	ldi	r22, 0x02	; 2
    39f8:	8e e3       	ldi	r24, 0x3E	; 62
    39fa:	90 e0       	ldi	r25, 0x00	; 0
    39fc:	0e 94 30 0b 	call	0x1660	; 0x1660 <LCD_12864_Print_11_16>
				LCD_12864_Decode_UTF8(28, 5, 0, weakday);
    3a00:	2a ee       	ldi	r18, 0xEA	; 234
    3a02:	37 e0       	ldi	r19, 0x07	; 7
    3a04:	40 e0       	ldi	r20, 0x00	; 0
    3a06:	65 e0       	ldi	r22, 0x05	; 5
    3a08:	8c e1       	ldi	r24, 0x1C	; 28
    3a0a:	90 e0       	ldi	r25, 0x00	; 0
    3a0c:	0e 94 6b 0b 	call	0x16d6	; 0x16d6 <LCD_12864_Decode_UTF8>
				LCD_12864_Decode_UTF8(49, 5, 1, mounthday);
    3a10:	23 e0       	ldi	r18, 0x03	; 3
    3a12:	38 e0       	ldi	r19, 0x08	; 8
    3a14:	41 e0       	ldi	r20, 0x01	; 1
    3a16:	65 e0       	ldi	r22, 0x05	; 5
    3a18:	81 e3       	ldi	r24, 0x31	; 49
    3a1a:	90 e0       	ldi	r25, 0x00	; 0
    3a1c:	0e 94 6b 0b 	call	0x16d6	; 0x16d6 <LCD_12864_Decode_UTF8>
				LCD_12864_Decode_UTF8(70, 5, 0, Mounth);
    3a20:	23 ef       	ldi	r18, 0xF3	; 243
    3a22:	37 e0       	ldi	r19, 0x07	; 7
    3a24:	40 e0       	ldi	r20, 0x00	; 0
    3a26:	65 e0       	ldi	r22, 0x05	; 5
    3a28:	86 e4       	ldi	r24, 0x46	; 70
    3a2a:	90 e0       	ldi	r25, 0x00	; 0
    3a2c:	0e 94 6b 0b 	call	0x16d6	; 0x16d6 <LCD_12864_Decode_UTF8>
				LCD_12864_Decode_UTF8(95, 5, 0, Year);
    3a30:	2f ef       	ldi	r18, 0xFF	; 255
    3a32:	37 e0       	ldi	r19, 0x07	; 7
    3a34:	40 e0       	ldi	r20, 0x00	; 0
    3a36:	65 e0       	ldi	r22, 0x05	; 5
    3a38:	8f e5       	ldi	r24, 0x5F	; 95
    3a3a:	90 e0       	ldi	r25, 0x00	; 0
    3a3c:	0e 94 6b 0b 	call	0x16d6	; 0x16d6 <LCD_12864_Decode_UTF8>
				LCD_12864_Decode_UTF8(25, 7, 0, "Назад в МЕНЮ");
    3a40:	20 e4       	ldi	r18, 0x40	; 64
    3a42:	32 e0       	ldi	r19, 0x02	; 2
    3a44:	40 e0       	ldi	r20, 0x00	; 0
    3a46:	67 e0       	ldi	r22, 0x07	; 7
    3a48:	89 e1       	ldi	r24, 0x19	; 25
    3a4a:	90 e0       	ldi	r25, 0x00	; 0
    3a4c:	0e 94 6b 0b 	call	0x16d6	; 0x16d6 <LCD_12864_Decode_UTF8>
				break;
    3a50:	ba c0       	rjmp	.+372    	; 0x3bc6 <Print_Page_Clock_Settings+0x3e2>
		case 4: if(change_flag)
    3a52:	80 91 fc 02 	lds	r24, 0x02FC	; 0x8002fc <change_flag>
    3a56:	88 23       	and	r24, r24
    3a58:	21 f0       	breq	.+8      	; 0x3a62 <Print_Page_Clock_Settings+0x27e>
				{
					month = add_cnt;
    3a5a:	80 91 fb 02 	lds	r24, 0x02FB	; 0x8002fb <add_cnt>
    3a5e:	80 93 ee 07 	sts	0x07EE, r24	; 0x8007ee <month>
				}
				LCD_12864_Print_11_16(32, 2, 0, hours);
    3a62:	21 e1       	ldi	r18, 0x11	; 17
    3a64:	38 e0       	ldi	r19, 0x08	; 8
    3a66:	40 e0       	ldi	r20, 0x00	; 0
    3a68:	62 e0       	ldi	r22, 0x02	; 2
    3a6a:	80 e2       	ldi	r24, 0x20	; 32
    3a6c:	90 e0       	ldi	r25, 0x00	; 0
    3a6e:	0e 94 30 0b 	call	0x1660	; 0x1660 <LCD_12864_Print_11_16>
				LCD_12864_Print_11_16(62, 2, 0, minutes);
    3a72:	2d e0       	ldi	r18, 0x0D	; 13
    3a74:	38 e0       	ldi	r19, 0x08	; 8
    3a76:	40 e0       	ldi	r20, 0x00	; 0
    3a78:	62 e0       	ldi	r22, 0x02	; 2
    3a7a:	8e e3       	ldi	r24, 0x3E	; 62
    3a7c:	90 e0       	ldi	r25, 0x00	; 0
    3a7e:	0e 94 30 0b 	call	0x1660	; 0x1660 <LCD_12864_Print_11_16>
				LCD_12864_Decode_UTF8(28, 5, 0, weakday);
    3a82:	2a ee       	ldi	r18, 0xEA	; 234
    3a84:	37 e0       	ldi	r19, 0x07	; 7
    3a86:	40 e0       	ldi	r20, 0x00	; 0
    3a88:	65 e0       	ldi	r22, 0x05	; 5
    3a8a:	8c e1       	ldi	r24, 0x1C	; 28
    3a8c:	90 e0       	ldi	r25, 0x00	; 0
    3a8e:	0e 94 6b 0b 	call	0x16d6	; 0x16d6 <LCD_12864_Decode_UTF8>
				LCD_12864_Decode_UTF8(49, 5, 0, mounthday);
    3a92:	23 e0       	ldi	r18, 0x03	; 3
    3a94:	38 e0       	ldi	r19, 0x08	; 8
    3a96:	40 e0       	ldi	r20, 0x00	; 0
    3a98:	65 e0       	ldi	r22, 0x05	; 5
    3a9a:	81 e3       	ldi	r24, 0x31	; 49
    3a9c:	90 e0       	ldi	r25, 0x00	; 0
    3a9e:	0e 94 6b 0b 	call	0x16d6	; 0x16d6 <LCD_12864_Decode_UTF8>
				LCD_12864_Decode_UTF8(70, 5, 1, Mounth);
    3aa2:	23 ef       	ldi	r18, 0xF3	; 243
    3aa4:	37 e0       	ldi	r19, 0x07	; 7
    3aa6:	41 e0       	ldi	r20, 0x01	; 1
    3aa8:	65 e0       	ldi	r22, 0x05	; 5
    3aaa:	86 e4       	ldi	r24, 0x46	; 70
    3aac:	90 e0       	ldi	r25, 0x00	; 0
    3aae:	0e 94 6b 0b 	call	0x16d6	; 0x16d6 <LCD_12864_Decode_UTF8>
				LCD_12864_Decode_UTF8(95, 5, 0, Year);
    3ab2:	2f ef       	ldi	r18, 0xFF	; 255
    3ab4:	37 e0       	ldi	r19, 0x07	; 7
    3ab6:	40 e0       	ldi	r20, 0x00	; 0
    3ab8:	65 e0       	ldi	r22, 0x05	; 5
    3aba:	8f e5       	ldi	r24, 0x5F	; 95
    3abc:	90 e0       	ldi	r25, 0x00	; 0
    3abe:	0e 94 6b 0b 	call	0x16d6	; 0x16d6 <LCD_12864_Decode_UTF8>
				LCD_12864_Decode_UTF8(25, 7, 0, "Назад в МЕНЮ");
    3ac2:	20 e4       	ldi	r18, 0x40	; 64
    3ac4:	32 e0       	ldi	r19, 0x02	; 2
    3ac6:	40 e0       	ldi	r20, 0x00	; 0
    3ac8:	67 e0       	ldi	r22, 0x07	; 7
    3aca:	89 e1       	ldi	r24, 0x19	; 25
    3acc:	90 e0       	ldi	r25, 0x00	; 0
    3ace:	0e 94 6b 0b 	call	0x16d6	; 0x16d6 <LCD_12864_Decode_UTF8>
				break;
    3ad2:	79 c0       	rjmp	.+242    	; 0x3bc6 <Print_Page_Clock_Settings+0x3e2>
		case 5: if(change_flag)
    3ad4:	80 91 fc 02 	lds	r24, 0x02FC	; 0x8002fc <change_flag>
    3ad8:	88 23       	and	r24, r24
    3ada:	21 f0       	breq	.+8      	; 0x3ae4 <Print_Page_Clock_Settings+0x300>
				{
					year = add_cnt;
    3adc:	80 91 fb 02 	lds	r24, 0x02FB	; 0x8002fb <add_cnt>
    3ae0:	80 93 07 08 	sts	0x0807, r24	; 0x800807 <year>
				}
				LCD_12864_Print_11_16(32, 2, 0, hours);
    3ae4:	21 e1       	ldi	r18, 0x11	; 17
    3ae6:	38 e0       	ldi	r19, 0x08	; 8
    3ae8:	40 e0       	ldi	r20, 0x00	; 0
    3aea:	62 e0       	ldi	r22, 0x02	; 2
    3aec:	80 e2       	ldi	r24, 0x20	; 32
    3aee:	90 e0       	ldi	r25, 0x00	; 0
    3af0:	0e 94 30 0b 	call	0x1660	; 0x1660 <LCD_12864_Print_11_16>
				LCD_12864_Print_11_16(62, 2, 0, minutes);
    3af4:	2d e0       	ldi	r18, 0x0D	; 13
    3af6:	38 e0       	ldi	r19, 0x08	; 8
    3af8:	40 e0       	ldi	r20, 0x00	; 0
    3afa:	62 e0       	ldi	r22, 0x02	; 2
    3afc:	8e e3       	ldi	r24, 0x3E	; 62
    3afe:	90 e0       	ldi	r25, 0x00	; 0
    3b00:	0e 94 30 0b 	call	0x1660	; 0x1660 <LCD_12864_Print_11_16>
				LCD_12864_Decode_UTF8(28, 5, 0, weakday);
    3b04:	2a ee       	ldi	r18, 0xEA	; 234
    3b06:	37 e0       	ldi	r19, 0x07	; 7
    3b08:	40 e0       	ldi	r20, 0x00	; 0
    3b0a:	65 e0       	ldi	r22, 0x05	; 5
    3b0c:	8c e1       	ldi	r24, 0x1C	; 28
    3b0e:	90 e0       	ldi	r25, 0x00	; 0
    3b10:	0e 94 6b 0b 	call	0x16d6	; 0x16d6 <LCD_12864_Decode_UTF8>
				LCD_12864_Decode_UTF8(49, 5, 0, mounthday);
    3b14:	23 e0       	ldi	r18, 0x03	; 3
    3b16:	38 e0       	ldi	r19, 0x08	; 8
    3b18:	40 e0       	ldi	r20, 0x00	; 0
    3b1a:	65 e0       	ldi	r22, 0x05	; 5
    3b1c:	81 e3       	ldi	r24, 0x31	; 49
    3b1e:	90 e0       	ldi	r25, 0x00	; 0
    3b20:	0e 94 6b 0b 	call	0x16d6	; 0x16d6 <LCD_12864_Decode_UTF8>
				LCD_12864_Decode_UTF8(70, 5, 0, Mounth);
    3b24:	23 ef       	ldi	r18, 0xF3	; 243
    3b26:	37 e0       	ldi	r19, 0x07	; 7
    3b28:	40 e0       	ldi	r20, 0x00	; 0
    3b2a:	65 e0       	ldi	r22, 0x05	; 5
    3b2c:	86 e4       	ldi	r24, 0x46	; 70
    3b2e:	90 e0       	ldi	r25, 0x00	; 0
    3b30:	0e 94 6b 0b 	call	0x16d6	; 0x16d6 <LCD_12864_Decode_UTF8>
				LCD_12864_Decode_UTF8(95, 5, 1, Year);
    3b34:	2f ef       	ldi	r18, 0xFF	; 255
    3b36:	37 e0       	ldi	r19, 0x07	; 7
    3b38:	41 e0       	ldi	r20, 0x01	; 1
    3b3a:	65 e0       	ldi	r22, 0x05	; 5
    3b3c:	8f e5       	ldi	r24, 0x5F	; 95
    3b3e:	90 e0       	ldi	r25, 0x00	; 0
    3b40:	0e 94 6b 0b 	call	0x16d6	; 0x16d6 <LCD_12864_Decode_UTF8>
				LCD_12864_Decode_UTF8(25, 7, 0, "Назад в МЕНЮ");
    3b44:	20 e4       	ldi	r18, 0x40	; 64
    3b46:	32 e0       	ldi	r19, 0x02	; 2
    3b48:	40 e0       	ldi	r20, 0x00	; 0
    3b4a:	67 e0       	ldi	r22, 0x07	; 7
    3b4c:	89 e1       	ldi	r24, 0x19	; 25
    3b4e:	90 e0       	ldi	r25, 0x00	; 0
    3b50:	0e 94 6b 0b 	call	0x16d6	; 0x16d6 <LCD_12864_Decode_UTF8>
				break;
    3b54:	38 c0       	rjmp	.+112    	; 0x3bc6 <Print_Page_Clock_Settings+0x3e2>
		case 6:
				LCD_12864_Print_11_16(32, 2, 0, hours);
    3b56:	21 e1       	ldi	r18, 0x11	; 17
    3b58:	38 e0       	ldi	r19, 0x08	; 8
    3b5a:	40 e0       	ldi	r20, 0x00	; 0
    3b5c:	62 e0       	ldi	r22, 0x02	; 2
    3b5e:	80 e2       	ldi	r24, 0x20	; 32
    3b60:	90 e0       	ldi	r25, 0x00	; 0
    3b62:	0e 94 30 0b 	call	0x1660	; 0x1660 <LCD_12864_Print_11_16>
				LCD_12864_Print_11_16(62, 2, 0, minutes);
    3b66:	2d e0       	ldi	r18, 0x0D	; 13
    3b68:	38 e0       	ldi	r19, 0x08	; 8
    3b6a:	40 e0       	ldi	r20, 0x00	; 0
    3b6c:	62 e0       	ldi	r22, 0x02	; 2
    3b6e:	8e e3       	ldi	r24, 0x3E	; 62
    3b70:	90 e0       	ldi	r25, 0x00	; 0
    3b72:	0e 94 30 0b 	call	0x1660	; 0x1660 <LCD_12864_Print_11_16>
				LCD_12864_Decode_UTF8(28, 5, 0, weakday);
    3b76:	2a ee       	ldi	r18, 0xEA	; 234
    3b78:	37 e0       	ldi	r19, 0x07	; 7
    3b7a:	40 e0       	ldi	r20, 0x00	; 0
    3b7c:	65 e0       	ldi	r22, 0x05	; 5
    3b7e:	8c e1       	ldi	r24, 0x1C	; 28
    3b80:	90 e0       	ldi	r25, 0x00	; 0
    3b82:	0e 94 6b 0b 	call	0x16d6	; 0x16d6 <LCD_12864_Decode_UTF8>
				LCD_12864_Decode_UTF8(49, 5, 0, mounthday);
    3b86:	23 e0       	ldi	r18, 0x03	; 3
    3b88:	38 e0       	ldi	r19, 0x08	; 8
    3b8a:	40 e0       	ldi	r20, 0x00	; 0
    3b8c:	65 e0       	ldi	r22, 0x05	; 5
    3b8e:	81 e3       	ldi	r24, 0x31	; 49
    3b90:	90 e0       	ldi	r25, 0x00	; 0
    3b92:	0e 94 6b 0b 	call	0x16d6	; 0x16d6 <LCD_12864_Decode_UTF8>
				LCD_12864_Decode_UTF8(70, 5, 0, Mounth);
    3b96:	23 ef       	ldi	r18, 0xF3	; 243
    3b98:	37 e0       	ldi	r19, 0x07	; 7
    3b9a:	40 e0       	ldi	r20, 0x00	; 0
    3b9c:	65 e0       	ldi	r22, 0x05	; 5
    3b9e:	86 e4       	ldi	r24, 0x46	; 70
    3ba0:	90 e0       	ldi	r25, 0x00	; 0
    3ba2:	0e 94 6b 0b 	call	0x16d6	; 0x16d6 <LCD_12864_Decode_UTF8>
				LCD_12864_Decode_UTF8(95, 5, 0, Year);
    3ba6:	2f ef       	ldi	r18, 0xFF	; 255
    3ba8:	37 e0       	ldi	r19, 0x07	; 7
    3baa:	40 e0       	ldi	r20, 0x00	; 0
    3bac:	65 e0       	ldi	r22, 0x05	; 5
    3bae:	8f e5       	ldi	r24, 0x5F	; 95
    3bb0:	90 e0       	ldi	r25, 0x00	; 0
    3bb2:	0e 94 6b 0b 	call	0x16d6	; 0x16d6 <LCD_12864_Decode_UTF8>
				LCD_12864_Decode_UTF8(25, 7, 1, "Назад в МЕНЮ");
    3bb6:	20 e4       	ldi	r18, 0x40	; 64
    3bb8:	32 e0       	ldi	r19, 0x02	; 2
    3bba:	41 e0       	ldi	r20, 0x01	; 1
    3bbc:	67 e0       	ldi	r22, 0x07	; 7
    3bbe:	89 e1       	ldi	r24, 0x19	; 25
    3bc0:	90 e0       	ldi	r25, 0x00	; 0
    3bc2:	0e 94 6b 0b 	call	0x16d6	; 0x16d6 <LCD_12864_Decode_UTF8>
				break;
	}
	LCD_12864_Decode_UTF8(55, 3, 0, "ч");
    3bc6:	22 eb       	ldi	r18, 0xB2	; 178
    3bc8:	32 e0       	ldi	r19, 0x02	; 2
    3bca:	40 e0       	ldi	r20, 0x00	; 0
    3bcc:	63 e0       	ldi	r22, 0x03	; 3
    3bce:	87 e3       	ldi	r24, 0x37	; 55
    3bd0:	90 e0       	ldi	r25, 0x00	; 0
    3bd2:	0e 94 6b 0b 	call	0x16d6	; 0x16d6 <LCD_12864_Decode_UTF8>
	LCD_12864_Decode_UTF8(85, 3, 0, "мин");
    3bd6:	24 eb       	ldi	r18, 0xB4	; 180
    3bd8:	32 e0       	ldi	r19, 0x02	; 2
    3bda:	40 e0       	ldi	r20, 0x00	; 0
    3bdc:	63 e0       	ldi	r22, 0x03	; 3
    3bde:	85 e5       	ldi	r24, 0x55	; 85
    3be0:	90 e0       	ldi	r25, 0x00	; 0
    3be2:	0e 94 6b 0b 	call	0x16d6	; 0x16d6 <LCD_12864_Decode_UTF8>
	LCD_12864_Decode_UTF8(42, 5, 0, ",");
    3be6:	28 eb       	ldi	r18, 0xB8	; 184
    3be8:	32 e0       	ldi	r19, 0x02	; 2
    3bea:	40 e0       	ldi	r20, 0x00	; 0
    3bec:	65 e0       	ldi	r22, 0x05	; 5
    3bee:	8a e2       	ldi	r24, 0x2A	; 42
    3bf0:	90 e0       	ldi	r25, 0x00	; 0
    3bf2:	0e 94 6b 0b 	call	0x16d6	; 0x16d6 <LCD_12864_Decode_UTF8>
	LCD_12864_Decode_UTF8(63, 5, 0, "/");
    3bf6:	2a eb       	ldi	r18, 0xBA	; 186
    3bf8:	32 e0       	ldi	r19, 0x02	; 2
    3bfa:	40 e0       	ldi	r20, 0x00	; 0
    3bfc:	65 e0       	ldi	r22, 0x05	; 5
    3bfe:	8f e3       	ldi	r24, 0x3F	; 63
    3c00:	90 e0       	ldi	r25, 0x00	; 0
    3c02:	0e 94 6b 0b 	call	0x16d6	; 0x16d6 <LCD_12864_Decode_UTF8>
	LCD_12864_Decode_UTF8(89, 5, 0, "/");
    3c06:	2a eb       	ldi	r18, 0xBA	; 186
    3c08:	32 e0       	ldi	r19, 0x02	; 2
    3c0a:	40 e0       	ldi	r20, 0x00	; 0
    3c0c:	65 e0       	ldi	r22, 0x05	; 5
    3c0e:	89 e5       	ldi	r24, 0x59	; 89
    3c10:	90 e0       	ldi	r25, 0x00	; 0
    3c12:	0e 94 6b 0b 	call	0x16d6	; 0x16d6 <LCD_12864_Decode_UTF8>

	
	LCD_12864_Draw_bitmap(Frame_buffer);
    3c16:	ce 01       	movw	r24, r28
    3c18:	0e 94 e8 07 	call	0xfd0	; 0xfd0 <LCD_12864_Draw_bitmap>
	LCD_12864_GrapnicMode(0);
    3c1c:	80 e0       	ldi	r24, 0x00	; 0
    3c1e:	0e 94 c9 07 	call	0xf92	; 0xf92 <LCD_12864_GrapnicMode>
}
    3c22:	df 91       	pop	r29
    3c24:	cf 91       	pop	r28
    3c26:	08 95       	ret

00003c28 <Clock>:
	else {}
}
void Clock (void)
{		
	//Читаем время (для DS3231) - по сути функция RTC_read_time
	I2C_StartCondition();               // запуск i2c
    3c28:	0e 94 f8 13 	call	0x27f0	; 0x27f0 <I2C_StartCondition>
	I2C_SendByte(0b11010000);			// передача адреса устройства, режим записи
    3c2c:	80 ed       	ldi	r24, 0xD0	; 208
    3c2e:	0e 94 04 14 	call	0x2808	; 0x2808 <I2C_SendByte>
	I2C_SendByte(0x00);				    // передача адреса памяти
    3c32:	80 e0       	ldi	r24, 0x00	; 0
    3c34:	0e 94 04 14 	call	0x2808	; 0x2808 <I2C_SendByte>
	I2C_StopCondition();                // остановка i2c
    3c38:	0e 94 00 14 	call	0x2800	; 0x2800 <I2C_StopCondition>
	
	I2C_StartCondition();               // запуск i2c
    3c3c:	0e 94 f8 13 	call	0x27f0	; 0x27f0 <I2C_StartCondition>
	I2C_SendByte(0b11010001);			// передача адреса устройства, режим чтения
    3c40:	81 ed       	ldi	r24, 0xD1	; 209
    3c42:	0e 94 04 14 	call	0x2808	; 0x2808 <I2C_SendByte>
	sec = RTC_ConvertFromDec(I2C_ReadByte());     // чтение секунд, ACK
    3c46:	0e 94 0e 14 	call	0x281c	; 0x281c <I2C_ReadByte>
    3c4a:	0e 94 08 13 	call	0x2610	; 0x2610 <RTC_ConvertFromDec>
    3c4e:	80 93 08 08 	sts	0x0808, r24	; 0x800808 <sec>
	min = RTC_ConvertFromDec(I2C_ReadByte());     // чтение минут, ACK
    3c52:	0e 94 0e 14 	call	0x281c	; 0x281c <I2C_ReadByte>
    3c56:	0e 94 08 13 	call	0x2610	; 0x2610 <RTC_ConvertFromDec>
    3c5a:	80 93 fe 07 	sts	0x07FE, r24	; 0x8007fe <min>
	hour = RTC_ConvertFromDec(I2C_ReadByte());    // чтение часов, ACK
    3c5e:	0e 94 0e 14 	call	0x281c	; 0x281c <I2C_ReadByte>
    3c62:	0e 94 08 13 	call	0x2610	; 0x2610 <RTC_ConvertFromDec>
    3c66:	80 93 f2 07 	sts	0x07F2, r24	; 0x8007f2 <hour>
	day = RTC_ConvertFromDec(I2C_ReadByte());     // чтение день недели, ACK
    3c6a:	0e 94 0e 14 	call	0x281c	; 0x281c <I2C_ReadByte>
    3c6e:	0e 94 08 13 	call	0x2610	; 0x2610 <RTC_ConvertFromDec>
    3c72:	80 93 09 08 	sts	0x0809, r24	; 0x800809 <day>
	date = RTC_ConvertFromDec(I2C_ReadByte());    // чтение число, ACK
    3c76:	0e 94 0e 14 	call	0x281c	; 0x281c <I2C_ReadByte>
    3c7a:	0e 94 08 13 	call	0x2610	; 0x2610 <RTC_ConvertFromDec>
    3c7e:	80 93 0b 08 	sts	0x080B, r24	; 0x80080b <date>
	month = RTC_ConvertFromDec(I2C_ReadByte());   // чтение месяц, ACK
    3c82:	0e 94 0e 14 	call	0x281c	; 0x281c <I2C_ReadByte>
    3c86:	0e 94 08 13 	call	0x2610	; 0x2610 <RTC_ConvertFromDec>
    3c8a:	80 93 ee 07 	sts	0x07EE, r24	; 0x8007ee <month>
	year = RTC_ConvertFromDec(I2C_ReadLastByte());// чтение год, NACK
    3c8e:	0e 94 18 14 	call	0x2830	; 0x2830 <I2C_ReadLastByte>
    3c92:	0e 94 08 13 	call	0x2610	; 0x2610 <RTC_ConvertFromDec>
    3c96:	80 93 07 08 	sts	0x0807, r24	; 0x800807 <year>
	I2C_StopCondition();                // остановка i2c
    3c9a:	0e 94 00 14 	call	0x2800	; 0x2800 <I2C_StopCondition>
	
	Convert_to_string_Clock();
    3c9e:	0e 94 4f 1a 	call	0x349e	; 0x349e <Convert_to_string_Clock>
    3ca2:	08 95       	ret

00003ca4 <RAIN_AMOUNT>:
		break;
	}
}
//Вычисление кол-ва осадков
float RAIN_AMOUNT(char *adc_value)
{
    3ca4:	cf 93       	push	r28
    3ca6:	df 93       	push	r29
    3ca8:	00 d0       	rcall	.+0      	; 0x3caa <RAIN_AMOUNT+0x6>
    3caa:	cd b7       	in	r28, 0x3d	; 61
    3cac:	de b7       	in	r29, 0x3e	; 62
	float RAIN;
	int R;
	if (strlen(adc_value) != 0)
    3cae:	fc 01       	movw	r30, r24
    3cb0:	20 81       	ld	r18, Z
    3cb2:	22 23       	and	r18, r18
    3cb4:	a1 f0       	breq	.+40     	; 0x3cde <RAIN_AMOUNT+0x3a>
	{
		sscanf(adc_value, "%d", &R);
    3cb6:	9e 01       	movw	r18, r28
    3cb8:	2f 5f       	subi	r18, 0xFF	; 255
    3cba:	3f 4f       	sbci	r19, 0xFF	; 255
    3cbc:	3f 93       	push	r19
    3cbe:	2f 93       	push	r18
    3cc0:	2d e9       	ldi	r18, 0x9D	; 157
    3cc2:	32 e0       	ldi	r19, 0x02	; 2
    3cc4:	3f 93       	push	r19
    3cc6:	2f 93       	push	r18
    3cc8:	9f 93       	push	r25
    3cca:	8f 93       	push	r24
    3ccc:	0e 94 20 2b 	call	0x5640	; 0x5640 <sscanf>
    3cd0:	0f 90       	pop	r0
    3cd2:	0f 90       	pop	r0
    3cd4:	0f 90       	pop	r0
    3cd6:	0f 90       	pop	r0
    3cd8:	0f 90       	pop	r0
    3cda:	0f 90       	pop	r0
    3cdc:	02 c0       	rjmp	.+4      	; 0x3ce2 <RAIN_AMOUNT+0x3e>
	}
	else
	{
		R = 0;
    3cde:	1a 82       	std	Y+2, r1	; 0x02
    3ce0:	19 82       	std	Y+1, r1	; 0x01
	}
	RAIN = 3*R*2.45/5120;
    3ce2:	69 81       	ldd	r22, Y+1	; 0x01
    3ce4:	7a 81       	ldd	r23, Y+2	; 0x02
    3ce6:	cb 01       	movw	r24, r22
    3ce8:	88 0f       	add	r24, r24
    3cea:	99 1f       	adc	r25, r25
    3cec:	68 0f       	add	r22, r24
    3cee:	79 1f       	adc	r23, r25
    3cf0:	07 2e       	mov	r0, r23
    3cf2:	00 0c       	add	r0, r0
    3cf4:	88 0b       	sbc	r24, r24
    3cf6:	99 0b       	sbc	r25, r25
    3cf8:	0e 94 6a 24 	call	0x48d4	; 0x48d4 <__floatsisf>
    3cfc:	2d ec       	ldi	r18, 0xCD	; 205
    3cfe:	3c ec       	ldi	r19, 0xCC	; 204
    3d00:	4c e1       	ldi	r20, 0x1C	; 28
    3d02:	50 e4       	ldi	r21, 0x40	; 64
    3d04:	0e 94 1f 25 	call	0x4a3e	; 0x4a3e <__mulsf3>
    3d08:	20 e0       	ldi	r18, 0x00	; 0
    3d0a:	30 e0       	ldi	r19, 0x00	; 0
    3d0c:	40 ea       	ldi	r20, 0xA0	; 160
    3d0e:	55 e4       	ldi	r21, 0x45	; 69
    3d10:	0e 94 c0 23 	call	0x4780	; 0x4780 <__divsf3>
	
	return RAIN;
}
    3d14:	0f 90       	pop	r0
    3d16:	0f 90       	pop	r0
    3d18:	df 91       	pop	r29
    3d1a:	cf 91       	pop	r28
    3d1c:	08 95       	ret

00003d1e <V_BAT>:
//Вычисление уровня заряда АКБ
float V_BAT (char *adc_value)
{
    3d1e:	cf 93       	push	r28
    3d20:	df 93       	push	r29
    3d22:	00 d0       	rcall	.+0      	; 0x3d24 <V_BAT+0x6>
    3d24:	cd b7       	in	r28, 0x3d	; 61
    3d26:	de b7       	in	r29, 0x3e	; 62
	float VBAT;
	int V;
	if (strlen(adc_value) != 0)
    3d28:	fc 01       	movw	r30, r24
    3d2a:	20 81       	ld	r18, Z
    3d2c:	22 23       	and	r18, r18
    3d2e:	a1 f0       	breq	.+40     	; 0x3d58 <V_BAT+0x3a>
	{
		sscanf(adc_value, "%d", &V);
    3d30:	9e 01       	movw	r18, r28
    3d32:	2f 5f       	subi	r18, 0xFF	; 255
    3d34:	3f 4f       	sbci	r19, 0xFF	; 255
    3d36:	3f 93       	push	r19
    3d38:	2f 93       	push	r18
    3d3a:	2d e9       	ldi	r18, 0x9D	; 157
    3d3c:	32 e0       	ldi	r19, 0x02	; 2
    3d3e:	3f 93       	push	r19
    3d40:	2f 93       	push	r18
    3d42:	9f 93       	push	r25
    3d44:	8f 93       	push	r24
    3d46:	0e 94 20 2b 	call	0x5640	; 0x5640 <sscanf>
    3d4a:	0f 90       	pop	r0
    3d4c:	0f 90       	pop	r0
    3d4e:	0f 90       	pop	r0
    3d50:	0f 90       	pop	r0
    3d52:	0f 90       	pop	r0
    3d54:	0f 90       	pop	r0
    3d56:	02 c0       	rjmp	.+4      	; 0x3d5c <V_BAT+0x3e>
	}
	else
	{
		V = 0;
    3d58:	1a 82       	std	Y+2, r1	; 0x02
    3d5a:	19 82       	std	Y+1, r1	; 0x01
	}
	VBAT = V*2.45*3/1024;
    3d5c:	69 81       	ldd	r22, Y+1	; 0x01
    3d5e:	7a 81       	ldd	r23, Y+2	; 0x02
    3d60:	07 2e       	mov	r0, r23
    3d62:	00 0c       	add	r0, r0
    3d64:	88 0b       	sbc	r24, r24
    3d66:	99 0b       	sbc	r25, r25
    3d68:	0e 94 6a 24 	call	0x48d4	; 0x48d4 <__floatsisf>
    3d6c:	2d ec       	ldi	r18, 0xCD	; 205
    3d6e:	3c ec       	ldi	r19, 0xCC	; 204
    3d70:	4c e1       	ldi	r20, 0x1C	; 28
    3d72:	50 e4       	ldi	r21, 0x40	; 64
    3d74:	0e 94 1f 25 	call	0x4a3e	; 0x4a3e <__mulsf3>
    3d78:	20 e0       	ldi	r18, 0x00	; 0
    3d7a:	30 e0       	ldi	r19, 0x00	; 0
    3d7c:	40 e4       	ldi	r20, 0x40	; 64
    3d7e:	50 e4       	ldi	r21, 0x40	; 64
    3d80:	0e 94 1f 25 	call	0x4a3e	; 0x4a3e <__mulsf3>
    3d84:	20 e0       	ldi	r18, 0x00	; 0
    3d86:	30 e0       	ldi	r19, 0x00	; 0
    3d88:	40 e8       	ldi	r20, 0x80	; 128
    3d8a:	5a e3       	ldi	r21, 0x3A	; 58
    3d8c:	0e 94 1f 25 	call	0x4a3e	; 0x4a3e <__mulsf3>
	
	return VBAT;
}
    3d90:	0f 90       	pop	r0
    3d92:	0f 90       	pop	r0
    3d94:	df 91       	pop	r29
    3d96:	cf 91       	pop	r28
    3d98:	08 95       	ret

00003d9a <DrawBattery>:
	}
	else {}
}
void DrawBattery(void)
{
	LCD_12864_Draw_line(34, 28, 40, 28);
    3d9a:	2c e1       	ldi	r18, 0x1C	; 28
    3d9c:	48 e2       	ldi	r20, 0x28	; 40
    3d9e:	6c e1       	ldi	r22, 0x1C	; 28
    3da0:	82 e2       	ldi	r24, 0x22	; 34
    3da2:	0e 94 18 0c 	call	0x1830	; 0x1830 <LCD_12864_Draw_line>
	LCD_12864_Draw_line(34, 19, 34, 27);
    3da6:	2b e1       	ldi	r18, 0x1B	; 27
    3da8:	42 e2       	ldi	r20, 0x22	; 34
    3daa:	63 e1       	ldi	r22, 0x13	; 19
    3dac:	82 e2       	ldi	r24, 0x22	; 34
    3dae:	0e 94 18 0c 	call	0x1830	; 0x1830 <LCD_12864_Draw_line>
	LCD_12864_Draw_line(40, 19, 40, 27);
    3db2:	2b e1       	ldi	r18, 0x1B	; 27
    3db4:	48 e2       	ldi	r20, 0x28	; 40
    3db6:	63 e1       	ldi	r22, 0x13	; 19
    3db8:	88 e2       	ldi	r24, 0x28	; 40
    3dba:	0e 94 18 0c 	call	0x1830	; 0x1830 <LCD_12864_Draw_line>
	LCD_12864_Draw_line(34, 19, 36, 19);
    3dbe:	23 e1       	ldi	r18, 0x13	; 19
    3dc0:	44 e2       	ldi	r20, 0x24	; 36
    3dc2:	63 e1       	ldi	r22, 0x13	; 19
    3dc4:	82 e2       	ldi	r24, 0x22	; 34
    3dc6:	0e 94 18 0c 	call	0x1830	; 0x1830 <LCD_12864_Draw_line>
	LCD_12864_Draw_line(38, 19, 40, 19);
    3dca:	23 e1       	ldi	r18, 0x13	; 19
    3dcc:	48 e2       	ldi	r20, 0x28	; 40
    3dce:	63 e1       	ldi	r22, 0x13	; 19
    3dd0:	86 e2       	ldi	r24, 0x26	; 38
    3dd2:	0e 94 18 0c 	call	0x1830	; 0x1830 <LCD_12864_Draw_line>
	LCD_12864_Draw_line(36, 18, 36, 19);
    3dd6:	23 e1       	ldi	r18, 0x13	; 19
    3dd8:	44 e2       	ldi	r20, 0x24	; 36
    3dda:	62 e1       	ldi	r22, 0x12	; 18
    3ddc:	84 e2       	ldi	r24, 0x24	; 36
    3dde:	0e 94 18 0c 	call	0x1830	; 0x1830 <LCD_12864_Draw_line>
	LCD_12864_Draw_line(38, 18, 38, 19);
    3de2:	23 e1       	ldi	r18, 0x13	; 19
    3de4:	46 e2       	ldi	r20, 0x26	; 38
    3de6:	62 e1       	ldi	r22, 0x12	; 18
    3de8:	86 e2       	ldi	r24, 0x26	; 38
    3dea:	0e 94 18 0c 	call	0x1830	; 0x1830 <LCD_12864_Draw_line>
	LCD_12864_Draw_line(36, 18, 38, 18);
    3dee:	22 e1       	ldi	r18, 0x12	; 18
    3df0:	46 e2       	ldi	r20, 0x26	; 38
    3df2:	62 e1       	ldi	r22, 0x12	; 18
    3df4:	84 e2       	ldi	r24, 0x24	; 36
    3df6:	0e 94 18 0c 	call	0x1830	; 0x1830 <LCD_12864_Draw_line>
	if (V_BAT(adc_value1) >= 4.0f) {
    3dfa:	87 e6       	ldi	r24, 0x67	; 103
    3dfc:	93 e0       	ldi	r25, 0x03	; 3
    3dfe:	0e 94 8f 1e 	call	0x3d1e	; 0x3d1e <V_BAT>
    3e02:	20 e0       	ldi	r18, 0x00	; 0
    3e04:	30 e0       	ldi	r19, 0x00	; 0
    3e06:	40 e8       	ldi	r20, 0x80	; 128
    3e08:	50 e4       	ldi	r21, 0x40	; 64
    3e0a:	0e 94 1a 25 	call	0x4a34	; 0x4a34 <__gesf2>
    3e0e:	88 23       	and	r24, r24
    3e10:	2c f1       	brlt	.+74     	; 0x3e5c <DrawBattery+0xc2>
		LCD_12864_Draw_line(36, 26, 38, 26);
    3e12:	2a e1       	ldi	r18, 0x1A	; 26
    3e14:	46 e2       	ldi	r20, 0x26	; 38
    3e16:	6a e1       	ldi	r22, 0x1A	; 26
    3e18:	84 e2       	ldi	r24, 0x24	; 36
    3e1a:	0e 94 18 0c 	call	0x1830	; 0x1830 <LCD_12864_Draw_line>
		LCD_12864_Draw_line(36, 25, 38, 25);
    3e1e:	29 e1       	ldi	r18, 0x19	; 25
    3e20:	46 e2       	ldi	r20, 0x26	; 38
    3e22:	69 e1       	ldi	r22, 0x19	; 25
    3e24:	84 e2       	ldi	r24, 0x24	; 36
    3e26:	0e 94 18 0c 	call	0x1830	; 0x1830 <LCD_12864_Draw_line>
		LCD_12864_Draw_line(36, 24, 38, 24);
    3e2a:	28 e1       	ldi	r18, 0x18	; 24
    3e2c:	46 e2       	ldi	r20, 0x26	; 38
    3e2e:	68 e1       	ldi	r22, 0x18	; 24
    3e30:	84 e2       	ldi	r24, 0x24	; 36
    3e32:	0e 94 18 0c 	call	0x1830	; 0x1830 <LCD_12864_Draw_line>
		LCD_12864_Draw_line(36, 23, 38, 23);
    3e36:	27 e1       	ldi	r18, 0x17	; 23
    3e38:	46 e2       	ldi	r20, 0x26	; 38
    3e3a:	67 e1       	ldi	r22, 0x17	; 23
    3e3c:	84 e2       	ldi	r24, 0x24	; 36
    3e3e:	0e 94 18 0c 	call	0x1830	; 0x1830 <LCD_12864_Draw_line>
		LCD_12864_Draw_line(36, 22, 38, 22);
    3e42:	26 e1       	ldi	r18, 0x16	; 22
    3e44:	46 e2       	ldi	r20, 0x26	; 38
    3e46:	66 e1       	ldi	r22, 0x16	; 22
    3e48:	84 e2       	ldi	r24, 0x24	; 36
    3e4a:	0e 94 18 0c 	call	0x1830	; 0x1830 <LCD_12864_Draw_line>
		LCD_12864_Draw_line(36, 21, 38, 21);
    3e4e:	25 e1       	ldi	r18, 0x15	; 21
    3e50:	46 e2       	ldi	r20, 0x26	; 38
    3e52:	65 e1       	ldi	r22, 0x15	; 21
    3e54:	84 e2       	ldi	r24, 0x24	; 36
    3e56:	0e 94 18 0c 	call	0x1830	; 0x1830 <LCD_12864_Draw_line>
    3e5a:	08 95       	ret
	}
	else if ((V_BAT(adc_value1) >= 3.9f) && (V_BAT(adc_value1) < 4.0f)) {
    3e5c:	87 e6       	ldi	r24, 0x67	; 103
    3e5e:	93 e0       	ldi	r25, 0x03	; 3
    3e60:	0e 94 8f 1e 	call	0x3d1e	; 0x3d1e <V_BAT>
    3e64:	2a e9       	ldi	r18, 0x9A	; 154
    3e66:	39 e9       	ldi	r19, 0x99	; 153
    3e68:	49 e7       	ldi	r20, 0x79	; 121
    3e6a:	50 e4       	ldi	r21, 0x40	; 64
    3e6c:	0e 94 1a 25 	call	0x4a34	; 0x4a34 <__gesf2>
    3e70:	88 23       	and	r24, r24
    3e72:	5c f1       	brlt	.+86     	; 0x3eca <DrawBattery+0x130>
    3e74:	87 e6       	ldi	r24, 0x67	; 103
    3e76:	93 e0       	ldi	r25, 0x03	; 3
    3e78:	0e 94 8f 1e 	call	0x3d1e	; 0x3d1e <V_BAT>
    3e7c:	20 e0       	ldi	r18, 0x00	; 0
    3e7e:	30 e0       	ldi	r19, 0x00	; 0
    3e80:	40 e8       	ldi	r20, 0x80	; 128
    3e82:	50 e4       	ldi	r21, 0x40	; 64
    3e84:	0e 94 bb 23 	call	0x4776	; 0x4776 <__cmpsf2>
    3e88:	88 23       	and	r24, r24
    3e8a:	fc f4       	brge	.+62     	; 0x3eca <DrawBattery+0x130>
		LCD_12864_Draw_line(36, 26, 38, 26);
    3e8c:	2a e1       	ldi	r18, 0x1A	; 26
    3e8e:	46 e2       	ldi	r20, 0x26	; 38
    3e90:	6a e1       	ldi	r22, 0x1A	; 26
    3e92:	84 e2       	ldi	r24, 0x24	; 36
    3e94:	0e 94 18 0c 	call	0x1830	; 0x1830 <LCD_12864_Draw_line>
		LCD_12864_Draw_line(36, 25, 38, 25);
    3e98:	29 e1       	ldi	r18, 0x19	; 25
    3e9a:	46 e2       	ldi	r20, 0x26	; 38
    3e9c:	69 e1       	ldi	r22, 0x19	; 25
    3e9e:	84 e2       	ldi	r24, 0x24	; 36
    3ea0:	0e 94 18 0c 	call	0x1830	; 0x1830 <LCD_12864_Draw_line>
		LCD_12864_Draw_line(36, 24, 38, 24);
    3ea4:	28 e1       	ldi	r18, 0x18	; 24
    3ea6:	46 e2       	ldi	r20, 0x26	; 38
    3ea8:	68 e1       	ldi	r22, 0x18	; 24
    3eaa:	84 e2       	ldi	r24, 0x24	; 36
    3eac:	0e 94 18 0c 	call	0x1830	; 0x1830 <LCD_12864_Draw_line>
		LCD_12864_Draw_line(36, 23, 38, 23);
    3eb0:	27 e1       	ldi	r18, 0x17	; 23
    3eb2:	46 e2       	ldi	r20, 0x26	; 38
    3eb4:	67 e1       	ldi	r22, 0x17	; 23
    3eb6:	84 e2       	ldi	r24, 0x24	; 36
    3eb8:	0e 94 18 0c 	call	0x1830	; 0x1830 <LCD_12864_Draw_line>
		LCD_12864_Draw_line(36, 22, 38, 22);
    3ebc:	26 e1       	ldi	r18, 0x16	; 22
    3ebe:	46 e2       	ldi	r20, 0x26	; 38
    3ec0:	66 e1       	ldi	r22, 0x16	; 22
    3ec2:	84 e2       	ldi	r24, 0x24	; 36
    3ec4:	0e 94 18 0c 	call	0x1830	; 0x1830 <LCD_12864_Draw_line>
    3ec8:	08 95       	ret
	}
	else if ((V_BAT(adc_value1) >= 3.8f) && (V_BAT(adc_value1) < 3.9f)) {
    3eca:	87 e6       	ldi	r24, 0x67	; 103
    3ecc:	93 e0       	ldi	r25, 0x03	; 3
    3ece:	0e 94 8f 1e 	call	0x3d1e	; 0x3d1e <V_BAT>
    3ed2:	23 e3       	ldi	r18, 0x33	; 51
    3ed4:	33 e3       	ldi	r19, 0x33	; 51
    3ed6:	43 e7       	ldi	r20, 0x73	; 115
    3ed8:	50 e4       	ldi	r21, 0x40	; 64
    3eda:	0e 94 1a 25 	call	0x4a34	; 0x4a34 <__gesf2>
    3ede:	88 23       	and	r24, r24
    3ee0:	2c f1       	brlt	.+74     	; 0x3f2c <DrawBattery+0x192>
    3ee2:	87 e6       	ldi	r24, 0x67	; 103
    3ee4:	93 e0       	ldi	r25, 0x03	; 3
    3ee6:	0e 94 8f 1e 	call	0x3d1e	; 0x3d1e <V_BAT>
    3eea:	2a e9       	ldi	r18, 0x9A	; 154
    3eec:	39 e9       	ldi	r19, 0x99	; 153
    3eee:	49 e7       	ldi	r20, 0x79	; 121
    3ef0:	50 e4       	ldi	r21, 0x40	; 64
    3ef2:	0e 94 bb 23 	call	0x4776	; 0x4776 <__cmpsf2>
    3ef6:	88 23       	and	r24, r24
    3ef8:	cc f4       	brge	.+50     	; 0x3f2c <DrawBattery+0x192>
		LCD_12864_Draw_line(36, 26, 38, 26);
    3efa:	2a e1       	ldi	r18, 0x1A	; 26
    3efc:	46 e2       	ldi	r20, 0x26	; 38
    3efe:	6a e1       	ldi	r22, 0x1A	; 26
    3f00:	84 e2       	ldi	r24, 0x24	; 36
    3f02:	0e 94 18 0c 	call	0x1830	; 0x1830 <LCD_12864_Draw_line>
		LCD_12864_Draw_line(36, 25, 38, 25);
    3f06:	29 e1       	ldi	r18, 0x19	; 25
    3f08:	46 e2       	ldi	r20, 0x26	; 38
    3f0a:	69 e1       	ldi	r22, 0x19	; 25
    3f0c:	84 e2       	ldi	r24, 0x24	; 36
    3f0e:	0e 94 18 0c 	call	0x1830	; 0x1830 <LCD_12864_Draw_line>
		LCD_12864_Draw_line(36, 24, 38, 24);
    3f12:	28 e1       	ldi	r18, 0x18	; 24
    3f14:	46 e2       	ldi	r20, 0x26	; 38
    3f16:	68 e1       	ldi	r22, 0x18	; 24
    3f18:	84 e2       	ldi	r24, 0x24	; 36
    3f1a:	0e 94 18 0c 	call	0x1830	; 0x1830 <LCD_12864_Draw_line>
		LCD_12864_Draw_line(36, 23, 38, 23);
    3f1e:	27 e1       	ldi	r18, 0x17	; 23
    3f20:	46 e2       	ldi	r20, 0x26	; 38
    3f22:	67 e1       	ldi	r22, 0x17	; 23
    3f24:	84 e2       	ldi	r24, 0x24	; 36
    3f26:	0e 94 18 0c 	call	0x1830	; 0x1830 <LCD_12864_Draw_line>
    3f2a:	08 95       	ret
	}
	else if ((V_BAT(adc_value1) >= 3.7f) && (V_BAT(adc_value1) < 3.8f)) {
    3f2c:	87 e6       	ldi	r24, 0x67	; 103
    3f2e:	93 e0       	ldi	r25, 0x03	; 3
    3f30:	0e 94 8f 1e 	call	0x3d1e	; 0x3d1e <V_BAT>
    3f34:	2d ec       	ldi	r18, 0xCD	; 205
    3f36:	3c ec       	ldi	r19, 0xCC	; 204
    3f38:	4c e6       	ldi	r20, 0x6C	; 108
    3f3a:	50 e4       	ldi	r21, 0x40	; 64
    3f3c:	0e 94 1a 25 	call	0x4a34	; 0x4a34 <__gesf2>
    3f40:	88 23       	and	r24, r24
    3f42:	fc f0       	brlt	.+62     	; 0x3f82 <DrawBattery+0x1e8>
    3f44:	87 e6       	ldi	r24, 0x67	; 103
    3f46:	93 e0       	ldi	r25, 0x03	; 3
    3f48:	0e 94 8f 1e 	call	0x3d1e	; 0x3d1e <V_BAT>
    3f4c:	23 e3       	ldi	r18, 0x33	; 51
    3f4e:	33 e3       	ldi	r19, 0x33	; 51
    3f50:	43 e7       	ldi	r20, 0x73	; 115
    3f52:	50 e4       	ldi	r21, 0x40	; 64
    3f54:	0e 94 bb 23 	call	0x4776	; 0x4776 <__cmpsf2>
    3f58:	88 23       	and	r24, r24
    3f5a:	9c f4       	brge	.+38     	; 0x3f82 <DrawBattery+0x1e8>
		LCD_12864_Draw_line(36, 26, 38, 26);
    3f5c:	2a e1       	ldi	r18, 0x1A	; 26
    3f5e:	46 e2       	ldi	r20, 0x26	; 38
    3f60:	6a e1       	ldi	r22, 0x1A	; 26
    3f62:	84 e2       	ldi	r24, 0x24	; 36
    3f64:	0e 94 18 0c 	call	0x1830	; 0x1830 <LCD_12864_Draw_line>
		LCD_12864_Draw_line(36, 25, 38, 25);
    3f68:	29 e1       	ldi	r18, 0x19	; 25
    3f6a:	46 e2       	ldi	r20, 0x26	; 38
    3f6c:	69 e1       	ldi	r22, 0x19	; 25
    3f6e:	84 e2       	ldi	r24, 0x24	; 36
    3f70:	0e 94 18 0c 	call	0x1830	; 0x1830 <LCD_12864_Draw_line>
		LCD_12864_Draw_line(36, 24, 38, 24);
    3f74:	28 e1       	ldi	r18, 0x18	; 24
    3f76:	46 e2       	ldi	r20, 0x26	; 38
    3f78:	68 e1       	ldi	r22, 0x18	; 24
    3f7a:	84 e2       	ldi	r24, 0x24	; 36
    3f7c:	0e 94 18 0c 	call	0x1830	; 0x1830 <LCD_12864_Draw_line>
    3f80:	08 95       	ret
	}
	else if ((V_BAT(adc_value1) >= 3.6f) && (V_BAT(adc_value1) < 3.7f)) {
    3f82:	87 e6       	ldi	r24, 0x67	; 103
    3f84:	93 e0       	ldi	r25, 0x03	; 3
    3f86:	0e 94 8f 1e 	call	0x3d1e	; 0x3d1e <V_BAT>
    3f8a:	26 e6       	ldi	r18, 0x66	; 102
    3f8c:	36 e6       	ldi	r19, 0x66	; 102
    3f8e:	46 e6       	ldi	r20, 0x66	; 102
    3f90:	50 e4       	ldi	r21, 0x40	; 64
    3f92:	0e 94 1a 25 	call	0x4a34	; 0x4a34 <__gesf2>
    3f96:	88 23       	and	r24, r24
    3f98:	cc f0       	brlt	.+50     	; 0x3fcc <DrawBattery+0x232>
    3f9a:	87 e6       	ldi	r24, 0x67	; 103
    3f9c:	93 e0       	ldi	r25, 0x03	; 3
    3f9e:	0e 94 8f 1e 	call	0x3d1e	; 0x3d1e <V_BAT>
    3fa2:	2d ec       	ldi	r18, 0xCD	; 205
    3fa4:	3c ec       	ldi	r19, 0xCC	; 204
    3fa6:	4c e6       	ldi	r20, 0x6C	; 108
    3fa8:	50 e4       	ldi	r21, 0x40	; 64
    3faa:	0e 94 bb 23 	call	0x4776	; 0x4776 <__cmpsf2>
    3fae:	88 23       	and	r24, r24
    3fb0:	6c f4       	brge	.+26     	; 0x3fcc <DrawBattery+0x232>
		LCD_12864_Draw_line(36, 26, 38, 26);
    3fb2:	2a e1       	ldi	r18, 0x1A	; 26
    3fb4:	46 e2       	ldi	r20, 0x26	; 38
    3fb6:	6a e1       	ldi	r22, 0x1A	; 26
    3fb8:	84 e2       	ldi	r24, 0x24	; 36
    3fba:	0e 94 18 0c 	call	0x1830	; 0x1830 <LCD_12864_Draw_line>
		LCD_12864_Draw_line(36, 25, 38, 25);
    3fbe:	29 e1       	ldi	r18, 0x19	; 25
    3fc0:	46 e2       	ldi	r20, 0x26	; 38
    3fc2:	69 e1       	ldi	r22, 0x19	; 25
    3fc4:	84 e2       	ldi	r24, 0x24	; 36
    3fc6:	0e 94 18 0c 	call	0x1830	; 0x1830 <LCD_12864_Draw_line>
    3fca:	08 95       	ret
	}
	else if ((V_BAT(adc_value1) >= 3.5f) && (V_BAT(adc_value1) < 3.6f)) {
    3fcc:	87 e6       	ldi	r24, 0x67	; 103
    3fce:	93 e0       	ldi	r25, 0x03	; 3
    3fd0:	0e 94 8f 1e 	call	0x3d1e	; 0x3d1e <V_BAT>
    3fd4:	20 e0       	ldi	r18, 0x00	; 0
    3fd6:	30 e0       	ldi	r19, 0x00	; 0
    3fd8:	40 e6       	ldi	r20, 0x60	; 96
    3fda:	50 e4       	ldi	r21, 0x40	; 64
    3fdc:	0e 94 1a 25 	call	0x4a34	; 0x4a34 <__gesf2>
    3fe0:	88 23       	and	r24, r24
    3fe2:	94 f0       	brlt	.+36     	; 0x4008 <DrawBattery+0x26e>
    3fe4:	87 e6       	ldi	r24, 0x67	; 103
    3fe6:	93 e0       	ldi	r25, 0x03	; 3
    3fe8:	0e 94 8f 1e 	call	0x3d1e	; 0x3d1e <V_BAT>
    3fec:	26 e6       	ldi	r18, 0x66	; 102
    3fee:	36 e6       	ldi	r19, 0x66	; 102
    3ff0:	46 e6       	ldi	r20, 0x66	; 102
    3ff2:	50 e4       	ldi	r21, 0x40	; 64
    3ff4:	0e 94 bb 23 	call	0x4776	; 0x4776 <__cmpsf2>
    3ff8:	88 23       	and	r24, r24
    3ffa:	34 f4       	brge	.+12     	; 0x4008 <DrawBattery+0x26e>
		LCD_12864_Draw_line(36, 26, 38, 26);
    3ffc:	2a e1       	ldi	r18, 0x1A	; 26
    3ffe:	46 e2       	ldi	r20, 0x26	; 38
    4000:	6a e1       	ldi	r22, 0x1A	; 26
    4002:	84 e2       	ldi	r24, 0x24	; 36
    4004:	0e 94 18 0c 	call	0x1830	; 0x1830 <LCD_12864_Draw_line>
    4008:	08 95       	ret

0000400a <wind_speed>:
	
	return VBAT;
}
//Вычисление скорости ветра
float wind_speed (char *counter)
{
    400a:	cf 93       	push	r28
    400c:	df 93       	push	r29
    400e:	00 d0       	rcall	.+0      	; 0x4010 <wind_speed+0x6>
    4010:	cd b7       	in	r28, 0x3d	; 61
    4012:	de b7       	in	r29, 0x3e	; 62
	float RADIUS = 0.09;
	float speed = 0;
	int n;
	if (strlen(counter) != 0)
    4014:	fc 01       	movw	r30, r24
    4016:	20 81       	ld	r18, Z
    4018:	22 23       	and	r18, r18
    401a:	a1 f0       	breq	.+40     	; 0x4044 <wind_speed+0x3a>
	{
		sscanf(counter, "%d", &n);
    401c:	9e 01       	movw	r18, r28
    401e:	2f 5f       	subi	r18, 0xFF	; 255
    4020:	3f 4f       	sbci	r19, 0xFF	; 255
    4022:	3f 93       	push	r19
    4024:	2f 93       	push	r18
    4026:	2d e9       	ldi	r18, 0x9D	; 157
    4028:	32 e0       	ldi	r19, 0x02	; 2
    402a:	3f 93       	push	r19
    402c:	2f 93       	push	r18
    402e:	9f 93       	push	r25
    4030:	8f 93       	push	r24
    4032:	0e 94 20 2b 	call	0x5640	; 0x5640 <sscanf>
    4036:	0f 90       	pop	r0
    4038:	0f 90       	pop	r0
    403a:	0f 90       	pop	r0
    403c:	0f 90       	pop	r0
    403e:	0f 90       	pop	r0
    4040:	0f 90       	pop	r0
    4042:	02 c0       	rjmp	.+4      	; 0x4048 <wind_speed+0x3e>
	}
	else
	{
		n = 0;
    4044:	1a 82       	std	Y+2, r1	; 0x02
    4046:	19 82       	std	Y+1, r1	; 0x01
	}
	speed = 2*3.14*RADIUS*n/4; //период 2 сек+2 магнита
    4048:	69 81       	ldd	r22, Y+1	; 0x01
    404a:	7a 81       	ldd	r23, Y+2	; 0x02
    404c:	07 2e       	mov	r0, r23
    404e:	00 0c       	add	r0, r0
    4050:	88 0b       	sbc	r24, r24
    4052:	99 0b       	sbc	r25, r25
    4054:	0e 94 6a 24 	call	0x48d4	; 0x48d4 <__floatsisf>
    4058:	23 ef       	ldi	r18, 0xF3	; 243
    405a:	30 eb       	ldi	r19, 0xB0	; 176
    405c:	40 e1       	ldi	r20, 0x10	; 16
    405e:	5f e3       	ldi	r21, 0x3F	; 63
    4060:	0e 94 1f 25 	call	0x4a3e	; 0x4a3e <__mulsf3>
    4064:	20 e0       	ldi	r18, 0x00	; 0
    4066:	30 e0       	ldi	r19, 0x00	; 0
    4068:	40 e8       	ldi	r20, 0x80	; 128
    406a:	5e e3       	ldi	r21, 0x3E	; 62
    406c:	0e 94 1f 25 	call	0x4a3e	; 0x4a3e <__mulsf3>
	
	return speed;
    4070:	0f 90       	pop	r0
    4072:	0f 90       	pop	r0
    4074:	df 91       	pop	r29
    4076:	cf 91       	pop	r28
    4078:	08 95       	ret

0000407a <Print_Home_Page>:
	}	
	LCD_12864_GrapnicMode(0);
}
//Главное окно
void Print_Home_Page(uint8_t *Frame_buffer)
{
    407a:	0f 93       	push	r16
    407c:	1f 93       	push	r17
    407e:	cf 93       	push	r28
    4080:	df 93       	push	r29
    4082:	ec 01       	movw	r28, r24
	LCD_12864_GrapnicMode(1);
    4084:	81 e0       	ldi	r24, 0x01	; 1
    4086:	0e 94 c9 07 	call	0xf92	; 0xf92 <LCD_12864_GrapnicMode>
	LCD_12864_Clean_Frame_buffer();
    408a:	0e 94 0d 0c 	call	0x181a	; 0x181a <LCD_12864_Clean_Frame_buffer>
	//-----------Вывод времени/даты-------------------------------//
	Clock();
    408e:	0e 94 14 1e 	call	0x3c28	; 0x3c28 <Clock>
	sprintf(TIME,"%s:%s",hours, minutes);
    4092:	8d e0       	ldi	r24, 0x0D	; 13
    4094:	98 e0       	ldi	r25, 0x08	; 8
    4096:	9f 93       	push	r25
    4098:	8f 93       	push	r24
    409a:	81 e1       	ldi	r24, 0x11	; 17
    409c:	98 e0       	ldi	r25, 0x08	; 8
    409e:	9f 93       	push	r25
    40a0:	8f 93       	push	r24
    40a2:	8c eb       	ldi	r24, 0xBC	; 188
    40a4:	92 e0       	ldi	r25, 0x02	; 2
    40a6:	9f 93       	push	r25
    40a8:	8f 93       	push	r24
    40aa:	80 ee       	ldi	r24, 0xE0	; 224
    40ac:	97 e0       	ldi	r25, 0x07	; 7
    40ae:	9f 93       	push	r25
    40b0:	8f 93       	push	r24
    40b2:	0e 94 fe 2a 	call	0x55fc	; 0x55fc <sprintf>
	LCD_12864_Print_11_16(2, 0, 0, TIME);
    40b6:	20 ee       	ldi	r18, 0xE0	; 224
    40b8:	37 e0       	ldi	r19, 0x07	; 7
    40ba:	40 e0       	ldi	r20, 0x00	; 0
    40bc:	60 e0       	ldi	r22, 0x00	; 0
    40be:	82 e0       	ldi	r24, 0x02	; 2
    40c0:	90 e0       	ldi	r25, 0x00	; 0
    40c2:	0e 94 30 0b 	call	0x1660	; 0x1660 <LCD_12864_Print_11_16>
	LCD_12864_Decode_UTF8(63, 0, 0, seconds);
    40c6:	2a ef       	ldi	r18, 0xFA	; 250
    40c8:	37 e0       	ldi	r19, 0x07	; 7
    40ca:	40 e0       	ldi	r20, 0x00	; 0
    40cc:	60 e0       	ldi	r22, 0x00	; 0
    40ce:	8f e3       	ldi	r24, 0x3F	; 63
    40d0:	90 e0       	ldi	r25, 0x00	; 0
    40d2:	0e 94 6b 0b 	call	0x16d6	; 0x16d6 <LCD_12864_Decode_UTF8>
	LCD_12864_Decode_UTF8(61, 1, 0, weakday);
    40d6:	2a ee       	ldi	r18, 0xEA	; 234
    40d8:	37 e0       	ldi	r19, 0x07	; 7
    40da:	40 e0       	ldi	r20, 0x00	; 0
    40dc:	61 e0       	ldi	r22, 0x01	; 1
    40de:	8d e3       	ldi	r24, 0x3D	; 61
    40e0:	90 e0       	ldi	r25, 0x00	; 0
    40e2:	0e 94 6b 0b 	call	0x16d6	; 0x16d6 <LCD_12864_Decode_UTF8>
	LCD_12864_Decode_UTF8(73, 1, 0, ",");
    40e6:	28 eb       	ldi	r18, 0xB8	; 184
    40e8:	32 e0       	ldi	r19, 0x02	; 2
    40ea:	40 e0       	ldi	r20, 0x00	; 0
    40ec:	61 e0       	ldi	r22, 0x01	; 1
    40ee:	89 e4       	ldi	r24, 0x49	; 73
    40f0:	90 e0       	ldi	r25, 0x00	; 0
    40f2:	0e 94 6b 0b 	call	0x16d6	; 0x16d6 <LCD_12864_Decode_UTF8>
	LCD_12864_Decode_UTF8(76, 1, 0, mounthday);
    40f6:	23 e0       	ldi	r18, 0x03	; 3
    40f8:	38 e0       	ldi	r19, 0x08	; 8
    40fa:	40 e0       	ldi	r20, 0x00	; 0
    40fc:	61 e0       	ldi	r22, 0x01	; 1
    40fe:	8c e4       	ldi	r24, 0x4C	; 76
    4100:	90 e0       	ldi	r25, 0x00	; 0
    4102:	0e 94 6b 0b 	call	0x16d6	; 0x16d6 <LCD_12864_Decode_UTF8>
	LCD_12864_Decode_UTF8(88, 1, 0, "/");
    4106:	2a eb       	ldi	r18, 0xBA	; 186
    4108:	32 e0       	ldi	r19, 0x02	; 2
    410a:	40 e0       	ldi	r20, 0x00	; 0
    410c:	61 e0       	ldi	r22, 0x01	; 1
    410e:	88 e5       	ldi	r24, 0x58	; 88
    4110:	90 e0       	ldi	r25, 0x00	; 0
    4112:	0e 94 6b 0b 	call	0x16d6	; 0x16d6 <LCD_12864_Decode_UTF8>
	LCD_12864_Decode_UTF8(93, 1, 0, Mounth);
    4116:	23 ef       	ldi	r18, 0xF3	; 243
    4118:	37 e0       	ldi	r19, 0x07	; 7
    411a:	40 e0       	ldi	r20, 0x00	; 0
    411c:	61 e0       	ldi	r22, 0x01	; 1
    411e:	8d e5       	ldi	r24, 0x5D	; 93
    4120:	90 e0       	ldi	r25, 0x00	; 0
    4122:	0e 94 6b 0b 	call	0x16d6	; 0x16d6 <LCD_12864_Decode_UTF8>
	LCD_12864_Decode_UTF8(111, 1, 0, "/");
    4126:	2a eb       	ldi	r18, 0xBA	; 186
    4128:	32 e0       	ldi	r19, 0x02	; 2
    412a:	40 e0       	ldi	r20, 0x00	; 0
    412c:	61 e0       	ldi	r22, 0x01	; 1
    412e:	8f e6       	ldi	r24, 0x6F	; 111
    4130:	90 e0       	ldi	r25, 0x00	; 0
    4132:	0e 94 6b 0b 	call	0x16d6	; 0x16d6 <LCD_12864_Decode_UTF8>
	LCD_12864_Decode_UTF8(116, 1, 0, "22");
    4136:	22 ec       	ldi	r18, 0xC2	; 194
    4138:	32 e0       	ldi	r19, 0x02	; 2
    413a:	40 e0       	ldi	r20, 0x00	; 0
    413c:	61 e0       	ldi	r22, 0x01	; 1
    413e:	84 e7       	ldi	r24, 0x74	; 116
    4140:	90 e0       	ldi	r25, 0x00	; 0
    4142:	0e 94 6b 0b 	call	0x16d6	; 0x16d6 <LCD_12864_Decode_UTF8>
	//-----------Вывод уровня приема сигнала----------------------//
	LCD_12864_Draw_pixel(82, 6);
    4146:	66 e0       	ldi	r22, 0x06	; 6
    4148:	82 e5       	ldi	r24, 0x52	; 82
    414a:	0e 94 c6 06 	call	0xd8c	; 0xd8c <LCD_12864_Draw_pixel>
	LCD_12864_Draw_pixel(82, 5);
    414e:	65 e0       	ldi	r22, 0x05	; 5
    4150:	82 e5       	ldi	r24, 0x52	; 82
    4152:	0e 94 c6 06 	call	0xd8c	; 0xd8c <LCD_12864_Draw_pixel>
	LCD_12864_Draw_pixel(82, 4);
    4156:	64 e0       	ldi	r22, 0x04	; 4
    4158:	82 e5       	ldi	r24, 0x52	; 82
    415a:	0e 94 c6 06 	call	0xd8c	; 0xd8c <LCD_12864_Draw_pixel>
	LCD_12864_Draw_pixel(82, 3);
    415e:	63 e0       	ldi	r22, 0x03	; 3
    4160:	82 e5       	ldi	r24, 0x52	; 82
    4162:	0e 94 c6 06 	call	0xd8c	; 0xd8c <LCD_12864_Draw_pixel>
	LCD_12864_Draw_pixel(82, 2);
    4166:	62 e0       	ldi	r22, 0x02	; 2
    4168:	82 e5       	ldi	r24, 0x52	; 82
    416a:	0e 94 c6 06 	call	0xd8c	; 0xd8c <LCD_12864_Draw_pixel>
	LCD_12864_Draw_pixel(82, 1);
    416e:	61 e0       	ldi	r22, 0x01	; 1
    4170:	82 e5       	ldi	r24, 0x52	; 82
    4172:	0e 94 c6 06 	call	0xd8c	; 0xd8c <LCD_12864_Draw_pixel>
	LCD_12864_Draw_pixel(82, 0);
    4176:	60 e0       	ldi	r22, 0x00	; 0
    4178:	82 e5       	ldi	r24, 0x52	; 82
    417a:	0e 94 c6 06 	call	0xd8c	; 0xd8c <LCD_12864_Draw_pixel>
	LCD_12864_Draw_pixel(83, 0);
    417e:	60 e0       	ldi	r22, 0x00	; 0
    4180:	83 e5       	ldi	r24, 0x53	; 83
    4182:	0e 94 c6 06 	call	0xd8c	; 0xd8c <LCD_12864_Draw_pixel>
	LCD_12864_Draw_pixel(84, 0);
    4186:	60 e0       	ldi	r22, 0x00	; 0
    4188:	84 e5       	ldi	r24, 0x54	; 84
    418a:	0e 94 c6 06 	call	0xd8c	; 0xd8c <LCD_12864_Draw_pixel>
	LCD_12864_Draw_pixel(85, 0);
    418e:	60 e0       	ldi	r22, 0x00	; 0
    4190:	85 e5       	ldi	r24, 0x55	; 85
    4192:	0e 94 c6 06 	call	0xd8c	; 0xd8c <LCD_12864_Draw_pixel>
	LCD_12864_Draw_pixel(81, 0);
    4196:	60 e0       	ldi	r22, 0x00	; 0
    4198:	81 e5       	ldi	r24, 0x51	; 81
    419a:	0e 94 c6 06 	call	0xd8c	; 0xd8c <LCD_12864_Draw_pixel>
	LCD_12864_Draw_pixel(80, 0);
    419e:	60 e0       	ldi	r22, 0x00	; 0
    41a0:	80 e5       	ldi	r24, 0x50	; 80
    41a2:	0e 94 c6 06 	call	0xd8c	; 0xd8c <LCD_12864_Draw_pixel>
	LCD_12864_Draw_pixel(79, 0);
    41a6:	60 e0       	ldi	r22, 0x00	; 0
    41a8:	8f e4       	ldi	r24, 0x4F	; 79
    41aa:	0e 94 c6 06 	call	0xd8c	; 0xd8c <LCD_12864_Draw_pixel>
	LCD_12864_Draw_pixel(80, 1);
    41ae:	61 e0       	ldi	r22, 0x01	; 1
    41b0:	80 e5       	ldi	r24, 0x50	; 80
    41b2:	0e 94 c6 06 	call	0xd8c	; 0xd8c <LCD_12864_Draw_pixel>
	LCD_12864_Draw_pixel(81, 2);
    41b6:	62 e0       	ldi	r22, 0x02	; 2
    41b8:	81 e5       	ldi	r24, 0x51	; 81
    41ba:	0e 94 c6 06 	call	0xd8c	; 0xd8c <LCD_12864_Draw_pixel>
	LCD_12864_Draw_pixel(82, 3);
    41be:	63 e0       	ldi	r22, 0x03	; 3
    41c0:	82 e5       	ldi	r24, 0x52	; 82
    41c2:	0e 94 c6 06 	call	0xd8c	; 0xd8c <LCD_12864_Draw_pixel>
	LCD_12864_Draw_pixel(84, 1);
    41c6:	61 e0       	ldi	r22, 0x01	; 1
    41c8:	84 e5       	ldi	r24, 0x54	; 84
    41ca:	0e 94 c6 06 	call	0xd8c	; 0xd8c <LCD_12864_Draw_pixel>
	LCD_12864_Draw_pixel(83, 2);
    41ce:	62 e0       	ldi	r22, 0x02	; 2
    41d0:	83 e5       	ldi	r24, 0x53	; 83
    41d2:	0e 94 c6 06 	call	0xd8c	; 0xd8c <LCD_12864_Draw_pixel>
	switch (receive_counter)
    41d6:	2d b7       	in	r18, 0x3d	; 61
    41d8:	3e b7       	in	r19, 0x3e	; 62
    41da:	28 5f       	subi	r18, 0xF8	; 248
    41dc:	3f 4f       	sbci	r19, 0xFF	; 255
    41de:	0f b6       	in	r0, 0x3f	; 63
    41e0:	f8 94       	cli
    41e2:	3e bf       	out	0x3e, r19	; 62
    41e4:	0f be       	out	0x3f, r0	; 63
    41e6:	2d bf       	out	0x3d, r18	; 61
    41e8:	80 91 b7 07 	lds	r24, 0x07B7	; 0x8007b7 <receive_counter>
    41ec:	83 30       	cpi	r24, 0x03	; 3
    41ee:	11 f1       	breq	.+68     	; 0x4234 <Print_Home_Page+0x1ba>
    41f0:	28 f4       	brcc	.+10     	; 0x41fc <Print_Home_Page+0x182>
    41f2:	81 30       	cpi	r24, 0x01	; 1
    41f4:	59 f0       	breq	.+22     	; 0x420c <Print_Home_Page+0x192>
    41f6:	82 30       	cpi	r24, 0x02	; 2
    41f8:	81 f0       	breq	.+32     	; 0x421a <Print_Home_Page+0x1a0>
    41fa:	8b c0       	rjmp	.+278    	; 0x4312 <Print_Home_Page+0x298>
    41fc:	85 30       	cpi	r24, 0x05	; 5
    41fe:	09 f4       	brne	.+2      	; 0x4202 <Print_Home_Page+0x188>
    4200:	45 c0       	rjmp	.+138    	; 0x428c <Print_Home_Page+0x212>
    4202:	58 f1       	brcs	.+86     	; 0x425a <Print_Home_Page+0x1e0>
    4204:	86 30       	cpi	r24, 0x06	; 6
    4206:	09 f4       	brne	.+2      	; 0x420a <Print_Home_Page+0x190>
    4208:	60 c0       	rjmp	.+192    	; 0x42ca <Print_Home_Page+0x250>
    420a:	83 c0       	rjmp	.+262    	; 0x4312 <Print_Home_Page+0x298>
	{
		case 1: LCD_12864_Draw_line(84, 6, 84, 6);
    420c:	26 e0       	ldi	r18, 0x06	; 6
    420e:	44 e5       	ldi	r20, 0x54	; 84
    4210:	66 e0       	ldi	r22, 0x06	; 6
    4212:	84 e5       	ldi	r24, 0x54	; 84
    4214:	0e 94 18 0c 	call	0x1830	; 0x1830 <LCD_12864_Draw_line>
				break;
    4218:	7c c0       	rjmp	.+248    	; 0x4312 <Print_Home_Page+0x298>
		case 2: LCD_12864_Draw_line(84, 6, 84, 6);
    421a:	26 e0       	ldi	r18, 0x06	; 6
    421c:	44 e5       	ldi	r20, 0x54	; 84
    421e:	66 e0       	ldi	r22, 0x06	; 6
    4220:	84 e5       	ldi	r24, 0x54	; 84
    4222:	0e 94 18 0c 	call	0x1830	; 0x1830 <LCD_12864_Draw_line>
				LCD_12864_Draw_line(86, 6, 86, 5);
    4226:	25 e0       	ldi	r18, 0x05	; 5
    4228:	46 e5       	ldi	r20, 0x56	; 86
    422a:	66 e0       	ldi	r22, 0x06	; 6
    422c:	86 e5       	ldi	r24, 0x56	; 86
    422e:	0e 94 18 0c 	call	0x1830	; 0x1830 <LCD_12864_Draw_line>
				break;
    4232:	6f c0       	rjmp	.+222    	; 0x4312 <Print_Home_Page+0x298>
		case 3: LCD_12864_Draw_line(84, 6, 84, 6);
    4234:	26 e0       	ldi	r18, 0x06	; 6
    4236:	44 e5       	ldi	r20, 0x54	; 84
    4238:	66 e0       	ldi	r22, 0x06	; 6
    423a:	84 e5       	ldi	r24, 0x54	; 84
    423c:	0e 94 18 0c 	call	0x1830	; 0x1830 <LCD_12864_Draw_line>
		        LCD_12864_Draw_line(86, 6, 86, 5);
    4240:	25 e0       	ldi	r18, 0x05	; 5
    4242:	46 e5       	ldi	r20, 0x56	; 86
    4244:	66 e0       	ldi	r22, 0x06	; 6
    4246:	86 e5       	ldi	r24, 0x56	; 86
    4248:	0e 94 18 0c 	call	0x1830	; 0x1830 <LCD_12864_Draw_line>
				LCD_12864_Draw_line(88, 6, 88, 4);
    424c:	24 e0       	ldi	r18, 0x04	; 4
    424e:	48 e5       	ldi	r20, 0x58	; 88
    4250:	66 e0       	ldi	r22, 0x06	; 6
    4252:	88 e5       	ldi	r24, 0x58	; 88
    4254:	0e 94 18 0c 	call	0x1830	; 0x1830 <LCD_12864_Draw_line>
				break;
    4258:	5c c0       	rjmp	.+184    	; 0x4312 <Print_Home_Page+0x298>
		case 4: LCD_12864_Draw_line(84, 6, 84, 6);
    425a:	26 e0       	ldi	r18, 0x06	; 6
    425c:	44 e5       	ldi	r20, 0x54	; 84
    425e:	66 e0       	ldi	r22, 0x06	; 6
    4260:	84 e5       	ldi	r24, 0x54	; 84
    4262:	0e 94 18 0c 	call	0x1830	; 0x1830 <LCD_12864_Draw_line>
				LCD_12864_Draw_line(86, 6, 86, 5);
    4266:	25 e0       	ldi	r18, 0x05	; 5
    4268:	46 e5       	ldi	r20, 0x56	; 86
    426a:	66 e0       	ldi	r22, 0x06	; 6
    426c:	86 e5       	ldi	r24, 0x56	; 86
    426e:	0e 94 18 0c 	call	0x1830	; 0x1830 <LCD_12864_Draw_line>
				LCD_12864_Draw_line(88, 6, 88, 4);
    4272:	24 e0       	ldi	r18, 0x04	; 4
    4274:	48 e5       	ldi	r20, 0x58	; 88
    4276:	66 e0       	ldi	r22, 0x06	; 6
    4278:	88 e5       	ldi	r24, 0x58	; 88
    427a:	0e 94 18 0c 	call	0x1830	; 0x1830 <LCD_12864_Draw_line>
				LCD_12864_Draw_line(90, 6, 90, 3);
    427e:	23 e0       	ldi	r18, 0x03	; 3
    4280:	4a e5       	ldi	r20, 0x5A	; 90
    4282:	66 e0       	ldi	r22, 0x06	; 6
    4284:	8a e5       	ldi	r24, 0x5A	; 90
    4286:	0e 94 18 0c 	call	0x1830	; 0x1830 <LCD_12864_Draw_line>
				break;
    428a:	43 c0       	rjmp	.+134    	; 0x4312 <Print_Home_Page+0x298>
		case 5: LCD_12864_Draw_line(84, 6, 84, 6);
    428c:	26 e0       	ldi	r18, 0x06	; 6
    428e:	44 e5       	ldi	r20, 0x54	; 84
    4290:	66 e0       	ldi	r22, 0x06	; 6
    4292:	84 e5       	ldi	r24, 0x54	; 84
    4294:	0e 94 18 0c 	call	0x1830	; 0x1830 <LCD_12864_Draw_line>
				LCD_12864_Draw_line(86, 6, 86, 5);
    4298:	25 e0       	ldi	r18, 0x05	; 5
    429a:	46 e5       	ldi	r20, 0x56	; 86
    429c:	66 e0       	ldi	r22, 0x06	; 6
    429e:	86 e5       	ldi	r24, 0x56	; 86
    42a0:	0e 94 18 0c 	call	0x1830	; 0x1830 <LCD_12864_Draw_line>
				LCD_12864_Draw_line(88, 6, 88, 4);
    42a4:	24 e0       	ldi	r18, 0x04	; 4
    42a6:	48 e5       	ldi	r20, 0x58	; 88
    42a8:	66 e0       	ldi	r22, 0x06	; 6
    42aa:	88 e5       	ldi	r24, 0x58	; 88
    42ac:	0e 94 18 0c 	call	0x1830	; 0x1830 <LCD_12864_Draw_line>
				LCD_12864_Draw_line(90, 6, 90, 3);
    42b0:	23 e0       	ldi	r18, 0x03	; 3
    42b2:	4a e5       	ldi	r20, 0x5A	; 90
    42b4:	66 e0       	ldi	r22, 0x06	; 6
    42b6:	8a e5       	ldi	r24, 0x5A	; 90
    42b8:	0e 94 18 0c 	call	0x1830	; 0x1830 <LCD_12864_Draw_line>
				LCD_12864_Draw_line(92, 6, 92, 2);
    42bc:	22 e0       	ldi	r18, 0x02	; 2
    42be:	4c e5       	ldi	r20, 0x5C	; 92
    42c0:	66 e0       	ldi	r22, 0x06	; 6
    42c2:	8c e5       	ldi	r24, 0x5C	; 92
    42c4:	0e 94 18 0c 	call	0x1830	; 0x1830 <LCD_12864_Draw_line>
				break;
    42c8:	24 c0       	rjmp	.+72     	; 0x4312 <Print_Home_Page+0x298>
		case 6: LCD_12864_Draw_line(84, 6, 84, 6);
    42ca:	26 e0       	ldi	r18, 0x06	; 6
    42cc:	44 e5       	ldi	r20, 0x54	; 84
    42ce:	66 e0       	ldi	r22, 0x06	; 6
    42d0:	84 e5       	ldi	r24, 0x54	; 84
    42d2:	0e 94 18 0c 	call	0x1830	; 0x1830 <LCD_12864_Draw_line>
				LCD_12864_Draw_line(86, 6, 86, 5);
    42d6:	25 e0       	ldi	r18, 0x05	; 5
    42d8:	46 e5       	ldi	r20, 0x56	; 86
    42da:	66 e0       	ldi	r22, 0x06	; 6
    42dc:	86 e5       	ldi	r24, 0x56	; 86
    42de:	0e 94 18 0c 	call	0x1830	; 0x1830 <LCD_12864_Draw_line>
				LCD_12864_Draw_line(88, 6, 88, 4);
    42e2:	24 e0       	ldi	r18, 0x04	; 4
    42e4:	48 e5       	ldi	r20, 0x58	; 88
    42e6:	66 e0       	ldi	r22, 0x06	; 6
    42e8:	88 e5       	ldi	r24, 0x58	; 88
    42ea:	0e 94 18 0c 	call	0x1830	; 0x1830 <LCD_12864_Draw_line>
				LCD_12864_Draw_line(90, 6, 90, 3);
    42ee:	23 e0       	ldi	r18, 0x03	; 3
    42f0:	4a e5       	ldi	r20, 0x5A	; 90
    42f2:	66 e0       	ldi	r22, 0x06	; 6
    42f4:	8a e5       	ldi	r24, 0x5A	; 90
    42f6:	0e 94 18 0c 	call	0x1830	; 0x1830 <LCD_12864_Draw_line>
				LCD_12864_Draw_line(92, 6, 92, 2);
    42fa:	22 e0       	ldi	r18, 0x02	; 2
    42fc:	4c e5       	ldi	r20, 0x5C	; 92
    42fe:	66 e0       	ldi	r22, 0x06	; 6
    4300:	8c e5       	ldi	r24, 0x5C	; 92
    4302:	0e 94 18 0c 	call	0x1830	; 0x1830 <LCD_12864_Draw_line>
				LCD_12864_Draw_line(94, 6, 94, 1);
    4306:	21 e0       	ldi	r18, 0x01	; 1
    4308:	4e e5       	ldi	r20, 0x5E	; 94
    430a:	66 e0       	ldi	r22, 0x06	; 6
    430c:	8e e5       	ldi	r24, 0x5E	; 94
    430e:	0e 94 18 0c 	call	0x1830	; 0x1830 <LCD_12864_Draw_line>
				break;
	}
	//-----------Вывод уличных показателей-----------------------//
	LCD_12864_Decode_UTF8(30, 4, 0, "°C");
    4312:	25 ec       	ldi	r18, 0xC5	; 197
    4314:	32 e0       	ldi	r19, 0x02	; 2
    4316:	40 e0       	ldi	r20, 0x00	; 0
    4318:	64 e0       	ldi	r22, 0x04	; 4
    431a:	8e e1       	ldi	r24, 0x1E	; 30
    431c:	90 e0       	ldi	r25, 0x00	; 0
    431e:	0e 94 6b 0b 	call	0x16d6	; 0x16d6 <LCD_12864_Decode_UTF8>
	LCD_12864_Decode_UTF8(58, 4, 0, "%");
    4322:	28 ec       	ldi	r18, 0xC8	; 200
    4324:	32 e0       	ldi	r19, 0x02	; 2
    4326:	40 e0       	ldi	r20, 0x00	; 0
    4328:	64 e0       	ldi	r22, 0x04	; 4
    432a:	8a e3       	ldi	r24, 0x3A	; 58
    432c:	90 e0       	ldi	r25, 0x00	; 0
    432e:	0e 94 6b 0b 	call	0x16d6	; 0x16d6 <LCD_12864_Decode_UTF8>
	LCD_12864_Print_7_11(1, 3, 0, temp_street);
    4332:	2d ea       	ldi	r18, 0xAD	; 173
    4334:	33 e0       	ldi	r19, 0x03	; 3
    4336:	40 e0       	ldi	r20, 0x00	; 0
    4338:	63 e0       	ldi	r22, 0x03	; 3
    433a:	81 e0       	ldi	r24, 0x01	; 1
    433c:	90 e0       	ldi	r25, 0x00	; 0
    433e:	0e 94 92 0a 	call	0x1524	; 0x1524 <LCD_12864_Print_7_11>
	LCD_12864_Print_7_11(43, 3, 0, hum_street);
    4342:	23 ea       	ldi	r18, 0xA3	; 163
    4344:	33 e0       	ldi	r19, 0x03	; 3
    4346:	40 e0       	ldi	r20, 0x00	; 0
    4348:	63 e0       	ldi	r22, 0x03	; 3
    434a:	8b e2       	ldi	r24, 0x2B	; 43
    434c:	90 e0       	ldi	r25, 0x00	; 0
    434e:	0e 94 92 0a 	call	0x1524	; 0x1524 <LCD_12864_Print_7_11>
	sprintf(Vbat,"%.2f",V_BAT(adc_value1));
    4352:	87 e6       	ldi	r24, 0x67	; 103
    4354:	93 e0       	ldi	r25, 0x03	; 3
    4356:	0e 94 8f 1e 	call	0x3d1e	; 0x3d1e <V_BAT>
    435a:	9f 93       	push	r25
    435c:	8f 93       	push	r24
    435e:	7f 93       	push	r23
    4360:	6f 93       	push	r22
    4362:	0a ec       	ldi	r16, 0xCA	; 202
    4364:	12 e0       	ldi	r17, 0x02	; 2
    4366:	1f 93       	push	r17
    4368:	0f 93       	push	r16
    436a:	83 e5       	ldi	r24, 0x53	; 83
    436c:	93 e0       	ldi	r25, 0x03	; 3
    436e:	9f 93       	push	r25
    4370:	8f 93       	push	r24
    4372:	0e 94 fe 2a 	call	0x55fc	; 0x55fc <sprintf>
	LCD_12864_Print_4_6(44, 2, 0, Vbat);
    4376:	23 e5       	ldi	r18, 0x53	; 83
    4378:	33 e0       	ldi	r19, 0x03	; 3
    437a:	40 e0       	ldi	r20, 0x00	; 0
    437c:	62 e0       	ldi	r22, 0x02	; 2
    437e:	8c e2       	ldi	r24, 0x2C	; 44
    4380:	90 e0       	ldi	r25, 0x00	; 0
    4382:	0e 94 e1 0a 	call	0x15c2	; 0x15c2 <LCD_12864_Print_4_6>
	sprintf(WIND_speed,"%.2f", wind_speed (HALL_counter));
    4386:	85 e8       	ldi	r24, 0x85	; 133
    4388:	93 e0       	ldi	r25, 0x03	; 3
    438a:	0e 94 05 20 	call	0x400a	; 0x400a <wind_speed>
    438e:	9f 93       	push	r25
    4390:	8f 93       	push	r24
    4392:	7f 93       	push	r23
    4394:	6f 93       	push	r22
    4396:	1f 93       	push	r17
    4398:	0f 93       	push	r16
    439a:	8b e7       	ldi	r24, 0x7B	; 123
    439c:	93 e0       	ldi	r25, 0x03	; 3
    439e:	9f 93       	push	r25
    43a0:	8f 93       	push	r24
    43a2:	0e 94 fe 2a 	call	0x55fc	; 0x55fc <sprintf>
	LCD_12864_Print_4_6(26, 5, 0, WIND_speed);
    43a6:	2b e7       	ldi	r18, 0x7B	; 123
    43a8:	33 e0       	ldi	r19, 0x03	; 3
    43aa:	40 e0       	ldi	r20, 0x00	; 0
    43ac:	65 e0       	ldi	r22, 0x05	; 5
    43ae:	8a e1       	ldi	r24, 0x1A	; 26
    43b0:	90 e0       	ldi	r25, 0x00	; 0
    43b2:	0e 94 e1 0a 	call	0x15c2	; 0x15c2 <LCD_12864_Print_4_6>
	LCD_12864_Decode_UTF8(45, 5, 0, "м/с");
    43b6:	2f ec       	ldi	r18, 0xCF	; 207
    43b8:	32 e0       	ldi	r19, 0x02	; 2
    43ba:	40 e0       	ldi	r20, 0x00	; 0
    43bc:	65 e0       	ldi	r22, 0x05	; 5
    43be:	8d e2       	ldi	r24, 0x2D	; 45
    43c0:	90 e0       	ldi	r25, 0x00	; 0
    43c2:	0e 94 6b 0b 	call	0x16d6	; 0x16d6 <LCD_12864_Decode_UTF8>
	LCD_12864_Decode_UTF8(30, 6, 0, "осадки");
    43c6:	23 ed       	ldi	r18, 0xD3	; 211
    43c8:	32 e0       	ldi	r19, 0x02	; 2
    43ca:	40 e0       	ldi	r20, 0x00	; 0
    43cc:	66 e0       	ldi	r22, 0x06	; 6
    43ce:	8e e1       	ldi	r24, 0x1E	; 30
    43d0:	90 e0       	ldi	r25, 0x00	; 0
    43d2:	0e 94 6b 0b 	call	0x16d6	; 0x16d6 <LCD_12864_Decode_UTF8>
	LCD_12864_Draw_line(27, 52, 24, 52);
    43d6:	24 e3       	ldi	r18, 0x34	; 52
    43d8:	48 e1       	ldi	r20, 0x18	; 24
    43da:	64 e3       	ldi	r22, 0x34	; 52
    43dc:	8b e1       	ldi	r24, 0x1B	; 27
    43de:	0e 94 18 0c 	call	0x1830	; 0x1830 <LCD_12864_Draw_line>
	LCD_12864_Draw_line(24, 52, 24, 59);
    43e2:	2b e3       	ldi	r18, 0x3B	; 59
    43e4:	48 e1       	ldi	r20, 0x18	; 24
    43e6:	64 e3       	ldi	r22, 0x34	; 52
    43e8:	88 e1       	ldi	r24, 0x18	; 24
    43ea:	0e 94 18 0c 	call	0x1830	; 0x1830 <LCD_12864_Draw_line>
	LCD_12864_Draw_line(24, 59, 28, 59);
    43ee:	2b e3       	ldi	r18, 0x3B	; 59
    43f0:	4c e1       	ldi	r20, 0x1C	; 28
    43f2:	6b e3       	ldi	r22, 0x3B	; 59
    43f4:	88 e1       	ldi	r24, 0x18	; 24
    43f6:	0e 94 18 0c 	call	0x1830	; 0x1830 <LCD_12864_Draw_line>
	LCD_12864_Draw_pixel(27, 58);
    43fa:	6a e3       	ldi	r22, 0x3A	; 58
    43fc:	8b e1       	ldi	r24, 0x1B	; 27
    43fe:	0e 94 c6 06 	call	0xd8c	; 0xd8c <LCD_12864_Draw_pixel>
	LCD_12864_Draw_pixel(27, 60);
    4402:	6c e3       	ldi	r22, 0x3C	; 60
    4404:	8b e1       	ldi	r24, 0x1B	; 27
    4406:	0e 94 c6 06 	call	0xd8c	; 0xd8c <LCD_12864_Draw_pixel>
	LCD_12864_Draw_pixel(26, 57);
    440a:	69 e3       	ldi	r22, 0x39	; 57
    440c:	8a e1       	ldi	r24, 0x1A	; 26
    440e:	0e 94 c6 06 	call	0xd8c	; 0xd8c <LCD_12864_Draw_pixel>
	LCD_12864_Draw_pixel(26, 61);
    4412:	6d e3       	ldi	r22, 0x3D	; 61
    4414:	8a e1       	ldi	r24, 0x1A	; 26
    4416:	0e 94 c6 06 	call	0xd8c	; 0xd8c <LCD_12864_Draw_pixel>
	if (RAIN_AMOUNT(adc_value2) >= 0.9f)  LCD_12864_Decode_UTF8(30, 7, 0, "отсутств.");
    441a:	8d e5       	ldi	r24, 0x5D	; 93
    441c:	93 e0       	ldi	r25, 0x03	; 3
    441e:	0e 94 52 1e 	call	0x3ca4	; 0x3ca4 <RAIN_AMOUNT>
    4422:	2d b7       	in	r18, 0x3d	; 61
    4424:	3e b7       	in	r19, 0x3e	; 62
    4426:	20 5f       	subi	r18, 0xF0	; 240
    4428:	3f 4f       	sbci	r19, 0xFF	; 255
    442a:	0f b6       	in	r0, 0x3f	; 63
    442c:	f8 94       	cli
    442e:	3e bf       	out	0x3e, r19	; 62
    4430:	0f be       	out	0x3f, r0	; 63
    4432:	2d bf       	out	0x3d, r18	; 61
    4434:	26 e6       	ldi	r18, 0x66	; 102
    4436:	36 e6       	ldi	r19, 0x66	; 102
    4438:	46 e6       	ldi	r20, 0x66	; 102
    443a:	5f e3       	ldi	r21, 0x3F	; 63
    443c:	0e 94 1a 25 	call	0x4a34	; 0x4a34 <__gesf2>
    4440:	88 23       	and	r24, r24
    4442:	44 f0       	brlt	.+16     	; 0x4454 <Print_Home_Page+0x3da>
    4444:	2a ed       	ldi	r18, 0xDA	; 218
    4446:	32 e0       	ldi	r19, 0x02	; 2
    4448:	40 e0       	ldi	r20, 0x00	; 0
    444a:	67 e0       	ldi	r22, 0x07	; 7
    444c:	8e e1       	ldi	r24, 0x1E	; 30
    444e:	90 e0       	ldi	r25, 0x00	; 0
    4450:	0e 94 6b 0b 	call	0x16d6	; 0x16d6 <LCD_12864_Decode_UTF8>
	

	//-----------Вывод показателей в доме-----------------------//
	if (dht22_GetData(data))
    4454:	8e ef       	ldi	r24, 0xFE	; 254
    4456:	92 e0       	ldi	r25, 0x02	; 2
    4458:	0e 94 65 06 	call	0xcca	; 0xcca <dht22_GetData>
    445c:	88 23       	and	r24, r24
    445e:	09 f4       	brne	.+2      	; 0x4462 <Print_Home_Page+0x3e8>
    4460:	72 c0       	rjmp	.+228    	; 0x4546 <Print_Home_Page+0x4cc>
	{
		 //data[1]-младший бит температуры
		 //data[2]-старший бит температуры
		 //data[3]-младший бит влажности
		 //data[4]-старший бит влажности
		 temp = (float)(((data[2]<<8)|data[1]) / 10.0);
    4462:	ee ef       	ldi	r30, 0xFE	; 254
    4464:	f2 e0       	ldi	r31, 0x02	; 2
    4466:	02 81       	ldd	r16, Z+2	; 0x02
    4468:	10 e0       	ldi	r17, 0x00	; 0
    446a:	10 2f       	mov	r17, r16
    446c:	00 27       	eor	r16, r16
    446e:	81 81       	ldd	r24, Z+1	; 0x01
    4470:	08 2b       	or	r16, r24
    4472:	b8 01       	movw	r22, r16
    4474:	01 2e       	mov	r0, r17
    4476:	00 0c       	add	r0, r0
    4478:	88 0b       	sbc	r24, r24
    447a:	99 0b       	sbc	r25, r25
    447c:	0e 94 6a 24 	call	0x48d4	; 0x48d4 <__floatsisf>
    4480:	20 e0       	ldi	r18, 0x00	; 0
    4482:	30 e0       	ldi	r19, 0x00	; 0
    4484:	40 e2       	ldi	r20, 0x20	; 32
    4486:	51 e4       	ldi	r21, 0x41	; 65
    4488:	0e 94 c0 23 	call	0x4780	; 0x4780 <__divsf3>
    448c:	60 93 09 03 	sts	0x0309, r22	; 0x800309 <temp>
    4490:	70 93 0a 03 	sts	0x030A, r23	; 0x80030a <temp+0x1>
    4494:	80 93 0b 03 	sts	0x030B, r24	; 0x80030b <temp+0x2>
    4498:	90 93 0c 03 	sts	0x030C, r25	; 0x80030c <temp+0x3>
		 if (((data[2]<<8)|data[1]) & 0x8000) temp *= -1.0;
    449c:	11 23       	and	r17, r17
    449e:	5c f4       	brge	.+22     	; 0x44b6 <Print_Home_Page+0x43c>
    44a0:	dc 01       	movw	r26, r24
    44a2:	cb 01       	movw	r24, r22
    44a4:	b0 58       	subi	r27, 0x80	; 128
    44a6:	80 93 09 03 	sts	0x0309, r24	; 0x800309 <temp>
    44aa:	90 93 0a 03 	sts	0x030A, r25	; 0x80030a <temp+0x1>
    44ae:	a0 93 0b 03 	sts	0x030B, r26	; 0x80030b <temp+0x2>
    44b2:	b0 93 0c 03 	sts	0x030C, r27	; 0x80030c <temp+0x3>
		 sprintf(temp_home,"%.1f",temp);
    44b6:	80 91 0c 03 	lds	r24, 0x030C	; 0x80030c <temp+0x3>
    44ba:	8f 93       	push	r24
    44bc:	80 91 0b 03 	lds	r24, 0x030B	; 0x80030b <temp+0x2>
    44c0:	8f 93       	push	r24
    44c2:	80 91 0a 03 	lds	r24, 0x030A	; 0x80030a <temp+0x1>
    44c6:	8f 93       	push	r24
    44c8:	80 91 09 03 	lds	r24, 0x0309	; 0x800309 <temp>
    44cc:	8f 93       	push	r24
    44ce:	8d e1       	ldi	r24, 0x1D	; 29
    44d0:	91 e0       	ldi	r25, 0x01	; 1
    44d2:	9f 93       	push	r25
    44d4:	8f 93       	push	r24
    44d6:	89 e9       	ldi	r24, 0x99	; 153
    44d8:	93 e0       	ldi	r25, 0x03	; 3
    44da:	9f 93       	push	r25
    44dc:	8f 93       	push	r24
    44de:	0e 94 fe 2a 	call	0x55fc	; 0x55fc <sprintf>
		 hum = (float)(((data[4]<<8)|data[3]) / 10.0);
    44e2:	ee ef       	ldi	r30, 0xFE	; 254
    44e4:	f2 e0       	ldi	r31, 0x02	; 2
    44e6:	64 81       	ldd	r22, Z+4	; 0x04
    44e8:	70 e0       	ldi	r23, 0x00	; 0
    44ea:	76 2f       	mov	r23, r22
    44ec:	66 27       	eor	r22, r22
    44ee:	83 81       	ldd	r24, Z+3	; 0x03
    44f0:	68 2b       	or	r22, r24
    44f2:	07 2e       	mov	r0, r23
    44f4:	00 0c       	add	r0, r0
    44f6:	88 0b       	sbc	r24, r24
    44f8:	99 0b       	sbc	r25, r25
    44fa:	0e 94 6a 24 	call	0x48d4	; 0x48d4 <__floatsisf>
    44fe:	20 e0       	ldi	r18, 0x00	; 0
    4500:	30 e0       	ldi	r19, 0x00	; 0
    4502:	40 e2       	ldi	r20, 0x20	; 32
    4504:	51 e4       	ldi	r21, 0x41	; 65
    4506:	0e 94 c0 23 	call	0x4780	; 0x4780 <__divsf3>
    450a:	60 93 05 03 	sts	0x0305, r22	; 0x800305 <hum>
    450e:	70 93 06 03 	sts	0x0306, r23	; 0x800306 <hum+0x1>
    4512:	80 93 07 03 	sts	0x0307, r24	; 0x800307 <hum+0x2>
    4516:	90 93 08 03 	sts	0x0308, r25	; 0x800308 <hum+0x3>
		 sprintf(hum_home,"%d",(int)hum);
    451a:	0e 94 32 24 	call	0x4864	; 0x4864 <__fixsfsi>
    451e:	7f 93       	push	r23
    4520:	6f 93       	push	r22
    4522:	8d e9       	ldi	r24, 0x9D	; 157
    4524:	92 e0       	ldi	r25, 0x02	; 2
    4526:	9f 93       	push	r25
    4528:	8f 93       	push	r24
    452a:	8f e8       	ldi	r24, 0x8F	; 143
    452c:	93 e0       	ldi	r25, 0x03	; 3
    452e:	9f 93       	push	r25
    4530:	8f 93       	push	r24
    4532:	0e 94 fe 2a 	call	0x55fc	; 0x55fc <sprintf>
    4536:	8d b7       	in	r24, 0x3d	; 61
    4538:	9e b7       	in	r25, 0x3e	; 62
    453a:	0e 96       	adiw	r24, 0x0e	; 14
    453c:	0f b6       	in	r0, 0x3f	; 63
    453e:	f8 94       	cli
    4540:	9e bf       	out	0x3e, r25	; 62
    4542:	0f be       	out	0x3f, r0	; 63
    4544:	8d bf       	out	0x3d, r24	; 61
	}
	pressure_home = BMP180_calculation()*0.0075;
    4546:	0e 94 c9 04 	call	0x992	; 0x992 <BMP180_calculation>
    454a:	0e 94 6a 24 	call	0x48d4	; 0x48d4 <__floatsisf>
    454e:	2f e8       	ldi	r18, 0x8F	; 143
    4550:	32 ec       	ldi	r19, 0xC2	; 194
    4552:	45 ef       	ldi	r20, 0xF5	; 245
    4554:	5b e3       	ldi	r21, 0x3B	; 59
    4556:	0e 94 1f 25 	call	0x4a3e	; 0x4a3e <__mulsf3>
    455a:	0e 94 32 24 	call	0x4864	; 0x4864 <__fixsfsi>
    455e:	60 93 03 03 	sts	0x0303, r22	; 0x800303 <pressure_home>
    4562:	70 93 04 03 	sts	0x0304, r23	; 0x800304 <pressure_home+0x1>
	sprintf(Press_home,"%d",pressure_home);
    4566:	7f 93       	push	r23
    4568:	6f 93       	push	r22
    456a:	8d e9       	ldi	r24, 0x9D	; 157
    456c:	92 e0       	ldi	r25, 0x02	; 2
    456e:	9f 93       	push	r25
    4570:	8f 93       	push	r24
    4572:	8d e0       	ldi	r24, 0x0D	; 13
    4574:	93 e0       	ldi	r25, 0x03	; 3
    4576:	9f 93       	push	r25
    4578:	8f 93       	push	r24
    457a:	0e 94 fe 2a 	call	0x55fc	; 0x55fc <sprintf>
	LCD_12864_Decode_UTF8(95, 4, 0, "°C");
    457e:	25 ec       	ldi	r18, 0xC5	; 197
    4580:	32 e0       	ldi	r19, 0x02	; 2
    4582:	40 e0       	ldi	r20, 0x00	; 0
    4584:	64 e0       	ldi	r22, 0x04	; 4
    4586:	8f e5       	ldi	r24, 0x5F	; 95
    4588:	90 e0       	ldi	r25, 0x00	; 0
    458a:	0e 94 6b 0b 	call	0x16d6	; 0x16d6 <LCD_12864_Decode_UTF8>
	LCD_12864_Print_7_11(66, 3, 0, temp_home);
    458e:	29 e9       	ldi	r18, 0x99	; 153
    4590:	33 e0       	ldi	r19, 0x03	; 3
    4592:	40 e0       	ldi	r20, 0x00	; 0
    4594:	63 e0       	ldi	r22, 0x03	; 3
    4596:	82 e4       	ldi	r24, 0x42	; 66
    4598:	90 e0       	ldi	r25, 0x00	; 0
    459a:	0e 94 92 0a 	call	0x1524	; 0x1524 <LCD_12864_Print_7_11>
	LCD_12864_Decode_UTF8(123, 4, 0, "%");
    459e:	28 ec       	ldi	r18, 0xC8	; 200
    45a0:	32 e0       	ldi	r19, 0x02	; 2
    45a2:	40 e0       	ldi	r20, 0x00	; 0
    45a4:	64 e0       	ldi	r22, 0x04	; 4
    45a6:	8b e7       	ldi	r24, 0x7B	; 123
    45a8:	90 e0       	ldi	r25, 0x00	; 0
    45aa:	0e 94 6b 0b 	call	0x16d6	; 0x16d6 <LCD_12864_Decode_UTF8>
	LCD_12864_Print_7_11(108, 3, 0, hum_home);
    45ae:	2f e8       	ldi	r18, 0x8F	; 143
    45b0:	33 e0       	ldi	r19, 0x03	; 3
    45b2:	40 e0       	ldi	r20, 0x00	; 0
    45b4:	63 e0       	ldi	r22, 0x03	; 3
    45b6:	8c e6       	ldi	r24, 0x6C	; 108
    45b8:	90 e0       	ldi	r25, 0x00	; 0
    45ba:	0e 94 92 0a 	call	0x1524	; 0x1524 <LCD_12864_Print_7_11>
	LCD_12864_Print_4_6(86, 2, 0, Press_home);
    45be:	2d e0       	ldi	r18, 0x0D	; 13
    45c0:	33 e0       	ldi	r19, 0x03	; 3
    45c2:	40 e0       	ldi	r20, 0x00	; 0
    45c4:	62 e0       	ldi	r22, 0x02	; 2
    45c6:	86 e5       	ldi	r24, 0x56	; 86
    45c8:	90 e0       	ldi	r25, 0x00	; 0
    45ca:	0e 94 e1 0a 	call	0x15c2	; 0x15c2 <LCD_12864_Print_4_6>
	LCD_12864_Decode_UTF8(101, 2, 0, "мм");
    45ce:	24 ee       	ldi	r18, 0xE4	; 228
    45d0:	32 e0       	ldi	r19, 0x02	; 2
    45d2:	40 e0       	ldi	r20, 0x00	; 0
    45d4:	62 e0       	ldi	r22, 0x02	; 2
    45d6:	85 e6       	ldi	r24, 0x65	; 101
    45d8:	90 e0       	ldi	r25, 0x00	; 0
    45da:	0e 94 6b 0b 	call	0x16d6	; 0x16d6 <LCD_12864_Decode_UTF8>
	LCD_12864_Decode_UTF8(114, 2, 0, "Hg");
    45de:	27 ee       	ldi	r18, 0xE7	; 231
    45e0:	32 e0       	ldi	r19, 0x02	; 2
    45e2:	40 e0       	ldi	r20, 0x00	; 0
    45e4:	62 e0       	ldi	r22, 0x02	; 2
    45e6:	82 e7       	ldi	r24, 0x72	; 114
    45e8:	90 e0       	ldi	r25, 0x00	; 0
    45ea:	0e 94 6b 0b 	call	0x16d6	; 0x16d6 <LCD_12864_Decode_UTF8>
	
	//-----------Вывод разделительных линий-----------------------//
	LCD_12864_Decode_UTF8(2, 2, 0, "улица");
    45ee:	2a ee       	ldi	r18, 0xEA	; 234
    45f0:	32 e0       	ldi	r19, 0x02	; 2
    45f2:	40 e0       	ldi	r20, 0x00	; 0
    45f4:	62 e0       	ldi	r22, 0x02	; 2
    45f6:	82 e0       	ldi	r24, 0x02	; 2
    45f8:	90 e0       	ldi	r25, 0x00	; 0
    45fa:	0e 94 6b 0b 	call	0x16d6	; 0x16d6 <LCD_12864_Decode_UTF8>
	LCD_12864_Decode_UTF8(65, 2, 0, "дом");
    45fe:	20 ef       	ldi	r18, 0xF0	; 240
    4600:	32 e0       	ldi	r19, 0x02	; 2
    4602:	40 e0       	ldi	r20, 0x00	; 0
    4604:	62 e0       	ldi	r22, 0x02	; 2
    4606:	81 e4       	ldi	r24, 0x41	; 65
    4608:	90 e0       	ldi	r25, 0x00	; 0
    460a:	0e 94 6b 0b 	call	0x16d6	; 0x16d6 <LCD_12864_Decode_UTF8>
	LCD_12864_Draw_line(0, 16, 128, 16);
    460e:	20 e1       	ldi	r18, 0x10	; 16
    4610:	40 e8       	ldi	r20, 0x80	; 128
    4612:	60 e1       	ldi	r22, 0x10	; 16
    4614:	80 e0       	ldi	r24, 0x00	; 0
    4616:	0e 94 18 0c 	call	0x1830	; 0x1830 <LCD_12864_Draw_line>
	LCD_12864_Draw_line(0, 24, 32, 24);
    461a:	28 e1       	ldi	r18, 0x18	; 24
    461c:	40 e2       	ldi	r20, 0x20	; 32
    461e:	68 e1       	ldi	r22, 0x18	; 24
    4620:	80 e0       	ldi	r24, 0x00	; 0
    4622:	0e 94 18 0c 	call	0x1830	; 0x1830 <LCD_12864_Draw_line>
	LCD_12864_Draw_line(32, 17, 32, 24);
    4626:	28 e1       	ldi	r18, 0x18	; 24
    4628:	40 e2       	ldi	r20, 0x20	; 32
    462a:	61 e1       	ldi	r22, 0x11	; 17
    462c:	80 e2       	ldi	r24, 0x20	; 32
    462e:	0e 94 18 0c 	call	0x1830	; 0x1830 <LCD_12864_Draw_line>
	LCD_12864_Draw_line(0, 17, 0, 24);
    4632:	28 e1       	ldi	r18, 0x18	; 24
    4634:	40 e0       	ldi	r20, 0x00	; 0
    4636:	61 e1       	ldi	r22, 0x11	; 17
    4638:	80 e0       	ldi	r24, 0x00	; 0
    463a:	0e 94 18 0c 	call	0x1830	; 0x1830 <LCD_12864_Draw_line>
	LCD_12864_Draw_line(64, 24, 83, 24);
    463e:	28 e1       	ldi	r18, 0x18	; 24
    4640:	43 e5       	ldi	r20, 0x53	; 83
    4642:	68 e1       	ldi	r22, 0x18	; 24
    4644:	80 e4       	ldi	r24, 0x40	; 64
    4646:	0e 94 18 0c 	call	0x1830	; 0x1830 <LCD_12864_Draw_line>
	LCD_12864_Draw_line(83, 17, 83, 24);
    464a:	28 e1       	ldi	r18, 0x18	; 24
    464c:	43 e5       	ldi	r20, 0x53	; 83
    464e:	61 e1       	ldi	r22, 0x11	; 17
    4650:	83 e5       	ldi	r24, 0x53	; 83
    4652:	0e 94 18 0c 	call	0x1830	; 0x1830 <LCD_12864_Draw_line>
	LCD_12864_Draw_line(63, 17, 63, 41);
    4656:	29 e2       	ldi	r18, 0x29	; 41
    4658:	4f e3       	ldi	r20, 0x3F	; 63
    465a:	61 e1       	ldi	r22, 0x11	; 17
    465c:	8f e3       	ldi	r24, 0x3F	; 63
    465e:	0e 94 18 0c 	call	0x1830	; 0x1830 <LCD_12864_Draw_line>
	LCD_12864_Draw_line(63, 41, 128, 41);
    4662:	29 e2       	ldi	r18, 0x29	; 41
    4664:	40 e8       	ldi	r20, 0x80	; 128
    4666:	69 e2       	ldi	r22, 0x29	; 41
    4668:	8f e3       	ldi	r24, 0x3F	; 63
    466a:	0e 94 18 0c 	call	0x1830	; 0x1830 <LCD_12864_Draw_line>
	//-----------Вывод индикатора АКБ-----------------------//
	DrawBattery();
    466e:	0e 94 cd 1e 	call	0x3d9a	; 0x3d9a <DrawBattery>
	//-----------Вывод индикатора флюгера-----------------------//
	DrawWeatherVane();
    4672:	0e 94 d6 16 	call	0x2dac	; 0x2dac <DrawWeatherVane>
	//-----------Вывод прогноза погоды-----------------------//
	
	DrawCloudsWithRain();
    4676:	0e 94 8d 15 	call	0x2b1a	; 0x2b1a <DrawCloudsWithRain>
	
	LCD_12864_Draw_bitmap(Frame_buffer);
    467a:	ce 01       	movw	r24, r28
    467c:	0e 94 e8 07 	call	0xfd0	; 0xfd0 <LCD_12864_Draw_bitmap>
	LCD_12864_GrapnicMode(0);
    4680:	80 e0       	ldi	r24, 0x00	; 0
    4682:	0e 94 c9 07 	call	0xf92	; 0xf92 <LCD_12864_GrapnicMode>
}
    4686:	0f 90       	pop	r0
    4688:	0f 90       	pop	r0
    468a:	0f 90       	pop	r0
    468c:	0f 90       	pop	r0
    468e:	0f 90       	pop	r0
    4690:	0f 90       	pop	r0
    4692:	df 91       	pop	r29
    4694:	cf 91       	pop	r28
    4696:	1f 91       	pop	r17
    4698:	0f 91       	pop	r16
    469a:	08 95       	ret

0000469c <__subsf3>:
    469c:	50 58       	subi	r21, 0x80	; 128

0000469e <__addsf3>:
    469e:	bb 27       	eor	r27, r27
    46a0:	aa 27       	eor	r26, r26
    46a2:	0e 94 66 23 	call	0x46cc	; 0x46cc <__addsf3x>
    46a6:	0c 94 e0 24 	jmp	0x49c0	; 0x49c0 <__fp_round>
    46aa:	0e 94 d2 24 	call	0x49a4	; 0x49a4 <__fp_pscA>
    46ae:	38 f0       	brcs	.+14     	; 0x46be <__addsf3+0x20>
    46b0:	0e 94 d9 24 	call	0x49b2	; 0x49b2 <__fp_pscB>
    46b4:	20 f0       	brcs	.+8      	; 0x46be <__addsf3+0x20>
    46b6:	39 f4       	brne	.+14     	; 0x46c6 <__addsf3+0x28>
    46b8:	9f 3f       	cpi	r25, 0xFF	; 255
    46ba:	19 f4       	brne	.+6      	; 0x46c2 <__addsf3+0x24>
    46bc:	26 f4       	brtc	.+8      	; 0x46c6 <__addsf3+0x28>
    46be:	0c 94 cf 24 	jmp	0x499e	; 0x499e <__fp_nan>
    46c2:	0e f4       	brtc	.+2      	; 0x46c6 <__addsf3+0x28>
    46c4:	e0 95       	com	r30
    46c6:	e7 fb       	bst	r30, 7
    46c8:	0c 94 c9 24 	jmp	0x4992	; 0x4992 <__fp_inf>

000046cc <__addsf3x>:
    46cc:	e9 2f       	mov	r30, r25
    46ce:	0e 94 f1 24 	call	0x49e2	; 0x49e2 <__fp_split3>
    46d2:	58 f3       	brcs	.-42     	; 0x46aa <__addsf3+0xc>
    46d4:	ba 17       	cp	r27, r26
    46d6:	62 07       	cpc	r22, r18
    46d8:	73 07       	cpc	r23, r19
    46da:	84 07       	cpc	r24, r20
    46dc:	95 07       	cpc	r25, r21
    46de:	20 f0       	brcs	.+8      	; 0x46e8 <__addsf3x+0x1c>
    46e0:	79 f4       	brne	.+30     	; 0x4700 <__addsf3x+0x34>
    46e2:	a6 f5       	brtc	.+104    	; 0x474c <__addsf3x+0x80>
    46e4:	0c 94 13 25 	jmp	0x4a26	; 0x4a26 <__fp_zero>
    46e8:	0e f4       	brtc	.+2      	; 0x46ec <__addsf3x+0x20>
    46ea:	e0 95       	com	r30
    46ec:	0b 2e       	mov	r0, r27
    46ee:	ba 2f       	mov	r27, r26
    46f0:	a0 2d       	mov	r26, r0
    46f2:	0b 01       	movw	r0, r22
    46f4:	b9 01       	movw	r22, r18
    46f6:	90 01       	movw	r18, r0
    46f8:	0c 01       	movw	r0, r24
    46fa:	ca 01       	movw	r24, r20
    46fc:	a0 01       	movw	r20, r0
    46fe:	11 24       	eor	r1, r1
    4700:	ff 27       	eor	r31, r31
    4702:	59 1b       	sub	r21, r25
    4704:	99 f0       	breq	.+38     	; 0x472c <__addsf3x+0x60>
    4706:	59 3f       	cpi	r21, 0xF9	; 249
    4708:	50 f4       	brcc	.+20     	; 0x471e <__addsf3x+0x52>
    470a:	50 3e       	cpi	r21, 0xE0	; 224
    470c:	68 f1       	brcs	.+90     	; 0x4768 <__addsf3x+0x9c>
    470e:	1a 16       	cp	r1, r26
    4710:	f0 40       	sbci	r31, 0x00	; 0
    4712:	a2 2f       	mov	r26, r18
    4714:	23 2f       	mov	r18, r19
    4716:	34 2f       	mov	r19, r20
    4718:	44 27       	eor	r20, r20
    471a:	58 5f       	subi	r21, 0xF8	; 248
    471c:	f3 cf       	rjmp	.-26     	; 0x4704 <__addsf3x+0x38>
    471e:	46 95       	lsr	r20
    4720:	37 95       	ror	r19
    4722:	27 95       	ror	r18
    4724:	a7 95       	ror	r26
    4726:	f0 40       	sbci	r31, 0x00	; 0
    4728:	53 95       	inc	r21
    472a:	c9 f7       	brne	.-14     	; 0x471e <__addsf3x+0x52>
    472c:	7e f4       	brtc	.+30     	; 0x474c <__addsf3x+0x80>
    472e:	1f 16       	cp	r1, r31
    4730:	ba 0b       	sbc	r27, r26
    4732:	62 0b       	sbc	r22, r18
    4734:	73 0b       	sbc	r23, r19
    4736:	84 0b       	sbc	r24, r20
    4738:	ba f0       	brmi	.+46     	; 0x4768 <__addsf3x+0x9c>
    473a:	91 50       	subi	r25, 0x01	; 1
    473c:	a1 f0       	breq	.+40     	; 0x4766 <__addsf3x+0x9a>
    473e:	ff 0f       	add	r31, r31
    4740:	bb 1f       	adc	r27, r27
    4742:	66 1f       	adc	r22, r22
    4744:	77 1f       	adc	r23, r23
    4746:	88 1f       	adc	r24, r24
    4748:	c2 f7       	brpl	.-16     	; 0x473a <__addsf3x+0x6e>
    474a:	0e c0       	rjmp	.+28     	; 0x4768 <__addsf3x+0x9c>
    474c:	ba 0f       	add	r27, r26
    474e:	62 1f       	adc	r22, r18
    4750:	73 1f       	adc	r23, r19
    4752:	84 1f       	adc	r24, r20
    4754:	48 f4       	brcc	.+18     	; 0x4768 <__addsf3x+0x9c>
    4756:	87 95       	ror	r24
    4758:	77 95       	ror	r23
    475a:	67 95       	ror	r22
    475c:	b7 95       	ror	r27
    475e:	f7 95       	ror	r31
    4760:	9e 3f       	cpi	r25, 0xFE	; 254
    4762:	08 f0       	brcs	.+2      	; 0x4766 <__addsf3x+0x9a>
    4764:	b0 cf       	rjmp	.-160    	; 0x46c6 <__addsf3+0x28>
    4766:	93 95       	inc	r25
    4768:	88 0f       	add	r24, r24
    476a:	08 f0       	brcs	.+2      	; 0x476e <__addsf3x+0xa2>
    476c:	99 27       	eor	r25, r25
    476e:	ee 0f       	add	r30, r30
    4770:	97 95       	ror	r25
    4772:	87 95       	ror	r24
    4774:	08 95       	ret

00004776 <__cmpsf2>:
    4776:	0e 94 a5 24 	call	0x494a	; 0x494a <__fp_cmp>
    477a:	08 f4       	brcc	.+2      	; 0x477e <__cmpsf2+0x8>
    477c:	81 e0       	ldi	r24, 0x01	; 1
    477e:	08 95       	ret

00004780 <__divsf3>:
    4780:	0e 94 d4 23 	call	0x47a8	; 0x47a8 <__divsf3x>
    4784:	0c 94 e0 24 	jmp	0x49c0	; 0x49c0 <__fp_round>
    4788:	0e 94 d9 24 	call	0x49b2	; 0x49b2 <__fp_pscB>
    478c:	58 f0       	brcs	.+22     	; 0x47a4 <__divsf3+0x24>
    478e:	0e 94 d2 24 	call	0x49a4	; 0x49a4 <__fp_pscA>
    4792:	40 f0       	brcs	.+16     	; 0x47a4 <__divsf3+0x24>
    4794:	29 f4       	brne	.+10     	; 0x47a0 <__divsf3+0x20>
    4796:	5f 3f       	cpi	r21, 0xFF	; 255
    4798:	29 f0       	breq	.+10     	; 0x47a4 <__divsf3+0x24>
    479a:	0c 94 c9 24 	jmp	0x4992	; 0x4992 <__fp_inf>
    479e:	51 11       	cpse	r21, r1
    47a0:	0c 94 14 25 	jmp	0x4a28	; 0x4a28 <__fp_szero>
    47a4:	0c 94 cf 24 	jmp	0x499e	; 0x499e <__fp_nan>

000047a8 <__divsf3x>:
    47a8:	0e 94 f1 24 	call	0x49e2	; 0x49e2 <__fp_split3>
    47ac:	68 f3       	brcs	.-38     	; 0x4788 <__divsf3+0x8>

000047ae <__divsf3_pse>:
    47ae:	99 23       	and	r25, r25
    47b0:	b1 f3       	breq	.-20     	; 0x479e <__divsf3+0x1e>
    47b2:	55 23       	and	r21, r21
    47b4:	91 f3       	breq	.-28     	; 0x479a <__divsf3+0x1a>
    47b6:	95 1b       	sub	r25, r21
    47b8:	55 0b       	sbc	r21, r21
    47ba:	bb 27       	eor	r27, r27
    47bc:	aa 27       	eor	r26, r26
    47be:	62 17       	cp	r22, r18
    47c0:	73 07       	cpc	r23, r19
    47c2:	84 07       	cpc	r24, r20
    47c4:	38 f0       	brcs	.+14     	; 0x47d4 <__divsf3_pse+0x26>
    47c6:	9f 5f       	subi	r25, 0xFF	; 255
    47c8:	5f 4f       	sbci	r21, 0xFF	; 255
    47ca:	22 0f       	add	r18, r18
    47cc:	33 1f       	adc	r19, r19
    47ce:	44 1f       	adc	r20, r20
    47d0:	aa 1f       	adc	r26, r26
    47d2:	a9 f3       	breq	.-22     	; 0x47be <__divsf3_pse+0x10>
    47d4:	35 d0       	rcall	.+106    	; 0x4840 <__divsf3_pse+0x92>
    47d6:	0e 2e       	mov	r0, r30
    47d8:	3a f0       	brmi	.+14     	; 0x47e8 <__divsf3_pse+0x3a>
    47da:	e0 e8       	ldi	r30, 0x80	; 128
    47dc:	32 d0       	rcall	.+100    	; 0x4842 <__divsf3_pse+0x94>
    47de:	91 50       	subi	r25, 0x01	; 1
    47e0:	50 40       	sbci	r21, 0x00	; 0
    47e2:	e6 95       	lsr	r30
    47e4:	00 1c       	adc	r0, r0
    47e6:	ca f7       	brpl	.-14     	; 0x47da <__divsf3_pse+0x2c>
    47e8:	2b d0       	rcall	.+86     	; 0x4840 <__divsf3_pse+0x92>
    47ea:	fe 2f       	mov	r31, r30
    47ec:	29 d0       	rcall	.+82     	; 0x4840 <__divsf3_pse+0x92>
    47ee:	66 0f       	add	r22, r22
    47f0:	77 1f       	adc	r23, r23
    47f2:	88 1f       	adc	r24, r24
    47f4:	bb 1f       	adc	r27, r27
    47f6:	26 17       	cp	r18, r22
    47f8:	37 07       	cpc	r19, r23
    47fa:	48 07       	cpc	r20, r24
    47fc:	ab 07       	cpc	r26, r27
    47fe:	b0 e8       	ldi	r27, 0x80	; 128
    4800:	09 f0       	breq	.+2      	; 0x4804 <__divsf3_pse+0x56>
    4802:	bb 0b       	sbc	r27, r27
    4804:	80 2d       	mov	r24, r0
    4806:	bf 01       	movw	r22, r30
    4808:	ff 27       	eor	r31, r31
    480a:	93 58       	subi	r25, 0x83	; 131
    480c:	5f 4f       	sbci	r21, 0xFF	; 255
    480e:	3a f0       	brmi	.+14     	; 0x481e <__divsf3_pse+0x70>
    4810:	9e 3f       	cpi	r25, 0xFE	; 254
    4812:	51 05       	cpc	r21, r1
    4814:	78 f0       	brcs	.+30     	; 0x4834 <__divsf3_pse+0x86>
    4816:	0c 94 c9 24 	jmp	0x4992	; 0x4992 <__fp_inf>
    481a:	0c 94 14 25 	jmp	0x4a28	; 0x4a28 <__fp_szero>
    481e:	5f 3f       	cpi	r21, 0xFF	; 255
    4820:	e4 f3       	brlt	.-8      	; 0x481a <__divsf3_pse+0x6c>
    4822:	98 3e       	cpi	r25, 0xE8	; 232
    4824:	d4 f3       	brlt	.-12     	; 0x481a <__divsf3_pse+0x6c>
    4826:	86 95       	lsr	r24
    4828:	77 95       	ror	r23
    482a:	67 95       	ror	r22
    482c:	b7 95       	ror	r27
    482e:	f7 95       	ror	r31
    4830:	9f 5f       	subi	r25, 0xFF	; 255
    4832:	c9 f7       	brne	.-14     	; 0x4826 <__divsf3_pse+0x78>
    4834:	88 0f       	add	r24, r24
    4836:	91 1d       	adc	r25, r1
    4838:	96 95       	lsr	r25
    483a:	87 95       	ror	r24
    483c:	97 f9       	bld	r25, 7
    483e:	08 95       	ret
    4840:	e1 e0       	ldi	r30, 0x01	; 1
    4842:	66 0f       	add	r22, r22
    4844:	77 1f       	adc	r23, r23
    4846:	88 1f       	adc	r24, r24
    4848:	bb 1f       	adc	r27, r27
    484a:	62 17       	cp	r22, r18
    484c:	73 07       	cpc	r23, r19
    484e:	84 07       	cpc	r24, r20
    4850:	ba 07       	cpc	r27, r26
    4852:	20 f0       	brcs	.+8      	; 0x485c <__divsf3_pse+0xae>
    4854:	62 1b       	sub	r22, r18
    4856:	73 0b       	sbc	r23, r19
    4858:	84 0b       	sbc	r24, r20
    485a:	ba 0b       	sbc	r27, r26
    485c:	ee 1f       	adc	r30, r30
    485e:	88 f7       	brcc	.-30     	; 0x4842 <__divsf3_pse+0x94>
    4860:	e0 95       	com	r30
    4862:	08 95       	ret

00004864 <__fixsfsi>:
    4864:	0e 94 39 24 	call	0x4872	; 0x4872 <__fixunssfsi>
    4868:	68 94       	set
    486a:	b1 11       	cpse	r27, r1
    486c:	0c 94 14 25 	jmp	0x4a28	; 0x4a28 <__fp_szero>
    4870:	08 95       	ret

00004872 <__fixunssfsi>:
    4872:	0e 94 f9 24 	call	0x49f2	; 0x49f2 <__fp_splitA>
    4876:	88 f0       	brcs	.+34     	; 0x489a <__fixunssfsi+0x28>
    4878:	9f 57       	subi	r25, 0x7F	; 127
    487a:	98 f0       	brcs	.+38     	; 0x48a2 <__fixunssfsi+0x30>
    487c:	b9 2f       	mov	r27, r25
    487e:	99 27       	eor	r25, r25
    4880:	b7 51       	subi	r27, 0x17	; 23
    4882:	b0 f0       	brcs	.+44     	; 0x48b0 <__fixunssfsi+0x3e>
    4884:	e1 f0       	breq	.+56     	; 0x48be <__fixunssfsi+0x4c>
    4886:	66 0f       	add	r22, r22
    4888:	77 1f       	adc	r23, r23
    488a:	88 1f       	adc	r24, r24
    488c:	99 1f       	adc	r25, r25
    488e:	1a f0       	brmi	.+6      	; 0x4896 <__fixunssfsi+0x24>
    4890:	ba 95       	dec	r27
    4892:	c9 f7       	brne	.-14     	; 0x4886 <__fixunssfsi+0x14>
    4894:	14 c0       	rjmp	.+40     	; 0x48be <__fixunssfsi+0x4c>
    4896:	b1 30       	cpi	r27, 0x01	; 1
    4898:	91 f0       	breq	.+36     	; 0x48be <__fixunssfsi+0x4c>
    489a:	0e 94 13 25 	call	0x4a26	; 0x4a26 <__fp_zero>
    489e:	b1 e0       	ldi	r27, 0x01	; 1
    48a0:	08 95       	ret
    48a2:	0c 94 13 25 	jmp	0x4a26	; 0x4a26 <__fp_zero>
    48a6:	67 2f       	mov	r22, r23
    48a8:	78 2f       	mov	r23, r24
    48aa:	88 27       	eor	r24, r24
    48ac:	b8 5f       	subi	r27, 0xF8	; 248
    48ae:	39 f0       	breq	.+14     	; 0x48be <__fixunssfsi+0x4c>
    48b0:	b9 3f       	cpi	r27, 0xF9	; 249
    48b2:	cc f3       	brlt	.-14     	; 0x48a6 <__fixunssfsi+0x34>
    48b4:	86 95       	lsr	r24
    48b6:	77 95       	ror	r23
    48b8:	67 95       	ror	r22
    48ba:	b3 95       	inc	r27
    48bc:	d9 f7       	brne	.-10     	; 0x48b4 <__fixunssfsi+0x42>
    48be:	3e f4       	brtc	.+14     	; 0x48ce <__fixunssfsi+0x5c>
    48c0:	90 95       	com	r25
    48c2:	80 95       	com	r24
    48c4:	70 95       	com	r23
    48c6:	61 95       	neg	r22
    48c8:	7f 4f       	sbci	r23, 0xFF	; 255
    48ca:	8f 4f       	sbci	r24, 0xFF	; 255
    48cc:	9f 4f       	sbci	r25, 0xFF	; 255
    48ce:	08 95       	ret

000048d0 <__floatunsisf>:
    48d0:	e8 94       	clt
    48d2:	09 c0       	rjmp	.+18     	; 0x48e6 <__floatsisf+0x12>

000048d4 <__floatsisf>:
    48d4:	97 fb       	bst	r25, 7
    48d6:	3e f4       	brtc	.+14     	; 0x48e6 <__floatsisf+0x12>
    48d8:	90 95       	com	r25
    48da:	80 95       	com	r24
    48dc:	70 95       	com	r23
    48de:	61 95       	neg	r22
    48e0:	7f 4f       	sbci	r23, 0xFF	; 255
    48e2:	8f 4f       	sbci	r24, 0xFF	; 255
    48e4:	9f 4f       	sbci	r25, 0xFF	; 255
    48e6:	99 23       	and	r25, r25
    48e8:	a9 f0       	breq	.+42     	; 0x4914 <__floatsisf+0x40>
    48ea:	f9 2f       	mov	r31, r25
    48ec:	96 e9       	ldi	r25, 0x96	; 150
    48ee:	bb 27       	eor	r27, r27
    48f0:	93 95       	inc	r25
    48f2:	f6 95       	lsr	r31
    48f4:	87 95       	ror	r24
    48f6:	77 95       	ror	r23
    48f8:	67 95       	ror	r22
    48fa:	b7 95       	ror	r27
    48fc:	f1 11       	cpse	r31, r1
    48fe:	f8 cf       	rjmp	.-16     	; 0x48f0 <__floatsisf+0x1c>
    4900:	fa f4       	brpl	.+62     	; 0x4940 <__floatsisf+0x6c>
    4902:	bb 0f       	add	r27, r27
    4904:	11 f4       	brne	.+4      	; 0x490a <__floatsisf+0x36>
    4906:	60 ff       	sbrs	r22, 0
    4908:	1b c0       	rjmp	.+54     	; 0x4940 <__floatsisf+0x6c>
    490a:	6f 5f       	subi	r22, 0xFF	; 255
    490c:	7f 4f       	sbci	r23, 0xFF	; 255
    490e:	8f 4f       	sbci	r24, 0xFF	; 255
    4910:	9f 4f       	sbci	r25, 0xFF	; 255
    4912:	16 c0       	rjmp	.+44     	; 0x4940 <__floatsisf+0x6c>
    4914:	88 23       	and	r24, r24
    4916:	11 f0       	breq	.+4      	; 0x491c <__floatsisf+0x48>
    4918:	96 e9       	ldi	r25, 0x96	; 150
    491a:	11 c0       	rjmp	.+34     	; 0x493e <__floatsisf+0x6a>
    491c:	77 23       	and	r23, r23
    491e:	21 f0       	breq	.+8      	; 0x4928 <__floatsisf+0x54>
    4920:	9e e8       	ldi	r25, 0x8E	; 142
    4922:	87 2f       	mov	r24, r23
    4924:	76 2f       	mov	r23, r22
    4926:	05 c0       	rjmp	.+10     	; 0x4932 <__floatsisf+0x5e>
    4928:	66 23       	and	r22, r22
    492a:	71 f0       	breq	.+28     	; 0x4948 <__floatsisf+0x74>
    492c:	96 e8       	ldi	r25, 0x86	; 134
    492e:	86 2f       	mov	r24, r22
    4930:	70 e0       	ldi	r23, 0x00	; 0
    4932:	60 e0       	ldi	r22, 0x00	; 0
    4934:	2a f0       	brmi	.+10     	; 0x4940 <__floatsisf+0x6c>
    4936:	9a 95       	dec	r25
    4938:	66 0f       	add	r22, r22
    493a:	77 1f       	adc	r23, r23
    493c:	88 1f       	adc	r24, r24
    493e:	da f7       	brpl	.-10     	; 0x4936 <__floatsisf+0x62>
    4940:	88 0f       	add	r24, r24
    4942:	96 95       	lsr	r25
    4944:	87 95       	ror	r24
    4946:	97 f9       	bld	r25, 7
    4948:	08 95       	ret

0000494a <__fp_cmp>:
    494a:	99 0f       	add	r25, r25
    494c:	00 08       	sbc	r0, r0
    494e:	55 0f       	add	r21, r21
    4950:	aa 0b       	sbc	r26, r26
    4952:	e0 e8       	ldi	r30, 0x80	; 128
    4954:	fe ef       	ldi	r31, 0xFE	; 254
    4956:	16 16       	cp	r1, r22
    4958:	17 06       	cpc	r1, r23
    495a:	e8 07       	cpc	r30, r24
    495c:	f9 07       	cpc	r31, r25
    495e:	c0 f0       	brcs	.+48     	; 0x4990 <__fp_cmp+0x46>
    4960:	12 16       	cp	r1, r18
    4962:	13 06       	cpc	r1, r19
    4964:	e4 07       	cpc	r30, r20
    4966:	f5 07       	cpc	r31, r21
    4968:	98 f0       	brcs	.+38     	; 0x4990 <__fp_cmp+0x46>
    496a:	62 1b       	sub	r22, r18
    496c:	73 0b       	sbc	r23, r19
    496e:	84 0b       	sbc	r24, r20
    4970:	95 0b       	sbc	r25, r21
    4972:	39 f4       	brne	.+14     	; 0x4982 <__fp_cmp+0x38>
    4974:	0a 26       	eor	r0, r26
    4976:	61 f0       	breq	.+24     	; 0x4990 <__fp_cmp+0x46>
    4978:	23 2b       	or	r18, r19
    497a:	24 2b       	or	r18, r20
    497c:	25 2b       	or	r18, r21
    497e:	21 f4       	brne	.+8      	; 0x4988 <__fp_cmp+0x3e>
    4980:	08 95       	ret
    4982:	0a 26       	eor	r0, r26
    4984:	09 f4       	brne	.+2      	; 0x4988 <__fp_cmp+0x3e>
    4986:	a1 40       	sbci	r26, 0x01	; 1
    4988:	a6 95       	lsr	r26
    498a:	8f ef       	ldi	r24, 0xFF	; 255
    498c:	81 1d       	adc	r24, r1
    498e:	81 1d       	adc	r24, r1
    4990:	08 95       	ret

00004992 <__fp_inf>:
    4992:	97 f9       	bld	r25, 7
    4994:	9f 67       	ori	r25, 0x7F	; 127
    4996:	80 e8       	ldi	r24, 0x80	; 128
    4998:	70 e0       	ldi	r23, 0x00	; 0
    499a:	60 e0       	ldi	r22, 0x00	; 0
    499c:	08 95       	ret

0000499e <__fp_nan>:
    499e:	9f ef       	ldi	r25, 0xFF	; 255
    49a0:	80 ec       	ldi	r24, 0xC0	; 192
    49a2:	08 95       	ret

000049a4 <__fp_pscA>:
    49a4:	00 24       	eor	r0, r0
    49a6:	0a 94       	dec	r0
    49a8:	16 16       	cp	r1, r22
    49aa:	17 06       	cpc	r1, r23
    49ac:	18 06       	cpc	r1, r24
    49ae:	09 06       	cpc	r0, r25
    49b0:	08 95       	ret

000049b2 <__fp_pscB>:
    49b2:	00 24       	eor	r0, r0
    49b4:	0a 94       	dec	r0
    49b6:	12 16       	cp	r1, r18
    49b8:	13 06       	cpc	r1, r19
    49ba:	14 06       	cpc	r1, r20
    49bc:	05 06       	cpc	r0, r21
    49be:	08 95       	ret

000049c0 <__fp_round>:
    49c0:	09 2e       	mov	r0, r25
    49c2:	03 94       	inc	r0
    49c4:	00 0c       	add	r0, r0
    49c6:	11 f4       	brne	.+4      	; 0x49cc <__fp_round+0xc>
    49c8:	88 23       	and	r24, r24
    49ca:	52 f0       	brmi	.+20     	; 0x49e0 <__fp_round+0x20>
    49cc:	bb 0f       	add	r27, r27
    49ce:	40 f4       	brcc	.+16     	; 0x49e0 <__fp_round+0x20>
    49d0:	bf 2b       	or	r27, r31
    49d2:	11 f4       	brne	.+4      	; 0x49d8 <__fp_round+0x18>
    49d4:	60 ff       	sbrs	r22, 0
    49d6:	04 c0       	rjmp	.+8      	; 0x49e0 <__fp_round+0x20>
    49d8:	6f 5f       	subi	r22, 0xFF	; 255
    49da:	7f 4f       	sbci	r23, 0xFF	; 255
    49dc:	8f 4f       	sbci	r24, 0xFF	; 255
    49de:	9f 4f       	sbci	r25, 0xFF	; 255
    49e0:	08 95       	ret

000049e2 <__fp_split3>:
    49e2:	57 fd       	sbrc	r21, 7
    49e4:	90 58       	subi	r25, 0x80	; 128
    49e6:	44 0f       	add	r20, r20
    49e8:	55 1f       	adc	r21, r21
    49ea:	59 f0       	breq	.+22     	; 0x4a02 <__fp_splitA+0x10>
    49ec:	5f 3f       	cpi	r21, 0xFF	; 255
    49ee:	71 f0       	breq	.+28     	; 0x4a0c <__fp_splitA+0x1a>
    49f0:	47 95       	ror	r20

000049f2 <__fp_splitA>:
    49f2:	88 0f       	add	r24, r24
    49f4:	97 fb       	bst	r25, 7
    49f6:	99 1f       	adc	r25, r25
    49f8:	61 f0       	breq	.+24     	; 0x4a12 <__fp_splitA+0x20>
    49fa:	9f 3f       	cpi	r25, 0xFF	; 255
    49fc:	79 f0       	breq	.+30     	; 0x4a1c <__fp_splitA+0x2a>
    49fe:	87 95       	ror	r24
    4a00:	08 95       	ret
    4a02:	12 16       	cp	r1, r18
    4a04:	13 06       	cpc	r1, r19
    4a06:	14 06       	cpc	r1, r20
    4a08:	55 1f       	adc	r21, r21
    4a0a:	f2 cf       	rjmp	.-28     	; 0x49f0 <__fp_split3+0xe>
    4a0c:	46 95       	lsr	r20
    4a0e:	f1 df       	rcall	.-30     	; 0x49f2 <__fp_splitA>
    4a10:	08 c0       	rjmp	.+16     	; 0x4a22 <__fp_splitA+0x30>
    4a12:	16 16       	cp	r1, r22
    4a14:	17 06       	cpc	r1, r23
    4a16:	18 06       	cpc	r1, r24
    4a18:	99 1f       	adc	r25, r25
    4a1a:	f1 cf       	rjmp	.-30     	; 0x49fe <__fp_splitA+0xc>
    4a1c:	86 95       	lsr	r24
    4a1e:	71 05       	cpc	r23, r1
    4a20:	61 05       	cpc	r22, r1
    4a22:	08 94       	sec
    4a24:	08 95       	ret

00004a26 <__fp_zero>:
    4a26:	e8 94       	clt

00004a28 <__fp_szero>:
    4a28:	bb 27       	eor	r27, r27
    4a2a:	66 27       	eor	r22, r22
    4a2c:	77 27       	eor	r23, r23
    4a2e:	cb 01       	movw	r24, r22
    4a30:	97 f9       	bld	r25, 7
    4a32:	08 95       	ret

00004a34 <__gesf2>:
    4a34:	0e 94 a5 24 	call	0x494a	; 0x494a <__fp_cmp>
    4a38:	08 f4       	brcc	.+2      	; 0x4a3c <__gesf2+0x8>
    4a3a:	8f ef       	ldi	r24, 0xFF	; 255
    4a3c:	08 95       	ret

00004a3e <__mulsf3>:
    4a3e:	0e 94 32 25 	call	0x4a64	; 0x4a64 <__mulsf3x>
    4a42:	0c 94 e0 24 	jmp	0x49c0	; 0x49c0 <__fp_round>
    4a46:	0e 94 d2 24 	call	0x49a4	; 0x49a4 <__fp_pscA>
    4a4a:	38 f0       	brcs	.+14     	; 0x4a5a <__mulsf3+0x1c>
    4a4c:	0e 94 d9 24 	call	0x49b2	; 0x49b2 <__fp_pscB>
    4a50:	20 f0       	brcs	.+8      	; 0x4a5a <__mulsf3+0x1c>
    4a52:	95 23       	and	r25, r21
    4a54:	11 f0       	breq	.+4      	; 0x4a5a <__mulsf3+0x1c>
    4a56:	0c 94 c9 24 	jmp	0x4992	; 0x4992 <__fp_inf>
    4a5a:	0c 94 cf 24 	jmp	0x499e	; 0x499e <__fp_nan>
    4a5e:	11 24       	eor	r1, r1
    4a60:	0c 94 14 25 	jmp	0x4a28	; 0x4a28 <__fp_szero>

00004a64 <__mulsf3x>:
    4a64:	0e 94 f1 24 	call	0x49e2	; 0x49e2 <__fp_split3>
    4a68:	70 f3       	brcs	.-36     	; 0x4a46 <__mulsf3+0x8>

00004a6a <__mulsf3_pse>:
    4a6a:	95 9f       	mul	r25, r21
    4a6c:	c1 f3       	breq	.-16     	; 0x4a5e <__mulsf3+0x20>
    4a6e:	95 0f       	add	r25, r21
    4a70:	50 e0       	ldi	r21, 0x00	; 0
    4a72:	55 1f       	adc	r21, r21
    4a74:	62 9f       	mul	r22, r18
    4a76:	f0 01       	movw	r30, r0
    4a78:	72 9f       	mul	r23, r18
    4a7a:	bb 27       	eor	r27, r27
    4a7c:	f0 0d       	add	r31, r0
    4a7e:	b1 1d       	adc	r27, r1
    4a80:	63 9f       	mul	r22, r19
    4a82:	aa 27       	eor	r26, r26
    4a84:	f0 0d       	add	r31, r0
    4a86:	b1 1d       	adc	r27, r1
    4a88:	aa 1f       	adc	r26, r26
    4a8a:	64 9f       	mul	r22, r20
    4a8c:	66 27       	eor	r22, r22
    4a8e:	b0 0d       	add	r27, r0
    4a90:	a1 1d       	adc	r26, r1
    4a92:	66 1f       	adc	r22, r22
    4a94:	82 9f       	mul	r24, r18
    4a96:	22 27       	eor	r18, r18
    4a98:	b0 0d       	add	r27, r0
    4a9a:	a1 1d       	adc	r26, r1
    4a9c:	62 1f       	adc	r22, r18
    4a9e:	73 9f       	mul	r23, r19
    4aa0:	b0 0d       	add	r27, r0
    4aa2:	a1 1d       	adc	r26, r1
    4aa4:	62 1f       	adc	r22, r18
    4aa6:	83 9f       	mul	r24, r19
    4aa8:	a0 0d       	add	r26, r0
    4aaa:	61 1d       	adc	r22, r1
    4aac:	22 1f       	adc	r18, r18
    4aae:	74 9f       	mul	r23, r20
    4ab0:	33 27       	eor	r19, r19
    4ab2:	a0 0d       	add	r26, r0
    4ab4:	61 1d       	adc	r22, r1
    4ab6:	23 1f       	adc	r18, r19
    4ab8:	84 9f       	mul	r24, r20
    4aba:	60 0d       	add	r22, r0
    4abc:	21 1d       	adc	r18, r1
    4abe:	82 2f       	mov	r24, r18
    4ac0:	76 2f       	mov	r23, r22
    4ac2:	6a 2f       	mov	r22, r26
    4ac4:	11 24       	eor	r1, r1
    4ac6:	9f 57       	subi	r25, 0x7F	; 127
    4ac8:	50 40       	sbci	r21, 0x00	; 0
    4aca:	9a f0       	brmi	.+38     	; 0x4af2 <__mulsf3_pse+0x88>
    4acc:	f1 f0       	breq	.+60     	; 0x4b0a <__mulsf3_pse+0xa0>
    4ace:	88 23       	and	r24, r24
    4ad0:	4a f0       	brmi	.+18     	; 0x4ae4 <__mulsf3_pse+0x7a>
    4ad2:	ee 0f       	add	r30, r30
    4ad4:	ff 1f       	adc	r31, r31
    4ad6:	bb 1f       	adc	r27, r27
    4ad8:	66 1f       	adc	r22, r22
    4ada:	77 1f       	adc	r23, r23
    4adc:	88 1f       	adc	r24, r24
    4ade:	91 50       	subi	r25, 0x01	; 1
    4ae0:	50 40       	sbci	r21, 0x00	; 0
    4ae2:	a9 f7       	brne	.-22     	; 0x4ace <__mulsf3_pse+0x64>
    4ae4:	9e 3f       	cpi	r25, 0xFE	; 254
    4ae6:	51 05       	cpc	r21, r1
    4ae8:	80 f0       	brcs	.+32     	; 0x4b0a <__mulsf3_pse+0xa0>
    4aea:	0c 94 c9 24 	jmp	0x4992	; 0x4992 <__fp_inf>
    4aee:	0c 94 14 25 	jmp	0x4a28	; 0x4a28 <__fp_szero>
    4af2:	5f 3f       	cpi	r21, 0xFF	; 255
    4af4:	e4 f3       	brlt	.-8      	; 0x4aee <__mulsf3_pse+0x84>
    4af6:	98 3e       	cpi	r25, 0xE8	; 232
    4af8:	d4 f3       	brlt	.-12     	; 0x4aee <__mulsf3_pse+0x84>
    4afa:	86 95       	lsr	r24
    4afc:	77 95       	ror	r23
    4afe:	67 95       	ror	r22
    4b00:	b7 95       	ror	r27
    4b02:	f7 95       	ror	r31
    4b04:	e7 95       	ror	r30
    4b06:	9f 5f       	subi	r25, 0xFF	; 255
    4b08:	c1 f7       	brne	.-16     	; 0x4afa <__mulsf3_pse+0x90>
    4b0a:	fe 2b       	or	r31, r30
    4b0c:	88 0f       	add	r24, r24
    4b0e:	91 1d       	adc	r25, r1
    4b10:	96 95       	lsr	r25
    4b12:	87 95       	ror	r24
    4b14:	97 f9       	bld	r25, 7
    4b16:	08 95       	ret

00004b18 <vfprintf>:
    4b18:	a0 e1       	ldi	r26, 0x10	; 16
    4b1a:	b0 e0       	ldi	r27, 0x00	; 0
    4b1c:	e2 e9       	ldi	r30, 0x92	; 146
    4b1e:	f5 e2       	ldi	r31, 0x25	; 37
    4b20:	0c 94 73 29 	jmp	0x52e6	; 0x52e6 <__prologue_saves__>
    4b24:	7c 01       	movw	r14, r24
    4b26:	1b 01       	movw	r2, r22
    4b28:	6a 01       	movw	r12, r20
    4b2a:	fc 01       	movw	r30, r24
    4b2c:	17 82       	std	Z+7, r1	; 0x07
    4b2e:	16 82       	std	Z+6, r1	; 0x06
    4b30:	83 81       	ldd	r24, Z+3	; 0x03
    4b32:	81 ff       	sbrs	r24, 1
    4b34:	44 c3       	rjmp	.+1672   	; 0x51be <vfprintf+0x6a6>
    4b36:	9e 01       	movw	r18, r28
    4b38:	2f 5f       	subi	r18, 0xFF	; 255
    4b3a:	3f 4f       	sbci	r19, 0xFF	; 255
    4b3c:	39 01       	movw	r6, r18
    4b3e:	f7 01       	movw	r30, r14
    4b40:	93 81       	ldd	r25, Z+3	; 0x03
    4b42:	f1 01       	movw	r30, r2
    4b44:	93 fd       	sbrc	r25, 3
    4b46:	85 91       	lpm	r24, Z+
    4b48:	93 ff       	sbrs	r25, 3
    4b4a:	81 91       	ld	r24, Z+
    4b4c:	1f 01       	movw	r2, r30
    4b4e:	88 23       	and	r24, r24
    4b50:	09 f4       	brne	.+2      	; 0x4b54 <vfprintf+0x3c>
    4b52:	31 c3       	rjmp	.+1634   	; 0x51b6 <vfprintf+0x69e>
    4b54:	85 32       	cpi	r24, 0x25	; 37
    4b56:	39 f4       	brne	.+14     	; 0x4b66 <vfprintf+0x4e>
    4b58:	93 fd       	sbrc	r25, 3
    4b5a:	85 91       	lpm	r24, Z+
    4b5c:	93 ff       	sbrs	r25, 3
    4b5e:	81 91       	ld	r24, Z+
    4b60:	1f 01       	movw	r2, r30
    4b62:	85 32       	cpi	r24, 0x25	; 37
    4b64:	39 f4       	brne	.+14     	; 0x4b74 <vfprintf+0x5c>
    4b66:	b7 01       	movw	r22, r14
    4b68:	90 e0       	ldi	r25, 0x00	; 0
    4b6a:	0e 94 c2 2a 	call	0x5584	; 0x5584 <fputc>
    4b6e:	56 01       	movw	r10, r12
    4b70:	65 01       	movw	r12, r10
    4b72:	e5 cf       	rjmp	.-54     	; 0x4b3e <vfprintf+0x26>
    4b74:	10 e0       	ldi	r17, 0x00	; 0
    4b76:	51 2c       	mov	r5, r1
    4b78:	91 2c       	mov	r9, r1
    4b7a:	ff e1       	ldi	r31, 0x1F	; 31
    4b7c:	f9 15       	cp	r31, r9
    4b7e:	d8 f0       	brcs	.+54     	; 0x4bb6 <vfprintf+0x9e>
    4b80:	8b 32       	cpi	r24, 0x2B	; 43
    4b82:	79 f0       	breq	.+30     	; 0x4ba2 <vfprintf+0x8a>
    4b84:	38 f4       	brcc	.+14     	; 0x4b94 <vfprintf+0x7c>
    4b86:	80 32       	cpi	r24, 0x20	; 32
    4b88:	79 f0       	breq	.+30     	; 0x4ba8 <vfprintf+0x90>
    4b8a:	83 32       	cpi	r24, 0x23	; 35
    4b8c:	a1 f4       	brne	.+40     	; 0x4bb6 <vfprintf+0x9e>
    4b8e:	f9 2d       	mov	r31, r9
    4b90:	f0 61       	ori	r31, 0x10	; 16
    4b92:	2e c0       	rjmp	.+92     	; 0x4bf0 <vfprintf+0xd8>
    4b94:	8d 32       	cpi	r24, 0x2D	; 45
    4b96:	61 f0       	breq	.+24     	; 0x4bb0 <vfprintf+0x98>
    4b98:	80 33       	cpi	r24, 0x30	; 48
    4b9a:	69 f4       	brne	.+26     	; 0x4bb6 <vfprintf+0x9e>
    4b9c:	29 2d       	mov	r18, r9
    4b9e:	21 60       	ori	r18, 0x01	; 1
    4ba0:	2d c0       	rjmp	.+90     	; 0x4bfc <vfprintf+0xe4>
    4ba2:	39 2d       	mov	r19, r9
    4ba4:	32 60       	ori	r19, 0x02	; 2
    4ba6:	93 2e       	mov	r9, r19
    4ba8:	89 2d       	mov	r24, r9
    4baa:	84 60       	ori	r24, 0x04	; 4
    4bac:	98 2e       	mov	r9, r24
    4bae:	2a c0       	rjmp	.+84     	; 0x4c04 <vfprintf+0xec>
    4bb0:	e9 2d       	mov	r30, r9
    4bb2:	e8 60       	ori	r30, 0x08	; 8
    4bb4:	15 c0       	rjmp	.+42     	; 0x4be0 <vfprintf+0xc8>
    4bb6:	97 fc       	sbrc	r9, 7
    4bb8:	2d c0       	rjmp	.+90     	; 0x4c14 <vfprintf+0xfc>
    4bba:	20 ed       	ldi	r18, 0xD0	; 208
    4bbc:	28 0f       	add	r18, r24
    4bbe:	2a 30       	cpi	r18, 0x0A	; 10
    4bc0:	88 f4       	brcc	.+34     	; 0x4be4 <vfprintf+0xcc>
    4bc2:	96 fe       	sbrs	r9, 6
    4bc4:	06 c0       	rjmp	.+12     	; 0x4bd2 <vfprintf+0xba>
    4bc6:	3a e0       	ldi	r19, 0x0A	; 10
    4bc8:	13 9f       	mul	r17, r19
    4bca:	20 0d       	add	r18, r0
    4bcc:	11 24       	eor	r1, r1
    4bce:	12 2f       	mov	r17, r18
    4bd0:	19 c0       	rjmp	.+50     	; 0x4c04 <vfprintf+0xec>
    4bd2:	8a e0       	ldi	r24, 0x0A	; 10
    4bd4:	58 9e       	mul	r5, r24
    4bd6:	20 0d       	add	r18, r0
    4bd8:	11 24       	eor	r1, r1
    4bda:	52 2e       	mov	r5, r18
    4bdc:	e9 2d       	mov	r30, r9
    4bde:	e0 62       	ori	r30, 0x20	; 32
    4be0:	9e 2e       	mov	r9, r30
    4be2:	10 c0       	rjmp	.+32     	; 0x4c04 <vfprintf+0xec>
    4be4:	8e 32       	cpi	r24, 0x2E	; 46
    4be6:	31 f4       	brne	.+12     	; 0x4bf4 <vfprintf+0xdc>
    4be8:	96 fc       	sbrc	r9, 6
    4bea:	e5 c2       	rjmp	.+1482   	; 0x51b6 <vfprintf+0x69e>
    4bec:	f9 2d       	mov	r31, r9
    4bee:	f0 64       	ori	r31, 0x40	; 64
    4bf0:	9f 2e       	mov	r9, r31
    4bf2:	08 c0       	rjmp	.+16     	; 0x4c04 <vfprintf+0xec>
    4bf4:	8c 36       	cpi	r24, 0x6C	; 108
    4bf6:	21 f4       	brne	.+8      	; 0x4c00 <vfprintf+0xe8>
    4bf8:	29 2d       	mov	r18, r9
    4bfa:	20 68       	ori	r18, 0x80	; 128
    4bfc:	92 2e       	mov	r9, r18
    4bfe:	02 c0       	rjmp	.+4      	; 0x4c04 <vfprintf+0xec>
    4c00:	88 36       	cpi	r24, 0x68	; 104
    4c02:	41 f4       	brne	.+16     	; 0x4c14 <vfprintf+0xfc>
    4c04:	f1 01       	movw	r30, r2
    4c06:	93 fd       	sbrc	r25, 3
    4c08:	85 91       	lpm	r24, Z+
    4c0a:	93 ff       	sbrs	r25, 3
    4c0c:	81 91       	ld	r24, Z+
    4c0e:	1f 01       	movw	r2, r30
    4c10:	81 11       	cpse	r24, r1
    4c12:	b3 cf       	rjmp	.-154    	; 0x4b7a <vfprintf+0x62>
    4c14:	9b eb       	ldi	r25, 0xBB	; 187
    4c16:	98 0f       	add	r25, r24
    4c18:	93 30       	cpi	r25, 0x03	; 3
    4c1a:	20 f4       	brcc	.+8      	; 0x4c24 <vfprintf+0x10c>
    4c1c:	99 2d       	mov	r25, r9
    4c1e:	90 61       	ori	r25, 0x10	; 16
    4c20:	80 5e       	subi	r24, 0xE0	; 224
    4c22:	07 c0       	rjmp	.+14     	; 0x4c32 <vfprintf+0x11a>
    4c24:	9b e9       	ldi	r25, 0x9B	; 155
    4c26:	98 0f       	add	r25, r24
    4c28:	93 30       	cpi	r25, 0x03	; 3
    4c2a:	08 f0       	brcs	.+2      	; 0x4c2e <vfprintf+0x116>
    4c2c:	66 c1       	rjmp	.+716    	; 0x4efa <vfprintf+0x3e2>
    4c2e:	99 2d       	mov	r25, r9
    4c30:	9f 7e       	andi	r25, 0xEF	; 239
    4c32:	96 ff       	sbrs	r25, 6
    4c34:	16 e0       	ldi	r17, 0x06	; 6
    4c36:	9f 73       	andi	r25, 0x3F	; 63
    4c38:	99 2e       	mov	r9, r25
    4c3a:	85 36       	cpi	r24, 0x65	; 101
    4c3c:	19 f4       	brne	.+6      	; 0x4c44 <vfprintf+0x12c>
    4c3e:	90 64       	ori	r25, 0x40	; 64
    4c40:	99 2e       	mov	r9, r25
    4c42:	08 c0       	rjmp	.+16     	; 0x4c54 <vfprintf+0x13c>
    4c44:	86 36       	cpi	r24, 0x66	; 102
    4c46:	21 f4       	brne	.+8      	; 0x4c50 <vfprintf+0x138>
    4c48:	39 2f       	mov	r19, r25
    4c4a:	30 68       	ori	r19, 0x80	; 128
    4c4c:	93 2e       	mov	r9, r19
    4c4e:	02 c0       	rjmp	.+4      	; 0x4c54 <vfprintf+0x13c>
    4c50:	11 11       	cpse	r17, r1
    4c52:	11 50       	subi	r17, 0x01	; 1
    4c54:	97 fe       	sbrs	r9, 7
    4c56:	07 c0       	rjmp	.+14     	; 0x4c66 <vfprintf+0x14e>
    4c58:	1c 33       	cpi	r17, 0x3C	; 60
    4c5a:	50 f4       	brcc	.+20     	; 0x4c70 <vfprintf+0x158>
    4c5c:	44 24       	eor	r4, r4
    4c5e:	43 94       	inc	r4
    4c60:	41 0e       	add	r4, r17
    4c62:	27 e0       	ldi	r18, 0x07	; 7
    4c64:	0b c0       	rjmp	.+22     	; 0x4c7c <vfprintf+0x164>
    4c66:	18 30       	cpi	r17, 0x08	; 8
    4c68:	38 f0       	brcs	.+14     	; 0x4c78 <vfprintf+0x160>
    4c6a:	27 e0       	ldi	r18, 0x07	; 7
    4c6c:	17 e0       	ldi	r17, 0x07	; 7
    4c6e:	05 c0       	rjmp	.+10     	; 0x4c7a <vfprintf+0x162>
    4c70:	27 e0       	ldi	r18, 0x07	; 7
    4c72:	9c e3       	ldi	r25, 0x3C	; 60
    4c74:	49 2e       	mov	r4, r25
    4c76:	02 c0       	rjmp	.+4      	; 0x4c7c <vfprintf+0x164>
    4c78:	21 2f       	mov	r18, r17
    4c7a:	41 2c       	mov	r4, r1
    4c7c:	56 01       	movw	r10, r12
    4c7e:	84 e0       	ldi	r24, 0x04	; 4
    4c80:	a8 0e       	add	r10, r24
    4c82:	b1 1c       	adc	r11, r1
    4c84:	f6 01       	movw	r30, r12
    4c86:	60 81       	ld	r22, Z
    4c88:	71 81       	ldd	r23, Z+1	; 0x01
    4c8a:	82 81       	ldd	r24, Z+2	; 0x02
    4c8c:	93 81       	ldd	r25, Z+3	; 0x03
    4c8e:	04 2d       	mov	r16, r4
    4c90:	a3 01       	movw	r20, r6
    4c92:	0e 94 b9 29 	call	0x5372	; 0x5372 <__ftoa_engine>
    4c96:	6c 01       	movw	r12, r24
    4c98:	f9 81       	ldd	r31, Y+1	; 0x01
    4c9a:	fc 87       	std	Y+12, r31	; 0x0c
    4c9c:	f0 ff       	sbrs	r31, 0
    4c9e:	02 c0       	rjmp	.+4      	; 0x4ca4 <vfprintf+0x18c>
    4ca0:	f3 ff       	sbrs	r31, 3
    4ca2:	06 c0       	rjmp	.+12     	; 0x4cb0 <vfprintf+0x198>
    4ca4:	91 fc       	sbrc	r9, 1
    4ca6:	06 c0       	rjmp	.+12     	; 0x4cb4 <vfprintf+0x19c>
    4ca8:	92 fe       	sbrs	r9, 2
    4caa:	06 c0       	rjmp	.+12     	; 0x4cb8 <vfprintf+0x1a0>
    4cac:	00 e2       	ldi	r16, 0x20	; 32
    4cae:	05 c0       	rjmp	.+10     	; 0x4cba <vfprintf+0x1a2>
    4cb0:	0d e2       	ldi	r16, 0x2D	; 45
    4cb2:	03 c0       	rjmp	.+6      	; 0x4cba <vfprintf+0x1a2>
    4cb4:	0b e2       	ldi	r16, 0x2B	; 43
    4cb6:	01 c0       	rjmp	.+2      	; 0x4cba <vfprintf+0x1a2>
    4cb8:	00 e0       	ldi	r16, 0x00	; 0
    4cba:	8c 85       	ldd	r24, Y+12	; 0x0c
    4cbc:	8c 70       	andi	r24, 0x0C	; 12
    4cbe:	19 f0       	breq	.+6      	; 0x4cc6 <vfprintf+0x1ae>
    4cc0:	01 11       	cpse	r16, r1
    4cc2:	5a c2       	rjmp	.+1204   	; 0x5178 <vfprintf+0x660>
    4cc4:	9b c2       	rjmp	.+1334   	; 0x51fc <vfprintf+0x6e4>
    4cc6:	97 fe       	sbrs	r9, 7
    4cc8:	10 c0       	rjmp	.+32     	; 0x4cea <vfprintf+0x1d2>
    4cca:	4c 0c       	add	r4, r12
    4ccc:	fc 85       	ldd	r31, Y+12	; 0x0c
    4cce:	f4 ff       	sbrs	r31, 4
    4cd0:	04 c0       	rjmp	.+8      	; 0x4cda <vfprintf+0x1c2>
    4cd2:	8a 81       	ldd	r24, Y+2	; 0x02
    4cd4:	81 33       	cpi	r24, 0x31	; 49
    4cd6:	09 f4       	brne	.+2      	; 0x4cda <vfprintf+0x1c2>
    4cd8:	4a 94       	dec	r4
    4cda:	14 14       	cp	r1, r4
    4cdc:	74 f5       	brge	.+92     	; 0x4d3a <vfprintf+0x222>
    4cde:	28 e0       	ldi	r18, 0x08	; 8
    4ce0:	24 15       	cp	r18, r4
    4ce2:	78 f5       	brcc	.+94     	; 0x4d42 <vfprintf+0x22a>
    4ce4:	88 e0       	ldi	r24, 0x08	; 8
    4ce6:	48 2e       	mov	r4, r24
    4ce8:	2c c0       	rjmp	.+88     	; 0x4d42 <vfprintf+0x22a>
    4cea:	96 fc       	sbrc	r9, 6
    4cec:	2a c0       	rjmp	.+84     	; 0x4d42 <vfprintf+0x22a>
    4cee:	81 2f       	mov	r24, r17
    4cf0:	90 e0       	ldi	r25, 0x00	; 0
    4cf2:	8c 15       	cp	r24, r12
    4cf4:	9d 05       	cpc	r25, r13
    4cf6:	9c f0       	brlt	.+38     	; 0x4d1e <vfprintf+0x206>
    4cf8:	3c ef       	ldi	r19, 0xFC	; 252
    4cfa:	c3 16       	cp	r12, r19
    4cfc:	3f ef       	ldi	r19, 0xFF	; 255
    4cfe:	d3 06       	cpc	r13, r19
    4d00:	74 f0       	brlt	.+28     	; 0x4d1e <vfprintf+0x206>
    4d02:	89 2d       	mov	r24, r9
    4d04:	80 68       	ori	r24, 0x80	; 128
    4d06:	98 2e       	mov	r9, r24
    4d08:	0a c0       	rjmp	.+20     	; 0x4d1e <vfprintf+0x206>
    4d0a:	e2 e0       	ldi	r30, 0x02	; 2
    4d0c:	f0 e0       	ldi	r31, 0x00	; 0
    4d0e:	ec 0f       	add	r30, r28
    4d10:	fd 1f       	adc	r31, r29
    4d12:	e1 0f       	add	r30, r17
    4d14:	f1 1d       	adc	r31, r1
    4d16:	80 81       	ld	r24, Z
    4d18:	80 33       	cpi	r24, 0x30	; 48
    4d1a:	19 f4       	brne	.+6      	; 0x4d22 <vfprintf+0x20a>
    4d1c:	11 50       	subi	r17, 0x01	; 1
    4d1e:	11 11       	cpse	r17, r1
    4d20:	f4 cf       	rjmp	.-24     	; 0x4d0a <vfprintf+0x1f2>
    4d22:	97 fe       	sbrs	r9, 7
    4d24:	0e c0       	rjmp	.+28     	; 0x4d42 <vfprintf+0x22a>
    4d26:	44 24       	eor	r4, r4
    4d28:	43 94       	inc	r4
    4d2a:	41 0e       	add	r4, r17
    4d2c:	81 2f       	mov	r24, r17
    4d2e:	90 e0       	ldi	r25, 0x00	; 0
    4d30:	c8 16       	cp	r12, r24
    4d32:	d9 06       	cpc	r13, r25
    4d34:	2c f4       	brge	.+10     	; 0x4d40 <vfprintf+0x228>
    4d36:	1c 19       	sub	r17, r12
    4d38:	04 c0       	rjmp	.+8      	; 0x4d42 <vfprintf+0x22a>
    4d3a:	44 24       	eor	r4, r4
    4d3c:	43 94       	inc	r4
    4d3e:	01 c0       	rjmp	.+2      	; 0x4d42 <vfprintf+0x22a>
    4d40:	10 e0       	ldi	r17, 0x00	; 0
    4d42:	97 fe       	sbrs	r9, 7
    4d44:	06 c0       	rjmp	.+12     	; 0x4d52 <vfprintf+0x23a>
    4d46:	1c 14       	cp	r1, r12
    4d48:	1d 04       	cpc	r1, r13
    4d4a:	34 f4       	brge	.+12     	; 0x4d58 <vfprintf+0x240>
    4d4c:	c6 01       	movw	r24, r12
    4d4e:	01 96       	adiw	r24, 0x01	; 1
    4d50:	05 c0       	rjmp	.+10     	; 0x4d5c <vfprintf+0x244>
    4d52:	85 e0       	ldi	r24, 0x05	; 5
    4d54:	90 e0       	ldi	r25, 0x00	; 0
    4d56:	02 c0       	rjmp	.+4      	; 0x4d5c <vfprintf+0x244>
    4d58:	81 e0       	ldi	r24, 0x01	; 1
    4d5a:	90 e0       	ldi	r25, 0x00	; 0
    4d5c:	01 11       	cpse	r16, r1
    4d5e:	01 96       	adiw	r24, 0x01	; 1
    4d60:	11 23       	and	r17, r17
    4d62:	31 f0       	breq	.+12     	; 0x4d70 <vfprintf+0x258>
    4d64:	21 2f       	mov	r18, r17
    4d66:	30 e0       	ldi	r19, 0x00	; 0
    4d68:	2f 5f       	subi	r18, 0xFF	; 255
    4d6a:	3f 4f       	sbci	r19, 0xFF	; 255
    4d6c:	82 0f       	add	r24, r18
    4d6e:	93 1f       	adc	r25, r19
    4d70:	25 2d       	mov	r18, r5
    4d72:	30 e0       	ldi	r19, 0x00	; 0
    4d74:	82 17       	cp	r24, r18
    4d76:	93 07       	cpc	r25, r19
    4d78:	14 f4       	brge	.+4      	; 0x4d7e <vfprintf+0x266>
    4d7a:	58 1a       	sub	r5, r24
    4d7c:	01 c0       	rjmp	.+2      	; 0x4d80 <vfprintf+0x268>
    4d7e:	51 2c       	mov	r5, r1
    4d80:	89 2d       	mov	r24, r9
    4d82:	89 70       	andi	r24, 0x09	; 9
    4d84:	49 f4       	brne	.+18     	; 0x4d98 <vfprintf+0x280>
    4d86:	55 20       	and	r5, r5
    4d88:	39 f0       	breq	.+14     	; 0x4d98 <vfprintf+0x280>
    4d8a:	b7 01       	movw	r22, r14
    4d8c:	80 e2       	ldi	r24, 0x20	; 32
    4d8e:	90 e0       	ldi	r25, 0x00	; 0
    4d90:	0e 94 c2 2a 	call	0x5584	; 0x5584 <fputc>
    4d94:	5a 94       	dec	r5
    4d96:	f7 cf       	rjmp	.-18     	; 0x4d86 <vfprintf+0x26e>
    4d98:	00 23       	and	r16, r16
    4d9a:	29 f0       	breq	.+10     	; 0x4da6 <vfprintf+0x28e>
    4d9c:	b7 01       	movw	r22, r14
    4d9e:	80 2f       	mov	r24, r16
    4da0:	90 e0       	ldi	r25, 0x00	; 0
    4da2:	0e 94 c2 2a 	call	0x5584	; 0x5584 <fputc>
    4da6:	93 fc       	sbrc	r9, 3
    4da8:	09 c0       	rjmp	.+18     	; 0x4dbc <vfprintf+0x2a4>
    4daa:	55 20       	and	r5, r5
    4dac:	39 f0       	breq	.+14     	; 0x4dbc <vfprintf+0x2a4>
    4dae:	b7 01       	movw	r22, r14
    4db0:	80 e3       	ldi	r24, 0x30	; 48
    4db2:	90 e0       	ldi	r25, 0x00	; 0
    4db4:	0e 94 c2 2a 	call	0x5584	; 0x5584 <fputc>
    4db8:	5a 94       	dec	r5
    4dba:	f7 cf       	rjmp	.-18     	; 0x4daa <vfprintf+0x292>
    4dbc:	97 fe       	sbrs	r9, 7
    4dbe:	4c c0       	rjmp	.+152    	; 0x4e58 <vfprintf+0x340>
    4dc0:	46 01       	movw	r8, r12
    4dc2:	d7 fe       	sbrs	r13, 7
    4dc4:	02 c0       	rjmp	.+4      	; 0x4dca <vfprintf+0x2b2>
    4dc6:	81 2c       	mov	r8, r1
    4dc8:	91 2c       	mov	r9, r1
    4dca:	c6 01       	movw	r24, r12
    4dcc:	88 19       	sub	r24, r8
    4dce:	99 09       	sbc	r25, r9
    4dd0:	f3 01       	movw	r30, r6
    4dd2:	e8 0f       	add	r30, r24
    4dd4:	f9 1f       	adc	r31, r25
    4dd6:	fe 87       	std	Y+14, r31	; 0x0e
    4dd8:	ed 87       	std	Y+13, r30	; 0x0d
    4dda:	96 01       	movw	r18, r12
    4ddc:	24 19       	sub	r18, r4
    4dde:	31 09       	sbc	r19, r1
    4de0:	38 8b       	std	Y+16, r19	; 0x10
    4de2:	2f 87       	std	Y+15, r18	; 0x0f
    4de4:	01 2f       	mov	r16, r17
    4de6:	10 e0       	ldi	r17, 0x00	; 0
    4de8:	11 95       	neg	r17
    4dea:	01 95       	neg	r16
    4dec:	11 09       	sbc	r17, r1
    4dee:	3f ef       	ldi	r19, 0xFF	; 255
    4df0:	83 16       	cp	r8, r19
    4df2:	93 06       	cpc	r9, r19
    4df4:	29 f4       	brne	.+10     	; 0x4e00 <vfprintf+0x2e8>
    4df6:	b7 01       	movw	r22, r14
    4df8:	8e e2       	ldi	r24, 0x2E	; 46
    4dfa:	90 e0       	ldi	r25, 0x00	; 0
    4dfc:	0e 94 c2 2a 	call	0x5584	; 0x5584 <fputc>
    4e00:	c8 14       	cp	r12, r8
    4e02:	d9 04       	cpc	r13, r9
    4e04:	4c f0       	brlt	.+18     	; 0x4e18 <vfprintf+0x300>
    4e06:	8f 85       	ldd	r24, Y+15	; 0x0f
    4e08:	98 89       	ldd	r25, Y+16	; 0x10
    4e0a:	88 15       	cp	r24, r8
    4e0c:	99 05       	cpc	r25, r9
    4e0e:	24 f4       	brge	.+8      	; 0x4e18 <vfprintf+0x300>
    4e10:	ed 85       	ldd	r30, Y+13	; 0x0d
    4e12:	fe 85       	ldd	r31, Y+14	; 0x0e
    4e14:	81 81       	ldd	r24, Z+1	; 0x01
    4e16:	01 c0       	rjmp	.+2      	; 0x4e1a <vfprintf+0x302>
    4e18:	80 e3       	ldi	r24, 0x30	; 48
    4e1a:	f1 e0       	ldi	r31, 0x01	; 1
    4e1c:	8f 1a       	sub	r8, r31
    4e1e:	91 08       	sbc	r9, r1
    4e20:	2d 85       	ldd	r18, Y+13	; 0x0d
    4e22:	3e 85       	ldd	r19, Y+14	; 0x0e
    4e24:	2f 5f       	subi	r18, 0xFF	; 255
    4e26:	3f 4f       	sbci	r19, 0xFF	; 255
    4e28:	3e 87       	std	Y+14, r19	; 0x0e
    4e2a:	2d 87       	std	Y+13, r18	; 0x0d
    4e2c:	80 16       	cp	r8, r16
    4e2e:	91 06       	cpc	r9, r17
    4e30:	2c f0       	brlt	.+10     	; 0x4e3c <vfprintf+0x324>
    4e32:	b7 01       	movw	r22, r14
    4e34:	90 e0       	ldi	r25, 0x00	; 0
    4e36:	0e 94 c2 2a 	call	0x5584	; 0x5584 <fputc>
    4e3a:	d9 cf       	rjmp	.-78     	; 0x4dee <vfprintf+0x2d6>
    4e3c:	c8 14       	cp	r12, r8
    4e3e:	d9 04       	cpc	r13, r9
    4e40:	41 f4       	brne	.+16     	; 0x4e52 <vfprintf+0x33a>
    4e42:	9a 81       	ldd	r25, Y+2	; 0x02
    4e44:	96 33       	cpi	r25, 0x36	; 54
    4e46:	20 f4       	brcc	.+8      	; 0x4e50 <vfprintf+0x338>
    4e48:	95 33       	cpi	r25, 0x35	; 53
    4e4a:	19 f4       	brne	.+6      	; 0x4e52 <vfprintf+0x33a>
    4e4c:	3c 85       	ldd	r19, Y+12	; 0x0c
    4e4e:	34 ff       	sbrs	r19, 4
    4e50:	81 e3       	ldi	r24, 0x31	; 49
    4e52:	b7 01       	movw	r22, r14
    4e54:	90 e0       	ldi	r25, 0x00	; 0
    4e56:	4e c0       	rjmp	.+156    	; 0x4ef4 <vfprintf+0x3dc>
    4e58:	8a 81       	ldd	r24, Y+2	; 0x02
    4e5a:	81 33       	cpi	r24, 0x31	; 49
    4e5c:	19 f0       	breq	.+6      	; 0x4e64 <vfprintf+0x34c>
    4e5e:	9c 85       	ldd	r25, Y+12	; 0x0c
    4e60:	9f 7e       	andi	r25, 0xEF	; 239
    4e62:	9c 87       	std	Y+12, r25	; 0x0c
    4e64:	b7 01       	movw	r22, r14
    4e66:	90 e0       	ldi	r25, 0x00	; 0
    4e68:	0e 94 c2 2a 	call	0x5584	; 0x5584 <fputc>
    4e6c:	11 11       	cpse	r17, r1
    4e6e:	05 c0       	rjmp	.+10     	; 0x4e7a <vfprintf+0x362>
    4e70:	94 fc       	sbrc	r9, 4
    4e72:	18 c0       	rjmp	.+48     	; 0x4ea4 <vfprintf+0x38c>
    4e74:	85 e6       	ldi	r24, 0x65	; 101
    4e76:	90 e0       	ldi	r25, 0x00	; 0
    4e78:	17 c0       	rjmp	.+46     	; 0x4ea8 <vfprintf+0x390>
    4e7a:	b7 01       	movw	r22, r14
    4e7c:	8e e2       	ldi	r24, 0x2E	; 46
    4e7e:	90 e0       	ldi	r25, 0x00	; 0
    4e80:	0e 94 c2 2a 	call	0x5584	; 0x5584 <fputc>
    4e84:	1e 5f       	subi	r17, 0xFE	; 254
    4e86:	82 e0       	ldi	r24, 0x02	; 2
    4e88:	01 e0       	ldi	r16, 0x01	; 1
    4e8a:	08 0f       	add	r16, r24
    4e8c:	f3 01       	movw	r30, r6
    4e8e:	e8 0f       	add	r30, r24
    4e90:	f1 1d       	adc	r31, r1
    4e92:	80 81       	ld	r24, Z
    4e94:	b7 01       	movw	r22, r14
    4e96:	90 e0       	ldi	r25, 0x00	; 0
    4e98:	0e 94 c2 2a 	call	0x5584	; 0x5584 <fputc>
    4e9c:	80 2f       	mov	r24, r16
    4e9e:	01 13       	cpse	r16, r17
    4ea0:	f3 cf       	rjmp	.-26     	; 0x4e88 <vfprintf+0x370>
    4ea2:	e6 cf       	rjmp	.-52     	; 0x4e70 <vfprintf+0x358>
    4ea4:	85 e4       	ldi	r24, 0x45	; 69
    4ea6:	90 e0       	ldi	r25, 0x00	; 0
    4ea8:	b7 01       	movw	r22, r14
    4eaa:	0e 94 c2 2a 	call	0x5584	; 0x5584 <fputc>
    4eae:	d7 fc       	sbrc	r13, 7
    4eb0:	06 c0       	rjmp	.+12     	; 0x4ebe <vfprintf+0x3a6>
    4eb2:	c1 14       	cp	r12, r1
    4eb4:	d1 04       	cpc	r13, r1
    4eb6:	41 f4       	brne	.+16     	; 0x4ec8 <vfprintf+0x3b0>
    4eb8:	ec 85       	ldd	r30, Y+12	; 0x0c
    4eba:	e4 ff       	sbrs	r30, 4
    4ebc:	05 c0       	rjmp	.+10     	; 0x4ec8 <vfprintf+0x3b0>
    4ebe:	d1 94       	neg	r13
    4ec0:	c1 94       	neg	r12
    4ec2:	d1 08       	sbc	r13, r1
    4ec4:	8d e2       	ldi	r24, 0x2D	; 45
    4ec6:	01 c0       	rjmp	.+2      	; 0x4eca <vfprintf+0x3b2>
    4ec8:	8b e2       	ldi	r24, 0x2B	; 43
    4eca:	b7 01       	movw	r22, r14
    4ecc:	90 e0       	ldi	r25, 0x00	; 0
    4ece:	0e 94 c2 2a 	call	0x5584	; 0x5584 <fputc>
    4ed2:	80 e3       	ldi	r24, 0x30	; 48
    4ed4:	2a e0       	ldi	r18, 0x0A	; 10
    4ed6:	c2 16       	cp	r12, r18
    4ed8:	d1 04       	cpc	r13, r1
    4eda:	2c f0       	brlt	.+10     	; 0x4ee6 <vfprintf+0x3ce>
    4edc:	8f 5f       	subi	r24, 0xFF	; 255
    4ede:	fa e0       	ldi	r31, 0x0A	; 10
    4ee0:	cf 1a       	sub	r12, r31
    4ee2:	d1 08       	sbc	r13, r1
    4ee4:	f7 cf       	rjmp	.-18     	; 0x4ed4 <vfprintf+0x3bc>
    4ee6:	b7 01       	movw	r22, r14
    4ee8:	90 e0       	ldi	r25, 0x00	; 0
    4eea:	0e 94 c2 2a 	call	0x5584	; 0x5584 <fputc>
    4eee:	b7 01       	movw	r22, r14
    4ef0:	c6 01       	movw	r24, r12
    4ef2:	c0 96       	adiw	r24, 0x30	; 48
    4ef4:	0e 94 c2 2a 	call	0x5584	; 0x5584 <fputc>
    4ef8:	54 c1       	rjmp	.+680    	; 0x51a2 <vfprintf+0x68a>
    4efa:	83 36       	cpi	r24, 0x63	; 99
    4efc:	31 f0       	breq	.+12     	; 0x4f0a <vfprintf+0x3f2>
    4efe:	83 37       	cpi	r24, 0x73	; 115
    4f00:	79 f0       	breq	.+30     	; 0x4f20 <vfprintf+0x408>
    4f02:	83 35       	cpi	r24, 0x53	; 83
    4f04:	09 f0       	breq	.+2      	; 0x4f08 <vfprintf+0x3f0>
    4f06:	56 c0       	rjmp	.+172    	; 0x4fb4 <vfprintf+0x49c>
    4f08:	20 c0       	rjmp	.+64     	; 0x4f4a <vfprintf+0x432>
    4f0a:	56 01       	movw	r10, r12
    4f0c:	32 e0       	ldi	r19, 0x02	; 2
    4f0e:	a3 0e       	add	r10, r19
    4f10:	b1 1c       	adc	r11, r1
    4f12:	f6 01       	movw	r30, r12
    4f14:	80 81       	ld	r24, Z
    4f16:	89 83       	std	Y+1, r24	; 0x01
    4f18:	01 e0       	ldi	r16, 0x01	; 1
    4f1a:	10 e0       	ldi	r17, 0x00	; 0
    4f1c:	63 01       	movw	r12, r6
    4f1e:	12 c0       	rjmp	.+36     	; 0x4f44 <vfprintf+0x42c>
    4f20:	56 01       	movw	r10, r12
    4f22:	f2 e0       	ldi	r31, 0x02	; 2
    4f24:	af 0e       	add	r10, r31
    4f26:	b1 1c       	adc	r11, r1
    4f28:	f6 01       	movw	r30, r12
    4f2a:	c0 80       	ld	r12, Z
    4f2c:	d1 80       	ldd	r13, Z+1	; 0x01
    4f2e:	96 fe       	sbrs	r9, 6
    4f30:	03 c0       	rjmp	.+6      	; 0x4f38 <vfprintf+0x420>
    4f32:	61 2f       	mov	r22, r17
    4f34:	70 e0       	ldi	r23, 0x00	; 0
    4f36:	02 c0       	rjmp	.+4      	; 0x4f3c <vfprintf+0x424>
    4f38:	6f ef       	ldi	r22, 0xFF	; 255
    4f3a:	7f ef       	ldi	r23, 0xFF	; 255
    4f3c:	c6 01       	movw	r24, r12
    4f3e:	0e 94 b7 2a 	call	0x556e	; 0x556e <strnlen>
    4f42:	8c 01       	movw	r16, r24
    4f44:	f9 2d       	mov	r31, r9
    4f46:	ff 77       	andi	r31, 0x7F	; 127
    4f48:	14 c0       	rjmp	.+40     	; 0x4f72 <vfprintf+0x45a>
    4f4a:	56 01       	movw	r10, r12
    4f4c:	22 e0       	ldi	r18, 0x02	; 2
    4f4e:	a2 0e       	add	r10, r18
    4f50:	b1 1c       	adc	r11, r1
    4f52:	f6 01       	movw	r30, r12
    4f54:	c0 80       	ld	r12, Z
    4f56:	d1 80       	ldd	r13, Z+1	; 0x01
    4f58:	96 fe       	sbrs	r9, 6
    4f5a:	03 c0       	rjmp	.+6      	; 0x4f62 <vfprintf+0x44a>
    4f5c:	61 2f       	mov	r22, r17
    4f5e:	70 e0       	ldi	r23, 0x00	; 0
    4f60:	02 c0       	rjmp	.+4      	; 0x4f66 <vfprintf+0x44e>
    4f62:	6f ef       	ldi	r22, 0xFF	; 255
    4f64:	7f ef       	ldi	r23, 0xFF	; 255
    4f66:	c6 01       	movw	r24, r12
    4f68:	0e 94 91 2a 	call	0x5522	; 0x5522 <strnlen_P>
    4f6c:	8c 01       	movw	r16, r24
    4f6e:	f9 2d       	mov	r31, r9
    4f70:	f0 68       	ori	r31, 0x80	; 128
    4f72:	9f 2e       	mov	r9, r31
    4f74:	f3 fd       	sbrc	r31, 3
    4f76:	1a c0       	rjmp	.+52     	; 0x4fac <vfprintf+0x494>
    4f78:	85 2d       	mov	r24, r5
    4f7a:	90 e0       	ldi	r25, 0x00	; 0
    4f7c:	08 17       	cp	r16, r24
    4f7e:	19 07       	cpc	r17, r25
    4f80:	a8 f4       	brcc	.+42     	; 0x4fac <vfprintf+0x494>
    4f82:	b7 01       	movw	r22, r14
    4f84:	80 e2       	ldi	r24, 0x20	; 32
    4f86:	90 e0       	ldi	r25, 0x00	; 0
    4f88:	0e 94 c2 2a 	call	0x5584	; 0x5584 <fputc>
    4f8c:	5a 94       	dec	r5
    4f8e:	f4 cf       	rjmp	.-24     	; 0x4f78 <vfprintf+0x460>
    4f90:	f6 01       	movw	r30, r12
    4f92:	97 fc       	sbrc	r9, 7
    4f94:	85 91       	lpm	r24, Z+
    4f96:	97 fe       	sbrs	r9, 7
    4f98:	81 91       	ld	r24, Z+
    4f9a:	6f 01       	movw	r12, r30
    4f9c:	b7 01       	movw	r22, r14
    4f9e:	90 e0       	ldi	r25, 0x00	; 0
    4fa0:	0e 94 c2 2a 	call	0x5584	; 0x5584 <fputc>
    4fa4:	51 10       	cpse	r5, r1
    4fa6:	5a 94       	dec	r5
    4fa8:	01 50       	subi	r16, 0x01	; 1
    4faa:	11 09       	sbc	r17, r1
    4fac:	01 15       	cp	r16, r1
    4fae:	11 05       	cpc	r17, r1
    4fb0:	79 f7       	brne	.-34     	; 0x4f90 <vfprintf+0x478>
    4fb2:	f7 c0       	rjmp	.+494    	; 0x51a2 <vfprintf+0x68a>
    4fb4:	84 36       	cpi	r24, 0x64	; 100
    4fb6:	11 f0       	breq	.+4      	; 0x4fbc <vfprintf+0x4a4>
    4fb8:	89 36       	cpi	r24, 0x69	; 105
    4fba:	61 f5       	brne	.+88     	; 0x5014 <vfprintf+0x4fc>
    4fbc:	56 01       	movw	r10, r12
    4fbe:	97 fe       	sbrs	r9, 7
    4fc0:	09 c0       	rjmp	.+18     	; 0x4fd4 <vfprintf+0x4bc>
    4fc2:	24 e0       	ldi	r18, 0x04	; 4
    4fc4:	a2 0e       	add	r10, r18
    4fc6:	b1 1c       	adc	r11, r1
    4fc8:	f6 01       	movw	r30, r12
    4fca:	60 81       	ld	r22, Z
    4fcc:	71 81       	ldd	r23, Z+1	; 0x01
    4fce:	82 81       	ldd	r24, Z+2	; 0x02
    4fd0:	93 81       	ldd	r25, Z+3	; 0x03
    4fd2:	0a c0       	rjmp	.+20     	; 0x4fe8 <vfprintf+0x4d0>
    4fd4:	f2 e0       	ldi	r31, 0x02	; 2
    4fd6:	af 0e       	add	r10, r31
    4fd8:	b1 1c       	adc	r11, r1
    4fda:	f6 01       	movw	r30, r12
    4fdc:	60 81       	ld	r22, Z
    4fde:	71 81       	ldd	r23, Z+1	; 0x01
    4fe0:	07 2e       	mov	r0, r23
    4fe2:	00 0c       	add	r0, r0
    4fe4:	88 0b       	sbc	r24, r24
    4fe6:	99 0b       	sbc	r25, r25
    4fe8:	f9 2d       	mov	r31, r9
    4fea:	ff 76       	andi	r31, 0x6F	; 111
    4fec:	9f 2e       	mov	r9, r31
    4fee:	97 ff       	sbrs	r25, 7
    4ff0:	09 c0       	rjmp	.+18     	; 0x5004 <vfprintf+0x4ec>
    4ff2:	90 95       	com	r25
    4ff4:	80 95       	com	r24
    4ff6:	70 95       	com	r23
    4ff8:	61 95       	neg	r22
    4ffa:	7f 4f       	sbci	r23, 0xFF	; 255
    4ffc:	8f 4f       	sbci	r24, 0xFF	; 255
    4ffe:	9f 4f       	sbci	r25, 0xFF	; 255
    5000:	f0 68       	ori	r31, 0x80	; 128
    5002:	9f 2e       	mov	r9, r31
    5004:	2a e0       	ldi	r18, 0x0A	; 10
    5006:	30 e0       	ldi	r19, 0x00	; 0
    5008:	a3 01       	movw	r20, r6
    500a:	0e 94 39 2b 	call	0x5672	; 0x5672 <__ultoa_invert>
    500e:	c8 2e       	mov	r12, r24
    5010:	c6 18       	sub	r12, r6
    5012:	3f c0       	rjmp	.+126    	; 0x5092 <vfprintf+0x57a>
    5014:	09 2d       	mov	r16, r9
    5016:	85 37       	cpi	r24, 0x75	; 117
    5018:	21 f4       	brne	.+8      	; 0x5022 <vfprintf+0x50a>
    501a:	0f 7e       	andi	r16, 0xEF	; 239
    501c:	2a e0       	ldi	r18, 0x0A	; 10
    501e:	30 e0       	ldi	r19, 0x00	; 0
    5020:	1d c0       	rjmp	.+58     	; 0x505c <vfprintf+0x544>
    5022:	09 7f       	andi	r16, 0xF9	; 249
    5024:	8f 36       	cpi	r24, 0x6F	; 111
    5026:	91 f0       	breq	.+36     	; 0x504c <vfprintf+0x534>
    5028:	18 f4       	brcc	.+6      	; 0x5030 <vfprintf+0x518>
    502a:	88 35       	cpi	r24, 0x58	; 88
    502c:	59 f0       	breq	.+22     	; 0x5044 <vfprintf+0x52c>
    502e:	c3 c0       	rjmp	.+390    	; 0x51b6 <vfprintf+0x69e>
    5030:	80 37       	cpi	r24, 0x70	; 112
    5032:	19 f0       	breq	.+6      	; 0x503a <vfprintf+0x522>
    5034:	88 37       	cpi	r24, 0x78	; 120
    5036:	11 f0       	breq	.+4      	; 0x503c <vfprintf+0x524>
    5038:	be c0       	rjmp	.+380    	; 0x51b6 <vfprintf+0x69e>
    503a:	00 61       	ori	r16, 0x10	; 16
    503c:	04 ff       	sbrs	r16, 4
    503e:	09 c0       	rjmp	.+18     	; 0x5052 <vfprintf+0x53a>
    5040:	04 60       	ori	r16, 0x04	; 4
    5042:	07 c0       	rjmp	.+14     	; 0x5052 <vfprintf+0x53a>
    5044:	94 fe       	sbrs	r9, 4
    5046:	08 c0       	rjmp	.+16     	; 0x5058 <vfprintf+0x540>
    5048:	06 60       	ori	r16, 0x06	; 6
    504a:	06 c0       	rjmp	.+12     	; 0x5058 <vfprintf+0x540>
    504c:	28 e0       	ldi	r18, 0x08	; 8
    504e:	30 e0       	ldi	r19, 0x00	; 0
    5050:	05 c0       	rjmp	.+10     	; 0x505c <vfprintf+0x544>
    5052:	20 e1       	ldi	r18, 0x10	; 16
    5054:	30 e0       	ldi	r19, 0x00	; 0
    5056:	02 c0       	rjmp	.+4      	; 0x505c <vfprintf+0x544>
    5058:	20 e1       	ldi	r18, 0x10	; 16
    505a:	32 e0       	ldi	r19, 0x02	; 2
    505c:	56 01       	movw	r10, r12
    505e:	07 ff       	sbrs	r16, 7
    5060:	09 c0       	rjmp	.+18     	; 0x5074 <vfprintf+0x55c>
    5062:	84 e0       	ldi	r24, 0x04	; 4
    5064:	a8 0e       	add	r10, r24
    5066:	b1 1c       	adc	r11, r1
    5068:	f6 01       	movw	r30, r12
    506a:	60 81       	ld	r22, Z
    506c:	71 81       	ldd	r23, Z+1	; 0x01
    506e:	82 81       	ldd	r24, Z+2	; 0x02
    5070:	93 81       	ldd	r25, Z+3	; 0x03
    5072:	08 c0       	rjmp	.+16     	; 0x5084 <vfprintf+0x56c>
    5074:	f2 e0       	ldi	r31, 0x02	; 2
    5076:	af 0e       	add	r10, r31
    5078:	b1 1c       	adc	r11, r1
    507a:	f6 01       	movw	r30, r12
    507c:	60 81       	ld	r22, Z
    507e:	71 81       	ldd	r23, Z+1	; 0x01
    5080:	80 e0       	ldi	r24, 0x00	; 0
    5082:	90 e0       	ldi	r25, 0x00	; 0
    5084:	a3 01       	movw	r20, r6
    5086:	0e 94 39 2b 	call	0x5672	; 0x5672 <__ultoa_invert>
    508a:	c8 2e       	mov	r12, r24
    508c:	c6 18       	sub	r12, r6
    508e:	0f 77       	andi	r16, 0x7F	; 127
    5090:	90 2e       	mov	r9, r16
    5092:	96 fe       	sbrs	r9, 6
    5094:	0b c0       	rjmp	.+22     	; 0x50ac <vfprintf+0x594>
    5096:	09 2d       	mov	r16, r9
    5098:	0e 7f       	andi	r16, 0xFE	; 254
    509a:	c1 16       	cp	r12, r17
    509c:	50 f4       	brcc	.+20     	; 0x50b2 <vfprintf+0x59a>
    509e:	94 fe       	sbrs	r9, 4
    50a0:	0a c0       	rjmp	.+20     	; 0x50b6 <vfprintf+0x59e>
    50a2:	92 fc       	sbrc	r9, 2
    50a4:	08 c0       	rjmp	.+16     	; 0x50b6 <vfprintf+0x59e>
    50a6:	09 2d       	mov	r16, r9
    50a8:	0e 7e       	andi	r16, 0xEE	; 238
    50aa:	05 c0       	rjmp	.+10     	; 0x50b6 <vfprintf+0x59e>
    50ac:	dc 2c       	mov	r13, r12
    50ae:	09 2d       	mov	r16, r9
    50b0:	03 c0       	rjmp	.+6      	; 0x50b8 <vfprintf+0x5a0>
    50b2:	dc 2c       	mov	r13, r12
    50b4:	01 c0       	rjmp	.+2      	; 0x50b8 <vfprintf+0x5a0>
    50b6:	d1 2e       	mov	r13, r17
    50b8:	04 ff       	sbrs	r16, 4
    50ba:	0d c0       	rjmp	.+26     	; 0x50d6 <vfprintf+0x5be>
    50bc:	fe 01       	movw	r30, r28
    50be:	ec 0d       	add	r30, r12
    50c0:	f1 1d       	adc	r31, r1
    50c2:	80 81       	ld	r24, Z
    50c4:	80 33       	cpi	r24, 0x30	; 48
    50c6:	11 f4       	brne	.+4      	; 0x50cc <vfprintf+0x5b4>
    50c8:	09 7e       	andi	r16, 0xE9	; 233
    50ca:	09 c0       	rjmp	.+18     	; 0x50de <vfprintf+0x5c6>
    50cc:	02 ff       	sbrs	r16, 2
    50ce:	06 c0       	rjmp	.+12     	; 0x50dc <vfprintf+0x5c4>
    50d0:	d3 94       	inc	r13
    50d2:	d3 94       	inc	r13
    50d4:	04 c0       	rjmp	.+8      	; 0x50de <vfprintf+0x5c6>
    50d6:	80 2f       	mov	r24, r16
    50d8:	86 78       	andi	r24, 0x86	; 134
    50da:	09 f0       	breq	.+2      	; 0x50de <vfprintf+0x5c6>
    50dc:	d3 94       	inc	r13
    50de:	03 fd       	sbrc	r16, 3
    50e0:	11 c0       	rjmp	.+34     	; 0x5104 <vfprintf+0x5ec>
    50e2:	00 ff       	sbrs	r16, 0
    50e4:	06 c0       	rjmp	.+12     	; 0x50f2 <vfprintf+0x5da>
    50e6:	1c 2d       	mov	r17, r12
    50e8:	d5 14       	cp	r13, r5
    50ea:	80 f4       	brcc	.+32     	; 0x510c <vfprintf+0x5f4>
    50ec:	15 0d       	add	r17, r5
    50ee:	1d 19       	sub	r17, r13
    50f0:	0d c0       	rjmp	.+26     	; 0x510c <vfprintf+0x5f4>
    50f2:	d5 14       	cp	r13, r5
    50f4:	58 f4       	brcc	.+22     	; 0x510c <vfprintf+0x5f4>
    50f6:	b7 01       	movw	r22, r14
    50f8:	80 e2       	ldi	r24, 0x20	; 32
    50fa:	90 e0       	ldi	r25, 0x00	; 0
    50fc:	0e 94 c2 2a 	call	0x5584	; 0x5584 <fputc>
    5100:	d3 94       	inc	r13
    5102:	f7 cf       	rjmp	.-18     	; 0x50f2 <vfprintf+0x5da>
    5104:	d5 14       	cp	r13, r5
    5106:	10 f4       	brcc	.+4      	; 0x510c <vfprintf+0x5f4>
    5108:	5d 18       	sub	r5, r13
    510a:	01 c0       	rjmp	.+2      	; 0x510e <vfprintf+0x5f6>
    510c:	51 2c       	mov	r5, r1
    510e:	04 ff       	sbrs	r16, 4
    5110:	10 c0       	rjmp	.+32     	; 0x5132 <vfprintf+0x61a>
    5112:	b7 01       	movw	r22, r14
    5114:	80 e3       	ldi	r24, 0x30	; 48
    5116:	90 e0       	ldi	r25, 0x00	; 0
    5118:	0e 94 c2 2a 	call	0x5584	; 0x5584 <fputc>
    511c:	02 ff       	sbrs	r16, 2
    511e:	17 c0       	rjmp	.+46     	; 0x514e <vfprintf+0x636>
    5120:	01 fd       	sbrc	r16, 1
    5122:	03 c0       	rjmp	.+6      	; 0x512a <vfprintf+0x612>
    5124:	88 e7       	ldi	r24, 0x78	; 120
    5126:	90 e0       	ldi	r25, 0x00	; 0
    5128:	02 c0       	rjmp	.+4      	; 0x512e <vfprintf+0x616>
    512a:	88 e5       	ldi	r24, 0x58	; 88
    512c:	90 e0       	ldi	r25, 0x00	; 0
    512e:	b7 01       	movw	r22, r14
    5130:	0c c0       	rjmp	.+24     	; 0x514a <vfprintf+0x632>
    5132:	80 2f       	mov	r24, r16
    5134:	86 78       	andi	r24, 0x86	; 134
    5136:	59 f0       	breq	.+22     	; 0x514e <vfprintf+0x636>
    5138:	01 ff       	sbrs	r16, 1
    513a:	02 c0       	rjmp	.+4      	; 0x5140 <vfprintf+0x628>
    513c:	8b e2       	ldi	r24, 0x2B	; 43
    513e:	01 c0       	rjmp	.+2      	; 0x5142 <vfprintf+0x62a>
    5140:	80 e2       	ldi	r24, 0x20	; 32
    5142:	07 fd       	sbrc	r16, 7
    5144:	8d e2       	ldi	r24, 0x2D	; 45
    5146:	b7 01       	movw	r22, r14
    5148:	90 e0       	ldi	r25, 0x00	; 0
    514a:	0e 94 c2 2a 	call	0x5584	; 0x5584 <fputc>
    514e:	c1 16       	cp	r12, r17
    5150:	38 f4       	brcc	.+14     	; 0x5160 <vfprintf+0x648>
    5152:	b7 01       	movw	r22, r14
    5154:	80 e3       	ldi	r24, 0x30	; 48
    5156:	90 e0       	ldi	r25, 0x00	; 0
    5158:	0e 94 c2 2a 	call	0x5584	; 0x5584 <fputc>
    515c:	11 50       	subi	r17, 0x01	; 1
    515e:	f7 cf       	rjmp	.-18     	; 0x514e <vfprintf+0x636>
    5160:	ca 94       	dec	r12
    5162:	f3 01       	movw	r30, r6
    5164:	ec 0d       	add	r30, r12
    5166:	f1 1d       	adc	r31, r1
    5168:	80 81       	ld	r24, Z
    516a:	b7 01       	movw	r22, r14
    516c:	90 e0       	ldi	r25, 0x00	; 0
    516e:	0e 94 c2 2a 	call	0x5584	; 0x5584 <fputc>
    5172:	c1 10       	cpse	r12, r1
    5174:	f5 cf       	rjmp	.-22     	; 0x5160 <vfprintf+0x648>
    5176:	15 c0       	rjmp	.+42     	; 0x51a2 <vfprintf+0x68a>
    5178:	f4 e0       	ldi	r31, 0x04	; 4
    517a:	f5 15       	cp	r31, r5
    517c:	60 f5       	brcc	.+88     	; 0x51d6 <vfprintf+0x6be>
    517e:	84 e0       	ldi	r24, 0x04	; 4
    5180:	58 1a       	sub	r5, r24
    5182:	93 fe       	sbrs	r9, 3
    5184:	1f c0       	rjmp	.+62     	; 0x51c4 <vfprintf+0x6ac>
    5186:	01 11       	cpse	r16, r1
    5188:	27 c0       	rjmp	.+78     	; 0x51d8 <vfprintf+0x6c0>
    518a:	2c 85       	ldd	r18, Y+12	; 0x0c
    518c:	23 ff       	sbrs	r18, 3
    518e:	2a c0       	rjmp	.+84     	; 0x51e4 <vfprintf+0x6cc>
    5190:	0a ea       	ldi	r16, 0xAA	; 170
    5192:	10 e0       	ldi	r17, 0x00	; 0
    5194:	39 2d       	mov	r19, r9
    5196:	30 71       	andi	r19, 0x10	; 16
    5198:	93 2e       	mov	r9, r19
    519a:	f8 01       	movw	r30, r16
    519c:	84 91       	lpm	r24, Z
    519e:	81 11       	cpse	r24, r1
    51a0:	24 c0       	rjmp	.+72     	; 0x51ea <vfprintf+0x6d2>
    51a2:	55 20       	and	r5, r5
    51a4:	09 f4       	brne	.+2      	; 0x51a8 <vfprintf+0x690>
    51a6:	e4 cc       	rjmp	.-1592   	; 0x4b70 <vfprintf+0x58>
    51a8:	b7 01       	movw	r22, r14
    51aa:	80 e2       	ldi	r24, 0x20	; 32
    51ac:	90 e0       	ldi	r25, 0x00	; 0
    51ae:	0e 94 c2 2a 	call	0x5584	; 0x5584 <fputc>
    51b2:	5a 94       	dec	r5
    51b4:	f6 cf       	rjmp	.-20     	; 0x51a2 <vfprintf+0x68a>
    51b6:	f7 01       	movw	r30, r14
    51b8:	86 81       	ldd	r24, Z+6	; 0x06
    51ba:	97 81       	ldd	r25, Z+7	; 0x07
    51bc:	26 c0       	rjmp	.+76     	; 0x520a <vfprintf+0x6f2>
    51be:	8f ef       	ldi	r24, 0xFF	; 255
    51c0:	9f ef       	ldi	r25, 0xFF	; 255
    51c2:	23 c0       	rjmp	.+70     	; 0x520a <vfprintf+0x6f2>
    51c4:	b7 01       	movw	r22, r14
    51c6:	80 e2       	ldi	r24, 0x20	; 32
    51c8:	90 e0       	ldi	r25, 0x00	; 0
    51ca:	0e 94 c2 2a 	call	0x5584	; 0x5584 <fputc>
    51ce:	5a 94       	dec	r5
    51d0:	51 10       	cpse	r5, r1
    51d2:	f8 cf       	rjmp	.-16     	; 0x51c4 <vfprintf+0x6ac>
    51d4:	d8 cf       	rjmp	.-80     	; 0x5186 <vfprintf+0x66e>
    51d6:	51 2c       	mov	r5, r1
    51d8:	b7 01       	movw	r22, r14
    51da:	80 2f       	mov	r24, r16
    51dc:	90 e0       	ldi	r25, 0x00	; 0
    51de:	0e 94 c2 2a 	call	0x5584	; 0x5584 <fputc>
    51e2:	d3 cf       	rjmp	.-90     	; 0x518a <vfprintf+0x672>
    51e4:	0e ea       	ldi	r16, 0xAE	; 174
    51e6:	10 e0       	ldi	r17, 0x00	; 0
    51e8:	d5 cf       	rjmp	.-86     	; 0x5194 <vfprintf+0x67c>
    51ea:	91 10       	cpse	r9, r1
    51ec:	80 52       	subi	r24, 0x20	; 32
    51ee:	b7 01       	movw	r22, r14
    51f0:	90 e0       	ldi	r25, 0x00	; 0
    51f2:	0e 94 c2 2a 	call	0x5584	; 0x5584 <fputc>
    51f6:	0f 5f       	subi	r16, 0xFF	; 255
    51f8:	1f 4f       	sbci	r17, 0xFF	; 255
    51fa:	cf cf       	rjmp	.-98     	; 0x519a <vfprintf+0x682>
    51fc:	23 e0       	ldi	r18, 0x03	; 3
    51fe:	25 15       	cp	r18, r5
    5200:	10 f4       	brcc	.+4      	; 0x5206 <vfprintf+0x6ee>
    5202:	83 e0       	ldi	r24, 0x03	; 3
    5204:	bd cf       	rjmp	.-134    	; 0x5180 <vfprintf+0x668>
    5206:	51 2c       	mov	r5, r1
    5208:	c0 cf       	rjmp	.-128    	; 0x518a <vfprintf+0x672>
    520a:	60 96       	adiw	r28, 0x10	; 16
    520c:	e2 e1       	ldi	r30, 0x12	; 18
    520e:	0c 94 8f 29 	jmp	0x531e	; 0x531e <__epilogue_restores__>

00005212 <__mulsi3>:
    5212:	db 01       	movw	r26, r22
    5214:	8f 93       	push	r24
    5216:	9f 93       	push	r25
    5218:	0e 94 60 29 	call	0x52c0	; 0x52c0 <__muluhisi3>
    521c:	bf 91       	pop	r27
    521e:	af 91       	pop	r26
    5220:	a2 9f       	mul	r26, r18
    5222:	80 0d       	add	r24, r0
    5224:	91 1d       	adc	r25, r1
    5226:	a3 9f       	mul	r26, r19
    5228:	90 0d       	add	r25, r0
    522a:	b2 9f       	mul	r27, r18
    522c:	90 0d       	add	r25, r0
    522e:	11 24       	eor	r1, r1
    5230:	08 95       	ret

00005232 <__udivmodsi4>:
    5232:	a1 e2       	ldi	r26, 0x21	; 33
    5234:	1a 2e       	mov	r1, r26
    5236:	aa 1b       	sub	r26, r26
    5238:	bb 1b       	sub	r27, r27
    523a:	fd 01       	movw	r30, r26
    523c:	0d c0       	rjmp	.+26     	; 0x5258 <__udivmodsi4_ep>

0000523e <__udivmodsi4_loop>:
    523e:	aa 1f       	adc	r26, r26
    5240:	bb 1f       	adc	r27, r27
    5242:	ee 1f       	adc	r30, r30
    5244:	ff 1f       	adc	r31, r31
    5246:	a2 17       	cp	r26, r18
    5248:	b3 07       	cpc	r27, r19
    524a:	e4 07       	cpc	r30, r20
    524c:	f5 07       	cpc	r31, r21
    524e:	20 f0       	brcs	.+8      	; 0x5258 <__udivmodsi4_ep>
    5250:	a2 1b       	sub	r26, r18
    5252:	b3 0b       	sbc	r27, r19
    5254:	e4 0b       	sbc	r30, r20
    5256:	f5 0b       	sbc	r31, r21

00005258 <__udivmodsi4_ep>:
    5258:	66 1f       	adc	r22, r22
    525a:	77 1f       	adc	r23, r23
    525c:	88 1f       	adc	r24, r24
    525e:	99 1f       	adc	r25, r25
    5260:	1a 94       	dec	r1
    5262:	69 f7       	brne	.-38     	; 0x523e <__udivmodsi4_loop>
    5264:	60 95       	com	r22
    5266:	70 95       	com	r23
    5268:	80 95       	com	r24
    526a:	90 95       	com	r25
    526c:	9b 01       	movw	r18, r22
    526e:	ac 01       	movw	r20, r24
    5270:	bd 01       	movw	r22, r26
    5272:	cf 01       	movw	r24, r30
    5274:	08 95       	ret

00005276 <__divmodsi4>:
    5276:	05 2e       	mov	r0, r21
    5278:	97 fb       	bst	r25, 7
    527a:	1e f4       	brtc	.+6      	; 0x5282 <__divmodsi4+0xc>
    527c:	00 94       	com	r0
    527e:	0e 94 52 29 	call	0x52a4	; 0x52a4 <__negsi2>
    5282:	57 fd       	sbrc	r21, 7
    5284:	07 d0       	rcall	.+14     	; 0x5294 <__divmodsi4_neg2>
    5286:	0e 94 19 29 	call	0x5232	; 0x5232 <__udivmodsi4>
    528a:	07 fc       	sbrc	r0, 7
    528c:	03 d0       	rcall	.+6      	; 0x5294 <__divmodsi4_neg2>
    528e:	4e f4       	brtc	.+18     	; 0x52a2 <__divmodsi4_exit>
    5290:	0c 94 52 29 	jmp	0x52a4	; 0x52a4 <__negsi2>

00005294 <__divmodsi4_neg2>:
    5294:	50 95       	com	r21
    5296:	40 95       	com	r20
    5298:	30 95       	com	r19
    529a:	21 95       	neg	r18
    529c:	3f 4f       	sbci	r19, 0xFF	; 255
    529e:	4f 4f       	sbci	r20, 0xFF	; 255
    52a0:	5f 4f       	sbci	r21, 0xFF	; 255

000052a2 <__divmodsi4_exit>:
    52a2:	08 95       	ret

000052a4 <__negsi2>:
    52a4:	90 95       	com	r25
    52a6:	80 95       	com	r24
    52a8:	70 95       	com	r23
    52aa:	61 95       	neg	r22
    52ac:	7f 4f       	sbci	r23, 0xFF	; 255
    52ae:	8f 4f       	sbci	r24, 0xFF	; 255
    52b0:	9f 4f       	sbci	r25, 0xFF	; 255
    52b2:	08 95       	ret

000052b4 <__tablejump2__>:
    52b4:	ee 0f       	add	r30, r30
    52b6:	ff 1f       	adc	r31, r31
    52b8:	05 90       	lpm	r0, Z+
    52ba:	f4 91       	lpm	r31, Z
    52bc:	e0 2d       	mov	r30, r0
    52be:	09 94       	ijmp

000052c0 <__muluhisi3>:
    52c0:	0e 94 aa 29 	call	0x5354	; 0x5354 <__umulhisi3>
    52c4:	a5 9f       	mul	r26, r21
    52c6:	90 0d       	add	r25, r0
    52c8:	b4 9f       	mul	r27, r20
    52ca:	90 0d       	add	r25, r0
    52cc:	a4 9f       	mul	r26, r20
    52ce:	80 0d       	add	r24, r0
    52d0:	91 1d       	adc	r25, r1
    52d2:	11 24       	eor	r1, r1
    52d4:	08 95       	ret

000052d6 <__mulshisi3>:
    52d6:	b7 ff       	sbrs	r27, 7
    52d8:	0c 94 60 29 	jmp	0x52c0	; 0x52c0 <__muluhisi3>

000052dc <__mulohisi3>:
    52dc:	0e 94 60 29 	call	0x52c0	; 0x52c0 <__muluhisi3>
    52e0:	82 1b       	sub	r24, r18
    52e2:	93 0b       	sbc	r25, r19
    52e4:	08 95       	ret

000052e6 <__prologue_saves__>:
    52e6:	2f 92       	push	r2
    52e8:	3f 92       	push	r3
    52ea:	4f 92       	push	r4
    52ec:	5f 92       	push	r5
    52ee:	6f 92       	push	r6
    52f0:	7f 92       	push	r7
    52f2:	8f 92       	push	r8
    52f4:	9f 92       	push	r9
    52f6:	af 92       	push	r10
    52f8:	bf 92       	push	r11
    52fa:	cf 92       	push	r12
    52fc:	df 92       	push	r13
    52fe:	ef 92       	push	r14
    5300:	ff 92       	push	r15
    5302:	0f 93       	push	r16
    5304:	1f 93       	push	r17
    5306:	cf 93       	push	r28
    5308:	df 93       	push	r29
    530a:	cd b7       	in	r28, 0x3d	; 61
    530c:	de b7       	in	r29, 0x3e	; 62
    530e:	ca 1b       	sub	r28, r26
    5310:	db 0b       	sbc	r29, r27
    5312:	0f b6       	in	r0, 0x3f	; 63
    5314:	f8 94       	cli
    5316:	de bf       	out	0x3e, r29	; 62
    5318:	0f be       	out	0x3f, r0	; 63
    531a:	cd bf       	out	0x3d, r28	; 61
    531c:	09 94       	ijmp

0000531e <__epilogue_restores__>:
    531e:	2a 88       	ldd	r2, Y+18	; 0x12
    5320:	39 88       	ldd	r3, Y+17	; 0x11
    5322:	48 88       	ldd	r4, Y+16	; 0x10
    5324:	5f 84       	ldd	r5, Y+15	; 0x0f
    5326:	6e 84       	ldd	r6, Y+14	; 0x0e
    5328:	7d 84       	ldd	r7, Y+13	; 0x0d
    532a:	8c 84       	ldd	r8, Y+12	; 0x0c
    532c:	9b 84       	ldd	r9, Y+11	; 0x0b
    532e:	aa 84       	ldd	r10, Y+10	; 0x0a
    5330:	b9 84       	ldd	r11, Y+9	; 0x09
    5332:	c8 84       	ldd	r12, Y+8	; 0x08
    5334:	df 80       	ldd	r13, Y+7	; 0x07
    5336:	ee 80       	ldd	r14, Y+6	; 0x06
    5338:	fd 80       	ldd	r15, Y+5	; 0x05
    533a:	0c 81       	ldd	r16, Y+4	; 0x04
    533c:	1b 81       	ldd	r17, Y+3	; 0x03
    533e:	aa 81       	ldd	r26, Y+2	; 0x02
    5340:	b9 81       	ldd	r27, Y+1	; 0x01
    5342:	ce 0f       	add	r28, r30
    5344:	d1 1d       	adc	r29, r1
    5346:	0f b6       	in	r0, 0x3f	; 63
    5348:	f8 94       	cli
    534a:	de bf       	out	0x3e, r29	; 62
    534c:	0f be       	out	0x3f, r0	; 63
    534e:	cd bf       	out	0x3d, r28	; 61
    5350:	ed 01       	movw	r28, r26
    5352:	08 95       	ret

00005354 <__umulhisi3>:
    5354:	a2 9f       	mul	r26, r18
    5356:	b0 01       	movw	r22, r0
    5358:	b3 9f       	mul	r27, r19
    535a:	c0 01       	movw	r24, r0
    535c:	a3 9f       	mul	r26, r19
    535e:	70 0d       	add	r23, r0
    5360:	81 1d       	adc	r24, r1
    5362:	11 24       	eor	r1, r1
    5364:	91 1d       	adc	r25, r1
    5366:	b2 9f       	mul	r27, r18
    5368:	70 0d       	add	r23, r0
    536a:	81 1d       	adc	r24, r1
    536c:	11 24       	eor	r1, r1
    536e:	91 1d       	adc	r25, r1
    5370:	08 95       	ret

00005372 <__ftoa_engine>:
    5372:	28 30       	cpi	r18, 0x08	; 8
    5374:	08 f0       	brcs	.+2      	; 0x5378 <__ftoa_engine+0x6>
    5376:	27 e0       	ldi	r18, 0x07	; 7
    5378:	33 27       	eor	r19, r19
    537a:	da 01       	movw	r26, r20
    537c:	99 0f       	add	r25, r25
    537e:	31 1d       	adc	r19, r1
    5380:	87 fd       	sbrc	r24, 7
    5382:	91 60       	ori	r25, 0x01	; 1
    5384:	00 96       	adiw	r24, 0x00	; 0
    5386:	61 05       	cpc	r22, r1
    5388:	71 05       	cpc	r23, r1
    538a:	39 f4       	brne	.+14     	; 0x539a <__ftoa_engine+0x28>
    538c:	32 60       	ori	r19, 0x02	; 2
    538e:	2e 5f       	subi	r18, 0xFE	; 254
    5390:	3d 93       	st	X+, r19
    5392:	30 e3       	ldi	r19, 0x30	; 48
    5394:	2a 95       	dec	r18
    5396:	e1 f7       	brne	.-8      	; 0x5390 <__ftoa_engine+0x1e>
    5398:	08 95       	ret
    539a:	9f 3f       	cpi	r25, 0xFF	; 255
    539c:	30 f0       	brcs	.+12     	; 0x53aa <__ftoa_engine+0x38>
    539e:	80 38       	cpi	r24, 0x80	; 128
    53a0:	71 05       	cpc	r23, r1
    53a2:	61 05       	cpc	r22, r1
    53a4:	09 f0       	breq	.+2      	; 0x53a8 <__ftoa_engine+0x36>
    53a6:	3c 5f       	subi	r19, 0xFC	; 252
    53a8:	3c 5f       	subi	r19, 0xFC	; 252
    53aa:	3d 93       	st	X+, r19
    53ac:	91 30       	cpi	r25, 0x01	; 1
    53ae:	08 f0       	brcs	.+2      	; 0x53b2 <__ftoa_engine+0x40>
    53b0:	80 68       	ori	r24, 0x80	; 128
    53b2:	91 1d       	adc	r25, r1
    53b4:	df 93       	push	r29
    53b6:	cf 93       	push	r28
    53b8:	1f 93       	push	r17
    53ba:	0f 93       	push	r16
    53bc:	ff 92       	push	r15
    53be:	ef 92       	push	r14
    53c0:	19 2f       	mov	r17, r25
    53c2:	98 7f       	andi	r25, 0xF8	; 248
    53c4:	96 95       	lsr	r25
    53c6:	e9 2f       	mov	r30, r25
    53c8:	96 95       	lsr	r25
    53ca:	96 95       	lsr	r25
    53cc:	e9 0f       	add	r30, r25
    53ce:	ff 27       	eor	r31, r31
    53d0:	e4 5f       	subi	r30, 0xF4	; 244
    53d2:	fe 4f       	sbci	r31, 0xFE	; 254
    53d4:	99 27       	eor	r25, r25
    53d6:	33 27       	eor	r19, r19
    53d8:	ee 24       	eor	r14, r14
    53da:	ff 24       	eor	r15, r15
    53dc:	a7 01       	movw	r20, r14
    53de:	e7 01       	movw	r28, r14
    53e0:	05 90       	lpm	r0, Z+
    53e2:	08 94       	sec
    53e4:	07 94       	ror	r0
    53e6:	28 f4       	brcc	.+10     	; 0x53f2 <__ftoa_engine+0x80>
    53e8:	36 0f       	add	r19, r22
    53ea:	e7 1e       	adc	r14, r23
    53ec:	f8 1e       	adc	r15, r24
    53ee:	49 1f       	adc	r20, r25
    53f0:	51 1d       	adc	r21, r1
    53f2:	66 0f       	add	r22, r22
    53f4:	77 1f       	adc	r23, r23
    53f6:	88 1f       	adc	r24, r24
    53f8:	99 1f       	adc	r25, r25
    53fa:	06 94       	lsr	r0
    53fc:	a1 f7       	brne	.-24     	; 0x53e6 <__ftoa_engine+0x74>
    53fe:	05 90       	lpm	r0, Z+
    5400:	07 94       	ror	r0
    5402:	28 f4       	brcc	.+10     	; 0x540e <__ftoa_engine+0x9c>
    5404:	e7 0e       	add	r14, r23
    5406:	f8 1e       	adc	r15, r24
    5408:	49 1f       	adc	r20, r25
    540a:	56 1f       	adc	r21, r22
    540c:	c1 1d       	adc	r28, r1
    540e:	77 0f       	add	r23, r23
    5410:	88 1f       	adc	r24, r24
    5412:	99 1f       	adc	r25, r25
    5414:	66 1f       	adc	r22, r22
    5416:	06 94       	lsr	r0
    5418:	a1 f7       	brne	.-24     	; 0x5402 <__ftoa_engine+0x90>
    541a:	05 90       	lpm	r0, Z+
    541c:	07 94       	ror	r0
    541e:	28 f4       	brcc	.+10     	; 0x542a <__ftoa_engine+0xb8>
    5420:	f8 0e       	add	r15, r24
    5422:	49 1f       	adc	r20, r25
    5424:	56 1f       	adc	r21, r22
    5426:	c7 1f       	adc	r28, r23
    5428:	d1 1d       	adc	r29, r1
    542a:	88 0f       	add	r24, r24
    542c:	99 1f       	adc	r25, r25
    542e:	66 1f       	adc	r22, r22
    5430:	77 1f       	adc	r23, r23
    5432:	06 94       	lsr	r0
    5434:	a1 f7       	brne	.-24     	; 0x541e <__ftoa_engine+0xac>
    5436:	05 90       	lpm	r0, Z+
    5438:	07 94       	ror	r0
    543a:	20 f4       	brcc	.+8      	; 0x5444 <__ftoa_engine+0xd2>
    543c:	49 0f       	add	r20, r25
    543e:	56 1f       	adc	r21, r22
    5440:	c7 1f       	adc	r28, r23
    5442:	d8 1f       	adc	r29, r24
    5444:	99 0f       	add	r25, r25
    5446:	66 1f       	adc	r22, r22
    5448:	77 1f       	adc	r23, r23
    544a:	88 1f       	adc	r24, r24
    544c:	06 94       	lsr	r0
    544e:	a9 f7       	brne	.-22     	; 0x543a <__ftoa_engine+0xc8>
    5450:	84 91       	lpm	r24, Z
    5452:	10 95       	com	r17
    5454:	17 70       	andi	r17, 0x07	; 7
    5456:	41 f0       	breq	.+16     	; 0x5468 <__ftoa_engine+0xf6>
    5458:	d6 95       	lsr	r29
    545a:	c7 95       	ror	r28
    545c:	57 95       	ror	r21
    545e:	47 95       	ror	r20
    5460:	f7 94       	ror	r15
    5462:	e7 94       	ror	r14
    5464:	1a 95       	dec	r17
    5466:	c1 f7       	brne	.-16     	; 0x5458 <__ftoa_engine+0xe6>
    5468:	e2 eb       	ldi	r30, 0xB2	; 178
    546a:	f0 e0       	ldi	r31, 0x00	; 0
    546c:	68 94       	set
    546e:	15 90       	lpm	r1, Z+
    5470:	15 91       	lpm	r17, Z+
    5472:	35 91       	lpm	r19, Z+
    5474:	65 91       	lpm	r22, Z+
    5476:	95 91       	lpm	r25, Z+
    5478:	05 90       	lpm	r0, Z+
    547a:	7f e2       	ldi	r23, 0x2F	; 47
    547c:	73 95       	inc	r23
    547e:	e1 18       	sub	r14, r1
    5480:	f1 0a       	sbc	r15, r17
    5482:	43 0b       	sbc	r20, r19
    5484:	56 0b       	sbc	r21, r22
    5486:	c9 0b       	sbc	r28, r25
    5488:	d0 09       	sbc	r29, r0
    548a:	c0 f7       	brcc	.-16     	; 0x547c <__ftoa_engine+0x10a>
    548c:	e1 0c       	add	r14, r1
    548e:	f1 1e       	adc	r15, r17
    5490:	43 1f       	adc	r20, r19
    5492:	56 1f       	adc	r21, r22
    5494:	c9 1f       	adc	r28, r25
    5496:	d0 1d       	adc	r29, r0
    5498:	7e f4       	brtc	.+30     	; 0x54b8 <__ftoa_engine+0x146>
    549a:	70 33       	cpi	r23, 0x30	; 48
    549c:	11 f4       	brne	.+4      	; 0x54a2 <__ftoa_engine+0x130>
    549e:	8a 95       	dec	r24
    54a0:	e6 cf       	rjmp	.-52     	; 0x546e <__ftoa_engine+0xfc>
    54a2:	e8 94       	clt
    54a4:	01 50       	subi	r16, 0x01	; 1
    54a6:	30 f0       	brcs	.+12     	; 0x54b4 <__ftoa_engine+0x142>
    54a8:	08 0f       	add	r16, r24
    54aa:	0a f4       	brpl	.+2      	; 0x54ae <__ftoa_engine+0x13c>
    54ac:	00 27       	eor	r16, r16
    54ae:	02 17       	cp	r16, r18
    54b0:	08 f4       	brcc	.+2      	; 0x54b4 <__ftoa_engine+0x142>
    54b2:	20 2f       	mov	r18, r16
    54b4:	23 95       	inc	r18
    54b6:	02 2f       	mov	r16, r18
    54b8:	7a 33       	cpi	r23, 0x3A	; 58
    54ba:	28 f0       	brcs	.+10     	; 0x54c6 <__ftoa_engine+0x154>
    54bc:	79 e3       	ldi	r23, 0x39	; 57
    54be:	7d 93       	st	X+, r23
    54c0:	2a 95       	dec	r18
    54c2:	e9 f7       	brne	.-6      	; 0x54be <__ftoa_engine+0x14c>
    54c4:	10 c0       	rjmp	.+32     	; 0x54e6 <__ftoa_engine+0x174>
    54c6:	7d 93       	st	X+, r23
    54c8:	2a 95       	dec	r18
    54ca:	89 f6       	brne	.-94     	; 0x546e <__ftoa_engine+0xfc>
    54cc:	06 94       	lsr	r0
    54ce:	97 95       	ror	r25
    54d0:	67 95       	ror	r22
    54d2:	37 95       	ror	r19
    54d4:	17 95       	ror	r17
    54d6:	17 94       	ror	r1
    54d8:	e1 18       	sub	r14, r1
    54da:	f1 0a       	sbc	r15, r17
    54dc:	43 0b       	sbc	r20, r19
    54de:	56 0b       	sbc	r21, r22
    54e0:	c9 0b       	sbc	r28, r25
    54e2:	d0 09       	sbc	r29, r0
    54e4:	98 f0       	brcs	.+38     	; 0x550c <__ftoa_engine+0x19a>
    54e6:	23 95       	inc	r18
    54e8:	7e 91       	ld	r23, -X
    54ea:	73 95       	inc	r23
    54ec:	7a 33       	cpi	r23, 0x3A	; 58
    54ee:	08 f0       	brcs	.+2      	; 0x54f2 <__ftoa_engine+0x180>
    54f0:	70 e3       	ldi	r23, 0x30	; 48
    54f2:	7c 93       	st	X, r23
    54f4:	20 13       	cpse	r18, r16
    54f6:	b8 f7       	brcc	.-18     	; 0x54e6 <__ftoa_engine+0x174>
    54f8:	7e 91       	ld	r23, -X
    54fa:	70 61       	ori	r23, 0x10	; 16
    54fc:	7d 93       	st	X+, r23
    54fe:	30 f0       	brcs	.+12     	; 0x550c <__ftoa_engine+0x19a>
    5500:	83 95       	inc	r24
    5502:	71 e3       	ldi	r23, 0x31	; 49
    5504:	7d 93       	st	X+, r23
    5506:	70 e3       	ldi	r23, 0x30	; 48
    5508:	2a 95       	dec	r18
    550a:	e1 f7       	brne	.-8      	; 0x5504 <__ftoa_engine+0x192>
    550c:	11 24       	eor	r1, r1
    550e:	ef 90       	pop	r14
    5510:	ff 90       	pop	r15
    5512:	0f 91       	pop	r16
    5514:	1f 91       	pop	r17
    5516:	cf 91       	pop	r28
    5518:	df 91       	pop	r29
    551a:	99 27       	eor	r25, r25
    551c:	87 fd       	sbrc	r24, 7
    551e:	90 95       	com	r25
    5520:	08 95       	ret

00005522 <strnlen_P>:
    5522:	fc 01       	movw	r30, r24
    5524:	05 90       	lpm	r0, Z+
    5526:	61 50       	subi	r22, 0x01	; 1
    5528:	70 40       	sbci	r23, 0x00	; 0
    552a:	01 10       	cpse	r0, r1
    552c:	d8 f7       	brcc	.-10     	; 0x5524 <strnlen_P+0x2>
    552e:	80 95       	com	r24
    5530:	90 95       	com	r25
    5532:	8e 0f       	add	r24, r30
    5534:	9f 1f       	adc	r25, r31
    5536:	08 95       	ret

00005538 <memset>:
    5538:	dc 01       	movw	r26, r24
    553a:	01 c0       	rjmp	.+2      	; 0x553e <memset+0x6>
    553c:	6d 93       	st	X+, r22
    553e:	41 50       	subi	r20, 0x01	; 1
    5540:	50 40       	sbci	r21, 0x00	; 0
    5542:	e0 f7       	brcc	.-8      	; 0x553c <memset+0x4>
    5544:	08 95       	ret

00005546 <strcat>:
    5546:	fb 01       	movw	r30, r22
    5548:	dc 01       	movw	r26, r24
    554a:	0d 90       	ld	r0, X+
    554c:	00 20       	and	r0, r0
    554e:	e9 f7       	brne	.-6      	; 0x554a <strcat+0x4>
    5550:	11 97       	sbiw	r26, 0x01	; 1
    5552:	01 90       	ld	r0, Z+
    5554:	0d 92       	st	X+, r0
    5556:	00 20       	and	r0, r0
    5558:	e1 f7       	brne	.-8      	; 0x5552 <strcat+0xc>
    555a:	08 95       	ret

0000555c <strcmp>:
    555c:	fb 01       	movw	r30, r22
    555e:	dc 01       	movw	r26, r24
    5560:	8d 91       	ld	r24, X+
    5562:	01 90       	ld	r0, Z+
    5564:	80 19       	sub	r24, r0
    5566:	01 10       	cpse	r0, r1
    5568:	d9 f3       	breq	.-10     	; 0x5560 <strcmp+0x4>
    556a:	99 0b       	sbc	r25, r25
    556c:	08 95       	ret

0000556e <strnlen>:
    556e:	fc 01       	movw	r30, r24
    5570:	61 50       	subi	r22, 0x01	; 1
    5572:	70 40       	sbci	r23, 0x00	; 0
    5574:	01 90       	ld	r0, Z+
    5576:	01 10       	cpse	r0, r1
    5578:	d8 f7       	brcc	.-10     	; 0x5570 <strnlen+0x2>
    557a:	80 95       	com	r24
    557c:	90 95       	com	r25
    557e:	8e 0f       	add	r24, r30
    5580:	9f 1f       	adc	r25, r31
    5582:	08 95       	ret

00005584 <fputc>:
    5584:	0f 93       	push	r16
    5586:	1f 93       	push	r17
    5588:	cf 93       	push	r28
    558a:	df 93       	push	r29
    558c:	fb 01       	movw	r30, r22
    558e:	23 81       	ldd	r18, Z+3	; 0x03
    5590:	21 fd       	sbrc	r18, 1
    5592:	03 c0       	rjmp	.+6      	; 0x559a <fputc+0x16>
    5594:	8f ef       	ldi	r24, 0xFF	; 255
    5596:	9f ef       	ldi	r25, 0xFF	; 255
    5598:	2c c0       	rjmp	.+88     	; 0x55f2 <fputc+0x6e>
    559a:	22 ff       	sbrs	r18, 2
    559c:	16 c0       	rjmp	.+44     	; 0x55ca <fputc+0x46>
    559e:	46 81       	ldd	r20, Z+6	; 0x06
    55a0:	57 81       	ldd	r21, Z+7	; 0x07
    55a2:	24 81       	ldd	r18, Z+4	; 0x04
    55a4:	35 81       	ldd	r19, Z+5	; 0x05
    55a6:	42 17       	cp	r20, r18
    55a8:	53 07       	cpc	r21, r19
    55aa:	44 f4       	brge	.+16     	; 0x55bc <fputc+0x38>
    55ac:	a0 81       	ld	r26, Z
    55ae:	b1 81       	ldd	r27, Z+1	; 0x01
    55b0:	9d 01       	movw	r18, r26
    55b2:	2f 5f       	subi	r18, 0xFF	; 255
    55b4:	3f 4f       	sbci	r19, 0xFF	; 255
    55b6:	31 83       	std	Z+1, r19	; 0x01
    55b8:	20 83       	st	Z, r18
    55ba:	8c 93       	st	X, r24
    55bc:	26 81       	ldd	r18, Z+6	; 0x06
    55be:	37 81       	ldd	r19, Z+7	; 0x07
    55c0:	2f 5f       	subi	r18, 0xFF	; 255
    55c2:	3f 4f       	sbci	r19, 0xFF	; 255
    55c4:	37 83       	std	Z+7, r19	; 0x07
    55c6:	26 83       	std	Z+6, r18	; 0x06
    55c8:	14 c0       	rjmp	.+40     	; 0x55f2 <fputc+0x6e>
    55ca:	8b 01       	movw	r16, r22
    55cc:	ec 01       	movw	r28, r24
    55ce:	fb 01       	movw	r30, r22
    55d0:	00 84       	ldd	r0, Z+8	; 0x08
    55d2:	f1 85       	ldd	r31, Z+9	; 0x09
    55d4:	e0 2d       	mov	r30, r0
    55d6:	09 95       	icall
    55d8:	89 2b       	or	r24, r25
    55da:	e1 f6       	brne	.-72     	; 0x5594 <fputc+0x10>
    55dc:	d8 01       	movw	r26, r16
    55de:	16 96       	adiw	r26, 0x06	; 6
    55e0:	8d 91       	ld	r24, X+
    55e2:	9c 91       	ld	r25, X
    55e4:	17 97       	sbiw	r26, 0x07	; 7
    55e6:	01 96       	adiw	r24, 0x01	; 1
    55e8:	17 96       	adiw	r26, 0x07	; 7
    55ea:	9c 93       	st	X, r25
    55ec:	8e 93       	st	-X, r24
    55ee:	16 97       	sbiw	r26, 0x06	; 6
    55f0:	ce 01       	movw	r24, r28
    55f2:	df 91       	pop	r29
    55f4:	cf 91       	pop	r28
    55f6:	1f 91       	pop	r17
    55f8:	0f 91       	pop	r16
    55fa:	08 95       	ret

000055fc <sprintf>:
    55fc:	ae e0       	ldi	r26, 0x0E	; 14
    55fe:	b0 e0       	ldi	r27, 0x00	; 0
    5600:	e4 e0       	ldi	r30, 0x04	; 4
    5602:	fb e2       	ldi	r31, 0x2B	; 43
    5604:	0c 94 81 29 	jmp	0x5302	; 0x5302 <__prologue_saves__+0x1c>
    5608:	0d 89       	ldd	r16, Y+21	; 0x15
    560a:	1e 89       	ldd	r17, Y+22	; 0x16
    560c:	86 e0       	ldi	r24, 0x06	; 6
    560e:	8c 83       	std	Y+4, r24	; 0x04
    5610:	1a 83       	std	Y+2, r17	; 0x02
    5612:	09 83       	std	Y+1, r16	; 0x01
    5614:	8f ef       	ldi	r24, 0xFF	; 255
    5616:	9f e7       	ldi	r25, 0x7F	; 127
    5618:	9e 83       	std	Y+6, r25	; 0x06
    561a:	8d 83       	std	Y+5, r24	; 0x05
    561c:	ae 01       	movw	r20, r28
    561e:	47 5e       	subi	r20, 0xE7	; 231
    5620:	5f 4f       	sbci	r21, 0xFF	; 255
    5622:	6f 89       	ldd	r22, Y+23	; 0x17
    5624:	78 8d       	ldd	r23, Y+24	; 0x18
    5626:	ce 01       	movw	r24, r28
    5628:	01 96       	adiw	r24, 0x01	; 1
    562a:	0e 94 8c 25 	call	0x4b18	; 0x4b18 <vfprintf>
    562e:	ef 81       	ldd	r30, Y+7	; 0x07
    5630:	f8 85       	ldd	r31, Y+8	; 0x08
    5632:	e0 0f       	add	r30, r16
    5634:	f1 1f       	adc	r31, r17
    5636:	10 82       	st	Z, r1
    5638:	2e 96       	adiw	r28, 0x0e	; 14
    563a:	e4 e0       	ldi	r30, 0x04	; 4
    563c:	0c 94 9d 29 	jmp	0x533a	; 0x533a <__epilogue_restores__+0x1c>

00005640 <sscanf>:
    5640:	ae e0       	ldi	r26, 0x0E	; 14
    5642:	b0 e0       	ldi	r27, 0x00	; 0
    5644:	e6 e2       	ldi	r30, 0x26	; 38
    5646:	fb e2       	ldi	r31, 0x2B	; 43
    5648:	0c 94 83 29 	jmp	0x5306	; 0x5306 <__prologue_saves__+0x20>
    564c:	85 e0       	ldi	r24, 0x05	; 5
    564e:	8c 83       	std	Y+4, r24	; 0x04
    5650:	8b 89       	ldd	r24, Y+19	; 0x13
    5652:	9c 89       	ldd	r25, Y+20	; 0x14
    5654:	9a 83       	std	Y+2, r25	; 0x02
    5656:	89 83       	std	Y+1, r24	; 0x01
    5658:	ae 01       	movw	r20, r28
    565a:	49 5e       	subi	r20, 0xE9	; 233
    565c:	5f 4f       	sbci	r21, 0xFF	; 255
    565e:	6d 89       	ldd	r22, Y+21	; 0x15
    5660:	7e 89       	ldd	r23, Y+22	; 0x16
    5662:	ce 01       	movw	r24, r28
    5664:	01 96       	adiw	r24, 0x01	; 1
    5666:	0e 94 33 2d 	call	0x5a66	; 0x5a66 <vfscanf>
    566a:	2e 96       	adiw	r28, 0x0e	; 14
    566c:	e2 e0       	ldi	r30, 0x02	; 2
    566e:	0c 94 9f 29 	jmp	0x533e	; 0x533e <__epilogue_restores__+0x20>

00005672 <__ultoa_invert>:
    5672:	fa 01       	movw	r30, r20
    5674:	aa 27       	eor	r26, r26
    5676:	28 30       	cpi	r18, 0x08	; 8
    5678:	51 f1       	breq	.+84     	; 0x56ce <__ultoa_invert+0x5c>
    567a:	20 31       	cpi	r18, 0x10	; 16
    567c:	81 f1       	breq	.+96     	; 0x56de <__ultoa_invert+0x6c>
    567e:	e8 94       	clt
    5680:	6f 93       	push	r22
    5682:	6e 7f       	andi	r22, 0xFE	; 254
    5684:	6e 5f       	subi	r22, 0xFE	; 254
    5686:	7f 4f       	sbci	r23, 0xFF	; 255
    5688:	8f 4f       	sbci	r24, 0xFF	; 255
    568a:	9f 4f       	sbci	r25, 0xFF	; 255
    568c:	af 4f       	sbci	r26, 0xFF	; 255
    568e:	b1 e0       	ldi	r27, 0x01	; 1
    5690:	3e d0       	rcall	.+124    	; 0x570e <__ultoa_invert+0x9c>
    5692:	b4 e0       	ldi	r27, 0x04	; 4
    5694:	3c d0       	rcall	.+120    	; 0x570e <__ultoa_invert+0x9c>
    5696:	67 0f       	add	r22, r23
    5698:	78 1f       	adc	r23, r24
    569a:	89 1f       	adc	r24, r25
    569c:	9a 1f       	adc	r25, r26
    569e:	a1 1d       	adc	r26, r1
    56a0:	68 0f       	add	r22, r24
    56a2:	79 1f       	adc	r23, r25
    56a4:	8a 1f       	adc	r24, r26
    56a6:	91 1d       	adc	r25, r1
    56a8:	a1 1d       	adc	r26, r1
    56aa:	6a 0f       	add	r22, r26
    56ac:	71 1d       	adc	r23, r1
    56ae:	81 1d       	adc	r24, r1
    56b0:	91 1d       	adc	r25, r1
    56b2:	a1 1d       	adc	r26, r1
    56b4:	20 d0       	rcall	.+64     	; 0x56f6 <__ultoa_invert+0x84>
    56b6:	09 f4       	brne	.+2      	; 0x56ba <__ultoa_invert+0x48>
    56b8:	68 94       	set
    56ba:	3f 91       	pop	r19
    56bc:	2a e0       	ldi	r18, 0x0A	; 10
    56be:	26 9f       	mul	r18, r22
    56c0:	11 24       	eor	r1, r1
    56c2:	30 19       	sub	r19, r0
    56c4:	30 5d       	subi	r19, 0xD0	; 208
    56c6:	31 93       	st	Z+, r19
    56c8:	de f6       	brtc	.-74     	; 0x5680 <__ultoa_invert+0xe>
    56ca:	cf 01       	movw	r24, r30
    56cc:	08 95       	ret
    56ce:	46 2f       	mov	r20, r22
    56d0:	47 70       	andi	r20, 0x07	; 7
    56d2:	40 5d       	subi	r20, 0xD0	; 208
    56d4:	41 93       	st	Z+, r20
    56d6:	b3 e0       	ldi	r27, 0x03	; 3
    56d8:	0f d0       	rcall	.+30     	; 0x56f8 <__ultoa_invert+0x86>
    56da:	c9 f7       	brne	.-14     	; 0x56ce <__ultoa_invert+0x5c>
    56dc:	f6 cf       	rjmp	.-20     	; 0x56ca <__ultoa_invert+0x58>
    56de:	46 2f       	mov	r20, r22
    56e0:	4f 70       	andi	r20, 0x0F	; 15
    56e2:	40 5d       	subi	r20, 0xD0	; 208
    56e4:	4a 33       	cpi	r20, 0x3A	; 58
    56e6:	18 f0       	brcs	.+6      	; 0x56ee <__ultoa_invert+0x7c>
    56e8:	49 5d       	subi	r20, 0xD9	; 217
    56ea:	31 fd       	sbrc	r19, 1
    56ec:	40 52       	subi	r20, 0x20	; 32
    56ee:	41 93       	st	Z+, r20
    56f0:	02 d0       	rcall	.+4      	; 0x56f6 <__ultoa_invert+0x84>
    56f2:	a9 f7       	brne	.-22     	; 0x56de <__ultoa_invert+0x6c>
    56f4:	ea cf       	rjmp	.-44     	; 0x56ca <__ultoa_invert+0x58>
    56f6:	b4 e0       	ldi	r27, 0x04	; 4
    56f8:	a6 95       	lsr	r26
    56fa:	97 95       	ror	r25
    56fc:	87 95       	ror	r24
    56fe:	77 95       	ror	r23
    5700:	67 95       	ror	r22
    5702:	ba 95       	dec	r27
    5704:	c9 f7       	brne	.-14     	; 0x56f8 <__ultoa_invert+0x86>
    5706:	00 97       	sbiw	r24, 0x00	; 0
    5708:	61 05       	cpc	r22, r1
    570a:	71 05       	cpc	r23, r1
    570c:	08 95       	ret
    570e:	9b 01       	movw	r18, r22
    5710:	ac 01       	movw	r20, r24
    5712:	0a 2e       	mov	r0, r26
    5714:	06 94       	lsr	r0
    5716:	57 95       	ror	r21
    5718:	47 95       	ror	r20
    571a:	37 95       	ror	r19
    571c:	27 95       	ror	r18
    571e:	ba 95       	dec	r27
    5720:	c9 f7       	brne	.-14     	; 0x5714 <__ultoa_invert+0xa2>
    5722:	62 0f       	add	r22, r18
    5724:	73 1f       	adc	r23, r19
    5726:	84 1f       	adc	r24, r20
    5728:	95 1f       	adc	r25, r21
    572a:	a0 1d       	adc	r26, r0
    572c:	08 95       	ret

0000572e <putval>:
    572e:	20 fd       	sbrc	r18, 0
    5730:	09 c0       	rjmp	.+18     	; 0x5744 <putval+0x16>
    5732:	fc 01       	movw	r30, r24
    5734:	23 fd       	sbrc	r18, 3
    5736:	05 c0       	rjmp	.+10     	; 0x5742 <putval+0x14>
    5738:	22 ff       	sbrs	r18, 2
    573a:	02 c0       	rjmp	.+4      	; 0x5740 <putval+0x12>
    573c:	73 83       	std	Z+3, r23	; 0x03
    573e:	62 83       	std	Z+2, r22	; 0x02
    5740:	51 83       	std	Z+1, r21	; 0x01
    5742:	40 83       	st	Z, r20
    5744:	08 95       	ret

00005746 <mulacc>:
    5746:	44 fd       	sbrc	r20, 4
    5748:	17 c0       	rjmp	.+46     	; 0x5778 <mulacc+0x32>
    574a:	46 fd       	sbrc	r20, 6
    574c:	17 c0       	rjmp	.+46     	; 0x577c <mulacc+0x36>
    574e:	ab 01       	movw	r20, r22
    5750:	bc 01       	movw	r22, r24
    5752:	da 01       	movw	r26, r20
    5754:	fb 01       	movw	r30, r22
    5756:	aa 0f       	add	r26, r26
    5758:	bb 1f       	adc	r27, r27
    575a:	ee 1f       	adc	r30, r30
    575c:	ff 1f       	adc	r31, r31
    575e:	10 94       	com	r1
    5760:	d1 f7       	brne	.-12     	; 0x5756 <mulacc+0x10>
    5762:	4a 0f       	add	r20, r26
    5764:	5b 1f       	adc	r21, r27
    5766:	6e 1f       	adc	r22, r30
    5768:	7f 1f       	adc	r23, r31
    576a:	cb 01       	movw	r24, r22
    576c:	ba 01       	movw	r22, r20
    576e:	66 0f       	add	r22, r22
    5770:	77 1f       	adc	r23, r23
    5772:	88 1f       	adc	r24, r24
    5774:	99 1f       	adc	r25, r25
    5776:	09 c0       	rjmp	.+18     	; 0x578a <mulacc+0x44>
    5778:	33 e0       	ldi	r19, 0x03	; 3
    577a:	01 c0       	rjmp	.+2      	; 0x577e <mulacc+0x38>
    577c:	34 e0       	ldi	r19, 0x04	; 4
    577e:	66 0f       	add	r22, r22
    5780:	77 1f       	adc	r23, r23
    5782:	88 1f       	adc	r24, r24
    5784:	99 1f       	adc	r25, r25
    5786:	31 50       	subi	r19, 0x01	; 1
    5788:	d1 f7       	brne	.-12     	; 0x577e <mulacc+0x38>
    578a:	62 0f       	add	r22, r18
    578c:	71 1d       	adc	r23, r1
    578e:	81 1d       	adc	r24, r1
    5790:	91 1d       	adc	r25, r1
    5792:	08 95       	ret

00005794 <skip_spaces>:
    5794:	0f 93       	push	r16
    5796:	1f 93       	push	r17
    5798:	cf 93       	push	r28
    579a:	df 93       	push	r29
    579c:	8c 01       	movw	r16, r24
    579e:	c8 01       	movw	r24, r16
    57a0:	0e 94 58 2e 	call	0x5cb0	; 0x5cb0 <fgetc>
    57a4:	ec 01       	movw	r28, r24
    57a6:	97 fd       	sbrc	r25, 7
    57a8:	08 c0       	rjmp	.+16     	; 0x57ba <skip_spaces+0x26>
    57aa:	0e 94 44 2e 	call	0x5c88	; 0x5c88 <isspace>
    57ae:	89 2b       	or	r24, r25
    57b0:	b1 f7       	brne	.-20     	; 0x579e <skip_spaces+0xa>
    57b2:	b8 01       	movw	r22, r16
    57b4:	ce 01       	movw	r24, r28
    57b6:	0e 94 96 2e 	call	0x5d2c	; 0x5d2c <ungetc>
    57ba:	ce 01       	movw	r24, r28
    57bc:	df 91       	pop	r29
    57be:	cf 91       	pop	r28
    57c0:	1f 91       	pop	r17
    57c2:	0f 91       	pop	r16
    57c4:	08 95       	ret

000057c6 <conv_int>:
    57c6:	8f 92       	push	r8
    57c8:	9f 92       	push	r9
    57ca:	af 92       	push	r10
    57cc:	bf 92       	push	r11
    57ce:	ef 92       	push	r14
    57d0:	ff 92       	push	r15
    57d2:	0f 93       	push	r16
    57d4:	1f 93       	push	r17
    57d6:	cf 93       	push	r28
    57d8:	df 93       	push	r29
    57da:	8c 01       	movw	r16, r24
    57dc:	d6 2f       	mov	r29, r22
    57de:	7a 01       	movw	r14, r20
    57e0:	b2 2e       	mov	r11, r18
    57e2:	0e 94 58 2e 	call	0x5cb0	; 0x5cb0 <fgetc>
    57e6:	9c 01       	movw	r18, r24
    57e8:	33 27       	eor	r19, r19
    57ea:	2b 32       	cpi	r18, 0x2B	; 43
    57ec:	31 05       	cpc	r19, r1
    57ee:	31 f0       	breq	.+12     	; 0x57fc <conv_int+0x36>
    57f0:	2d 32       	cpi	r18, 0x2D	; 45
    57f2:	31 05       	cpc	r19, r1
    57f4:	61 f4       	brne	.+24     	; 0x580e <conv_int+0x48>
    57f6:	8b 2d       	mov	r24, r11
    57f8:	80 68       	ori	r24, 0x80	; 128
    57fa:	b8 2e       	mov	r11, r24
    57fc:	d1 50       	subi	r29, 0x01	; 1
    57fe:	11 f4       	brne	.+4      	; 0x5804 <conv_int+0x3e>
    5800:	80 e0       	ldi	r24, 0x00	; 0
    5802:	68 c0       	rjmp	.+208    	; 0x58d4 <conv_int+0x10e>
    5804:	c8 01       	movw	r24, r16
    5806:	0e 94 58 2e 	call	0x5cb0	; 0x5cb0 <fgetc>
    580a:	97 fd       	sbrc	r25, 7
    580c:	f9 cf       	rjmp	.-14     	; 0x5800 <conv_int+0x3a>
    580e:	cb 2d       	mov	r28, r11
    5810:	cd 7f       	andi	r28, 0xFD	; 253
    5812:	2b 2d       	mov	r18, r11
    5814:	20 73       	andi	r18, 0x30	; 48
    5816:	09 f5       	brne	.+66     	; 0x585a <conv_int+0x94>
    5818:	80 33       	cpi	r24, 0x30	; 48
    581a:	f9 f4       	brne	.+62     	; 0x585a <conv_int+0x94>
    581c:	aa 24       	eor	r10, r10
    581e:	aa 94       	dec	r10
    5820:	ad 0e       	add	r10, r29
    5822:	09 f4       	brne	.+2      	; 0x5826 <conv_int+0x60>
    5824:	43 c0       	rjmp	.+134    	; 0x58ac <conv_int+0xe6>
    5826:	c8 01       	movw	r24, r16
    5828:	0e 94 58 2e 	call	0x5cb0	; 0x5cb0 <fgetc>
    582c:	97 fd       	sbrc	r25, 7
    582e:	3e c0       	rjmp	.+124    	; 0x58ac <conv_int+0xe6>
    5830:	9c 01       	movw	r18, r24
    5832:	2f 7d       	andi	r18, 0xDF	; 223
    5834:	33 27       	eor	r19, r19
    5836:	28 35       	cpi	r18, 0x58	; 88
    5838:	31 05       	cpc	r19, r1
    583a:	49 f4       	brne	.+18     	; 0x584e <conv_int+0x88>
    583c:	c2 64       	ori	r28, 0x42	; 66
    583e:	d2 50       	subi	r29, 0x02	; 2
    5840:	a9 f1       	breq	.+106    	; 0x58ac <conv_int+0xe6>
    5842:	c8 01       	movw	r24, r16
    5844:	0e 94 58 2e 	call	0x5cb0	; 0x5cb0 <fgetc>
    5848:	97 ff       	sbrs	r25, 7
    584a:	07 c0       	rjmp	.+14     	; 0x585a <conv_int+0x94>
    584c:	2f c0       	rjmp	.+94     	; 0x58ac <conv_int+0xe6>
    584e:	b6 fe       	sbrs	r11, 6
    5850:	02 c0       	rjmp	.+4      	; 0x5856 <conv_int+0x90>
    5852:	c2 60       	ori	r28, 0x02	; 2
    5854:	01 c0       	rjmp	.+2      	; 0x5858 <conv_int+0x92>
    5856:	c2 61       	ori	r28, 0x12	; 18
    5858:	da 2d       	mov	r29, r10
    585a:	81 2c       	mov	r8, r1
    585c:	91 2c       	mov	r9, r1
    585e:	54 01       	movw	r10, r8
    5860:	20 ed       	ldi	r18, 0xD0	; 208
    5862:	28 0f       	add	r18, r24
    5864:	28 30       	cpi	r18, 0x08	; 8
    5866:	80 f0       	brcs	.+32     	; 0x5888 <conv_int+0xc2>
    5868:	c4 ff       	sbrs	r28, 4
    586a:	04 c0       	rjmp	.+8      	; 0x5874 <conv_int+0xae>
    586c:	b8 01       	movw	r22, r16
    586e:	0e 94 96 2e 	call	0x5d2c	; 0x5d2c <ungetc>
    5872:	19 c0       	rjmp	.+50     	; 0x58a6 <conv_int+0xe0>
    5874:	2a 30       	cpi	r18, 0x0A	; 10
    5876:	40 f0       	brcs	.+16     	; 0x5888 <conv_int+0xc2>
    5878:	c6 ff       	sbrs	r28, 6
    587a:	f8 cf       	rjmp	.-16     	; 0x586c <conv_int+0xa6>
    587c:	2f 7d       	andi	r18, 0xDF	; 223
    587e:	3f ee       	ldi	r19, 0xEF	; 239
    5880:	32 0f       	add	r19, r18
    5882:	36 30       	cpi	r19, 0x06	; 6
    5884:	98 f7       	brcc	.-26     	; 0x586c <conv_int+0xa6>
    5886:	27 50       	subi	r18, 0x07	; 7
    5888:	4c 2f       	mov	r20, r28
    588a:	c5 01       	movw	r24, r10
    588c:	b4 01       	movw	r22, r8
    588e:	0e 94 a3 2b 	call	0x5746	; 0x5746 <mulacc>
    5892:	4b 01       	movw	r8, r22
    5894:	5c 01       	movw	r10, r24
    5896:	c2 60       	ori	r28, 0x02	; 2
    5898:	d1 50       	subi	r29, 0x01	; 1
    589a:	59 f0       	breq	.+22     	; 0x58b2 <conv_int+0xec>
    589c:	c8 01       	movw	r24, r16
    589e:	0e 94 58 2e 	call	0x5cb0	; 0x5cb0 <fgetc>
    58a2:	97 ff       	sbrs	r25, 7
    58a4:	dd cf       	rjmp	.-70     	; 0x5860 <conv_int+0x9a>
    58a6:	c1 fd       	sbrc	r28, 1
    58a8:	04 c0       	rjmp	.+8      	; 0x58b2 <conv_int+0xec>
    58aa:	aa cf       	rjmp	.-172    	; 0x5800 <conv_int+0x3a>
    58ac:	81 2c       	mov	r8, r1
    58ae:	91 2c       	mov	r9, r1
    58b0:	54 01       	movw	r10, r8
    58b2:	c7 ff       	sbrs	r28, 7
    58b4:	08 c0       	rjmp	.+16     	; 0x58c6 <conv_int+0x100>
    58b6:	b0 94       	com	r11
    58b8:	a0 94       	com	r10
    58ba:	90 94       	com	r9
    58bc:	80 94       	com	r8
    58be:	81 1c       	adc	r8, r1
    58c0:	91 1c       	adc	r9, r1
    58c2:	a1 1c       	adc	r10, r1
    58c4:	b1 1c       	adc	r11, r1
    58c6:	2c 2f       	mov	r18, r28
    58c8:	b5 01       	movw	r22, r10
    58ca:	a4 01       	movw	r20, r8
    58cc:	c7 01       	movw	r24, r14
    58ce:	0e 94 97 2b 	call	0x572e	; 0x572e <putval>
    58d2:	81 e0       	ldi	r24, 0x01	; 1
    58d4:	df 91       	pop	r29
    58d6:	cf 91       	pop	r28
    58d8:	1f 91       	pop	r17
    58da:	0f 91       	pop	r16
    58dc:	ff 90       	pop	r15
    58de:	ef 90       	pop	r14
    58e0:	bf 90       	pop	r11
    58e2:	af 90       	pop	r10
    58e4:	9f 90       	pop	r9
    58e6:	8f 90       	pop	r8
    58e8:	08 95       	ret

000058ea <conv_brk>:
    58ea:	a0 e2       	ldi	r26, 0x20	; 32
    58ec:	b0 e0       	ldi	r27, 0x00	; 0
    58ee:	eb e7       	ldi	r30, 0x7B	; 123
    58f0:	fc e2       	ldi	r31, 0x2C	; 44
    58f2:	0c 94 76 29 	jmp	0x52ec	; 0x52ec <__prologue_saves__+0x6>
    58f6:	5c 01       	movw	r10, r24
    58f8:	96 2e       	mov	r9, r22
    58fa:	7a 01       	movw	r14, r20
    58fc:	f9 01       	movw	r30, r18
    58fe:	8e 01       	movw	r16, r28
    5900:	0f 5f       	subi	r16, 0xFF	; 255
    5902:	1f 4f       	sbci	r17, 0xFF	; 255
    5904:	68 01       	movw	r12, r16
    5906:	80 e2       	ldi	r24, 0x20	; 32
    5908:	d8 01       	movw	r26, r16
    590a:	1d 92       	st	X+, r1
    590c:	8a 95       	dec	r24
    590e:	e9 f7       	brne	.-6      	; 0x590a <conv_brk+0x20>
    5910:	d5 01       	movw	r26, r10
    5912:	13 96       	adiw	r26, 0x03	; 3
    5914:	8c 90       	ld	r8, X
    5916:	80 e0       	ldi	r24, 0x00	; 0
    5918:	90 e0       	ldi	r25, 0x00	; 0
    591a:	61 2c       	mov	r6, r1
    591c:	71 2c       	mov	r7, r1
    591e:	30 e0       	ldi	r19, 0x00	; 0
    5920:	61 e0       	ldi	r22, 0x01	; 1
    5922:	70 e0       	ldi	r23, 0x00	; 0
    5924:	83 fc       	sbrc	r8, 3
    5926:	25 91       	lpm	r18, Z+
    5928:	83 fe       	sbrs	r8, 3
    592a:	21 91       	ld	r18, Z+
    592c:	8f 01       	movw	r16, r30
    592e:	52 2e       	mov	r5, r18
    5930:	21 11       	cpse	r18, r1
    5932:	03 c0       	rjmp	.+6      	; 0x593a <conv_brk+0x50>
    5934:	80 e0       	ldi	r24, 0x00	; 0
    5936:	90 e0       	ldi	r25, 0x00	; 0
    5938:	92 c0       	rjmp	.+292    	; 0x5a5e <conv_brk+0x174>
    593a:	2e 35       	cpi	r18, 0x5E	; 94
    593c:	11 f4       	brne	.+4      	; 0x5942 <conv_brk+0x58>
    593e:	00 97       	sbiw	r24, 0x00	; 0
    5940:	51 f1       	breq	.+84     	; 0x5996 <conv_brk+0xac>
    5942:	43 2f       	mov	r20, r19
    5944:	50 e0       	ldi	r21, 0x00	; 0
    5946:	48 17       	cp	r20, r24
    5948:	59 07       	cpc	r21, r25
    594a:	3c f4       	brge	.+14     	; 0x595a <conv_brk+0x70>
    594c:	2d 35       	cpi	r18, 0x5D	; 93
    594e:	59 f1       	breq	.+86     	; 0x59a6 <conv_brk+0xbc>
    5950:	2d 32       	cpi	r18, 0x2D	; 45
    5952:	19 f4       	brne	.+6      	; 0x595a <conv_brk+0x70>
    5954:	77 20       	and	r7, r7
    5956:	09 f1       	breq	.+66     	; 0x599a <conv_brk+0xb0>
    5958:	03 c0       	rjmp	.+6      	; 0x5960 <conv_brk+0x76>
    595a:	77 20       	and	r7, r7
    595c:	09 f4       	brne	.+2      	; 0x5960 <conv_brk+0x76>
    595e:	6a c0       	rjmp	.+212    	; 0x5a34 <conv_brk+0x14a>
    5960:	45 2d       	mov	r20, r5
    5962:	46 95       	lsr	r20
    5964:	46 95       	lsr	r20
    5966:	46 95       	lsr	r20
    5968:	d6 01       	movw	r26, r12
    596a:	a4 0f       	add	r26, r20
    596c:	b1 1d       	adc	r27, r1
    596e:	45 2d       	mov	r20, r5
    5970:	47 70       	andi	r20, 0x07	; 7
    5972:	8b 01       	movw	r16, r22
    5974:	02 c0       	rjmp	.+4      	; 0x597a <conv_brk+0x90>
    5976:	00 0f       	add	r16, r16
    5978:	11 1f       	adc	r17, r17
    597a:	4a 95       	dec	r20
    597c:	e2 f7       	brpl	.-8      	; 0x5976 <conv_brk+0x8c>
    597e:	a8 01       	movw	r20, r16
    5980:	5c 91       	ld	r21, X
    5982:	45 2b       	or	r20, r21
    5984:	4c 93       	st	X, r20
    5986:	65 14       	cp	r6, r5
    5988:	59 f0       	breq	.+22     	; 0x59a0 <conv_brk+0xb6>
    598a:	56 14       	cp	r5, r6
    598c:	10 f4       	brcc	.+4      	; 0x5992 <conv_brk+0xa8>
    598e:	53 94       	inc	r5
    5990:	e7 cf       	rjmp	.-50     	; 0x5960 <conv_brk+0x76>
    5992:	5a 94       	dec	r5
    5994:	e5 cf       	rjmp	.-54     	; 0x5960 <conv_brk+0x76>
    5996:	31 e0       	ldi	r19, 0x01	; 1
    5998:	04 c0       	rjmp	.+8      	; 0x59a2 <conv_brk+0xb8>
    599a:	77 24       	eor	r7, r7
    599c:	73 94       	inc	r7
    599e:	01 c0       	rjmp	.+2      	; 0x59a2 <conv_brk+0xb8>
    59a0:	71 2c       	mov	r7, r1
    59a2:	01 96       	adiw	r24, 0x01	; 1
    59a4:	bf cf       	rjmp	.-130    	; 0x5924 <conv_brk+0x3a>
    59a6:	77 20       	and	r7, r7
    59a8:	19 f0       	breq	.+6      	; 0x59b0 <conv_brk+0xc6>
    59aa:	8e 81       	ldd	r24, Y+6	; 0x06
    59ac:	80 62       	ori	r24, 0x20	; 32
    59ae:	8e 83       	std	Y+6, r24	; 0x06
    59b0:	31 11       	cpse	r19, r1
    59b2:	03 c0       	rjmp	.+6      	; 0x59ba <conv_brk+0xd0>
    59b4:	88 24       	eor	r8, r8
    59b6:	83 94       	inc	r8
    59b8:	17 c0       	rjmp	.+46     	; 0x59e8 <conv_brk+0xfe>
    59ba:	f6 01       	movw	r30, r12
    59bc:	9e 01       	movw	r18, r28
    59be:	2f 5d       	subi	r18, 0xDF	; 223
    59c0:	3f 4f       	sbci	r19, 0xFF	; 255
    59c2:	80 81       	ld	r24, Z
    59c4:	80 95       	com	r24
    59c6:	81 93       	st	Z+, r24
    59c8:	2e 17       	cp	r18, r30
    59ca:	3f 07       	cpc	r19, r31
    59cc:	d1 f7       	brne	.-12     	; 0x59c2 <conv_brk+0xd8>
    59ce:	f2 cf       	rjmp	.-28     	; 0x59b4 <conv_brk+0xca>
    59d0:	e1 14       	cp	r14, r1
    59d2:	f1 04       	cpc	r15, r1
    59d4:	29 f0       	breq	.+10     	; 0x59e0 <conv_brk+0xf6>
    59d6:	d7 01       	movw	r26, r14
    59d8:	8c 93       	st	X, r24
    59da:	f7 01       	movw	r30, r14
    59dc:	31 96       	adiw	r30, 0x01	; 1
    59de:	7f 01       	movw	r14, r30
    59e0:	9a 94       	dec	r9
    59e2:	81 2c       	mov	r8, r1
    59e4:	99 20       	and	r9, r9
    59e6:	f9 f0       	breq	.+62     	; 0x5a26 <conv_brk+0x13c>
    59e8:	c5 01       	movw	r24, r10
    59ea:	0e 94 58 2e 	call	0x5cb0	; 0x5cb0 <fgetc>
    59ee:	97 fd       	sbrc	r25, 7
    59f0:	18 c0       	rjmp	.+48     	; 0x5a22 <conv_brk+0x138>
    59f2:	fc 01       	movw	r30, r24
    59f4:	ff 27       	eor	r31, r31
    59f6:	23 e0       	ldi	r18, 0x03	; 3
    59f8:	f5 95       	asr	r31
    59fa:	e7 95       	ror	r30
    59fc:	2a 95       	dec	r18
    59fe:	e1 f7       	brne	.-8      	; 0x59f8 <conv_brk+0x10e>
    5a00:	ec 0d       	add	r30, r12
    5a02:	fd 1d       	adc	r31, r13
    5a04:	20 81       	ld	r18, Z
    5a06:	30 e0       	ldi	r19, 0x00	; 0
    5a08:	ac 01       	movw	r20, r24
    5a0a:	47 70       	andi	r20, 0x07	; 7
    5a0c:	55 27       	eor	r21, r21
    5a0e:	02 c0       	rjmp	.+4      	; 0x5a14 <conv_brk+0x12a>
    5a10:	35 95       	asr	r19
    5a12:	27 95       	ror	r18
    5a14:	4a 95       	dec	r20
    5a16:	e2 f7       	brpl	.-8      	; 0x5a10 <conv_brk+0x126>
    5a18:	20 fd       	sbrc	r18, 0
    5a1a:	da cf       	rjmp	.-76     	; 0x59d0 <conv_brk+0xe6>
    5a1c:	b5 01       	movw	r22, r10
    5a1e:	0e 94 96 2e 	call	0x5d2c	; 0x5d2c <ungetc>
    5a22:	81 10       	cpse	r8, r1
    5a24:	87 cf       	rjmp	.-242    	; 0x5934 <conv_brk+0x4a>
    5a26:	e1 14       	cp	r14, r1
    5a28:	f1 04       	cpc	r15, r1
    5a2a:	11 f0       	breq	.+4      	; 0x5a30 <conv_brk+0x146>
    5a2c:	d7 01       	movw	r26, r14
    5a2e:	1c 92       	st	X, r1
    5a30:	c8 01       	movw	r24, r16
    5a32:	15 c0       	rjmp	.+42     	; 0x5a5e <conv_brk+0x174>
    5a34:	42 2f       	mov	r20, r18
    5a36:	46 95       	lsr	r20
    5a38:	46 95       	lsr	r20
    5a3a:	46 95       	lsr	r20
    5a3c:	d6 01       	movw	r26, r12
    5a3e:	a4 0f       	add	r26, r20
    5a40:	b1 1d       	adc	r27, r1
    5a42:	42 2f       	mov	r20, r18
    5a44:	47 70       	andi	r20, 0x07	; 7
    5a46:	8b 01       	movw	r16, r22
    5a48:	02 c0       	rjmp	.+4      	; 0x5a4e <conv_brk+0x164>
    5a4a:	00 0f       	add	r16, r16
    5a4c:	11 1f       	adc	r17, r17
    5a4e:	4a 95       	dec	r20
    5a50:	e2 f7       	brpl	.-8      	; 0x5a4a <conv_brk+0x160>
    5a52:	a8 01       	movw	r20, r16
    5a54:	5c 91       	ld	r21, X
    5a56:	45 2b       	or	r20, r21
    5a58:	4c 93       	st	X, r20
    5a5a:	62 2e       	mov	r6, r18
    5a5c:	a2 cf       	rjmp	.-188    	; 0x59a2 <conv_brk+0xb8>
    5a5e:	a0 96       	adiw	r28, 0x20	; 32
    5a60:	ef e0       	ldi	r30, 0x0F	; 15
    5a62:	0c 94 92 29 	jmp	0x5324	; 0x5324 <__epilogue_restores__+0x6>

00005a66 <vfscanf>:
    5a66:	a0 e0       	ldi	r26, 0x00	; 0
    5a68:	b0 e0       	ldi	r27, 0x00	; 0
    5a6a:	e9 e3       	ldi	r30, 0x39	; 57
    5a6c:	fd e2       	ldi	r31, 0x2D	; 45
    5a6e:	0c 94 76 29 	jmp	0x52ec	; 0x52ec <__prologue_saves__+0x6>
    5a72:	6c 01       	movw	r12, r24
    5a74:	eb 01       	movw	r28, r22
    5a76:	5a 01       	movw	r10, r20
    5a78:	fc 01       	movw	r30, r24
    5a7a:	17 82       	std	Z+7, r1	; 0x07
    5a7c:	16 82       	std	Z+6, r1	; 0x06
    5a7e:	51 2c       	mov	r5, r1
    5a80:	f6 01       	movw	r30, r12
    5a82:	e3 80       	ldd	r14, Z+3	; 0x03
    5a84:	fe 01       	movw	r30, r28
    5a86:	e3 fc       	sbrc	r14, 3
    5a88:	85 91       	lpm	r24, Z+
    5a8a:	e3 fe       	sbrs	r14, 3
    5a8c:	81 91       	ld	r24, Z+
    5a8e:	18 2f       	mov	r17, r24
    5a90:	ef 01       	movw	r28, r30
    5a92:	88 23       	and	r24, r24
    5a94:	09 f4       	brne	.+2      	; 0x5a98 <vfscanf+0x32>
    5a96:	ee c0       	rjmp	.+476    	; 0x5c74 <vfscanf+0x20e>
    5a98:	90 e0       	ldi	r25, 0x00	; 0
    5a9a:	0e 94 44 2e 	call	0x5c88	; 0x5c88 <isspace>
    5a9e:	89 2b       	or	r24, r25
    5aa0:	21 f0       	breq	.+8      	; 0x5aaa <vfscanf+0x44>
    5aa2:	c6 01       	movw	r24, r12
    5aa4:	0e 94 ca 2b 	call	0x5794	; 0x5794 <skip_spaces>
    5aa8:	eb cf       	rjmp	.-42     	; 0x5a80 <vfscanf+0x1a>
    5aaa:	15 32       	cpi	r17, 0x25	; 37
    5aac:	41 f4       	brne	.+16     	; 0x5abe <vfscanf+0x58>
    5aae:	fe 01       	movw	r30, r28
    5ab0:	e3 fc       	sbrc	r14, 3
    5ab2:	15 91       	lpm	r17, Z+
    5ab4:	e3 fe       	sbrs	r14, 3
    5ab6:	11 91       	ld	r17, Z+
    5ab8:	ef 01       	movw	r28, r30
    5aba:	15 32       	cpi	r17, 0x25	; 37
    5abc:	81 f4       	brne	.+32     	; 0x5ade <vfscanf+0x78>
    5abe:	c6 01       	movw	r24, r12
    5ac0:	0e 94 58 2e 	call	0x5cb0	; 0x5cb0 <fgetc>
    5ac4:	97 fd       	sbrc	r25, 7
    5ac6:	d4 c0       	rjmp	.+424    	; 0x5c70 <vfscanf+0x20a>
    5ac8:	41 2f       	mov	r20, r17
    5aca:	50 e0       	ldi	r21, 0x00	; 0
    5acc:	9c 01       	movw	r18, r24
    5ace:	33 27       	eor	r19, r19
    5ad0:	24 17       	cp	r18, r20
    5ad2:	35 07       	cpc	r19, r21
    5ad4:	a9 f2       	breq	.-86     	; 0x5a80 <vfscanf+0x1a>
    5ad6:	b6 01       	movw	r22, r12
    5ad8:	0e 94 96 2e 	call	0x5d2c	; 0x5d2c <ungetc>
    5adc:	cb c0       	rjmp	.+406    	; 0x5c74 <vfscanf+0x20e>
    5ade:	1a 32       	cpi	r17, 0x2A	; 42
    5ae0:	39 f4       	brne	.+14     	; 0x5af0 <vfscanf+0x8a>
    5ae2:	e3 fc       	sbrc	r14, 3
    5ae4:	15 91       	lpm	r17, Z+
    5ae6:	e3 fe       	sbrs	r14, 3
    5ae8:	11 91       	ld	r17, Z+
    5aea:	ef 01       	movw	r28, r30
    5aec:	01 e0       	ldi	r16, 0x01	; 1
    5aee:	01 c0       	rjmp	.+2      	; 0x5af2 <vfscanf+0x8c>
    5af0:	00 e0       	ldi	r16, 0x00	; 0
    5af2:	f1 2c       	mov	r15, r1
    5af4:	20 ed       	ldi	r18, 0xD0	; 208
    5af6:	21 0f       	add	r18, r17
    5af8:	2a 30       	cpi	r18, 0x0A	; 10
    5afa:	80 f4       	brcc	.+32     	; 0x5b1c <vfscanf+0xb6>
    5afc:	02 60       	ori	r16, 0x02	; 2
    5afe:	6f 2d       	mov	r22, r15
    5b00:	70 e0       	ldi	r23, 0x00	; 0
    5b02:	80 e0       	ldi	r24, 0x00	; 0
    5b04:	90 e0       	ldi	r25, 0x00	; 0
    5b06:	40 e2       	ldi	r20, 0x20	; 32
    5b08:	0e 94 a3 2b 	call	0x5746	; 0x5746 <mulacc>
    5b0c:	f6 2e       	mov	r15, r22
    5b0e:	fe 01       	movw	r30, r28
    5b10:	e3 fc       	sbrc	r14, 3
    5b12:	15 91       	lpm	r17, Z+
    5b14:	e3 fe       	sbrs	r14, 3
    5b16:	11 91       	ld	r17, Z+
    5b18:	ef 01       	movw	r28, r30
    5b1a:	ec cf       	rjmp	.-40     	; 0x5af4 <vfscanf+0x8e>
    5b1c:	01 ff       	sbrs	r16, 1
    5b1e:	03 c0       	rjmp	.+6      	; 0x5b26 <vfscanf+0xc0>
    5b20:	f1 10       	cpse	r15, r1
    5b22:	03 c0       	rjmp	.+6      	; 0x5b2a <vfscanf+0xc4>
    5b24:	a7 c0       	rjmp	.+334    	; 0x5c74 <vfscanf+0x20e>
    5b26:	ff 24       	eor	r15, r15
    5b28:	fa 94       	dec	r15
    5b2a:	18 36       	cpi	r17, 0x68	; 104
    5b2c:	19 f0       	breq	.+6      	; 0x5b34 <vfscanf+0xce>
    5b2e:	1c 36       	cpi	r17, 0x6C	; 108
    5b30:	51 f0       	breq	.+20     	; 0x5b46 <vfscanf+0xe0>
    5b32:	10 c0       	rjmp	.+32     	; 0x5b54 <vfscanf+0xee>
    5b34:	fe 01       	movw	r30, r28
    5b36:	e3 fc       	sbrc	r14, 3
    5b38:	15 91       	lpm	r17, Z+
    5b3a:	e3 fe       	sbrs	r14, 3
    5b3c:	11 91       	ld	r17, Z+
    5b3e:	ef 01       	movw	r28, r30
    5b40:	18 36       	cpi	r17, 0x68	; 104
    5b42:	41 f4       	brne	.+16     	; 0x5b54 <vfscanf+0xee>
    5b44:	08 60       	ori	r16, 0x08	; 8
    5b46:	04 60       	ori	r16, 0x04	; 4
    5b48:	fe 01       	movw	r30, r28
    5b4a:	e3 fc       	sbrc	r14, 3
    5b4c:	15 91       	lpm	r17, Z+
    5b4e:	e3 fe       	sbrs	r14, 3
    5b50:	11 91       	ld	r17, Z+
    5b52:	ef 01       	movw	r28, r30
    5b54:	11 23       	and	r17, r17
    5b56:	09 f4       	brne	.+2      	; 0x5b5a <vfscanf+0xf4>
    5b58:	8d c0       	rjmp	.+282    	; 0x5c74 <vfscanf+0x20e>
    5b5a:	61 2f       	mov	r22, r17
    5b5c:	70 e0       	ldi	r23, 0x00	; 0
    5b5e:	8c ea       	ldi	r24, 0xAC	; 172
    5b60:	91 e0       	ldi	r25, 0x01	; 1
    5b62:	0e 94 4d 2e 	call	0x5c9a	; 0x5c9a <strchr_P>
    5b66:	89 2b       	or	r24, r25
    5b68:	09 f4       	brne	.+2      	; 0x5b6c <vfscanf+0x106>
    5b6a:	84 c0       	rjmp	.+264    	; 0x5c74 <vfscanf+0x20e>
    5b6c:	00 fd       	sbrc	r16, 0
    5b6e:	07 c0       	rjmp	.+14     	; 0x5b7e <vfscanf+0x118>
    5b70:	f5 01       	movw	r30, r10
    5b72:	80 80       	ld	r8, Z
    5b74:	91 80       	ldd	r9, Z+1	; 0x01
    5b76:	c5 01       	movw	r24, r10
    5b78:	02 96       	adiw	r24, 0x02	; 2
    5b7a:	5c 01       	movw	r10, r24
    5b7c:	02 c0       	rjmp	.+4      	; 0x5b82 <vfscanf+0x11c>
    5b7e:	81 2c       	mov	r8, r1
    5b80:	91 2c       	mov	r9, r1
    5b82:	1e 36       	cpi	r17, 0x6E	; 110
    5b84:	51 f4       	brne	.+20     	; 0x5b9a <vfscanf+0x134>
    5b86:	f6 01       	movw	r30, r12
    5b88:	46 81       	ldd	r20, Z+6	; 0x06
    5b8a:	57 81       	ldd	r21, Z+7	; 0x07
    5b8c:	60 e0       	ldi	r22, 0x00	; 0
    5b8e:	70 e0       	ldi	r23, 0x00	; 0
    5b90:	20 2f       	mov	r18, r16
    5b92:	c4 01       	movw	r24, r8
    5b94:	0e 94 97 2b 	call	0x572e	; 0x572e <putval>
    5b98:	73 cf       	rjmp	.-282    	; 0x5a80 <vfscanf+0x1a>
    5b9a:	13 36       	cpi	r17, 0x63	; 99
    5b9c:	a9 f4       	brne	.+42     	; 0x5bc8 <vfscanf+0x162>
    5b9e:	01 fd       	sbrc	r16, 1
    5ba0:	02 c0       	rjmp	.+4      	; 0x5ba6 <vfscanf+0x140>
    5ba2:	ff 24       	eor	r15, r15
    5ba4:	f3 94       	inc	r15
    5ba6:	c6 01       	movw	r24, r12
    5ba8:	0e 94 58 2e 	call	0x5cb0	; 0x5cb0 <fgetc>
    5bac:	97 fd       	sbrc	r25, 7
    5bae:	60 c0       	rjmp	.+192    	; 0x5c70 <vfscanf+0x20a>
    5bb0:	81 14       	cp	r8, r1
    5bb2:	91 04       	cpc	r9, r1
    5bb4:	29 f0       	breq	.+10     	; 0x5bc0 <vfscanf+0x15a>
    5bb6:	f4 01       	movw	r30, r8
    5bb8:	80 83       	st	Z, r24
    5bba:	c4 01       	movw	r24, r8
    5bbc:	01 96       	adiw	r24, 0x01	; 1
    5bbe:	4c 01       	movw	r8, r24
    5bc0:	fa 94       	dec	r15
    5bc2:	f1 10       	cpse	r15, r1
    5bc4:	f0 cf       	rjmp	.-32     	; 0x5ba6 <vfscanf+0x140>
    5bc6:	50 c0       	rjmp	.+160    	; 0x5c68 <vfscanf+0x202>
    5bc8:	1b 35       	cpi	r17, 0x5B	; 91
    5bca:	59 f4       	brne	.+22     	; 0x5be2 <vfscanf+0x17c>
    5bcc:	9e 01       	movw	r18, r28
    5bce:	a4 01       	movw	r20, r8
    5bd0:	6f 2d       	mov	r22, r15
    5bd2:	c6 01       	movw	r24, r12
    5bd4:	0e 94 75 2c 	call	0x58ea	; 0x58ea <conv_brk>
    5bd8:	ec 01       	movw	r28, r24
    5bda:	89 2b       	or	r24, r25
    5bdc:	09 f0       	breq	.+2      	; 0x5be0 <vfscanf+0x17a>
    5bde:	44 c0       	rjmp	.+136    	; 0x5c68 <vfscanf+0x202>
    5be0:	3e c0       	rjmp	.+124    	; 0x5c5e <vfscanf+0x1f8>
    5be2:	c6 01       	movw	r24, r12
    5be4:	0e 94 ca 2b 	call	0x5794	; 0x5794 <skip_spaces>
    5be8:	97 fd       	sbrc	r25, 7
    5bea:	42 c0       	rjmp	.+132    	; 0x5c70 <vfscanf+0x20a>
    5bec:	1f 36       	cpi	r17, 0x6F	; 111
    5bee:	61 f1       	breq	.+88     	; 0x5c48 <vfscanf+0x1e2>
    5bf0:	28 f4       	brcc	.+10     	; 0x5bfc <vfscanf+0x196>
    5bf2:	14 36       	cpi	r17, 0x64	; 100
    5bf4:	39 f1       	breq	.+78     	; 0x5c44 <vfscanf+0x1de>
    5bf6:	19 36       	cpi	r17, 0x69	; 105
    5bf8:	51 f1       	breq	.+84     	; 0x5c4e <vfscanf+0x1e8>
    5bfa:	28 c0       	rjmp	.+80     	; 0x5c4c <vfscanf+0x1e6>
    5bfc:	13 37       	cpi	r17, 0x73	; 115
    5bfe:	71 f0       	breq	.+28     	; 0x5c1c <vfscanf+0x1b6>
    5c00:	15 37       	cpi	r17, 0x75	; 117
    5c02:	01 f1       	breq	.+64     	; 0x5c44 <vfscanf+0x1de>
    5c04:	23 c0       	rjmp	.+70     	; 0x5c4c <vfscanf+0x1e6>
    5c06:	81 14       	cp	r8, r1
    5c08:	91 04       	cpc	r9, r1
    5c0a:	29 f0       	breq	.+10     	; 0x5c16 <vfscanf+0x1b0>
    5c0c:	f4 01       	movw	r30, r8
    5c0e:	60 82       	st	Z, r6
    5c10:	c4 01       	movw	r24, r8
    5c12:	01 96       	adiw	r24, 0x01	; 1
    5c14:	4c 01       	movw	r8, r24
    5c16:	fa 94       	dec	r15
    5c18:	ff 20       	and	r15, r15
    5c1a:	71 f0       	breq	.+28     	; 0x5c38 <vfscanf+0x1d2>
    5c1c:	c6 01       	movw	r24, r12
    5c1e:	0e 94 58 2e 	call	0x5cb0	; 0x5cb0 <fgetc>
    5c22:	3c 01       	movw	r6, r24
    5c24:	97 fd       	sbrc	r25, 7
    5c26:	08 c0       	rjmp	.+16     	; 0x5c38 <vfscanf+0x1d2>
    5c28:	0e 94 44 2e 	call	0x5c88	; 0x5c88 <isspace>
    5c2c:	89 2b       	or	r24, r25
    5c2e:	59 f3       	breq	.-42     	; 0x5c06 <vfscanf+0x1a0>
    5c30:	b6 01       	movw	r22, r12
    5c32:	c3 01       	movw	r24, r6
    5c34:	0e 94 96 2e 	call	0x5d2c	; 0x5d2c <ungetc>
    5c38:	81 14       	cp	r8, r1
    5c3a:	91 04       	cpc	r9, r1
    5c3c:	a9 f0       	breq	.+42     	; 0x5c68 <vfscanf+0x202>
    5c3e:	f4 01       	movw	r30, r8
    5c40:	10 82       	st	Z, r1
    5c42:	12 c0       	rjmp	.+36     	; 0x5c68 <vfscanf+0x202>
    5c44:	00 62       	ori	r16, 0x20	; 32
    5c46:	03 c0       	rjmp	.+6      	; 0x5c4e <vfscanf+0x1e8>
    5c48:	00 61       	ori	r16, 0x10	; 16
    5c4a:	01 c0       	rjmp	.+2      	; 0x5c4e <vfscanf+0x1e8>
    5c4c:	00 64       	ori	r16, 0x40	; 64
    5c4e:	20 2f       	mov	r18, r16
    5c50:	a4 01       	movw	r20, r8
    5c52:	6f 2d       	mov	r22, r15
    5c54:	c6 01       	movw	r24, r12
    5c56:	0e 94 e3 2b 	call	0x57c6	; 0x57c6 <conv_int>
    5c5a:	81 11       	cpse	r24, r1
    5c5c:	05 c0       	rjmp	.+10     	; 0x5c68 <vfscanf+0x202>
    5c5e:	f6 01       	movw	r30, r12
    5c60:	83 81       	ldd	r24, Z+3	; 0x03
    5c62:	80 73       	andi	r24, 0x30	; 48
    5c64:	29 f4       	brne	.+10     	; 0x5c70 <vfscanf+0x20a>
    5c66:	06 c0       	rjmp	.+12     	; 0x5c74 <vfscanf+0x20e>
    5c68:	00 fd       	sbrc	r16, 0
    5c6a:	0a cf       	rjmp	.-492    	; 0x5a80 <vfscanf+0x1a>
    5c6c:	53 94       	inc	r5
    5c6e:	08 cf       	rjmp	.-496    	; 0x5a80 <vfscanf+0x1a>
    5c70:	55 20       	and	r5, r5
    5c72:	19 f0       	breq	.+6      	; 0x5c7a <vfscanf+0x214>
    5c74:	85 2d       	mov	r24, r5
    5c76:	90 e0       	ldi	r25, 0x00	; 0
    5c78:	02 c0       	rjmp	.+4      	; 0x5c7e <vfscanf+0x218>
    5c7a:	8f ef       	ldi	r24, 0xFF	; 255
    5c7c:	9f ef       	ldi	r25, 0xFF	; 255
    5c7e:	cd b7       	in	r28, 0x3d	; 61
    5c80:	de b7       	in	r29, 0x3e	; 62
    5c82:	ef e0       	ldi	r30, 0x0F	; 15
    5c84:	0c 94 92 29 	jmp	0x5324	; 0x5324 <__epilogue_restores__+0x6>

00005c88 <isspace>:
    5c88:	91 11       	cpse	r25, r1
    5c8a:	0c 94 af 2e 	jmp	0x5d5e	; 0x5d5e <__ctype_isfalse>
    5c8e:	80 32       	cpi	r24, 0x20	; 32
    5c90:	19 f0       	breq	.+6      	; 0x5c98 <isspace+0x10>
    5c92:	89 50       	subi	r24, 0x09	; 9
    5c94:	85 50       	subi	r24, 0x05	; 5
    5c96:	c8 f7       	brcc	.-14     	; 0x5c8a <isspace+0x2>
    5c98:	08 95       	ret

00005c9a <strchr_P>:
    5c9a:	fc 01       	movw	r30, r24
    5c9c:	05 90       	lpm	r0, Z+
    5c9e:	06 16       	cp	r0, r22
    5ca0:	21 f0       	breq	.+8      	; 0x5caa <strchr_P+0x10>
    5ca2:	00 20       	and	r0, r0
    5ca4:	d9 f7       	brne	.-10     	; 0x5c9c <strchr_P+0x2>
    5ca6:	c0 01       	movw	r24, r0
    5ca8:	08 95       	ret
    5caa:	31 97       	sbiw	r30, 0x01	; 1
    5cac:	cf 01       	movw	r24, r30
    5cae:	08 95       	ret

00005cb0 <fgetc>:
    5cb0:	cf 93       	push	r28
    5cb2:	df 93       	push	r29
    5cb4:	ec 01       	movw	r28, r24
    5cb6:	2b 81       	ldd	r18, Y+3	; 0x03
    5cb8:	20 ff       	sbrs	r18, 0
    5cba:	33 c0       	rjmp	.+102    	; 0x5d22 <fgetc+0x72>
    5cbc:	26 ff       	sbrs	r18, 6
    5cbe:	0a c0       	rjmp	.+20     	; 0x5cd4 <fgetc+0x24>
    5cc0:	2f 7b       	andi	r18, 0xBF	; 191
    5cc2:	2b 83       	std	Y+3, r18	; 0x03
    5cc4:	8e 81       	ldd	r24, Y+6	; 0x06
    5cc6:	9f 81       	ldd	r25, Y+7	; 0x07
    5cc8:	01 96       	adiw	r24, 0x01	; 1
    5cca:	9f 83       	std	Y+7, r25	; 0x07
    5ccc:	8e 83       	std	Y+6, r24	; 0x06
    5cce:	8a 81       	ldd	r24, Y+2	; 0x02
    5cd0:	90 e0       	ldi	r25, 0x00	; 0
    5cd2:	29 c0       	rjmp	.+82     	; 0x5d26 <fgetc+0x76>
    5cd4:	22 ff       	sbrs	r18, 2
    5cd6:	0f c0       	rjmp	.+30     	; 0x5cf6 <fgetc+0x46>
    5cd8:	e8 81       	ld	r30, Y
    5cda:	f9 81       	ldd	r31, Y+1	; 0x01
    5cdc:	80 81       	ld	r24, Z
    5cde:	08 2e       	mov	r0, r24
    5ce0:	00 0c       	add	r0, r0
    5ce2:	99 0b       	sbc	r25, r25
    5ce4:	00 97       	sbiw	r24, 0x00	; 0
    5ce6:	19 f4       	brne	.+6      	; 0x5cee <fgetc+0x3e>
    5ce8:	20 62       	ori	r18, 0x20	; 32
    5cea:	2b 83       	std	Y+3, r18	; 0x03
    5cec:	1a c0       	rjmp	.+52     	; 0x5d22 <fgetc+0x72>
    5cee:	31 96       	adiw	r30, 0x01	; 1
    5cf0:	f9 83       	std	Y+1, r31	; 0x01
    5cf2:	e8 83       	st	Y, r30
    5cf4:	0e c0       	rjmp	.+28     	; 0x5d12 <fgetc+0x62>
    5cf6:	ea 85       	ldd	r30, Y+10	; 0x0a
    5cf8:	fb 85       	ldd	r31, Y+11	; 0x0b
    5cfa:	09 95       	icall
    5cfc:	97 ff       	sbrs	r25, 7
    5cfe:	09 c0       	rjmp	.+18     	; 0x5d12 <fgetc+0x62>
    5d00:	2b 81       	ldd	r18, Y+3	; 0x03
    5d02:	01 96       	adiw	r24, 0x01	; 1
    5d04:	11 f0       	breq	.+4      	; 0x5d0a <fgetc+0x5a>
    5d06:	80 e2       	ldi	r24, 0x20	; 32
    5d08:	01 c0       	rjmp	.+2      	; 0x5d0c <fgetc+0x5c>
    5d0a:	80 e1       	ldi	r24, 0x10	; 16
    5d0c:	82 2b       	or	r24, r18
    5d0e:	8b 83       	std	Y+3, r24	; 0x03
    5d10:	08 c0       	rjmp	.+16     	; 0x5d22 <fgetc+0x72>
    5d12:	2e 81       	ldd	r18, Y+6	; 0x06
    5d14:	3f 81       	ldd	r19, Y+7	; 0x07
    5d16:	2f 5f       	subi	r18, 0xFF	; 255
    5d18:	3f 4f       	sbci	r19, 0xFF	; 255
    5d1a:	3f 83       	std	Y+7, r19	; 0x07
    5d1c:	2e 83       	std	Y+6, r18	; 0x06
    5d1e:	99 27       	eor	r25, r25
    5d20:	02 c0       	rjmp	.+4      	; 0x5d26 <fgetc+0x76>
    5d22:	8f ef       	ldi	r24, 0xFF	; 255
    5d24:	9f ef       	ldi	r25, 0xFF	; 255
    5d26:	df 91       	pop	r29
    5d28:	cf 91       	pop	r28
    5d2a:	08 95       	ret

00005d2c <ungetc>:
    5d2c:	fb 01       	movw	r30, r22
    5d2e:	23 81       	ldd	r18, Z+3	; 0x03
    5d30:	20 ff       	sbrs	r18, 0
    5d32:	12 c0       	rjmp	.+36     	; 0x5d58 <ungetc+0x2c>
    5d34:	26 fd       	sbrc	r18, 6
    5d36:	10 c0       	rjmp	.+32     	; 0x5d58 <ungetc+0x2c>
    5d38:	8f 3f       	cpi	r24, 0xFF	; 255
    5d3a:	3f ef       	ldi	r19, 0xFF	; 255
    5d3c:	93 07       	cpc	r25, r19
    5d3e:	61 f0       	breq	.+24     	; 0x5d58 <ungetc+0x2c>
    5d40:	82 83       	std	Z+2, r24	; 0x02
    5d42:	2f 7d       	andi	r18, 0xDF	; 223
    5d44:	20 64       	ori	r18, 0x40	; 64
    5d46:	23 83       	std	Z+3, r18	; 0x03
    5d48:	26 81       	ldd	r18, Z+6	; 0x06
    5d4a:	37 81       	ldd	r19, Z+7	; 0x07
    5d4c:	21 50       	subi	r18, 0x01	; 1
    5d4e:	31 09       	sbc	r19, r1
    5d50:	37 83       	std	Z+7, r19	; 0x07
    5d52:	26 83       	std	Z+6, r18	; 0x06
    5d54:	99 27       	eor	r25, r25
    5d56:	08 95       	ret
    5d58:	8f ef       	ldi	r24, 0xFF	; 255
    5d5a:	9f ef       	ldi	r25, 0xFF	; 255
    5d5c:	08 95       	ret

00005d5e <__ctype_isfalse>:
    5d5e:	99 27       	eor	r25, r25
    5d60:	88 27       	eor	r24, r24

00005d62 <__ctype_istrue>:
    5d62:	08 95       	ret

00005d64 <_exit>:
    5d64:	f8 94       	cli

00005d66 <__stop_program>:
    5d66:	ff cf       	rjmp	.-2      	; 0x5d66 <__stop_program>
