
NRF24_RX.elf:     file format elf32-avr

Sections:
Idx Name          Size      VMA       LMA       File off  Algn
  0 .data         00000222  00800100  000065c8  0000665c  2**0
                  CONTENTS, ALLOC, LOAD, DATA
  1 .text         000065c8  00000000  00000000  00000094  2**1
                  CONTENTS, ALLOC, LOAD, READONLY, CODE
  2 .bss          000004f9  00800322  00800322  0000687e  2**0
                  ALLOC
  3 .comment      0000005c  00000000  00000000  0000687e  2**0
                  CONTENTS, READONLY
  4 .note.gnu.avr.deviceinfo 00000040  00000000  00000000  000068dc  2**2
                  CONTENTS, READONLY
  5 .debug_aranges 000003d8  00000000  00000000  0000691c  2**0
                  CONTENTS, READONLY, DEBUGGING
  6 .debug_info   0000a2b3  00000000  00000000  00006cf4  2**0
                  CONTENTS, READONLY, DEBUGGING
  7 .debug_abbrev 000014d7  00000000  00000000  00010fa7  2**0
                  CONTENTS, READONLY, DEBUGGING
  8 .debug_line   00003d15  00000000  00000000  0001247e  2**0
                  CONTENTS, READONLY, DEBUGGING
  9 .debug_frame  00000dec  00000000  00000000  00016194  2**2
                  CONTENTS, READONLY, DEBUGGING
 10 .debug_str    00000dc4  00000000  00000000  00016f80  2**0
                  CONTENTS, READONLY, DEBUGGING
 11 .debug_loc    0000450e  00000000  00000000  00017d44  2**0
                  CONTENTS, READONLY, DEBUGGING
 12 .debug_ranges 00000360  00000000  00000000  0001c252  2**0
                  CONTENTS, READONLY, DEBUGGING

Disassembly of section .text:

00000000 <__vectors>:
       0:	0c 94 9e 03 	jmp	0x73c	; 0x73c <__ctors_end>
       4:	0c 94 a7 12 	jmp	0x254e	; 0x254e <__vector_1>
       8:	0c 94 de 0e 	jmp	0x1dbc	; 0x1dbc <__vector_2>
       c:	0c 94 bb 03 	jmp	0x776	; 0x776 <__bad_interrupt>
      10:	0c 94 bb 03 	jmp	0x776	; 0x776 <__bad_interrupt>
      14:	0c 94 bb 03 	jmp	0x776	; 0x776 <__bad_interrupt>
      18:	0c 94 bb 03 	jmp	0x776	; 0x776 <__bad_interrupt>
      1c:	0c 94 bb 03 	jmp	0x776	; 0x776 <__bad_interrupt>
      20:	0c 94 bb 03 	jmp	0x776	; 0x776 <__bad_interrupt>
      24:	0c 94 bb 03 	jmp	0x776	; 0x776 <__bad_interrupt>
      28:	0c 94 bb 03 	jmp	0x776	; 0x776 <__bad_interrupt>
      2c:	0c 94 aa 0d 	jmp	0x1b54	; 0x1b54 <__vector_11>
      30:	0c 94 bb 03 	jmp	0x776	; 0x776 <__bad_interrupt>
      34:	0c 94 bb 03 	jmp	0x776	; 0x776 <__bad_interrupt>
      38:	0c 94 18 0e 	jmp	0x1c30	; 0x1c30 <__vector_14>
      3c:	0c 94 bb 03 	jmp	0x776	; 0x776 <__bad_interrupt>
      40:	0c 94 bb 03 	jmp	0x776	; 0x776 <__bad_interrupt>
      44:	0c 94 bb 03 	jmp	0x776	; 0x776 <__bad_interrupt>
      48:	0c 94 bb 03 	jmp	0x776	; 0x776 <__bad_interrupt>
      4c:	0c 94 bb 03 	jmp	0x776	; 0x776 <__bad_interrupt>
      50:	0c 94 bb 03 	jmp	0x776	; 0x776 <__bad_interrupt>
      54:	0c 94 bb 03 	jmp	0x776	; 0x776 <__bad_interrupt>
      58:	0c 94 bb 03 	jmp	0x776	; 0x776 <__bad_interrupt>
      5c:	0c 94 bb 03 	jmp	0x776	; 0x776 <__bad_interrupt>
      60:	0c 94 bb 03 	jmp	0x776	; 0x776 <__bad_interrupt>
      64:	0c 94 bb 03 	jmp	0x776	; 0x776 <__bad_interrupt>
      68:	cb 0f       	add	r28, r27
      6a:	e3 0f       	add	r30, r19
      6c:	fb 0f       	add	r31, r27
      6e:	13 10       	cpse	r1, r3
      70:	2b 10       	cpse	r2, r11
      72:	43 10       	cpse	r4, r3
      74:	5b 10       	cpse	r5, r11
      76:	94 1e       	adc	r9, r20
      78:	9c 1e       	adc	r9, r28
      7a:	a4 1e       	adc	r10, r20
      7c:	ac 1e       	adc	r10, r28
      7e:	b4 1e       	adc	r11, r20
      80:	bc 1e       	adc	r11, r28
      82:	c4 1e       	adc	r12, r20
      84:	d9 1e       	adc	r13, r25
      86:	e4 1e       	adc	r14, r20
      88:	ef 1e       	adc	r14, r31
      8a:	fa 1e       	adc	r15, r26
      8c:	05 1f       	adc	r16, r21
      8e:	10 1f       	adc	r17, r16
      90:	1b 1f       	adc	r17, r27
      92:	26 1f       	adc	r18, r22
      94:	31 1f       	adc	r19, r17
      96:	3c 1f       	adc	r19, r28
      98:	47 1f       	adc	r20, r23
      9a:	52 1f       	adc	r21, r18
      9c:	90 1f       	adc	r25, r16
      9e:	d1 1f       	adc	r29, r17
      a0:	12 20       	and	r1, r2
      a2:	53 20       	and	r5, r3
      a4:	94 20       	and	r9, r4
      a6:	d5 20       	and	r13, r5
      a8:	16 21       	and	r17, r6

000000aa <__trampolines_end>:
      aa:	6e 61       	ori	r22, 0x1E	; 30
      ac:	6e 00       	.word	0x006e	; ????

000000ae <__c.2332>:
      ae:	69 6e 66 00 00 40 7a 10 f3 5a 00 a0 72 4e 18 09     inf..@z..Z..rN..
      be:	00 10 a5 d4 e8 00 00 e8 76 48 17 00 00 e4 0b 54     ........vH.....T
      ce:	02 00 00 ca 9a 3b 00 00 00 e1 f5 05 00 00 80 96     .....;..........
      de:	98 00 00 00 40 42 0f 00 00 00 a0 86 01 00 00 00     ....@B..........
      ee:	10 27 00 00 00 00 e8 03 00 00 00 00 64 00 00 00     .'..........d...
      fe:	00 00 0a 00 00 00 00 00 01 00 00 00 00 00 2c 76     ..............,v
     10e:	d8 88 dc 67 4f 08 23 df c1 df ae 59 e1 b1 b7 96     ...gO.#....Y....
     11e:	e5 e3 e4 53 c6 3a e6 51 99 76 96 e8 e6 c2 84 26     ...S.:.Q.v.....&
     12e:	eb 89 8c 9b 62 ed 40 7c 6f fc ef bc 9c 9f 40 f2     ....b.@|o.....@.
     13e:	ba a5 6f a5 f4 90 05 5a 2a f7 5c 93 6b 6c f9 67     ..o....Z*.\.kl.g
     14e:	6d c1 1b fc e0 e4 0d 47 fe f5 20 e6 b5 00 d0 ed     m......G.. .....
     15e:	90 2e 03 00 94 35 77 05 00 80 84 1e 08 00 00 20     .....5w........ 
     16e:	4e 0a 00 00 00 c8 0c 33 33 33 33 0f 98 6e 12 83     N......3333..n..
     17e:	11 41 ef 8d 21 14 89 3b e6 55 16 cf fe e6 db 18     .A..!..;.U......
     18e:	d1 84 4b 38 1b f7 7c 1d 90 1d a4 bb e4 24 20 32     ..K8..|......$ 2
     19e:	84 72 5e 22 81 00 c9 f1 24 ec a1 e5 3d 27           .r^"....$...='

000001ac <__c.2474>:
     1ac:	63 64 69 6e 6f 70 73 75 78 58 5b 00                 cdinopsuxX[.

000001b8 <Font11_16>:
     1b8:	00 e0 f8 fc 3e 07 03 01 e1 fe fc 3f 7f 87 80 80     ....>......?....
     1c8:	e0 7c 3f 1f 07 00 00 00 00 00 02 e2 fe ff 1f 03     .|?.............
     1d8:	00 80 80 c0 f8 ff ff 87 80 00 00 00 00 00 00 0c     ................
     1e8:	06 03 03 87 ff 7e 1c 80 c0 e0 f0 e8 e4 e3 e1 f0     .....~..........
     1f8:	18 00 00 00 00 80 84 82 c3 c3 7f 3f 1e 60 e0 c0     ...........?.`..
     208:	c0 80 81 43 7f 3f 1e 00 00 00 00 00 80 40 20 f0     ...C.?.......@ .
     218:	f8 fc 1e 10 1c 1a 19 18 f8 fe ff 1f 19 08 00 00     ................
     228:	40 78 f6 e7 e7 c7 87 07 03 60 e0 c0 80 80 41 7f     @x.......`....A.
     238:	3f 0f 00 00 00 c0 e0 f8 78 5c 4e c6 c3 81 01 3f     ?.......x\N....?
     248:	7f ff 81 80 c0 f0 7f 3f 0f 00 08 0e 07 07 07 87     .......?........
     258:	67 1f 07 01 00 80 60 10 0c 03 00 00 00 00 00 00     g.....`.........
     268:	00 00 3c 7e ff e3 c1 c1 7f 3e 1c 3c 7e ff 83 80     ..<~.....>.<~...
     278:	81 c3 7f 7f 1e 00 00 f0 fc fe 0f 03 01 c1 ff fe     ................
     288:	fc 80 c1 c3 63 72 3a 1e 0f 07 03 00 00 00 00 00     ....cr:.........
     298:	00 38 38 38 00 00 00 00 00 00 38 38 38 00 00 00     .888......888...
	...

000002aa <Font7_11>:
     2aa:	80 c0 60 20 60 c0 80 3f 7f c0 80 c0 7f 3f 00 20     ..` `..?.....?. 
     2ba:	20 e0 e0 00 00 00 80 80 ff ff 80 80 80 c0 60 60      .............``
     2ca:	e0 c0 00 80 c0 e0 d8 cf c3 e0 80 40 60 60 e0 c0     ...........@``..
     2da:	00 c0 c0 84 86 8f 7d 38 00 00 00 80 c0 e0 00 38     ......}8.......8
     2ea:	34 32 31 ff ff 30 00 c0 60 60 60 60 20 c2 c3 c3     421..0..```` ...
     2fa:	83 86 4e 3c 00 80 c0 40 60 20 20 3e 7f c3 82 c6     ..N<...@`  >....
     30a:	7c 38 c0 60 60 60 60 e0 20 00 00 80 70 0e 01 00     |8.````. ...p...
     31a:	c0 e0 20 20 20 e0 c0 71 fb 87 86 8e ff 79 80 c0     ..   ..q.....y..
     32a:	60 20 60 c0 80 83 87 cc 48 78 3f 0f 00 00 00 00     ` `.....Hx?.....
     33a:	00 00 00 00 00 c0 c0 00 00 00                       ..........

00000344 <Font4_6>:
     344:	fc 84 84 fc 00 08 fc 00 88 c4 a4 9c 44 84 94 7c     ............D..|
     354:	60 50 fc 40 58 94 94 64 78 94 94 64 00 04 f4 0c     `P.@X..dx..d....
     364:	6c 94 94 6c 98 a4 a4 78 00 80 00 00                 l..l...x....

00000370 <Font5_7>:
	...
     378:	4f 00 00 00 00 07 00 07 00 00 00 14 7f 14 7f 14     O...............
     388:	00 24 2a 7f 2a 12 00 23 13 08 64 62 00 36 49 55     .$*.*..#..db.6IU
     398:	22 40 00 00 05 03 00 00 00 1c 22 41 00 00 00 41     "@........"A...A
     3a8:	22 1c 00 00 00 14 08 3e 08 14 00 08 08 3e 08 08     "......>.....>..
     3b8:	00 a0 60 00 00 00 00 08 08 08 08 08 00 60 60 00     ..`..........``.
     3c8:	00 00 00 20 10 08 04 02 00 3e 51 49 45 3e 00 00     ... .....>QIE>..
     3d8:	42 7f 40 00 00 42 61 51 49 46 00 21 41 45 4b 31     B.@..BaQIF.!AEK1
     3e8:	00 18 14 12 7f 10 00 27 45 45 45 39 00 3c 4a 49     .......'EEE9.<JI
     3f8:	49 30 00 01 71 09 05 03 00 36 49 49 49 36 00 06     I0..q....6III6..
     408:	49 49 29 1e 00 6c 6c 00 00 00 00 00 56 36 00 00     II)..ll.....V6..
     418:	00 08 14 22 41 00 00 24 24 24 24 24 00 00 41 22     ..."A..$$$$$..A"
     428:	14 08 00 02 01 51 09 06 00 32 49 79 41 3e 00 7e     .....Q...2IyA>.~
     438:	11 11 11 7e 00 7f 49 49 49 36 00 3e 41 41 41 22     ...~..III6.>AAA"
     448:	00 7f 41 41 22 1c 00 7f 49 49 49 41 00 7f 09 09     ..AA"...IIIA....
     458:	09 01 00 3e 41 49 49 3a 00 7f 08 08 08 7f 00 00     ...>AII:........
     468:	41 7f 41 00 00 20 40 41 3f 01 00 7f 08 14 22 41     A.A.. @A?....."A
     478:	00 7f 40 40 40 40 00 7f 02 0c 02 7f 00 7f 04 08     ..@@@@..........
     488:	10 7f 00 3e 41 41 41 3e 00 7f 09 09 09 06 00 3e     ...>AAA>.......>
     498:	41 51 21 5e 00 7f 09 19 29 46 00 46 49 49 49 31     AQ!^....)F.FIII1
     4a8:	00 01 01 7f 01 01 00 3f 40 40 40 3f 00 1f 20 40     .......?@@@?.. @
     4b8:	20 1f 00 3f 40 60 40 3f 00 63 14 08 14 63 00 07      ..?@`@?.c...c..
     4c8:	08 70 08 07 00 61 51 49 45 43 00 7f 41 41 00 00     .p...aQIEC..AA..
     4d8:	00 15 16 7c 16 15 00 41 41 7f 00 00 00 04 02 01     ...|...AA.......
     4e8:	02 04 00 40 40 40 40 40 00 01 02 04 00 00 00 20     ...@@@@@....... 
     4f8:	54 54 54 78 00 7f 44 44 44 38 00 38 44 44 44 00     TTTx..DDD8.8DDD.
     508:	00 38 44 44 48 7f 00 38 54 54 54 18 00 10 7e 11     .8DDH..8TTT...~.
     518:	01 02 00 0c 52 52 52 3e 00 7f 08 04 04 78 00 00     ....RRR>.....x..
     528:	44 7d 40 00 00 20 40 40 3d 00 00 7f 10 28 44 00     D}@.. @@=....(D.
     538:	00 00 41 7f 40 00 00 7c 04 18 04 78 00 7c 08 04     ..A.@..|...x.|..
     548:	04 78 00 38 44 44 44 38 00 7c 14 14 14 08 00 08     .x.8DDD8.|......
     558:	14 14 18 7c 00 7c 08 04 04 08 00 48 54 54 54 20     ...|.|.....HTTT 
     568:	00 04 3f 44 40 20 00 3c 40 40 20 7c 00 1c 20 40     ..?D@ .<@@ |.. @
     578:	20 1c 00 1e 20 10 20 1e 00 22 14 08 14 22 00 06      ... . .."..."..
     588:	48 48 48 3e 00 44 64 54 4c 44 00 08 36 41 00 00     HHH>.DdTLD..6A..
     598:	00 00 00 7f 00 00 00 41 36 08 00 00 00 08 08 2a     .......A6......*
     5a8:	1c 08 00 7e 11 11 11 7e 00 7f 49 49 49 33 00 7f     ...~...~..III3..
     5b8:	49 49 49 36 00 7f 01 01 01 03 00 e0 51 4f 41 ff     III6........QOA.
     5c8:	00 7f 49 49 49 41 00 77 08 7f 08 77 00 41 49 49     ..IIIA.w...w.AII
     5d8:	49 36 00 7f 10 08 04 7f 00 7c 21 12 09 7c 00 7f     I6.......|!..|..
     5e8:	08 14 22 41 00 20 41 3f 01 7f 00 7f 02 0c 02 7f     .."A. A?........
     5f8:	00 7f 08 08 08 7f 00 3e 41 41 41 3e 00 7f 01 01     .......>AAA>....
     608:	01 7f 00 7f 09 09 09 06 00 3e 41 41 41 22 00 01     .........>AAA"..
     618:	01 7f 01 01 00 47 28 10 08 07 00 1c 22 7f 22 1c     .....G(.....".".
     628:	00 63 14 08 14 63 00 7f 40 40 40 ff 00 07 08 08     .c...c..@@@.....
     638:	08 7f 00 7f 40 7f 40 7f 00 7f 40 7f 40 ff 00 01     ....@.@...@.@...
     648:	7f 48 48 30 00 7f 48 30 00 7f 00 00 7f 48 48 30     .HH0..H0.....HH0
     658:	00 22 41 49 49 3e 00 7f 08 3e 41 3e 00 46 29 19     ."AII>...>A>.F).
     668:	09 7f 00 20 54 54 54 78 00 3c 4a 4a 49 31 00 7c     ... TTTx.<JJI1.|
     678:	54 54 28 00 00 7c 04 04 04 0c 00 e0 54 4c 44 fc     TT(..|......TLD.
     688:	00 38 54 54 54 18 00 6c 10 7c 10 6c 00 44 44 54     .8TTT..l.|.l.DDT
     698:	54 28 00 7c 20 10 08 7c 00 7c 41 22 11 7c 00 7c     T(.| ..|.|A".|.|
     6a8:	10 28 44 00 00 20 44 3c 04 7c 00 7c 08 10 08 7c     .(D.. D<.|.|...|
     6b8:	00 7c 10 10 10 7c 00 38 44 44 44 38 00 7c 04 04     .|...|.8DDD8.|..
     6c8:	04 7c 00 7c 14 14 14 08 00 38 44 44 44 28 00 04     .|.|.....8DDD(..
     6d8:	04 7c 04 04 00 0c 50 50 50 3c 00 30 48 fc 48 30     .|....PPP<.0H.H0
     6e8:	00 44 28 10 28 44 00 7c 40 40 40 fc 00 0c 10 10     .D(.(D.|@@@.....
     6f8:	10 7c 00 7c 40 7c 40 7c 00 7c 40 7c 40 fc 00 04     .|.|@|@|.|@|@...
     708:	7c 50 50 20 00 7c 50 50 20 7c 00 7c 50 50 20 00     |PP .|PP |.|PP .
     718:	00 28 44 54 54 38 00 7c 10 38 44 38 00 08 54 34     .(DTT8.|.8D8..T4
     728:	14 7c 00 7e 4b 4a 4b 42 00 38 55 54 55 18 00 00     .|.~KJKB.8UTU...
     738:	06 09 09 06                                         ....

0000073c <__ctors_end>:
     73c:	11 24       	eor	r1, r1
     73e:	1f be       	out	0x3f, r1	; 63
     740:	cf ef       	ldi	r28, 0xFF	; 255
     742:	d8 e0       	ldi	r29, 0x08	; 8
     744:	de bf       	out	0x3e, r29	; 62
     746:	cd bf       	out	0x3d, r28	; 61

00000748 <__do_copy_data>:
     748:	13 e0       	ldi	r17, 0x03	; 3
     74a:	a0 e0       	ldi	r26, 0x00	; 0
     74c:	b1 e0       	ldi	r27, 0x01	; 1
     74e:	e8 ec       	ldi	r30, 0xC8	; 200
     750:	f5 e6       	ldi	r31, 0x65	; 101
     752:	02 c0       	rjmp	.+4      	; 0x758 <__do_copy_data+0x10>
     754:	05 90       	lpm	r0, Z+
     756:	0d 92       	st	X+, r0
     758:	a2 32       	cpi	r26, 0x22	; 34
     75a:	b1 07       	cpc	r27, r17
     75c:	d9 f7       	brne	.-10     	; 0x754 <__do_copy_data+0xc>

0000075e <__do_clear_bss>:
     75e:	28 e0       	ldi	r18, 0x08	; 8
     760:	a2 e2       	ldi	r26, 0x22	; 34
     762:	b3 e0       	ldi	r27, 0x03	; 3
     764:	01 c0       	rjmp	.+2      	; 0x768 <.do_clear_bss_start>

00000766 <.do_clear_bss_loop>:
     766:	1d 92       	st	X+, r1

00000768 <.do_clear_bss_start>:
     768:	ab 31       	cpi	r26, 0x1B	; 27
     76a:	b2 07       	cpc	r27, r18
     76c:	e1 f7       	brne	.-8      	; 0x766 <.do_clear_bss_loop>
     76e:	0e 94 2a 0f 	call	0x1e54	; 0x1e54 <main>
     772:	0c 94 e2 32 	jmp	0x65c4	; 0x65c4 <_exit>

00000776 <__bad_interrupt>:
     776:	0c 94 00 00 	jmp	0	; 0x0 <__vectors>

0000077a <Read>:
#define BMP180_R 0xEF
#define BMP180_W 0xEE

// чтение регистра 16 бит
uint16_t Read(uint8_t address) 
{
     77a:	0f 93       	push	r16
     77c:	1f 93       	push	r17
     77e:	cf 93       	push	r28
     780:	df 93       	push	r29
     782:	c8 2f       	mov	r28, r24
	uint16_t msb=0;
	uint16_t lsb=0;
	uint16_t data;

	I2C_StartCondition();               // запуск i2c
     784:	0e 94 8b 14 	call	0x2916	; 0x2916 <I2C_StartCondition>
	I2C_SendByte(BMP180_W);        // передача адреса устройства, режим записи
     788:	8e ee       	ldi	r24, 0xEE	; 238
     78a:	0e 94 97 14 	call	0x292e	; 0x292e <I2C_SendByte>
	I2C_SendByte(address);	        // передача адреса памяти
     78e:	8c 2f       	mov	r24, r28
     790:	0e 94 97 14 	call	0x292e	; 0x292e <I2C_SendByte>
	I2C_StopCondition();                // остановка i2c
     794:	0e 94 93 14 	call	0x2926	; 0x2926 <I2C_StopCondition>

	I2C_StartCondition();               // запуск i2c
     798:	0e 94 8b 14 	call	0x2916	; 0x2916 <I2C_StartCondition>
	I2C_SendByte(BMP180_R);        // передача адреса устройства, режим чтения
     79c:	8f ee       	ldi	r24, 0xEF	; 239
     79e:	0e 94 97 14 	call	0x292e	; 0x292e <I2C_SendByte>
	msb = I2C_ReadByte();
     7a2:	0e 94 a1 14 	call	0x2942	; 0x2942 <I2C_ReadByte>
     7a6:	c8 2f       	mov	r28, r24
     7a8:	d0 e0       	ldi	r29, 0x00	; 0
	lsb = I2C_ReadLastByte();
     7aa:	0e 94 ab 14 	call	0x2956	; 0x2956 <I2C_ReadLastByte>
     7ae:	08 2f       	mov	r16, r24
     7b0:	10 e0       	ldi	r17, 0x00	; 0
	I2C_StopCondition();                // остановка i2c
     7b2:	0e 94 93 14 	call	0x2926	; 0x2926 <I2C_StopCondition>

	data = (uint16_t)((msb << 8) + lsb);
     7b6:	9c 2f       	mov	r25, r28
     7b8:	88 27       	eor	r24, r24
	return data;
}
     7ba:	80 0f       	add	r24, r16
     7bc:	91 1f       	adc	r25, r17
     7be:	df 91       	pop	r29
     7c0:	cf 91       	pop	r28
     7c2:	1f 91       	pop	r17
     7c4:	0f 91       	pop	r16
     7c6:	08 95       	ret

000007c8 <BMP180_Calibration>:
// получить данные для калибровки
void BMP180_Calibration (void) 
{
	ac1 = Read(0xAA);
     7c8:	8a ea       	ldi	r24, 0xAA	; 170
     7ca:	0e 94 bd 03 	call	0x77a	; 0x77a <Read>
     7ce:	90 93 cc 07 	sts	0x07CC, r25	; 0x8007cc <ac1+0x1>
     7d2:	80 93 cb 07 	sts	0x07CB, r24	; 0x8007cb <ac1>
	ac2 = Read(0xAC);
     7d6:	8c ea       	ldi	r24, 0xAC	; 172
     7d8:	0e 94 bd 03 	call	0x77a	; 0x77a <Read>
     7dc:	90 93 d4 07 	sts	0x07D4, r25	; 0x8007d4 <ac2+0x1>
     7e0:	80 93 d3 07 	sts	0x07D3, r24	; 0x8007d3 <ac2>
	ac3 = Read(0xAE);
     7e4:	8e ea       	ldi	r24, 0xAE	; 174
     7e6:	0e 94 bd 03 	call	0x77a	; 0x77a <Read>
     7ea:	90 93 e4 07 	sts	0x07E4, r25	; 0x8007e4 <ac3+0x1>
     7ee:	80 93 e3 07 	sts	0x07E3, r24	; 0x8007e3 <ac3>
	ac4 = Read(0xB0);
     7f2:	80 eb       	ldi	r24, 0xB0	; 176
     7f4:	0e 94 bd 03 	call	0x77a	; 0x77a <Read>
     7f8:	90 93 d8 07 	sts	0x07D8, r25	; 0x8007d8 <ac4+0x1>
     7fc:	80 93 d7 07 	sts	0x07D7, r24	; 0x8007d7 <ac4>
	ac5 = Read(0xB2);
     800:	82 eb       	ldi	r24, 0xB2	; 178
     802:	0e 94 bd 03 	call	0x77a	; 0x77a <Read>
     806:	90 93 d2 07 	sts	0x07D2, r25	; 0x8007d2 <ac5+0x1>
     80a:	80 93 d1 07 	sts	0x07D1, r24	; 0x8007d1 <ac5>
	ac6 = Read(0xB4);
     80e:	84 eb       	ldi	r24, 0xB4	; 180
     810:	0e 94 bd 03 	call	0x77a	; 0x77a <Read>
     814:	90 93 d0 07 	sts	0x07D0, r25	; 0x8007d0 <ac6+0x1>
     818:	80 93 cf 07 	sts	0x07CF, r24	; 0x8007cf <ac6>
	b1  = Read(0xB6);
     81c:	86 eb       	ldi	r24, 0xB6	; 182
     81e:	0e 94 bd 03 	call	0x77a	; 0x77a <Read>
     822:	90 93 ce 07 	sts	0x07CE, r25	; 0x8007ce <b1+0x1>
     826:	80 93 cd 07 	sts	0x07CD, r24	; 0x8007cd <b1>
	b2  = Read(0xB8);
     82a:	88 eb       	ldi	r24, 0xB8	; 184
     82c:	0e 94 bd 03 	call	0x77a	; 0x77a <Read>
     830:	90 93 c8 07 	sts	0x07C8, r25	; 0x8007c8 <b2+0x1>
     834:	80 93 c7 07 	sts	0x07C7, r24	; 0x8007c7 <b2>
	mb  = Read(0xBA);
     838:	8a eb       	ldi	r24, 0xBA	; 186
     83a:	0e 94 bd 03 	call	0x77a	; 0x77a <Read>
     83e:	90 93 ca 07 	sts	0x07CA, r25	; 0x8007ca <mb+0x1>
     842:	80 93 c9 07 	sts	0x07C9, r24	; 0x8007c9 <mb>
	mc  = Read(0xBC);
     846:	8c eb       	ldi	r24, 0xBC	; 188
     848:	0e 94 bd 03 	call	0x77a	; 0x77a <Read>
     84c:	90 93 da 07 	sts	0x07DA, r25	; 0x8007da <mc+0x1>
     850:	80 93 d9 07 	sts	0x07D9, r24	; 0x8007d9 <mc>
	md  = Read(0xBE);
     854:	8e eb       	ldi	r24, 0xBE	; 190
     856:	0e 94 bd 03 	call	0x77a	; 0x77a <Read>
     85a:	90 93 d6 07 	sts	0x07D6, r25	; 0x8007d6 <md+0x1>
     85e:	80 93 d5 07 	sts	0x07D5, r24	; 0x8007d5 <md>
     862:	08 95       	ret

00000864 <BMP180_get_temper>:
	md = 2705;*/
}
// прочитать значение температуры
int32_t BMP180_get_temper(void)
{
	I2C_StartCondition();               // запуск i2c
     864:	0e 94 8b 14 	call	0x2916	; 0x2916 <I2C_StartCondition>
	I2C_SendByte(BMP180_W);        // передача адреса устройства, режим записи
     868:	8e ee       	ldi	r24, 0xEE	; 238
     86a:	0e 94 97 14 	call	0x292e	; 0x292e <I2C_SendByte>
	I2C_SendByte(0xF4);	        // передача адреса памяти
     86e:	84 ef       	ldi	r24, 0xF4	; 244
     870:	0e 94 97 14 	call	0x292e	; 0x292e <I2C_SendByte>
	I2C_SendByte(0x2E);	        // передача разрешения (oss) адреса памяти температуры (можно так же как для давления)
     874:	8e e2       	ldi	r24, 0x2E	; 46
     876:	0e 94 97 14 	call	0x292e	; 0x292e <I2C_SendByte>
	I2C_StopCondition();                // остановка i2c
     87a:	0e 94 93 14 	call	0x2926	; 0x2926 <I2C_StopCondition>
	#else
		//round up by default
		__ticks_dc = (uint32_t)(ceil(fabs(__tmp)));
	#endif

	__builtin_avr_delay_cycles(__ticks_dc);
     87e:	8f e0       	ldi	r24, 0x0F	; 15
     880:	97 e2       	ldi	r25, 0x27	; 39
     882:	01 97       	sbiw	r24, 0x01	; 1
     884:	f1 f7       	brne	.-4      	; 0x882 <BMP180_get_temper+0x1e>
     886:	00 c0       	rjmp	.+0      	; 0x888 <BMP180_get_temper+0x24>
     888:	00 00       	nop

	_delay_ms(5);                   // время на замер (от 5 до 26 мс в зависимости от разрешения (oss))

	return Read(0xF6);     // вычислить температуру
     88a:	86 ef       	ldi	r24, 0xF6	; 246
     88c:	0e 94 bd 03 	call	0x77a	; 0x77a <Read>
     890:	bc 01       	movw	r22, r24
     892:	80 e0       	ldi	r24, 0x00	; 0
     894:	90 e0       	ldi	r25, 0x00	; 0
}
     896:	08 95       	ret

00000898 <BMP180_get_pressure>:
// прочитать значение атмосферного давления
int32_t BMP180_get_pressure()
{
	I2C_StartCondition();               // запуск i2c
     898:	0e 94 8b 14 	call	0x2916	; 0x2916 <I2C_StartCondition>
	I2C_SendByte(BMP180_W);        // передача адреса устройства, режим записи
     89c:	8e ee       	ldi	r24, 0xEE	; 238
     89e:	0e 94 97 14 	call	0x292e	; 0x292e <I2C_SendByte>
	I2C_SendByte(0xF4);	        // передача адреса памяти
     8a2:	84 ef       	ldi	r24, 0xF4	; 244
     8a4:	0e 94 97 14 	call	0x292e	; 0x292e <I2C_SendByte>
	I2C_SendByte(0x34+(OSS<<6));	// передача разрешения (oss) адреса памяти температуры
     8a8:	84 ef       	ldi	r24, 0xF4	; 244
     8aa:	0e 94 97 14 	call	0x292e	; 0x292e <I2C_SendByte>
	I2C_StopCondition();                // остановка i2c
     8ae:	0e 94 93 14 	call	0x2926	; 0x2926 <I2C_StopCondition>
     8b2:	8f e1       	ldi	r24, 0x1F	; 31
     8b4:	9b ec       	ldi	r25, 0xCB	; 203
     8b6:	01 97       	sbiw	r24, 0x01	; 1
     8b8:	f1 f7       	brne	.-4      	; 0x8b6 <BMP180_get_pressure+0x1e>
     8ba:	00 c0       	rjmp	.+0      	; 0x8bc <BMP180_get_pressure+0x24>
     8bc:	00 00       	nop

	_delay_ms(26);                  // время на замер (от 5 до 26 мс в зависимости от разрешения (oss))
	
	I2C_StartCondition();               // запуск i2c
     8be:	0e 94 8b 14 	call	0x2916	; 0x2916 <I2C_StartCondition>
	I2C_SendByte(BMP180_W);        // передача адреса устройства, режим записи
     8c2:	8e ee       	ldi	r24, 0xEE	; 238
     8c4:	0e 94 97 14 	call	0x292e	; 0x292e <I2C_SendByte>
	I2C_SendByte(0xF6);	        // передача адреса памяти
     8c8:	86 ef       	ldi	r24, 0xF6	; 246
     8ca:	0e 94 97 14 	call	0x292e	; 0x292e <I2C_SendByte>
	I2C_StopCondition();                // остановка i2c
     8ce:	0e 94 93 14 	call	0x2926	; 0x2926 <I2C_StopCondition>

	I2C_StartCondition();               // запуск i2c
     8d2:	0e 94 8b 14 	call	0x2916	; 0x2916 <I2C_StartCondition>
	I2C_SendByte(BMP180_R);        // передача адреса устройства, режим чтения
     8d6:	8f ee       	ldi	r24, 0xEF	; 239
     8d8:	0e 94 97 14 	call	0x292e	; 0x292e <I2C_SendByte>
	D1=I2C_ReadByte();             // MSB
     8dc:	0e 94 a1 14 	call	0x2942	; 0x2942 <I2C_ReadByte>
     8e0:	90 e0       	ldi	r25, 0x00	; 0
     8e2:	a0 e0       	ldi	r26, 0x00	; 0
     8e4:	b0 e0       	ldi	r27, 0x00	; 0
     8e6:	80 93 df 07 	sts	0x07DF, r24	; 0x8007df <D1>
     8ea:	90 93 e0 07 	sts	0x07E0, r25	; 0x8007e0 <D1+0x1>
     8ee:	a0 93 e1 07 	sts	0x07E1, r26	; 0x8007e1 <D1+0x2>
     8f2:	b0 93 e2 07 	sts	0x07E2, r27	; 0x8007e2 <D1+0x3>
	D2=I2C_ReadByte();             // LSB
     8f6:	0e 94 a1 14 	call	0x2942	; 0x2942 <I2C_ReadByte>
     8fa:	90 e0       	ldi	r25, 0x00	; 0
     8fc:	a0 e0       	ldi	r26, 0x00	; 0
     8fe:	b0 e0       	ldi	r27, 0x00	; 0
     900:	80 93 db 07 	sts	0x07DB, r24	; 0x8007db <D2>
     904:	90 93 dc 07 	sts	0x07DC, r25	; 0x8007dc <D2+0x1>
     908:	a0 93 dd 07 	sts	0x07DD, r26	; 0x8007dd <D2+0x2>
     90c:	b0 93 de 07 	sts	0x07DE, r27	; 0x8007de <D2+0x3>
	D3=I2C_ReadLastByte();             // XLSB
     910:	0e 94 ab 14 	call	0x2956	; 0x2956 <I2C_ReadLastByte>
     914:	90 e0       	ldi	r25, 0x00	; 0
     916:	a0 e0       	ldi	r26, 0x00	; 0
     918:	b0 e0       	ldi	r27, 0x00	; 0
     91a:	80 93 c3 07 	sts	0x07C3, r24	; 0x8007c3 <D3>
     91e:	90 93 c4 07 	sts	0x07C4, r25	; 0x8007c4 <D3+0x1>
     922:	a0 93 c5 07 	sts	0x07C5, r26	; 0x8007c5 <D3+0x2>
     926:	b0 93 c6 07 	sts	0x07C6, r27	; 0x8007c6 <D3+0x3>
	I2C_StopCondition();                // остановка i2c
     92a:	0e 94 93 14 	call	0x2926	; 0x2926 <I2C_StopCondition>
	

	return (int32_t)(((D1 << 16) + (D2 << 8) + D3) >> (8-OSS));  // вычислить давление (в Па ?)
     92e:	40 91 df 07 	lds	r20, 0x07DF	; 0x8007df <D1>
     932:	50 91 e0 07 	lds	r21, 0x07E0	; 0x8007e0 <D1+0x1>
     936:	60 91 e1 07 	lds	r22, 0x07E1	; 0x8007e1 <D1+0x2>
     93a:	70 91 e2 07 	lds	r23, 0x07E2	; 0x8007e2 <D1+0x3>
     93e:	ba 01       	movw	r22, r20
     940:	55 27       	eor	r21, r21
     942:	44 27       	eor	r20, r20
     944:	80 91 db 07 	lds	r24, 0x07DB	; 0x8007db <D2>
     948:	90 91 dc 07 	lds	r25, 0x07DC	; 0x8007dc <D2+0x1>
     94c:	a0 91 dd 07 	lds	r26, 0x07DD	; 0x8007dd <D2+0x2>
     950:	b0 91 de 07 	lds	r27, 0x07DE	; 0x8007de <D2+0x3>
     954:	ba 2f       	mov	r27, r26
     956:	a9 2f       	mov	r26, r25
     958:	98 2f       	mov	r25, r24
     95a:	88 27       	eor	r24, r24
     95c:	48 0f       	add	r20, r24
     95e:	59 1f       	adc	r21, r25
     960:	6a 1f       	adc	r22, r26
     962:	7b 1f       	adc	r23, r27
     964:	80 91 c3 07 	lds	r24, 0x07C3	; 0x8007c3 <D3>
     968:	90 91 c4 07 	lds	r25, 0x07C4	; 0x8007c4 <D3+0x1>
     96c:	a0 91 c5 07 	lds	r26, 0x07C5	; 0x8007c5 <D3+0x2>
     970:	b0 91 c6 07 	lds	r27, 0x07C6	; 0x8007c6 <D3+0x3>
     974:	84 0f       	add	r24, r20
     976:	95 1f       	adc	r25, r21
     978:	a6 1f       	adc	r26, r22
     97a:	b7 1f       	adc	r27, r23
     97c:	bc 01       	movw	r22, r24
     97e:	cd 01       	movw	r24, r26
     980:	68 94       	set
     982:	14 f8       	bld	r1, 4
     984:	96 95       	lsr	r25
     986:	87 95       	ror	r24
     988:	77 95       	ror	r23
     98a:	67 95       	ror	r22
     98c:	16 94       	lsr	r1
     98e:	d1 f7       	brne	.-12     	; 0x984 <__stack+0x85>
}
     990:	08 95       	ret

00000992 <BMP180_calculation>:
// получить значения температуры и атмосферного давления с учетом калибровочных коэффициентов
int32_t BMP180_calculation () 
{
     992:	4f 92       	push	r4
     994:	5f 92       	push	r5
     996:	6f 92       	push	r6
     998:	7f 92       	push	r7
     99a:	8f 92       	push	r8
     99c:	9f 92       	push	r9
     99e:	af 92       	push	r10
     9a0:	bf 92       	push	r11
     9a2:	cf 92       	push	r12
     9a4:	df 92       	push	r13
     9a6:	ef 92       	push	r14
     9a8:	ff 92       	push	r15
     9aa:	0f 93       	push	r16
     9ac:	1f 93       	push	r17
     9ae:	cf 93       	push	r28
     9b0:	df 93       	push	r29
     9b2:	00 d0       	rcall	.+0      	; 0x9b4 <BMP180_calculation+0x22>
     9b4:	00 d0       	rcall	.+0      	; 0x9b6 <BMP180_calculation+0x24>
     9b6:	cd b7       	in	r28, 0x3d	; 61
     9b8:	de b7       	in	r29, 0x3e	; 62
	int32_t ut=0;
	int32_t up=0;
	int32_t x1, x2, b5, b6, x3, b3, p;
	uint32_t b4, b7;

	ut += BMP180_get_temper();
     9ba:	0e 94 32 04 	call	0x864	; 0x864 <BMP180_get_temper>
     9be:	6b 01       	movw	r12, r22
     9c0:	7c 01       	movw	r14, r24

	up = BMP180_get_pressure();
     9c2:	0e 94 4c 04 	call	0x898	; 0x898 <BMP180_get_pressure>
     9c6:	69 83       	std	Y+1, r22	; 0x01
     9c8:	7a 83       	std	Y+2, r23	; 0x02
     9ca:	8b 83       	std	Y+3, r24	; 0x03
     9cc:	9c 83       	std	Y+4, r25	; 0x04

	x1 = ((int32_t)ut - (int32_t)ac6) * (int32_t)ac5 >> 15;
     9ce:	80 91 cf 07 	lds	r24, 0x07CF	; 0x8007cf <ac6>
     9d2:	90 91 d0 07 	lds	r25, 0x07D0	; 0x8007d0 <ac6+0x1>
     9d6:	a7 01       	movw	r20, r14
     9d8:	96 01       	movw	r18, r12
     9da:	28 1b       	sub	r18, r24
     9dc:	39 0b       	sbc	r19, r25
     9de:	41 09       	sbc	r20, r1
     9e0:	51 09       	sbc	r21, r1
     9e2:	a0 91 d1 07 	lds	r26, 0x07D1	; 0x8007d1 <ac5>
     9e6:	b0 91 d2 07 	lds	r27, 0x07D2	; 0x8007d2 <ac5+0x1>
     9ea:	0e 94 9b 2d 	call	0x5b36	; 0x5b36 <__muluhisi3>
     9ee:	2b 01       	movw	r4, r22
     9f0:	3c 01       	movw	r6, r24
     9f2:	03 2e       	mov	r0, r19
     9f4:	3f e0       	ldi	r19, 0x0F	; 15
     9f6:	75 94       	asr	r7
     9f8:	67 94       	ror	r6
     9fa:	57 94       	ror	r5
     9fc:	47 94       	ror	r4
     9fe:	3a 95       	dec	r19
     a00:	d1 f7       	brne	.-12     	; 0x9f6 <BMP180_calculation+0x64>
     a02:	30 2d       	mov	r19, r0
	x2 = ((int32_t)mc << 11) / (x1 + md);
     a04:	60 91 d9 07 	lds	r22, 0x07D9	; 0x8007d9 <mc>
     a08:	70 91 da 07 	lds	r23, 0x07DA	; 0x8007da <mc+0x1>
     a0c:	cb 01       	movw	r24, r22
     a0e:	77 0f       	add	r23, r23
     a10:	aa 0b       	sbc	r26, r26
     a12:	bb 0b       	sbc	r27, r27
     a14:	bc 01       	movw	r22, r24
     a16:	cd 01       	movw	r24, r26
     a18:	05 2e       	mov	r0, r21
     a1a:	5b e0       	ldi	r21, 0x0B	; 11
     a1c:	66 0f       	add	r22, r22
     a1e:	77 1f       	adc	r23, r23
     a20:	88 1f       	adc	r24, r24
     a22:	99 1f       	adc	r25, r25
     a24:	5a 95       	dec	r21
     a26:	d1 f7       	brne	.-12     	; 0xa1c <BMP180_calculation+0x8a>
     a28:	50 2d       	mov	r21, r0
     a2a:	20 91 d5 07 	lds	r18, 0x07D5	; 0x8007d5 <md>
     a2e:	30 91 d6 07 	lds	r19, 0x07D6	; 0x8007d6 <md+0x1>
     a32:	89 01       	movw	r16, r18
     a34:	33 0f       	add	r19, r19
     a36:	22 0b       	sbc	r18, r18
     a38:	33 0b       	sbc	r19, r19
     a3a:	a9 01       	movw	r20, r18
     a3c:	98 01       	movw	r18, r16
     a3e:	24 0d       	add	r18, r4
     a40:	35 1d       	adc	r19, r5
     a42:	46 1d       	adc	r20, r6
     a44:	57 1d       	adc	r21, r7
     a46:	0e 94 76 2d 	call	0x5aec	; 0x5aec <__divmodsi4>
	b5 = x1 + x2;
     a4a:	42 0e       	add	r4, r18
     a4c:	53 1e       	adc	r5, r19
     a4e:	64 1e       	adc	r6, r20
     a50:	75 1e       	adc	r7, r21
	//*temperature = (b5 + 8) >> 4;
	
	b6 = b5 - 4000;
     a52:	80 ea       	ldi	r24, 0xA0	; 160
     a54:	48 1a       	sub	r4, r24
     a56:	8f e0       	ldi	r24, 0x0F	; 15
     a58:	58 0a       	sbc	r5, r24
     a5a:	61 08       	sbc	r6, r1
     a5c:	71 08       	sbc	r7, r1
	x1 = (b2 * ((b6 * b6) >> 12)) >> 11;
     a5e:	a3 01       	movw	r20, r6
     a60:	92 01       	movw	r18, r4
     a62:	c3 01       	movw	r24, r6
     a64:	b2 01       	movw	r22, r4
     a66:	0e 94 44 2d 	call	0x5a88	; 0x5a88 <__mulsi3>
     a6a:	4b 01       	movw	r8, r22
     a6c:	5c 01       	movw	r10, r24
     a6e:	07 2e       	mov	r0, r23
     a70:	7c e0       	ldi	r23, 0x0C	; 12
     a72:	b5 94       	asr	r11
     a74:	a7 94       	ror	r10
     a76:	97 94       	ror	r9
     a78:	87 94       	ror	r8
     a7a:	7a 95       	dec	r23
     a7c:	d1 f7       	brne	.-12     	; 0xa72 <BMP180_calculation+0xe0>
     a7e:	70 2d       	mov	r23, r0
     a80:	a0 91 c7 07 	lds	r26, 0x07C7	; 0x8007c7 <b2>
     a84:	b0 91 c8 07 	lds	r27, 0x07C8	; 0x8007c8 <b2+0x1>
     a88:	a5 01       	movw	r20, r10
     a8a:	94 01       	movw	r18, r8
     a8c:	0e 94 a6 2d 	call	0x5b4c	; 0x5b4c <__mulshisi3>
     a90:	6b 01       	movw	r12, r22
     a92:	7c 01       	movw	r14, r24
     a94:	0b 2e       	mov	r0, r27
     a96:	bb e0       	ldi	r27, 0x0B	; 11
     a98:	f5 94       	asr	r15
     a9a:	e7 94       	ror	r14
     a9c:	d7 94       	ror	r13
     a9e:	c7 94       	ror	r12
     aa0:	ba 95       	dec	r27
     aa2:	d1 f7       	brne	.-12     	; 0xa98 <BMP180_calculation+0x106>
     aa4:	b0 2d       	mov	r27, r0
	x2 = (ac2 * b6) >> 11;
     aa6:	a0 91 d3 07 	lds	r26, 0x07D3	; 0x8007d3 <ac2>
     aaa:	b0 91 d4 07 	lds	r27, 0x07D4	; 0x8007d4 <ac2+0x1>
     aae:	a3 01       	movw	r20, r6
     ab0:	92 01       	movw	r18, r4
     ab2:	0e 94 a6 2d 	call	0x5b4c	; 0x5b4c <__mulshisi3>
     ab6:	dc 01       	movw	r26, r24
     ab8:	cb 01       	movw	r24, r22
     aba:	07 2e       	mov	r0, r23
     abc:	7b e0       	ldi	r23, 0x0B	; 11
     abe:	b5 95       	asr	r27
     ac0:	a7 95       	ror	r26
     ac2:	97 95       	ror	r25
     ac4:	87 95       	ror	r24
     ac6:	7a 95       	dec	r23
     ac8:	d1 f7       	brne	.-12     	; 0xabe <BMP180_calculation+0x12c>
     aca:	70 2d       	mov	r23, r0
	x3 = x1 + x2;
     acc:	c8 0e       	add	r12, r24
     ace:	d9 1e       	adc	r13, r25
     ad0:	ea 1e       	adc	r14, r26
     ad2:	fb 1e       	adc	r15, r27
	b3 = (((((int32_t) ac1) * 4 + x3)<<OSS) + 2)>> 2;
     ad4:	80 91 cb 07 	lds	r24, 0x07CB	; 0x8007cb <ac1>
     ad8:	90 91 cc 07 	lds	r25, 0x07CC	; 0x8007cc <ac1+0x1>
     adc:	09 2e       	mov	r0, r25
     ade:	00 0c       	add	r0, r0
     ae0:	aa 0b       	sbc	r26, r26
     ae2:	bb 0b       	sbc	r27, r27
     ae4:	88 0f       	add	r24, r24
     ae6:	99 1f       	adc	r25, r25
     ae8:	aa 1f       	adc	r26, r26
     aea:	bb 1f       	adc	r27, r27
     aec:	88 0f       	add	r24, r24
     aee:	99 1f       	adc	r25, r25
     af0:	aa 1f       	adc	r26, r26
     af2:	bb 1f       	adc	r27, r27
     af4:	c8 0e       	add	r12, r24
     af6:	d9 1e       	adc	r13, r25
     af8:	ea 1e       	adc	r14, r26
     afa:	fb 1e       	adc	r15, r27
     afc:	cc 0c       	add	r12, r12
     afe:	dd 1c       	adc	r13, r13
     b00:	ee 1c       	adc	r14, r14
     b02:	ff 1c       	adc	r15, r15
	x1 = (ac3 * b6) >> 13;
     b04:	a0 91 e3 07 	lds	r26, 0x07E3	; 0x8007e3 <ac3>
     b08:	b0 91 e4 07 	lds	r27, 0x07E4	; 0x8007e4 <ac3+0x1>
     b0c:	0e 94 a6 2d 	call	0x5b4c	; 0x5b4c <__mulshisi3>
     b10:	2b 01       	movw	r4, r22
     b12:	3c 01       	movw	r6, r24
     b14:	03 2e       	mov	r0, r19
     b16:	3d e0       	ldi	r19, 0x0D	; 13
     b18:	75 94       	asr	r7
     b1a:	67 94       	ror	r6
     b1c:	57 94       	ror	r5
     b1e:	47 94       	ror	r4
     b20:	3a 95       	dec	r19
     b22:	d1 f7       	brne	.-12     	; 0xb18 <BMP180_calculation+0x186>
     b24:	30 2d       	mov	r19, r0
	x2 = (b1 * ((b6 * b6) >> 12)) >> 16;
     b26:	a0 91 cd 07 	lds	r26, 0x07CD	; 0x8007cd <b1>
     b2a:	b0 91 ce 07 	lds	r27, 0x07CE	; 0x8007ce <b1+0x1>
     b2e:	a5 01       	movw	r20, r10
     b30:	94 01       	movw	r18, r8
     b32:	0e 94 a6 2d 	call	0x5b4c	; 0x5b4c <__mulshisi3>
     b36:	bb 27       	eor	r27, r27
     b38:	97 fd       	sbrc	r25, 7
     b3a:	b0 95       	com	r27
     b3c:	ab 2f       	mov	r26, r27
	x3 = ((x1 + x2) + 2) >> 2;
     b3e:	84 0d       	add	r24, r4
     b40:	95 1d       	adc	r25, r5
     b42:	a6 1d       	adc	r26, r6
     b44:	b7 1d       	adc	r27, r7
     b46:	02 96       	adiw	r24, 0x02	; 2
     b48:	a1 1d       	adc	r26, r1
     b4a:	b1 1d       	adc	r27, r1
     b4c:	b5 95       	asr	r27
     b4e:	a7 95       	ror	r26
     b50:	97 95       	ror	r25
     b52:	87 95       	ror	r24
     b54:	b5 95       	asr	r27
     b56:	a7 95       	ror	r26
     b58:	97 95       	ror	r25
     b5a:	87 95       	ror	r24
	b4 = (ac4 * (uint32_t) (x3 + 32768)) >> 15;
     b5c:	9c 01       	movw	r18, r24
     b5e:	ad 01       	movw	r20, r26
     b60:	30 58       	subi	r19, 0x80	; 128
     b62:	4f 4f       	sbci	r20, 0xFF	; 255
     b64:	5f 4f       	sbci	r21, 0xFF	; 255
     b66:	a0 91 d7 07 	lds	r26, 0x07D7	; 0x8007d7 <ac4>
     b6a:	b0 91 d8 07 	lds	r27, 0x07D8	; 0x8007d8 <ac4+0x1>
     b6e:	0e 94 9b 2d 	call	0x5b36	; 0x5b36 <__muluhisi3>
     b72:	2b 01       	movw	r4, r22
     b74:	3c 01       	movw	r6, r24
     b76:	03 2e       	mov	r0, r19
     b78:	3f e0       	ldi	r19, 0x0F	; 15
     b7a:	76 94       	lsr	r7
     b7c:	67 94       	ror	r6
     b7e:	57 94       	ror	r5
     b80:	47 94       	ror	r4
     b82:	3a 95       	dec	r19
     b84:	d1 f7       	brne	.-12     	; 0xb7a <BMP180_calculation+0x1e8>
     b86:	30 2d       	mov	r19, r0
	b7 = ((uint32_t) (up - b3) * (50000 >> OSS));
     b88:	29 81       	ldd	r18, Y+1	; 0x01
     b8a:	3a 81       	ldd	r19, Y+2	; 0x02
     b8c:	4b 81       	ldd	r20, Y+3	; 0x03
     b8e:	5c 81       	ldd	r21, Y+4	; 0x04
     b90:	2c 19       	sub	r18, r12
     b92:	3d 09       	sbc	r19, r13
     b94:	4e 09       	sbc	r20, r14
     b96:	5f 09       	sbc	r21, r15
     b98:	aa e6       	ldi	r26, 0x6A	; 106
     b9a:	b8 e1       	ldi	r27, 0x18	; 24
     b9c:	0e 94 9b 2d 	call	0x5b36	; 0x5b36 <__muluhisi3>
	//p = b7 < 0x80000000 ? (b7 * 2) / b4 : (b7 / b4) * 2;
	
	if (b7 < 0x80000000)
     ba0:	99 23       	and	r25, r25
     ba2:	5c f0       	brlt	.+22     	; 0xbba <BMP180_calculation+0x228>
	{
		p = (b7 << 1) / b4;
     ba4:	66 0f       	add	r22, r22
     ba6:	77 1f       	adc	r23, r23
     ba8:	88 1f       	adc	r24, r24
     baa:	99 1f       	adc	r25, r25
     bac:	a3 01       	movw	r20, r6
     bae:	92 01       	movw	r18, r4
     bb0:	0e 94 54 2d 	call	0x5aa8	; 0x5aa8 <__udivmodsi4>
     bb4:	29 01       	movw	r4, r18
     bb6:	3a 01       	movw	r6, r20
     bb8:	0a c0       	rjmp	.+20     	; 0xbce <BMP180_calculation+0x23c>
	}
	else
	{
		p = (b7 / b4) << 1;
     bba:	a3 01       	movw	r20, r6
     bbc:	92 01       	movw	r18, r4
     bbe:	0e 94 54 2d 	call	0x5aa8	; 0x5aa8 <__udivmodsi4>
     bc2:	29 01       	movw	r4, r18
     bc4:	3a 01       	movw	r6, r20
     bc6:	44 0c       	add	r4, r4
     bc8:	55 1c       	adc	r5, r5
     bca:	66 1c       	adc	r6, r6
     bcc:	77 1c       	adc	r7, r7
	}

	x1 = (p / (pow(2,8))) * (p / (pow(2,8)));
     bce:	c3 01       	movw	r24, r6
     bd0:	b2 01       	movw	r22, r4
     bd2:	0e 94 a5 28 	call	0x514a	; 0x514a <__floatsisf>
     bd6:	6b 01       	movw	r12, r22
     bd8:	7c 01       	movw	r14, r24
     bda:	20 e0       	ldi	r18, 0x00	; 0
     bdc:	30 e0       	ldi	r19, 0x00	; 0
     bde:	40 e8       	ldi	r20, 0x80	; 128
     be0:	5b e3       	ldi	r21, 0x3B	; 59
     be2:	0e 94 5a 29 	call	0x52b4	; 0x52b4 <__mulsf3>
     be6:	9b 01       	movw	r18, r22
     be8:	ac 01       	movw	r20, r24
     bea:	0e 94 5a 29 	call	0x52b4	; 0x52b4 <__mulsf3>
     bee:	0e 94 6d 28 	call	0x50da	; 0x50da <__fixsfsi>
     bf2:	9b 01       	movw	r18, r22
     bf4:	ac 01       	movw	r20, r24
	x1 = (x1 * 3038) / (pow(2,16));
     bf6:	ae ed       	ldi	r26, 0xDE	; 222
     bf8:	bb e0       	ldi	r27, 0x0B	; 11
     bfa:	0e 94 9b 2d 	call	0x5b36	; 0x5b36 <__muluhisi3>
     bfe:	0e 94 a5 28 	call	0x514a	; 0x514a <__floatsisf>
     c02:	20 e0       	ldi	r18, 0x00	; 0
     c04:	30 e0       	ldi	r19, 0x00	; 0
     c06:	40 e8       	ldi	r20, 0x80	; 128
     c08:	57 e3       	ldi	r21, 0x37	; 55
     c0a:	0e 94 5a 29 	call	0x52b4	; 0x52b4 <__mulsf3>
     c0e:	0e 94 6d 28 	call	0x50da	; 0x50da <__fixsfsi>
     c12:	4b 01       	movw	r8, r22
     c14:	5c 01       	movw	r10, r24
	x2 = (-7357 * p) / (pow(2,16));
     c16:	a3 e4       	ldi	r26, 0x43	; 67
     c18:	b3 ee       	ldi	r27, 0xE3	; 227
     c1a:	a3 01       	movw	r20, r6
     c1c:	92 01       	movw	r18, r4
     c1e:	0e 94 a9 2d 	call	0x5b52	; 0x5b52 <__mulohisi3>
     c22:	0e 94 a5 28 	call	0x514a	; 0x514a <__floatsisf>
     c26:	20 e0       	ldi	r18, 0x00	; 0
     c28:	30 e0       	ldi	r19, 0x00	; 0
     c2a:	40 e8       	ldi	r20, 0x80	; 128
     c2c:	57 e3       	ldi	r21, 0x37	; 55
     c2e:	0e 94 5a 29 	call	0x52b4	; 0x52b4 <__mulsf3>
     c32:	0e 94 6d 28 	call	0x50da	; 0x50da <__fixsfsi>
	pressure = p + ((x1 + x2 + 3791) / (pow(2,4)));
     c36:	dc 01       	movw	r26, r24
     c38:	cb 01       	movw	r24, r22
     c3a:	88 0d       	add	r24, r8
     c3c:	99 1d       	adc	r25, r9
     c3e:	aa 1d       	adc	r26, r10
     c40:	bb 1d       	adc	r27, r11
     c42:	bc 01       	movw	r22, r24
     c44:	cd 01       	movw	r24, r26
     c46:	61 53       	subi	r22, 0x31	; 49
     c48:	71 4f       	sbci	r23, 0xF1	; 241
     c4a:	8f 4f       	sbci	r24, 0xFF	; 255
     c4c:	9f 4f       	sbci	r25, 0xFF	; 255
     c4e:	0e 94 a5 28 	call	0x514a	; 0x514a <__floatsisf>
     c52:	20 e0       	ldi	r18, 0x00	; 0
     c54:	30 e0       	ldi	r19, 0x00	; 0
     c56:	40 e8       	ldi	r20, 0x80	; 128
     c58:	5d e3       	ldi	r21, 0x3D	; 61
     c5a:	0e 94 5a 29 	call	0x52b4	; 0x52b4 <__mulsf3>
     c5e:	9b 01       	movw	r18, r22
     c60:	ac 01       	movw	r20, r24
     c62:	c7 01       	movw	r24, r14
     c64:	b6 01       	movw	r22, r12
     c66:	0e 94 8a 27 	call	0x4f14	; 0x4f14 <__addsf3>
     c6a:	0e 94 6d 28 	call	0x50da	; 0x50da <__fixsfsi>
     c6e:	60 93 22 03 	sts	0x0322, r22	; 0x800322 <__data_end>
     c72:	70 93 23 03 	sts	0x0323, r23	; 0x800323 <__data_end+0x1>
     c76:	80 93 24 03 	sts	0x0324, r24	; 0x800324 <__data_end+0x2>
     c7a:	90 93 25 03 	sts	0x0325, r25	; 0x800325 <__data_end+0x3>
	return pressure;
}
     c7e:	0f 90       	pop	r0
     c80:	0f 90       	pop	r0
     c82:	0f 90       	pop	r0
     c84:	0f 90       	pop	r0
     c86:	df 91       	pop	r29
     c88:	cf 91       	pop	r28
     c8a:	1f 91       	pop	r17
     c8c:	0f 91       	pop	r16
     c8e:	ff 90       	pop	r15
     c90:	ef 90       	pop	r14
     c92:	df 90       	pop	r13
     c94:	cf 90       	pop	r12
     c96:	bf 90       	pop	r11
     c98:	af 90       	pop	r10
     c9a:	9f 90       	pop	r9
     c9c:	8f 90       	pop	r8
     c9e:	7f 90       	pop	r7
     ca0:	6f 90       	pop	r6
     ca2:	5f 90       	pop	r5
     ca4:	4f 90       	pop	r4
     ca6:	08 95       	ret

00000ca8 <dht22_init>:
     ca8:	2f ef       	ldi	r18, 0xFF	; 255
     caa:	83 ed       	ldi	r24, 0xD3	; 211
     cac:	90 e3       	ldi	r25, 0x30	; 48
     cae:	21 50       	subi	r18, 0x01	; 1
     cb0:	80 40       	sbci	r24, 0x00	; 0
     cb2:	90 40       	sbci	r25, 0x00	; 0
     cb4:	e1 f7       	brne	.-8      	; 0xcae <dht22_init+0x6>
     cb6:	00 c0       	rjmp	.+0      	; 0xcb8 <dht22_init+0x10>
     cb8:	00 00       	nop
#include "DHT22.h"

uint8_t dht22_init (void)
{
	_delay_ms(2000);
	DDRC |= (1<<DHT22_PORT);   // set as output
     cba:	87 b1       	in	r24, 0x07	; 7
     cbc:	81 60       	ori	r24, 0x01	; 1
     cbe:	87 b9       	out	0x07, r24	; 7
	PORTC |= (1<<DHT22_PORT);// pull the pin high
     cc0:	88 b1       	in	r24, 0x08	; 8
     cc2:	81 60       	ori	r24, 0x01	; 1
     cc4:	88 b9       	out	0x08, r24	; 8

	return 0;
}
     cc6:	80 e0       	ldi	r24, 0x00	; 0
     cc8:	08 95       	ret

00000cca <dht22_GetData>:
uint8_t dht22_GetData (uint8_t *data)
{
     cca:	bc 01       	movw	r22, r24
	uint8_t i, j = 0;
	DDRC |= (1<<DHT22_PORT);   // set as output
     ccc:	87 b1       	in	r24, 0x07	; 7
     cce:	81 60       	ori	r24, 0x01	; 1
     cd0:	87 b9       	out	0x07, r24	; 7
	//reset ports
	PORTC &= ~(1<<DHT22_PORT);// pull the pin low
     cd2:	88 b1       	in	r24, 0x08	; 8
     cd4:	8e 7f       	andi	r24, 0xFE	; 254
     cd6:	88 b9       	out	0x08, r24	; 8
	PORTC |= (1<<DHT22_PORT);// pull the pin high
     cd8:	88 b1       	in	r24, 0x08	; 8
     cda:	81 60       	ori	r24, 0x01	; 1
     cdc:	88 b9       	out	0x08, r24	; 8
     cde:	2f ef       	ldi	r18, 0xFF	; 255
     ce0:	80 e7       	ldi	r24, 0x70	; 112
     ce2:	92 e0       	ldi	r25, 0x02	; 2
     ce4:	21 50       	subi	r18, 0x01	; 1
     ce6:	80 40       	sbci	r24, 0x00	; 0
     ce8:	90 40       	sbci	r25, 0x00	; 0
     cea:	e1 f7       	brne	.-8      	; 0xce4 <dht22_GetData+0x1a>
     cec:	00 c0       	rjmp	.+0      	; 0xcee <dht22_GetData+0x24>
     cee:	00 00       	nop
	_delay_ms(100);
	//start
	PORTC &= ~(1<<DHT22_PORT);// pull the pin low
     cf0:	88 b1       	in	r24, 0x08	; 8
     cf2:	8e 7f       	andi	r24, 0xFE	; 254
     cf4:	88 b9       	out	0x08, r24	; 8
     cf6:	8f e9       	ldi	r24, 0x9F	; 159
     cf8:	9c e8       	ldi	r25, 0x8C	; 140
     cfa:	01 97       	sbiw	r24, 0x01	; 1
     cfc:	f1 f7       	brne	.-4      	; 0xcfa <dht22_GetData+0x30>
     cfe:	00 c0       	rjmp	.+0      	; 0xd00 <dht22_GetData+0x36>
     d00:	00 00       	nop
	_delay_ms(18);
	PORTC |= (1<<DHT22_PORT);// pull the pin high
     d02:	88 b1       	in	r24, 0x08	; 8
     d04:	81 60       	ori	r24, 0x01	; 1
     d06:	88 b9       	out	0x08, r24	; 8
	//ждем ответа датчика
	DDRC &= ~(1<<DHT22_PORT);   // set as input
     d08:	87 b1       	in	r24, 0x07	; 7
     d0a:	8e 7f       	andi	r24, 0xFE	; 254
     d0c:	87 b9       	out	0x07, r24	; 7
	#else
		//round up by default
		__ticks_dc = (uint32_t)(ceil(fabs(__tmp)));
	#endif

	__builtin_avr_delay_cycles(__ticks_dc);
     d0e:	90 ea       	ldi	r25, 0xA0	; 160
     d10:	9a 95       	dec	r25
     d12:	f1 f7       	brne	.-4      	; 0xd10 <dht22_GetData+0x46>
	_delay_us(60);//экспериментом выявлено 60 а не 40 сек
	//если датчик не ответил притягиванием шины, то ошибка
	if (PINC & (1 << DHT22_PORT))
     d14:	30 99       	sbic	0x06, 0	; 6
     d16:	38 c0       	rjmp	.+112    	; 0xd88 <dht22_GetData+0xbe>
     d18:	25 ed       	ldi	r18, 0xD5	; 213
     d1a:	2a 95       	dec	r18
     d1c:	f1 f7       	brne	.-4      	; 0xd1a <dht22_GetData+0x50>
     d1e:	00 00       	nop
	{
		return 0;
	}
	_delay_us(80);
	//если датчик не отпустил шину, то ошибка
	if (!(PINC & (1 << DHT22_PORT)))
     d20:	96 b1       	in	r25, 0x06	; 6
     d22:	89 2f       	mov	r24, r25
     d24:	81 70       	andi	r24, 0x01	; 1
     d26:	90 ff       	sbrs	r25, 0
     d28:	30 c0       	rjmp	.+96     	; 0xd8a <dht22_GetData+0xc0>
     d2a:	85 ed       	ldi	r24, 0xD5	; 213
     d2c:	8a 95       	dec	r24
     d2e:	f1 f7       	brne	.-4      	; 0xd2c <dht22_GetData+0x62>
     d30:	00 00       	nop
	}
	_delay_us(80);
	//читаем данные (записываем байты в массив наоборот,
	//т.к. сначала передается старший, чтобы потом
	//не переворачивать двухбайтовый результат
	for (j=0; j<5; j++)
     d32:	80 e0       	ldi	r24, 0x00	; 0
     d34:	25 c0       	rjmp	.+74     	; 0xd80 <dht22_GetData+0xb6>
	{
		data[4-j] = 0;
     d36:	e4 e0       	ldi	r30, 0x04	; 4
     d38:	f0 e0       	ldi	r31, 0x00	; 0
     d3a:	e8 1b       	sub	r30, r24
     d3c:	f1 09       	sbc	r31, r1
     d3e:	e6 0f       	add	r30, r22
     d40:	f7 1f       	adc	r31, r23
     d42:	10 82       	st	Z, r1
		for (i = 0; i<8; i++)
     d44:	90 e0       	ldi	r25, 0x00	; 0
     d46:	19 c0       	rjmp	.+50     	; 0xd7a <dht22_GetData+0xb0>
		{
			while(!(PINC & (1 << DHT22_PORT)));//ждем отпускания шины
     d48:	30 9b       	sbis	0x06, 0	; 6
     d4a:	fe cf       	rjmp	.-4      	; 0xd48 <dht22_GetData+0x7e>
     d4c:	2d e5       	ldi	r18, 0x5D	; 93
     d4e:	2a 95       	dec	r18
     d50:	f1 f7       	brne	.-4      	; 0xd4e <dht22_GetData+0x84>
     d52:	00 00       	nop
			_delay_us(35);
			if (PINC & (1 << DHT22_PORT))//читаем результат по прошествии 30 микросекунд
     d54:	30 9b       	sbis	0x06, 0	; 6
     d56:	0e c0       	rjmp	.+28     	; 0xd74 <dht22_GetData+0xaa>
			//если шина за это время не притянулась к земле, то значит это единица, иначе ноль
			data[4-j] |= (1<<(7-i));
     d58:	47 e0       	ldi	r20, 0x07	; 7
     d5a:	50 e0       	ldi	r21, 0x00	; 0
     d5c:	49 1b       	sub	r20, r25
     d5e:	51 09       	sbc	r21, r1
     d60:	21 e0       	ldi	r18, 0x01	; 1
     d62:	30 e0       	ldi	r19, 0x00	; 0
     d64:	02 c0       	rjmp	.+4      	; 0xd6a <dht22_GetData+0xa0>
     d66:	22 0f       	add	r18, r18
     d68:	33 1f       	adc	r19, r19
     d6a:	4a 95       	dec	r20
     d6c:	e2 f7       	brpl	.-8      	; 0xd66 <dht22_GetData+0x9c>
     d6e:	30 81       	ld	r19, Z
     d70:	23 2b       	or	r18, r19
     d72:	20 83       	st	Z, r18
			while(PINC & (1 << DHT22_PORT));//ждем пока датчик притянет шину(в случае единицы)
     d74:	30 99       	sbic	0x06, 0	; 6
     d76:	fe cf       	rjmp	.-4      	; 0xd74 <dht22_GetData+0xaa>
	//т.к. сначала передается старший, чтобы потом
	//не переворачивать двухбайтовый результат
	for (j=0; j<5; j++)
	{
		data[4-j] = 0;
		for (i = 0; i<8; i++)
     d78:	9f 5f       	subi	r25, 0xFF	; 255
     d7a:	98 30       	cpi	r25, 0x08	; 8
     d7c:	28 f3       	brcs	.-54     	; 0xd48 <dht22_GetData+0x7e>
	}
	_delay_us(80);
	//читаем данные (записываем байты в массив наоборот,
	//т.к. сначала передается старший, чтобы потом
	//не переворачивать двухбайтовый результат
	for (j=0; j<5; j++)
     d7e:	8f 5f       	subi	r24, 0xFF	; 255
     d80:	85 30       	cpi	r24, 0x05	; 5
     d82:	c8 f2       	brcs	.-78     	; 0xd36 <dht22_GetData+0x6c>
			//если шина за это время не притянулась к земле, то значит это единица, иначе ноль
			data[4-j] |= (1<<(7-i));
			while(PINC & (1 << DHT22_PORT));//ждем пока датчик притянет шину(в случае единицы)
		}
	}
	return 1;
     d84:	81 e0       	ldi	r24, 0x01	; 1
     d86:	08 95       	ret
	DDRC &= ~(1<<DHT22_PORT);   // set as input
	_delay_us(60);//экспериментом выявлено 60 а не 40 сек
	//если датчик не ответил притягиванием шины, то ошибка
	if (PINC & (1 << DHT22_PORT))
	{
		return 0;
     d88:	80 e0       	ldi	r24, 0x00	; 0
			data[4-j] |= (1<<(7-i));
			while(PINC & (1 << DHT22_PORT));//ждем пока датчик притянет шину(в случае единицы)
		}
	}
	return 1;
     d8a:	08 95       	ret

00000d8c <LCD_12864_Draw_pixel>:

	/*Рисуем линии*/
	for (uint8_t i = 0; i <= height; i++) {
		LCD_12864_Draw_line(x, y + i, x + width, y + i);
	}
}
     d8c:	90 91 00 01 	lds	r25, 0x0100	; 0x800100 <__DATA_REGION_ORIGIN__>
     d90:	69 17       	cp	r22, r25
     d92:	e0 f4       	brcc	.+56     	; 0xdcc <LCD_12864_Draw_pixel+0x40>
     d94:	90 91 01 01 	lds	r25, 0x0101	; 0x800101 <ST7920_width>
     d98:	89 17       	cp	r24, r25
     d9a:	c0 f4       	brcc	.+48     	; 0xdcc <LCD_12864_Draw_pixel+0x40>
     d9c:	96 2f       	mov	r25, r22
     d9e:	96 95       	lsr	r25
     da0:	96 95       	lsr	r25
     da2:	96 95       	lsr	r25
     da4:	e8 2f       	mov	r30, r24
     da6:	f0 e0       	ldi	r31, 0x00	; 0
     da8:	80 e8       	ldi	r24, 0x80	; 128
     daa:	98 9f       	mul	r25, r24
     dac:	e0 0d       	add	r30, r0
     dae:	f1 1d       	adc	r31, r1
     db0:	11 24       	eor	r1, r1
     db2:	67 70       	andi	r22, 0x07	; 7
     db4:	81 e0       	ldi	r24, 0x01	; 1
     db6:	90 e0       	ldi	r25, 0x00	; 0
     db8:	02 c0       	rjmp	.+4      	; 0xdbe <LCD_12864_Draw_pixel+0x32>
     dba:	88 0f       	add	r24, r24
     dbc:	99 1f       	adc	r25, r25
     dbe:	6a 95       	dec	r22
     dc0:	e2 f7       	brpl	.-8      	; 0xdba <LCD_12864_Draw_pixel+0x2e>
     dc2:	e4 55       	subi	r30, 0x54	; 84
     dc4:	fc 4f       	sbci	r31, 0xFC	; 252
     dc6:	90 81       	ld	r25, Z
     dc8:	89 2b       	or	r24, r25
     dca:	80 83       	st	Z, r24
     dcc:	08 95       	ret

00000dce <LCD_12864_Clean_pixel>:
     dce:	90 91 00 01 	lds	r25, 0x0100	; 0x800100 <__DATA_REGION_ORIGIN__>
     dd2:	69 17       	cp	r22, r25
     dd4:	e0 f4       	brcc	.+56     	; 0xe0e <LCD_12864_Clean_pixel+0x40>
     dd6:	90 91 01 01 	lds	r25, 0x0101	; 0x800101 <ST7920_width>
     dda:	89 17       	cp	r24, r25
     ddc:	c0 f4       	brcc	.+48     	; 0xe0e <LCD_12864_Clean_pixel+0x40>
     dde:	96 2f       	mov	r25, r22
     de0:	96 95       	lsr	r25
     de2:	96 95       	lsr	r25
     de4:	96 95       	lsr	r25
     de6:	e8 2f       	mov	r30, r24
     de8:	f0 e0       	ldi	r31, 0x00	; 0
     dea:	80 e8       	ldi	r24, 0x80	; 128
     dec:	98 9f       	mul	r25, r24
     dee:	e0 0d       	add	r30, r0
     df0:	f1 1d       	adc	r31, r1
     df2:	11 24       	eor	r1, r1
     df4:	67 70       	andi	r22, 0x07	; 7
     df6:	8e ef       	ldi	r24, 0xFE	; 254
     df8:	90 e0       	ldi	r25, 0x00	; 0
     dfa:	02 c0       	rjmp	.+4      	; 0xe00 <LCD_12864_Clean_pixel+0x32>
     dfc:	88 0f       	add	r24, r24
     dfe:	99 1f       	adc	r25, r25
     e00:	6a 95       	dec	r22
     e02:	e2 f7       	brpl	.-8      	; 0xdfc <LCD_12864_Clean_pixel+0x2e>
     e04:	e4 55       	subi	r30, 0x54	; 84
     e06:	fc 4f       	sbci	r31, 0xFC	; 252
     e08:	90 81       	ld	r25, Z
     e0a:	89 23       	and	r24, r25
     e0c:	80 83       	st	Z, r24
     e0e:	08 95       	ret

00000e10 <strob>:
     e10:	82 e0       	ldi	r24, 0x02	; 2
     e12:	8a 95       	dec	r24
     e14:	f1 f7       	brne	.-4      	; 0xe12 <strob+0x2>
     e16:	00 c0       	rjmp	.+0      	; 0xe18 <strob+0x8>
     e18:	8b b1       	in	r24, 0x0b	; 11
     e1a:	80 62       	ori	r24, 0x20	; 32
     e1c:	8b b9       	out	0x0b, r24	; 11
     e1e:	82 e0       	ldi	r24, 0x02	; 2
     e20:	8a 95       	dec	r24
     e22:	f1 f7       	brne	.-4      	; 0xe20 <strob+0x10>
     e24:	00 c0       	rjmp	.+0      	; 0xe26 <strob+0x16>
     e26:	8b b1       	in	r24, 0x0b	; 11
     e28:	8f 7d       	andi	r24, 0xDF	; 223
     e2a:	8b b9       	out	0x0b, r24	; 11
     e2c:	82 e0       	ldi	r24, 0x02	; 2
     e2e:	8a 95       	dec	r24
     e30:	f1 f7       	brne	.-4      	; 0xe2e <strob+0x1e>
     e32:	00 c0       	rjmp	.+0      	; 0xe34 <strob+0x24>
     e34:	08 95       	ret

00000e36 <LCD_12864_send_data>:
     e36:	1f 93       	push	r17
     e38:	cf 93       	push	r28
     e3a:	df 93       	push	r29
     e3c:	18 2f       	mov	r17, r24
     e3e:	8b b1       	in	r24, 0x0b	; 11
     e40:	80 68       	ori	r24, 0x80	; 128
     e42:	8b b9       	out	0x0b, r24	; 11
     e44:	8b b1       	in	r24, 0x0b	; 11
     e46:	80 64       	ori	r24, 0x40	; 64
     e48:	8b b9       	out	0x0b, r24	; 11
     e4a:	0e 94 08 07 	call	0xe10	; 0xe10 <strob>
     e4e:	0e 94 08 07 	call	0xe10	; 0xe10 <strob>
     e52:	0e 94 08 07 	call	0xe10	; 0xe10 <strob>
     e56:	0e 94 08 07 	call	0xe10	; 0xe10 <strob>
     e5a:	0e 94 08 07 	call	0xe10	; 0xe10 <strob>
     e5e:	8b b1       	in	r24, 0x0b	; 11
     e60:	8f 7b       	andi	r24, 0xBF	; 191
     e62:	8b b9       	out	0x0b, r24	; 11
     e64:	0e 94 08 07 	call	0xe10	; 0xe10 <strob>
     e68:	8b b1       	in	r24, 0x0b	; 11
     e6a:	80 64       	ori	r24, 0x40	; 64
     e6c:	8b b9       	out	0x0b, r24	; 11
     e6e:	0e 94 08 07 	call	0xe10	; 0xe10 <strob>
     e72:	8b b1       	in	r24, 0x0b	; 11
     e74:	8f 7b       	andi	r24, 0xBF	; 191
     e76:	8b b9       	out	0x0b, r24	; 11
     e78:	0e 94 08 07 	call	0xe10	; 0xe10 <strob>
     e7c:	c0 e0       	ldi	r28, 0x00	; 0
     e7e:	d0 e0       	ldi	r29, 0x00	; 0
     e80:	1c c0       	rjmp	.+56     	; 0xeba <LCD_12864_send_data+0x84>
     e82:	ce 01       	movw	r24, r28
     e84:	04 97       	sbiw	r24, 0x04	; 4
     e86:	04 97       	sbiw	r24, 0x04	; 4
     e88:	30 f4       	brcc	.+12     	; 0xe96 <LCD_12864_send_data+0x60>
     e8a:	8b b1       	in	r24, 0x0b	; 11
     e8c:	8f 7b       	andi	r24, 0xBF	; 191
     e8e:	8b b9       	out	0x0b, r24	; 11
     e90:	0e 94 08 07 	call	0xe10	; 0xe10 <strob>
     e94:	11 c0       	rjmp	.+34     	; 0xeb8 <LCD_12864_send_data+0x82>
     e96:	81 2f       	mov	r24, r17
     e98:	80 78       	andi	r24, 0x80	; 128
     e9a:	41 f0       	breq	.+16     	; 0xeac <LCD_12864_send_data+0x76>
     e9c:	80 38       	cpi	r24, 0x80	; 128
     e9e:	59 f4       	brne	.+22     	; 0xeb6 <LCD_12864_send_data+0x80>
     ea0:	8b b1       	in	r24, 0x0b	; 11
     ea2:	80 64       	ori	r24, 0x40	; 64
     ea4:	8b b9       	out	0x0b, r24	; 11
     ea6:	0e 94 08 07 	call	0xe10	; 0xe10 <strob>
     eaa:	05 c0       	rjmp	.+10     	; 0xeb6 <LCD_12864_send_data+0x80>
     eac:	8b b1       	in	r24, 0x0b	; 11
     eae:	8f 7b       	andi	r24, 0xBF	; 191
     eb0:	8b b9       	out	0x0b, r24	; 11
     eb2:	0e 94 08 07 	call	0xe10	; 0xe10 <strob>
     eb6:	11 0f       	add	r17, r17
     eb8:	21 96       	adiw	r28, 0x01	; 1
     eba:	cc 30       	cpi	r28, 0x0C	; 12
     ebc:	d1 05       	cpc	r29, r1
     ebe:	0c f3       	brlt	.-62     	; 0xe82 <LCD_12864_send_data+0x4c>
     ec0:	8b b1       	in	r24, 0x0b	; 11
     ec2:	8f 7b       	andi	r24, 0xBF	; 191
     ec4:	8b b9       	out	0x0b, r24	; 11
     ec6:	0e 94 08 07 	call	0xe10	; 0xe10 <strob>
     eca:	0e 94 08 07 	call	0xe10	; 0xe10 <strob>
     ece:	0e 94 08 07 	call	0xe10	; 0xe10 <strob>
     ed2:	0e 94 08 07 	call	0xe10	; 0xe10 <strob>
     ed6:	8b b1       	in	r24, 0x0b	; 11
     ed8:	8f 77       	andi	r24, 0x7F	; 127
     eda:	8b b9       	out	0x0b, r24	; 11
     edc:	df 91       	pop	r29
     ede:	cf 91       	pop	r28
     ee0:	1f 91       	pop	r17
     ee2:	08 95       	ret

00000ee4 <LCD_12864_send_command>:
     ee4:	1f 93       	push	r17
     ee6:	cf 93       	push	r28
     ee8:	df 93       	push	r29
     eea:	18 2f       	mov	r17, r24
     eec:	8b b1       	in	r24, 0x0b	; 11
     eee:	80 68       	ori	r24, 0x80	; 128
     ef0:	8b b9       	out	0x0b, r24	; 11
     ef2:	8b b1       	in	r24, 0x0b	; 11
     ef4:	80 64       	ori	r24, 0x40	; 64
     ef6:	8b b9       	out	0x0b, r24	; 11
     ef8:	0e 94 08 07 	call	0xe10	; 0xe10 <strob>
     efc:	0e 94 08 07 	call	0xe10	; 0xe10 <strob>
     f00:	0e 94 08 07 	call	0xe10	; 0xe10 <strob>
     f04:	0e 94 08 07 	call	0xe10	; 0xe10 <strob>
     f08:	0e 94 08 07 	call	0xe10	; 0xe10 <strob>
     f0c:	8b b1       	in	r24, 0x0b	; 11
     f0e:	8f 7b       	andi	r24, 0xBF	; 191
     f10:	8b b9       	out	0x0b, r24	; 11
     f12:	0e 94 08 07 	call	0xe10	; 0xe10 <strob>
     f16:	8b b1       	in	r24, 0x0b	; 11
     f18:	8f 7b       	andi	r24, 0xBF	; 191
     f1a:	8b b9       	out	0x0b, r24	; 11
     f1c:	0e 94 08 07 	call	0xe10	; 0xe10 <strob>
     f20:	8b b1       	in	r24, 0x0b	; 11
     f22:	8f 7b       	andi	r24, 0xBF	; 191
     f24:	8b b9       	out	0x0b, r24	; 11
     f26:	0e 94 08 07 	call	0xe10	; 0xe10 <strob>
     f2a:	c0 e0       	ldi	r28, 0x00	; 0
     f2c:	d0 e0       	ldi	r29, 0x00	; 0
     f2e:	1c c0       	rjmp	.+56     	; 0xf68 <LCD_12864_send_command+0x84>
     f30:	ce 01       	movw	r24, r28
     f32:	04 97       	sbiw	r24, 0x04	; 4
     f34:	04 97       	sbiw	r24, 0x04	; 4
     f36:	30 f4       	brcc	.+12     	; 0xf44 <LCD_12864_send_command+0x60>
     f38:	8b b1       	in	r24, 0x0b	; 11
     f3a:	8f 7b       	andi	r24, 0xBF	; 191
     f3c:	8b b9       	out	0x0b, r24	; 11
     f3e:	0e 94 08 07 	call	0xe10	; 0xe10 <strob>
     f42:	11 c0       	rjmp	.+34     	; 0xf66 <LCD_12864_send_command+0x82>
     f44:	81 2f       	mov	r24, r17
     f46:	80 78       	andi	r24, 0x80	; 128
     f48:	41 f0       	breq	.+16     	; 0xf5a <LCD_12864_send_command+0x76>
     f4a:	80 38       	cpi	r24, 0x80	; 128
     f4c:	59 f4       	brne	.+22     	; 0xf64 <LCD_12864_send_command+0x80>
     f4e:	8b b1       	in	r24, 0x0b	; 11
     f50:	80 64       	ori	r24, 0x40	; 64
     f52:	8b b9       	out	0x0b, r24	; 11
     f54:	0e 94 08 07 	call	0xe10	; 0xe10 <strob>
     f58:	05 c0       	rjmp	.+10     	; 0xf64 <LCD_12864_send_command+0x80>
     f5a:	8b b1       	in	r24, 0x0b	; 11
     f5c:	8f 7b       	andi	r24, 0xBF	; 191
     f5e:	8b b9       	out	0x0b, r24	; 11
     f60:	0e 94 08 07 	call	0xe10	; 0xe10 <strob>
     f64:	11 0f       	add	r17, r17
     f66:	21 96       	adiw	r28, 0x01	; 1
     f68:	cc 30       	cpi	r28, 0x0C	; 12
     f6a:	d1 05       	cpc	r29, r1
     f6c:	0c f3       	brlt	.-62     	; 0xf30 <LCD_12864_send_command+0x4c>
     f6e:	8b b1       	in	r24, 0x0b	; 11
     f70:	8f 7b       	andi	r24, 0xBF	; 191
     f72:	8b b9       	out	0x0b, r24	; 11
     f74:	0e 94 08 07 	call	0xe10	; 0xe10 <strob>
     f78:	0e 94 08 07 	call	0xe10	; 0xe10 <strob>
     f7c:	0e 94 08 07 	call	0xe10	; 0xe10 <strob>
     f80:	0e 94 08 07 	call	0xe10	; 0xe10 <strob>
     f84:	8b b1       	in	r24, 0x0b	; 11
     f86:	8f 77       	andi	r24, 0x7F	; 127
     f88:	8b b9       	out	0x0b, r24	; 11
     f8a:	df 91       	pop	r29
     f8c:	cf 91       	pop	r28
     f8e:	1f 91       	pop	r17
     f90:	08 95       	ret

00000f92 <LCD_12864_GrapnicMode>:
     f92:	88 23       	and	r24, r24
     f94:	99 f0       	breq	.+38     	; 0xfbc <LCD_12864_GrapnicMode+0x2a>
     f96:	84 e3       	ldi	r24, 0x34	; 52
     f98:	0e 94 72 07 	call	0xee4	; 0xee4 <LCD_12864_send_command>
     f9c:	8f ec       	ldi	r24, 0xCF	; 207
     f9e:	97 e0       	ldi	r25, 0x07	; 7
     fa0:	01 97       	sbiw	r24, 0x01	; 1
     fa2:	f1 f7       	brne	.-4      	; 0xfa0 <LCD_12864_GrapnicMode+0xe>
     fa4:	00 c0       	rjmp	.+0      	; 0xfa6 <LCD_12864_GrapnicMode+0x14>
     fa6:	00 00       	nop
     fa8:	86 e3       	ldi	r24, 0x36	; 54
     faa:	0e 94 72 07 	call	0xee4	; 0xee4 <LCD_12864_send_command>
     fae:	8f ec       	ldi	r24, 0xCF	; 207
     fb0:	97 e0       	ldi	r25, 0x07	; 7
     fb2:	01 97       	sbiw	r24, 0x01	; 1
     fb4:	f1 f7       	brne	.-4      	; 0xfb2 <LCD_12864_GrapnicMode+0x20>
     fb6:	00 c0       	rjmp	.+0      	; 0xfb8 <LCD_12864_GrapnicMode+0x26>
     fb8:	00 00       	nop
     fba:	08 95       	ret
     fbc:	80 e3       	ldi	r24, 0x30	; 48
     fbe:	0e 94 72 07 	call	0xee4	; 0xee4 <LCD_12864_send_command>
     fc2:	8f ec       	ldi	r24, 0xCF	; 207
     fc4:	97 e0       	ldi	r25, 0x07	; 7
     fc6:	01 97       	sbiw	r24, 0x01	; 1
     fc8:	f1 f7       	brne	.-4      	; 0xfc6 <LCD_12864_GrapnicMode+0x34>
     fca:	00 c0       	rjmp	.+0      	; 0xfcc <LCD_12864_GrapnicMode+0x3a>
     fcc:	00 00       	nop
     fce:	08 95       	ret

00000fd0 <LCD_12864_Draw_bitmap>:
     fd0:	8f 92       	push	r8
     fd2:	9f 92       	push	r9
     fd4:	af 92       	push	r10
     fd6:	bf 92       	push	r11
     fd8:	df 92       	push	r13
     fda:	ef 92       	push	r14
     fdc:	ff 92       	push	r15
     fde:	0f 93       	push	r16
     fe0:	1f 93       	push	r17
     fe2:	cf 93       	push	r28
     fe4:	df 93       	push	r29
     fe6:	7c 01       	movw	r14, r24
     fe8:	d1 2c       	mov	r13, r1
     fea:	31 c1       	rjmp	.+610    	; 0x124e <LCD_12864_Draw_bitmap+0x27e>
     fec:	8f e1       	ldi	r24, 0x1F	; 31
     fee:	8d 15       	cp	r24, r13
     ff0:	48 f0       	brcs	.+18     	; 0x1004 <LCD_12864_Draw_bitmap+0x34>
     ff2:	8d 2d       	mov	r24, r13
     ff4:	80 68       	ori	r24, 0x80	; 128
     ff6:	0e 94 72 07 	call	0xee4	; 0xee4 <LCD_12864_send_command>
     ffa:	80 2f       	mov	r24, r16
     ffc:	80 68       	ori	r24, 0x80	; 128
     ffe:	0e 94 72 07 	call	0xee4	; 0xee4 <LCD_12864_send_command>
    1002:	09 c0       	rjmp	.+18     	; 0x1016 <LCD_12864_Draw_bitmap+0x46>
    1004:	80 ee       	ldi	r24, 0xE0	; 224
    1006:	8d 0d       	add	r24, r13
    1008:	80 68       	ori	r24, 0x80	; 128
    100a:	0e 94 72 07 	call	0xee4	; 0xee4 <LCD_12864_send_command>
    100e:	80 2f       	mov	r24, r16
    1010:	88 68       	ori	r24, 0x88	; 136
    1012:	0e 94 72 07 	call	0xee4	; 0xee4 <LCD_12864_send_command>
    1016:	cd 2d       	mov	r28, r13
    1018:	c6 95       	lsr	r28
    101a:	c6 95       	lsr	r28
    101c:	c6 95       	lsr	r28
    101e:	d0 e0       	ldi	r29, 0x00	; 0
    1020:	cc 0f       	add	r28, r28
    1022:	dd 1f       	adc	r29, r29
    1024:	cc 0f       	add	r28, r28
    1026:	dd 1f       	adc	r29, r29
    1028:	cc 0f       	add	r28, r28
    102a:	dd 1f       	adc	r29, r29
    102c:	c0 0f       	add	r28, r16
    102e:	d1 1d       	adc	r29, r1
    1030:	c2 95       	swap	r28
    1032:	d2 95       	swap	r29
    1034:	d0 7f       	andi	r29, 0xF0	; 240
    1036:	dc 27       	eor	r29, r28
    1038:	c0 7f       	andi	r28, 0xF0	; 240
    103a:	dc 27       	eor	r29, r28
    103c:	ce 0d       	add	r28, r14
    103e:	df 1d       	adc	r29, r15
    1040:	88 80       	ld	r8, Y
    1042:	91 2c       	mov	r9, r1
    1044:	1d 2d       	mov	r17, r13
    1046:	17 70       	andi	r17, 0x07	; 7
    1048:	01 2e       	mov	r0, r17
    104a:	02 c0       	rjmp	.+4      	; 0x1050 <LCD_12864_Draw_bitmap+0x80>
    104c:	95 94       	asr	r9
    104e:	87 94       	ror	r8
    1050:	0a 94       	dec	r0
    1052:	e2 f7       	brpl	.-8      	; 0x104c <LCD_12864_Draw_bitmap+0x7c>
    1054:	96 94       	lsr	r9
    1056:	98 2c       	mov	r9, r8
    1058:	88 24       	eor	r8, r8
    105a:	97 94       	ror	r9
    105c:	87 94       	ror	r8
    105e:	a9 80       	ldd	r10, Y+1	; 0x01
    1060:	b1 2c       	mov	r11, r1
    1062:	01 2e       	mov	r0, r17
    1064:	02 c0       	rjmp	.+4      	; 0x106a <LCD_12864_Draw_bitmap+0x9a>
    1066:	b5 94       	asr	r11
    1068:	a7 94       	ror	r10
    106a:	0a 94       	dec	r0
    106c:	e2 f7       	brpl	.-8      	; 0x1066 <LCD_12864_Draw_bitmap+0x96>
    106e:	81 e0       	ldi	r24, 0x01	; 1
    1070:	a8 22       	and	r10, r24
    1072:	bb 24       	eor	r11, r11
    1074:	00 24       	eor	r0, r0
    1076:	b6 94       	lsr	r11
    1078:	a7 94       	ror	r10
    107a:	07 94       	ror	r0
    107c:	b6 94       	lsr	r11
    107e:	a7 94       	ror	r10
    1080:	07 94       	ror	r0
    1082:	ba 2c       	mov	r11, r10
    1084:	a0 2c       	mov	r10, r0
    1086:	aa 81       	ldd	r26, Y+2	; 0x02
    1088:	b0 e0       	ldi	r27, 0x00	; 0
    108a:	01 2e       	mov	r0, r17
    108c:	02 c0       	rjmp	.+4      	; 0x1092 <LCD_12864_Draw_bitmap+0xc2>
    108e:	b5 95       	asr	r27
    1090:	a7 95       	ror	r26
    1092:	0a 94       	dec	r0
    1094:	e2 f7       	brpl	.-8      	; 0x108e <LCD_12864_Draw_bitmap+0xbe>
    1096:	a1 70       	andi	r26, 0x01	; 1
    1098:	bb 27       	eor	r27, r27
    109a:	aa 0f       	add	r26, r26
    109c:	bb 1f       	adc	r27, r27
    109e:	a2 95       	swap	r26
    10a0:	b2 95       	swap	r27
    10a2:	b0 7f       	andi	r27, 0xF0	; 240
    10a4:	ba 27       	eor	r27, r26
    10a6:	a0 7f       	andi	r26, 0xF0	; 240
    10a8:	ba 27       	eor	r27, r26
    10aa:	eb 81       	ldd	r30, Y+3	; 0x03
    10ac:	f0 e0       	ldi	r31, 0x00	; 0
    10ae:	01 2e       	mov	r0, r17
    10b0:	02 c0       	rjmp	.+4      	; 0x10b6 <LCD_12864_Draw_bitmap+0xe6>
    10b2:	f5 95       	asr	r31
    10b4:	e7 95       	ror	r30
    10b6:	0a 94       	dec	r0
    10b8:	e2 f7       	brpl	.-8      	; 0x10b2 <LCD_12864_Draw_bitmap+0xe2>
    10ba:	e1 70       	andi	r30, 0x01	; 1
    10bc:	ff 27       	eor	r31, r31
    10be:	e2 95       	swap	r30
    10c0:	f2 95       	swap	r31
    10c2:	f0 7f       	andi	r31, 0xF0	; 240
    10c4:	fe 27       	eor	r31, r30
    10c6:	e0 7f       	andi	r30, 0xF0	; 240
    10c8:	fe 27       	eor	r31, r30
    10ca:	6c 81       	ldd	r22, Y+4	; 0x04
    10cc:	70 e0       	ldi	r23, 0x00	; 0
    10ce:	01 2e       	mov	r0, r17
    10d0:	02 c0       	rjmp	.+4      	; 0x10d6 <LCD_12864_Draw_bitmap+0x106>
    10d2:	75 95       	asr	r23
    10d4:	67 95       	ror	r22
    10d6:	0a 94       	dec	r0
    10d8:	e2 f7       	brpl	.-8      	; 0x10d2 <LCD_12864_Draw_bitmap+0x102>
    10da:	61 70       	andi	r22, 0x01	; 1
    10dc:	77 27       	eor	r23, r23
    10de:	66 0f       	add	r22, r22
    10e0:	77 1f       	adc	r23, r23
    10e2:	66 0f       	add	r22, r22
    10e4:	77 1f       	adc	r23, r23
    10e6:	66 0f       	add	r22, r22
    10e8:	77 1f       	adc	r23, r23
    10ea:	4d 81       	ldd	r20, Y+5	; 0x05
    10ec:	50 e0       	ldi	r21, 0x00	; 0
    10ee:	01 2e       	mov	r0, r17
    10f0:	02 c0       	rjmp	.+4      	; 0x10f6 <LCD_12864_Draw_bitmap+0x126>
    10f2:	55 95       	asr	r21
    10f4:	47 95       	ror	r20
    10f6:	0a 94       	dec	r0
    10f8:	e2 f7       	brpl	.-8      	; 0x10f2 <LCD_12864_Draw_bitmap+0x122>
    10fa:	41 70       	andi	r20, 0x01	; 1
    10fc:	55 27       	eor	r21, r21
    10fe:	44 0f       	add	r20, r20
    1100:	55 1f       	adc	r21, r21
    1102:	44 0f       	add	r20, r20
    1104:	55 1f       	adc	r21, r21
    1106:	2e 81       	ldd	r18, Y+6	; 0x06
    1108:	30 e0       	ldi	r19, 0x00	; 0
    110a:	01 2e       	mov	r0, r17
    110c:	02 c0       	rjmp	.+4      	; 0x1112 <LCD_12864_Draw_bitmap+0x142>
    110e:	35 95       	asr	r19
    1110:	27 95       	ror	r18
    1112:	0a 94       	dec	r0
    1114:	e2 f7       	brpl	.-8      	; 0x110e <LCD_12864_Draw_bitmap+0x13e>
    1116:	21 70       	andi	r18, 0x01	; 1
    1118:	33 27       	eor	r19, r19
    111a:	22 0f       	add	r18, r18
    111c:	33 1f       	adc	r19, r19
    111e:	8f 81       	ldd	r24, Y+7	; 0x07
    1120:	90 e0       	ldi	r25, 0x00	; 0
    1122:	01 2e       	mov	r0, r17
    1124:	02 c0       	rjmp	.+4      	; 0x112a <LCD_12864_Draw_bitmap+0x15a>
    1126:	95 95       	asr	r25
    1128:	87 95       	ror	r24
    112a:	0a 94       	dec	r0
    112c:	e2 f7       	brpl	.-8      	; 0x1126 <LCD_12864_Draw_bitmap+0x156>
    112e:	a8 28       	or	r10, r8
    1130:	aa 29       	or	r26, r10
    1132:	ea 2b       	or	r30, r26
    1134:	6e 2b       	or	r22, r30
    1136:	46 2b       	or	r20, r22
    1138:	24 2b       	or	r18, r20
    113a:	81 70       	andi	r24, 0x01	; 1
    113c:	82 2b       	or	r24, r18
    113e:	0e 94 1b 07 	call	0xe36	; 0xe36 <LCD_12864_send_data>
    1142:	88 84       	ldd	r8, Y+8	; 0x08
    1144:	91 2c       	mov	r9, r1
    1146:	01 2e       	mov	r0, r17
    1148:	02 c0       	rjmp	.+4      	; 0x114e <LCD_12864_Draw_bitmap+0x17e>
    114a:	95 94       	asr	r9
    114c:	87 94       	ror	r8
    114e:	0a 94       	dec	r0
    1150:	e2 f7       	brpl	.-8      	; 0x114a <LCD_12864_Draw_bitmap+0x17a>
    1152:	96 94       	lsr	r9
    1154:	98 2c       	mov	r9, r8
    1156:	88 24       	eor	r8, r8
    1158:	97 94       	ror	r9
    115a:	87 94       	ror	r8
    115c:	a9 84       	ldd	r10, Y+9	; 0x09
    115e:	b1 2c       	mov	r11, r1
    1160:	01 2e       	mov	r0, r17
    1162:	02 c0       	rjmp	.+4      	; 0x1168 <LCD_12864_Draw_bitmap+0x198>
    1164:	b5 94       	asr	r11
    1166:	a7 94       	ror	r10
    1168:	0a 94       	dec	r0
    116a:	e2 f7       	brpl	.-8      	; 0x1164 <LCD_12864_Draw_bitmap+0x194>
    116c:	81 e0       	ldi	r24, 0x01	; 1
    116e:	a8 22       	and	r10, r24
    1170:	bb 24       	eor	r11, r11
    1172:	00 24       	eor	r0, r0
    1174:	b6 94       	lsr	r11
    1176:	a7 94       	ror	r10
    1178:	07 94       	ror	r0
    117a:	b6 94       	lsr	r11
    117c:	a7 94       	ror	r10
    117e:	07 94       	ror	r0
    1180:	ba 2c       	mov	r11, r10
    1182:	a0 2c       	mov	r10, r0
    1184:	aa 85       	ldd	r26, Y+10	; 0x0a
    1186:	b0 e0       	ldi	r27, 0x00	; 0
    1188:	01 2e       	mov	r0, r17
    118a:	02 c0       	rjmp	.+4      	; 0x1190 <LCD_12864_Draw_bitmap+0x1c0>
    118c:	b5 95       	asr	r27
    118e:	a7 95       	ror	r26
    1190:	0a 94       	dec	r0
    1192:	e2 f7       	brpl	.-8      	; 0x118c <LCD_12864_Draw_bitmap+0x1bc>
    1194:	a1 70       	andi	r26, 0x01	; 1
    1196:	bb 27       	eor	r27, r27
    1198:	aa 0f       	add	r26, r26
    119a:	bb 1f       	adc	r27, r27
    119c:	a2 95       	swap	r26
    119e:	b2 95       	swap	r27
    11a0:	b0 7f       	andi	r27, 0xF0	; 240
    11a2:	ba 27       	eor	r27, r26
    11a4:	a0 7f       	andi	r26, 0xF0	; 240
    11a6:	ba 27       	eor	r27, r26
    11a8:	eb 85       	ldd	r30, Y+11	; 0x0b
    11aa:	f0 e0       	ldi	r31, 0x00	; 0
    11ac:	01 2e       	mov	r0, r17
    11ae:	02 c0       	rjmp	.+4      	; 0x11b4 <LCD_12864_Draw_bitmap+0x1e4>
    11b0:	f5 95       	asr	r31
    11b2:	e7 95       	ror	r30
    11b4:	0a 94       	dec	r0
    11b6:	e2 f7       	brpl	.-8      	; 0x11b0 <LCD_12864_Draw_bitmap+0x1e0>
    11b8:	e1 70       	andi	r30, 0x01	; 1
    11ba:	ff 27       	eor	r31, r31
    11bc:	e2 95       	swap	r30
    11be:	f2 95       	swap	r31
    11c0:	f0 7f       	andi	r31, 0xF0	; 240
    11c2:	fe 27       	eor	r31, r30
    11c4:	e0 7f       	andi	r30, 0xF0	; 240
    11c6:	fe 27       	eor	r31, r30
    11c8:	6c 85       	ldd	r22, Y+12	; 0x0c
    11ca:	70 e0       	ldi	r23, 0x00	; 0
    11cc:	01 2e       	mov	r0, r17
    11ce:	02 c0       	rjmp	.+4      	; 0x11d4 <LCD_12864_Draw_bitmap+0x204>
    11d0:	75 95       	asr	r23
    11d2:	67 95       	ror	r22
    11d4:	0a 94       	dec	r0
    11d6:	e2 f7       	brpl	.-8      	; 0x11d0 <LCD_12864_Draw_bitmap+0x200>
    11d8:	61 70       	andi	r22, 0x01	; 1
    11da:	77 27       	eor	r23, r23
    11dc:	66 0f       	add	r22, r22
    11de:	77 1f       	adc	r23, r23
    11e0:	66 0f       	add	r22, r22
    11e2:	77 1f       	adc	r23, r23
    11e4:	66 0f       	add	r22, r22
    11e6:	77 1f       	adc	r23, r23
    11e8:	4d 85       	ldd	r20, Y+13	; 0x0d
    11ea:	50 e0       	ldi	r21, 0x00	; 0
    11ec:	01 2e       	mov	r0, r17
    11ee:	02 c0       	rjmp	.+4      	; 0x11f4 <LCD_12864_Draw_bitmap+0x224>
    11f0:	55 95       	asr	r21
    11f2:	47 95       	ror	r20
    11f4:	0a 94       	dec	r0
    11f6:	e2 f7       	brpl	.-8      	; 0x11f0 <LCD_12864_Draw_bitmap+0x220>
    11f8:	41 70       	andi	r20, 0x01	; 1
    11fa:	55 27       	eor	r21, r21
    11fc:	44 0f       	add	r20, r20
    11fe:	55 1f       	adc	r21, r21
    1200:	44 0f       	add	r20, r20
    1202:	55 1f       	adc	r21, r21
    1204:	2e 85       	ldd	r18, Y+14	; 0x0e
    1206:	30 e0       	ldi	r19, 0x00	; 0
    1208:	01 2e       	mov	r0, r17
    120a:	02 c0       	rjmp	.+4      	; 0x1210 <LCD_12864_Draw_bitmap+0x240>
    120c:	35 95       	asr	r19
    120e:	27 95       	ror	r18
    1210:	0a 94       	dec	r0
    1212:	e2 f7       	brpl	.-8      	; 0x120c <LCD_12864_Draw_bitmap+0x23c>
    1214:	21 70       	andi	r18, 0x01	; 1
    1216:	33 27       	eor	r19, r19
    1218:	22 0f       	add	r18, r18
    121a:	33 1f       	adc	r19, r19
    121c:	cf 85       	ldd	r28, Y+15	; 0x0f
    121e:	d0 e0       	ldi	r29, 0x00	; 0
    1220:	02 c0       	rjmp	.+4      	; 0x1226 <LCD_12864_Draw_bitmap+0x256>
    1222:	d5 95       	asr	r29
    1224:	c7 95       	ror	r28
    1226:	1a 95       	dec	r17
    1228:	e2 f7       	brpl	.-8      	; 0x1222 <LCD_12864_Draw_bitmap+0x252>
    122a:	88 2d       	mov	r24, r8
    122c:	8a 29       	or	r24, r10
    122e:	8a 2b       	or	r24, r26
    1230:	8e 2b       	or	r24, r30
    1232:	86 2b       	or	r24, r22
    1234:	84 2b       	or	r24, r20
    1236:	82 2b       	or	r24, r18
    1238:	c1 70       	andi	r28, 0x01	; 1
    123a:	8c 2b       	or	r24, r28
    123c:	0e 94 1b 07 	call	0xe36	; 0xe36 <LCD_12864_send_data>
    1240:	0f 5f       	subi	r16, 0xFF	; 255
    1242:	01 c0       	rjmp	.+2      	; 0x1246 <LCD_12864_Draw_bitmap+0x276>
    1244:	00 e0       	ldi	r16, 0x00	; 0
    1246:	08 30       	cpi	r16, 0x08	; 8
    1248:	08 f4       	brcc	.+2      	; 0x124c <LCD_12864_Draw_bitmap+0x27c>
    124a:	d0 ce       	rjmp	.-608    	; 0xfec <LCD_12864_Draw_bitmap+0x1c>
    124c:	d3 94       	inc	r13
    124e:	8f e3       	ldi	r24, 0x3F	; 63
    1250:	8d 15       	cp	r24, r13
    1252:	c0 f7       	brcc	.-16     	; 0x1244 <LCD_12864_Draw_bitmap+0x274>
    1254:	df 91       	pop	r29
    1256:	cf 91       	pop	r28
    1258:	1f 91       	pop	r17
    125a:	0f 91       	pop	r16
    125c:	ff 90       	pop	r15
    125e:	ef 90       	pop	r14
    1260:	df 90       	pop	r13
    1262:	bf 90       	pop	r11
    1264:	af 90       	pop	r10
    1266:	9f 90       	pop	r9
    1268:	8f 90       	pop	r8
    126a:	08 95       	ret

0000126c <clear_LCD_12864>:
    126c:	81 e0       	ldi	r24, 0x01	; 1
    126e:	0e 94 72 07 	call	0xee4	; 0xee4 <LCD_12864_send_command>
    1272:	8f e1       	ldi	r24, 0x1F	; 31
    1274:	9e e4       	ldi	r25, 0x4E	; 78
    1276:	01 97       	sbiw	r24, 0x01	; 1
    1278:	f1 f7       	brne	.-4      	; 0x1276 <clear_LCD_12864+0xa>
    127a:	00 c0       	rjmp	.+0      	; 0x127c <clear_LCD_12864+0x10>
    127c:	00 00       	nop
    127e:	08 95       	ret

00001280 <LCD_12864_ini>:
    1280:	2f ef       	ldi	r18, 0xFF	; 255
    1282:	89 ef       	ldi	r24, 0xF9	; 249
    1284:	90 e0       	ldi	r25, 0x00	; 0
    1286:	21 50       	subi	r18, 0x01	; 1
    1288:	80 40       	sbci	r24, 0x00	; 0
    128a:	90 40       	sbci	r25, 0x00	; 0
    128c:	e1 f7       	brne	.-8      	; 0x1286 <LCD_12864_ini+0x6>
    128e:	00 c0       	rjmp	.+0      	; 0x1290 <LCD_12864_ini+0x10>
    1290:	00 00       	nop
    1292:	8c e0       	ldi	r24, 0x0C	; 12
    1294:	0e 94 72 07 	call	0xee4	; 0xee4 <LCD_12864_send_command>
    1298:	87 ec       	ldi	r24, 0xC7	; 199
    129a:	90 e0       	ldi	r25, 0x00	; 0
    129c:	01 97       	sbiw	r24, 0x01	; 1
    129e:	f1 f7       	brne	.-4      	; 0x129c <LCD_12864_ini+0x1c>
    12a0:	00 c0       	rjmp	.+0      	; 0x12a2 <LCD_12864_ini+0x22>
    12a2:	00 00       	nop
    12a4:	0e 94 36 09 	call	0x126c	; 0x126c <clear_LCD_12864>
    12a8:	86 e0       	ldi	r24, 0x06	; 6
    12aa:	0e 94 72 07 	call	0xee4	; 0xee4 <LCD_12864_send_command>
    12ae:	8f e1       	ldi	r24, 0x1F	; 31
    12b0:	9e e4       	ldi	r25, 0x4E	; 78
    12b2:	01 97       	sbiw	r24, 0x01	; 1
    12b4:	f1 f7       	brne	.-4      	; 0x12b2 <LCD_12864_ini+0x32>
    12b6:	00 c0       	rjmp	.+0      	; 0x12b8 <LCD_12864_ini+0x38>
    12b8:	00 00       	nop
    12ba:	08 95       	ret

000012bc <LCD_12864_print_symbol>:
    12bc:	20 e0       	ldi	r18, 0x00	; 0
    12be:	30 e0       	ldi	r19, 0x00	; 0
    12c0:	2a c0       	rjmp	.+84     	; 0x1316 <LCD_12864_print_symbol+0x5a>
    12c2:	44 23       	and	r20, r20
    12c4:	a1 f0       	breq	.+40     	; 0x12ee <LCD_12864_print_symbol+0x32>
    12c6:	fb 01       	movw	r30, r22
    12c8:	ee 0f       	add	r30, r30
    12ca:	ff 1f       	adc	r31, r31
    12cc:	e6 0f       	add	r30, r22
    12ce:	f7 1f       	adc	r31, r23
    12d0:	ee 0f       	add	r30, r30
    12d2:	ff 1f       	adc	r31, r31
    12d4:	e2 0f       	add	r30, r18
    12d6:	f3 1f       	adc	r31, r19
    12d8:	e0 59       	subi	r30, 0x90	; 144
    12da:	fc 4f       	sbci	r31, 0xFC	; 252
    12dc:	54 91       	lpm	r21, Z
    12de:	f9 01       	movw	r30, r18
    12e0:	e8 0f       	add	r30, r24
    12e2:	f9 1f       	adc	r31, r25
    12e4:	e5 55       	subi	r30, 0x55	; 85
    12e6:	fc 4f       	sbci	r31, 0xFC	; 252
    12e8:	50 95       	com	r21
    12ea:	50 83       	st	Z, r21
    12ec:	12 c0       	rjmp	.+36     	; 0x1312 <LCD_12864_print_symbol+0x56>
    12ee:	fb 01       	movw	r30, r22
    12f0:	ee 0f       	add	r30, r30
    12f2:	ff 1f       	adc	r31, r31
    12f4:	e6 0f       	add	r30, r22
    12f6:	f7 1f       	adc	r31, r23
    12f8:	ee 0f       	add	r30, r30
    12fa:	ff 1f       	adc	r31, r31
    12fc:	e2 0f       	add	r30, r18
    12fe:	f3 1f       	adc	r31, r19
    1300:	e0 59       	subi	r30, 0x90	; 144
    1302:	fc 4f       	sbci	r31, 0xFC	; 252
    1304:	54 91       	lpm	r21, Z
    1306:	fc 01       	movw	r30, r24
    1308:	e2 0f       	add	r30, r18
    130a:	f3 1f       	adc	r31, r19
    130c:	e5 55       	subi	r30, 0x55	; 85
    130e:	fc 4f       	sbci	r31, 0xFC	; 252
    1310:	50 83       	st	Z, r21
    1312:	2f 5f       	subi	r18, 0xFF	; 255
    1314:	3f 4f       	sbci	r19, 0xFF	; 255
    1316:	27 30       	cpi	r18, 0x07	; 7
    1318:	31 05       	cpc	r19, r1
    131a:	9c f2       	brlt	.-90     	; 0x12c2 <LCD_12864_print_symbol+0x6>
    131c:	08 95       	ret

0000131e <LCD_12864_print_symbol_4_6>:
    131e:	20 e0       	ldi	r18, 0x00	; 0
    1320:	30 e0       	ldi	r19, 0x00	; 0
    1322:	26 c0       	rjmp	.+76     	; 0x1370 <LCD_12864_print_symbol_4_6+0x52>
    1324:	44 23       	and	r20, r20
    1326:	91 f0       	breq	.+36     	; 0x134c <LCD_12864_print_symbol_4_6+0x2e>
    1328:	fb 01       	movw	r30, r22
    132a:	ee 0f       	add	r30, r30
    132c:	ff 1f       	adc	r31, r31
    132e:	ee 0f       	add	r30, r30
    1330:	ff 1f       	adc	r31, r31
    1332:	e2 0f       	add	r30, r18
    1334:	f3 1f       	adc	r31, r19
    1336:	ec 5b       	subi	r30, 0xBC	; 188
    1338:	fc 4f       	sbci	r31, 0xFC	; 252
    133a:	54 91       	lpm	r21, Z
    133c:	f9 01       	movw	r30, r18
    133e:	e8 0f       	add	r30, r24
    1340:	f9 1f       	adc	r31, r25
    1342:	e5 55       	subi	r30, 0x55	; 85
    1344:	fc 4f       	sbci	r31, 0xFC	; 252
    1346:	50 95       	com	r21
    1348:	50 83       	st	Z, r21
    134a:	10 c0       	rjmp	.+32     	; 0x136c <LCD_12864_print_symbol_4_6+0x4e>
    134c:	fb 01       	movw	r30, r22
    134e:	ee 0f       	add	r30, r30
    1350:	ff 1f       	adc	r31, r31
    1352:	ee 0f       	add	r30, r30
    1354:	ff 1f       	adc	r31, r31
    1356:	e2 0f       	add	r30, r18
    1358:	f3 1f       	adc	r31, r19
    135a:	ec 5b       	subi	r30, 0xBC	; 188
    135c:	fc 4f       	sbci	r31, 0xFC	; 252
    135e:	54 91       	lpm	r21, Z
    1360:	fc 01       	movw	r30, r24
    1362:	e2 0f       	add	r30, r18
    1364:	f3 1f       	adc	r31, r19
    1366:	e5 55       	subi	r30, 0x55	; 85
    1368:	fc 4f       	sbci	r31, 0xFC	; 252
    136a:	50 83       	st	Z, r21
    136c:	2f 5f       	subi	r18, 0xFF	; 255
    136e:	3f 4f       	sbci	r19, 0xFF	; 255
    1370:	24 30       	cpi	r18, 0x04	; 4
    1372:	31 05       	cpc	r19, r1
    1374:	bc f2       	brlt	.-82     	; 0x1324 <LCD_12864_print_symbol_4_6+0x6>
    1376:	08 95       	ret

00001378 <LCD_12864_print_symbol_11_16>:
    1378:	20 e0       	ldi	r18, 0x00	; 0
    137a:	30 e0       	ldi	r19, 0x00	; 0
    137c:	28 c0       	rjmp	.+80     	; 0x13ce <LCD_12864_print_symbol_11_16+0x56>
    137e:	44 23       	and	r20, r20
    1380:	99 f0       	breq	.+38     	; 0x13a8 <LCD_12864_print_symbol_11_16+0x30>
    1382:	56 e1       	ldi	r21, 0x16	; 22
    1384:	56 9f       	mul	r21, r22
    1386:	f0 01       	movw	r30, r0
    1388:	57 9f       	mul	r21, r23
    138a:	f0 0d       	add	r31, r0
    138c:	11 24       	eor	r1, r1
    138e:	e2 0f       	add	r30, r18
    1390:	f3 1f       	adc	r31, r19
    1392:	e8 54       	subi	r30, 0x48	; 72
    1394:	fe 4f       	sbci	r31, 0xFE	; 254
    1396:	54 91       	lpm	r21, Z
    1398:	f9 01       	movw	r30, r18
    139a:	e8 0f       	add	r30, r24
    139c:	f9 1f       	adc	r31, r25
    139e:	e5 55       	subi	r30, 0x55	; 85
    13a0:	fc 4f       	sbci	r31, 0xFC	; 252
    13a2:	50 95       	com	r21
    13a4:	50 83       	st	Z, r21
    13a6:	11 c0       	rjmp	.+34     	; 0x13ca <LCD_12864_print_symbol_11_16+0x52>
    13a8:	56 e1       	ldi	r21, 0x16	; 22
    13aa:	56 9f       	mul	r21, r22
    13ac:	f0 01       	movw	r30, r0
    13ae:	57 9f       	mul	r21, r23
    13b0:	f0 0d       	add	r31, r0
    13b2:	11 24       	eor	r1, r1
    13b4:	e2 0f       	add	r30, r18
    13b6:	f3 1f       	adc	r31, r19
    13b8:	e8 54       	subi	r30, 0x48	; 72
    13ba:	fe 4f       	sbci	r31, 0xFE	; 254
    13bc:	54 91       	lpm	r21, Z
    13be:	fc 01       	movw	r30, r24
    13c0:	e2 0f       	add	r30, r18
    13c2:	f3 1f       	adc	r31, r19
    13c4:	e5 55       	subi	r30, 0x55	; 85
    13c6:	fc 4f       	sbci	r31, 0xFC	; 252
    13c8:	50 83       	st	Z, r21
    13ca:	2f 5f       	subi	r18, 0xFF	; 255
    13cc:	3f 4f       	sbci	r19, 0xFF	; 255
    13ce:	2b 30       	cpi	r18, 0x0B	; 11
    13d0:	31 05       	cpc	r19, r1
    13d2:	ac f2       	brlt	.-86     	; 0x137e <LCD_12864_print_symbol_11_16+0x6>
    13d4:	8b 58       	subi	r24, 0x8B	; 139
    13d6:	9f 4f       	sbci	r25, 0xFF	; 255
    13d8:	2b e0       	ldi	r18, 0x0B	; 11
    13da:	30 e0       	ldi	r19, 0x00	; 0
    13dc:	28 c0       	rjmp	.+80     	; 0x142e <LCD_12864_print_symbol_11_16+0xb6>
    13de:	44 23       	and	r20, r20
    13e0:	99 f0       	breq	.+38     	; 0x1408 <LCD_12864_print_symbol_11_16+0x90>
    13e2:	56 e1       	ldi	r21, 0x16	; 22
    13e4:	56 9f       	mul	r21, r22
    13e6:	f0 01       	movw	r30, r0
    13e8:	57 9f       	mul	r21, r23
    13ea:	f0 0d       	add	r31, r0
    13ec:	11 24       	eor	r1, r1
    13ee:	e2 0f       	add	r30, r18
    13f0:	f3 1f       	adc	r31, r19
    13f2:	e8 54       	subi	r30, 0x48	; 72
    13f4:	fe 4f       	sbci	r31, 0xFE	; 254
    13f6:	54 91       	lpm	r21, Z
    13f8:	fc 01       	movw	r30, r24
    13fa:	e2 0f       	add	r30, r18
    13fc:	f3 1f       	adc	r31, r19
    13fe:	e5 55       	subi	r30, 0x55	; 85
    1400:	fc 4f       	sbci	r31, 0xFC	; 252
    1402:	50 95       	com	r21
    1404:	50 83       	st	Z, r21
    1406:	11 c0       	rjmp	.+34     	; 0x142a <LCD_12864_print_symbol_11_16+0xb2>
    1408:	56 e1       	ldi	r21, 0x16	; 22
    140a:	56 9f       	mul	r21, r22
    140c:	f0 01       	movw	r30, r0
    140e:	57 9f       	mul	r21, r23
    1410:	f0 0d       	add	r31, r0
    1412:	11 24       	eor	r1, r1
    1414:	e2 0f       	add	r30, r18
    1416:	f3 1f       	adc	r31, r19
    1418:	e8 54       	subi	r30, 0x48	; 72
    141a:	fe 4f       	sbci	r31, 0xFE	; 254
    141c:	54 91       	lpm	r21, Z
    141e:	fc 01       	movw	r30, r24
    1420:	e2 0f       	add	r30, r18
    1422:	f3 1f       	adc	r31, r19
    1424:	e5 55       	subi	r30, 0x55	; 85
    1426:	fc 4f       	sbci	r31, 0xFC	; 252
    1428:	50 83       	st	Z, r21
    142a:	2f 5f       	subi	r18, 0xFF	; 255
    142c:	3f 4f       	sbci	r19, 0xFF	; 255
    142e:	26 31       	cpi	r18, 0x16	; 22
    1430:	31 05       	cpc	r19, r1
    1432:	ac f2       	brlt	.-86     	; 0x13de <LCD_12864_print_symbol_11_16+0x66>
    1434:	08 95       	ret

00001436 <LCD_12864_print_symbol_7_11>:
    1436:	20 e0       	ldi	r18, 0x00	; 0
    1438:	30 e0       	ldi	r19, 0x00	; 0
    143a:	34 c0       	rjmp	.+104    	; 0x14a4 <LCD_12864_print_symbol_7_11+0x6e>
    143c:	44 23       	and	r20, r20
    143e:	c9 f0       	breq	.+50     	; 0x1472 <LCD_12864_print_symbol_7_11+0x3c>
    1440:	db 01       	movw	r26, r22
    1442:	aa 0f       	add	r26, r26
    1444:	bb 1f       	adc	r27, r27
    1446:	fd 01       	movw	r30, r26
    1448:	ee 0f       	add	r30, r30
    144a:	ff 1f       	adc	r31, r31
    144c:	ee 0f       	add	r30, r30
    144e:	ff 1f       	adc	r31, r31
    1450:	ee 0f       	add	r30, r30
    1452:	ff 1f       	adc	r31, r31
    1454:	ea 1b       	sub	r30, r26
    1456:	fb 0b       	sbc	r31, r27
    1458:	e2 0f       	add	r30, r18
    145a:	f3 1f       	adc	r31, r19
    145c:	e6 55       	subi	r30, 0x56	; 86
    145e:	fd 4f       	sbci	r31, 0xFD	; 253
    1460:	54 91       	lpm	r21, Z
    1462:	f9 01       	movw	r30, r18
    1464:	e8 0f       	add	r30, r24
    1466:	f9 1f       	adc	r31, r25
    1468:	e5 55       	subi	r30, 0x55	; 85
    146a:	fc 4f       	sbci	r31, 0xFC	; 252
    146c:	50 95       	com	r21
    146e:	50 83       	st	Z, r21
    1470:	17 c0       	rjmp	.+46     	; 0x14a0 <LCD_12864_print_symbol_7_11+0x6a>
    1472:	db 01       	movw	r26, r22
    1474:	aa 0f       	add	r26, r26
    1476:	bb 1f       	adc	r27, r27
    1478:	fd 01       	movw	r30, r26
    147a:	ee 0f       	add	r30, r30
    147c:	ff 1f       	adc	r31, r31
    147e:	ee 0f       	add	r30, r30
    1480:	ff 1f       	adc	r31, r31
    1482:	ee 0f       	add	r30, r30
    1484:	ff 1f       	adc	r31, r31
    1486:	ea 1b       	sub	r30, r26
    1488:	fb 0b       	sbc	r31, r27
    148a:	e2 0f       	add	r30, r18
    148c:	f3 1f       	adc	r31, r19
    148e:	e6 55       	subi	r30, 0x56	; 86
    1490:	fd 4f       	sbci	r31, 0xFD	; 253
    1492:	54 91       	lpm	r21, Z
    1494:	fc 01       	movw	r30, r24
    1496:	e2 0f       	add	r30, r18
    1498:	f3 1f       	adc	r31, r19
    149a:	e5 55       	subi	r30, 0x55	; 85
    149c:	fc 4f       	sbci	r31, 0xFC	; 252
    149e:	50 83       	st	Z, r21
    14a0:	2f 5f       	subi	r18, 0xFF	; 255
    14a2:	3f 4f       	sbci	r19, 0xFF	; 255
    14a4:	27 30       	cpi	r18, 0x07	; 7
    14a6:	31 05       	cpc	r19, r1
    14a8:	4c f2       	brlt	.-110    	; 0x143c <LCD_12864_print_symbol_7_11+0x6>
    14aa:	87 58       	subi	r24, 0x87	; 135
    14ac:	9f 4f       	sbci	r25, 0xFF	; 255
    14ae:	27 e0       	ldi	r18, 0x07	; 7
    14b0:	30 e0       	ldi	r19, 0x00	; 0
    14b2:	34 c0       	rjmp	.+104    	; 0x151c <LCD_12864_print_symbol_7_11+0xe6>
    14b4:	44 23       	and	r20, r20
    14b6:	c9 f0       	breq	.+50     	; 0x14ea <LCD_12864_print_symbol_7_11+0xb4>
    14b8:	db 01       	movw	r26, r22
    14ba:	aa 0f       	add	r26, r26
    14bc:	bb 1f       	adc	r27, r27
    14be:	fd 01       	movw	r30, r26
    14c0:	ee 0f       	add	r30, r30
    14c2:	ff 1f       	adc	r31, r31
    14c4:	ee 0f       	add	r30, r30
    14c6:	ff 1f       	adc	r31, r31
    14c8:	ee 0f       	add	r30, r30
    14ca:	ff 1f       	adc	r31, r31
    14cc:	ea 1b       	sub	r30, r26
    14ce:	fb 0b       	sbc	r31, r27
    14d0:	e2 0f       	add	r30, r18
    14d2:	f3 1f       	adc	r31, r19
    14d4:	e6 55       	subi	r30, 0x56	; 86
    14d6:	fd 4f       	sbci	r31, 0xFD	; 253
    14d8:	54 91       	lpm	r21, Z
    14da:	fc 01       	movw	r30, r24
    14dc:	e2 0f       	add	r30, r18
    14de:	f3 1f       	adc	r31, r19
    14e0:	e5 55       	subi	r30, 0x55	; 85
    14e2:	fc 4f       	sbci	r31, 0xFC	; 252
    14e4:	50 95       	com	r21
    14e6:	50 83       	st	Z, r21
    14e8:	17 c0       	rjmp	.+46     	; 0x1518 <LCD_12864_print_symbol_7_11+0xe2>
    14ea:	db 01       	movw	r26, r22
    14ec:	aa 0f       	add	r26, r26
    14ee:	bb 1f       	adc	r27, r27
    14f0:	fd 01       	movw	r30, r26
    14f2:	ee 0f       	add	r30, r30
    14f4:	ff 1f       	adc	r31, r31
    14f6:	ee 0f       	add	r30, r30
    14f8:	ff 1f       	adc	r31, r31
    14fa:	ee 0f       	add	r30, r30
    14fc:	ff 1f       	adc	r31, r31
    14fe:	ea 1b       	sub	r30, r26
    1500:	fb 0b       	sbc	r31, r27
    1502:	e2 0f       	add	r30, r18
    1504:	f3 1f       	adc	r31, r19
    1506:	e6 55       	subi	r30, 0x56	; 86
    1508:	fd 4f       	sbci	r31, 0xFD	; 253
    150a:	54 91       	lpm	r21, Z
    150c:	fc 01       	movw	r30, r24
    150e:	e2 0f       	add	r30, r18
    1510:	f3 1f       	adc	r31, r19
    1512:	e5 55       	subi	r30, 0x55	; 85
    1514:	fc 4f       	sbci	r31, 0xFC	; 252
    1516:	50 83       	st	Z, r21
    1518:	2f 5f       	subi	r18, 0xFF	; 255
    151a:	3f 4f       	sbci	r19, 0xFF	; 255
    151c:	2e 30       	cpi	r18, 0x0E	; 14
    151e:	31 05       	cpc	r19, r1
    1520:	4c f2       	brlt	.-110    	; 0x14b4 <LCD_12864_print_symbol_7_11+0x7e>
    1522:	08 95       	ret

00001524 <LCD_12864_Print_7_11>:
    1524:	df 92       	push	r13
    1526:	ef 92       	push	r14
    1528:	ff 92       	push	r15
    152a:	0f 93       	push	r16
    152c:	1f 93       	push	r17
    152e:	cf 93       	push	r28
    1530:	df 93       	push	r29
    1532:	d4 2e       	mov	r13, r20
    1534:	79 01       	movw	r14, r18
    1536:	8c 01       	movw	r16, r24
    1538:	20 e8       	ldi	r18, 0x80	; 128
    153a:	62 9f       	mul	r22, r18
    153c:	00 0d       	add	r16, r0
    153e:	11 1d       	adc	r17, r1
    1540:	11 24       	eor	r1, r1
    1542:	c0 e0       	ldi	r28, 0x00	; 0
    1544:	d0 e0       	ldi	r29, 0x00	; 0
    1546:	2b c0       	rjmp	.+86     	; 0x159e <LCD_12864_Print_7_11+0x7a>
    1548:	f7 01       	movw	r30, r14
    154a:	ec 0f       	add	r30, r28
    154c:	fd 1f       	adc	r31, r29
    154e:	60 81       	ld	r22, Z
    1550:	70 e0       	ldi	r23, 0x00	; 0
    1552:	dd 20       	and	r13, r13
    1554:	89 f0       	breq	.+34     	; 0x1578 <LCD_12864_Print_7_11+0x54>
    1556:	6e 32       	cpi	r22, 0x2E	; 46
    1558:	71 05       	cpc	r23, r1
    155a:	39 f0       	breq	.+14     	; 0x156a <LCD_12864_Print_7_11+0x46>
    155c:	60 53       	subi	r22, 0x30	; 48
    155e:	71 09       	sbc	r23, r1
    1560:	41 e0       	ldi	r20, 0x01	; 1
    1562:	c8 01       	movw	r24, r16
    1564:	0e 94 1b 0a 	call	0x1436	; 0x1436 <LCD_12864_print_symbol_7_11>
    1568:	17 c0       	rjmp	.+46     	; 0x1598 <LCD_12864_Print_7_11+0x74>
    156a:	41 e0       	ldi	r20, 0x01	; 1
    156c:	6a e0       	ldi	r22, 0x0A	; 10
    156e:	70 e0       	ldi	r23, 0x00	; 0
    1570:	c8 01       	movw	r24, r16
    1572:	0e 94 1b 0a 	call	0x1436	; 0x1436 <LCD_12864_print_symbol_7_11>
    1576:	10 c0       	rjmp	.+32     	; 0x1598 <LCD_12864_Print_7_11+0x74>
    1578:	6e 32       	cpi	r22, 0x2E	; 46
    157a:	71 05       	cpc	r23, r1
    157c:	39 f0       	breq	.+14     	; 0x158c <LCD_12864_Print_7_11+0x68>
    157e:	60 53       	subi	r22, 0x30	; 48
    1580:	71 09       	sbc	r23, r1
    1582:	40 e0       	ldi	r20, 0x00	; 0
    1584:	c8 01       	movw	r24, r16
    1586:	0e 94 1b 0a 	call	0x1436	; 0x1436 <LCD_12864_print_symbol_7_11>
    158a:	06 c0       	rjmp	.+12     	; 0x1598 <LCD_12864_Print_7_11+0x74>
    158c:	40 e0       	ldi	r20, 0x00	; 0
    158e:	6a e0       	ldi	r22, 0x0A	; 10
    1590:	70 e0       	ldi	r23, 0x00	; 0
    1592:	c8 01       	movw	r24, r16
    1594:	0e 94 1b 0a 	call	0x1436	; 0x1436 <LCD_12864_print_symbol_7_11>
    1598:	08 5f       	subi	r16, 0xF8	; 248
    159a:	1f 4f       	sbci	r17, 0xFF	; 255
    159c:	21 96       	adiw	r28, 0x01	; 1
    159e:	f7 01       	movw	r30, r14
    15a0:	01 90       	ld	r0, Z+
    15a2:	00 20       	and	r0, r0
    15a4:	e9 f7       	brne	.-6      	; 0x15a0 <LCD_12864_Print_7_11+0x7c>
    15a6:	31 97       	sbiw	r30, 0x01	; 1
    15a8:	ee 19       	sub	r30, r14
    15aa:	ff 09       	sbc	r31, r15
    15ac:	ce 17       	cp	r28, r30
    15ae:	df 07       	cpc	r29, r31
    15b0:	58 f2       	brcs	.-106    	; 0x1548 <LCD_12864_Print_7_11+0x24>
    15b2:	df 91       	pop	r29
    15b4:	cf 91       	pop	r28
    15b6:	1f 91       	pop	r17
    15b8:	0f 91       	pop	r16
    15ba:	ff 90       	pop	r15
    15bc:	ef 90       	pop	r14
    15be:	df 90       	pop	r13
    15c0:	08 95       	ret

000015c2 <LCD_12864_Print_4_6>:
    15c2:	df 92       	push	r13
    15c4:	ef 92       	push	r14
    15c6:	ff 92       	push	r15
    15c8:	0f 93       	push	r16
    15ca:	1f 93       	push	r17
    15cc:	cf 93       	push	r28
    15ce:	df 93       	push	r29
    15d0:	d4 2e       	mov	r13, r20
    15d2:	79 01       	movw	r14, r18
    15d4:	8c 01       	movw	r16, r24
    15d6:	20 e8       	ldi	r18, 0x80	; 128
    15d8:	62 9f       	mul	r22, r18
    15da:	00 0d       	add	r16, r0
    15dc:	11 1d       	adc	r17, r1
    15de:	11 24       	eor	r1, r1
    15e0:	c0 e0       	ldi	r28, 0x00	; 0
    15e2:	d0 e0       	ldi	r29, 0x00	; 0
    15e4:	2b c0       	rjmp	.+86     	; 0x163c <LCD_12864_Print_4_6+0x7a>
    15e6:	f7 01       	movw	r30, r14
    15e8:	ec 0f       	add	r30, r28
    15ea:	fd 1f       	adc	r31, r29
    15ec:	60 81       	ld	r22, Z
    15ee:	70 e0       	ldi	r23, 0x00	; 0
    15f0:	dd 20       	and	r13, r13
    15f2:	89 f0       	breq	.+34     	; 0x1616 <LCD_12864_Print_4_6+0x54>
    15f4:	6e 32       	cpi	r22, 0x2E	; 46
    15f6:	71 05       	cpc	r23, r1
    15f8:	39 f0       	breq	.+14     	; 0x1608 <LCD_12864_Print_4_6+0x46>
    15fa:	60 53       	subi	r22, 0x30	; 48
    15fc:	71 09       	sbc	r23, r1
    15fe:	41 e0       	ldi	r20, 0x01	; 1
    1600:	c8 01       	movw	r24, r16
    1602:	0e 94 8f 09 	call	0x131e	; 0x131e <LCD_12864_print_symbol_4_6>
    1606:	17 c0       	rjmp	.+46     	; 0x1636 <LCD_12864_Print_4_6+0x74>
    1608:	41 e0       	ldi	r20, 0x01	; 1
    160a:	6a e0       	ldi	r22, 0x0A	; 10
    160c:	70 e0       	ldi	r23, 0x00	; 0
    160e:	c8 01       	movw	r24, r16
    1610:	0e 94 8f 09 	call	0x131e	; 0x131e <LCD_12864_print_symbol_4_6>
    1614:	10 c0       	rjmp	.+32     	; 0x1636 <LCD_12864_Print_4_6+0x74>
    1616:	6e 32       	cpi	r22, 0x2E	; 46
    1618:	71 05       	cpc	r23, r1
    161a:	39 f0       	breq	.+14     	; 0x162a <LCD_12864_Print_4_6+0x68>
    161c:	60 53       	subi	r22, 0x30	; 48
    161e:	71 09       	sbc	r23, r1
    1620:	40 e0       	ldi	r20, 0x00	; 0
    1622:	c8 01       	movw	r24, r16
    1624:	0e 94 8f 09 	call	0x131e	; 0x131e <LCD_12864_print_symbol_4_6>
    1628:	06 c0       	rjmp	.+12     	; 0x1636 <LCD_12864_Print_4_6+0x74>
    162a:	40 e0       	ldi	r20, 0x00	; 0
    162c:	6a e0       	ldi	r22, 0x0A	; 10
    162e:	70 e0       	ldi	r23, 0x00	; 0
    1630:	c8 01       	movw	r24, r16
    1632:	0e 94 8f 09 	call	0x131e	; 0x131e <LCD_12864_print_symbol_4_6>
    1636:	0b 5f       	subi	r16, 0xFB	; 251
    1638:	1f 4f       	sbci	r17, 0xFF	; 255
    163a:	21 96       	adiw	r28, 0x01	; 1
    163c:	f7 01       	movw	r30, r14
    163e:	01 90       	ld	r0, Z+
    1640:	00 20       	and	r0, r0
    1642:	e9 f7       	brne	.-6      	; 0x163e <LCD_12864_Print_4_6+0x7c>
    1644:	31 97       	sbiw	r30, 0x01	; 1
    1646:	ee 19       	sub	r30, r14
    1648:	ff 09       	sbc	r31, r15
    164a:	ce 17       	cp	r28, r30
    164c:	df 07       	cpc	r29, r31
    164e:	58 f2       	brcs	.-106    	; 0x15e6 <LCD_12864_Print_4_6+0x24>
    1650:	df 91       	pop	r29
    1652:	cf 91       	pop	r28
    1654:	1f 91       	pop	r17
    1656:	0f 91       	pop	r16
    1658:	ff 90       	pop	r15
    165a:	ef 90       	pop	r14
    165c:	df 90       	pop	r13
    165e:	08 95       	ret

00001660 <LCD_12864_Print_11_16>:
    1660:	df 92       	push	r13
    1662:	ef 92       	push	r14
    1664:	ff 92       	push	r15
    1666:	0f 93       	push	r16
    1668:	1f 93       	push	r17
    166a:	cf 93       	push	r28
    166c:	df 93       	push	r29
    166e:	d4 2e       	mov	r13, r20
    1670:	79 01       	movw	r14, r18
    1672:	8c 01       	movw	r16, r24
    1674:	20 e8       	ldi	r18, 0x80	; 128
    1676:	62 9f       	mul	r22, r18
    1678:	00 0d       	add	r16, r0
    167a:	11 1d       	adc	r17, r1
    167c:	11 24       	eor	r1, r1
    167e:	c0 e0       	ldi	r28, 0x00	; 0
    1680:	d0 e0       	ldi	r29, 0x00	; 0
    1682:	17 c0       	rjmp	.+46     	; 0x16b2 <LCD_12864_Print_11_16+0x52>
    1684:	f7 01       	movw	r30, r14
    1686:	ec 0f       	add	r30, r28
    1688:	fd 1f       	adc	r31, r29
    168a:	60 81       	ld	r22, Z
    168c:	70 e0       	ldi	r23, 0x00	; 0
    168e:	dd 20       	and	r13, r13
    1690:	39 f0       	breq	.+14     	; 0x16a0 <LCD_12864_Print_11_16+0x40>
    1692:	60 53       	subi	r22, 0x30	; 48
    1694:	71 09       	sbc	r23, r1
    1696:	41 e0       	ldi	r20, 0x01	; 1
    1698:	c8 01       	movw	r24, r16
    169a:	0e 94 bc 09 	call	0x1378	; 0x1378 <LCD_12864_print_symbol_11_16>
    169e:	06 c0       	rjmp	.+12     	; 0x16ac <LCD_12864_Print_11_16+0x4c>
    16a0:	60 53       	subi	r22, 0x30	; 48
    16a2:	71 09       	sbc	r23, r1
    16a4:	40 e0       	ldi	r20, 0x00	; 0
    16a6:	c8 01       	movw	r24, r16
    16a8:	0e 94 bc 09 	call	0x1378	; 0x1378 <LCD_12864_print_symbol_11_16>
    16ac:	04 5f       	subi	r16, 0xF4	; 244
    16ae:	1f 4f       	sbci	r17, 0xFF	; 255
    16b0:	21 96       	adiw	r28, 0x01	; 1
    16b2:	f7 01       	movw	r30, r14
    16b4:	01 90       	ld	r0, Z+
    16b6:	00 20       	and	r0, r0
    16b8:	e9 f7       	brne	.-6      	; 0x16b4 <LCD_12864_Print_11_16+0x54>
    16ba:	31 97       	sbiw	r30, 0x01	; 1
    16bc:	ee 19       	sub	r30, r14
    16be:	ff 09       	sbc	r31, r15
    16c0:	ce 17       	cp	r28, r30
    16c2:	df 07       	cpc	r29, r31
    16c4:	f8 f2       	brcs	.-66     	; 0x1684 <LCD_12864_Print_11_16+0x24>
    16c6:	df 91       	pop	r29
    16c8:	cf 91       	pop	r28
    16ca:	1f 91       	pop	r17
    16cc:	0f 91       	pop	r16
    16ce:	ff 90       	pop	r15
    16d0:	ef 90       	pop	r14
    16d2:	df 90       	pop	r13
    16d4:	08 95       	ret

000016d6 <LCD_12864_Decode_UTF8>:
    16d6:	bf 92       	push	r11
    16d8:	cf 92       	push	r12
    16da:	df 92       	push	r13
    16dc:	ef 92       	push	r14
    16de:	ff 92       	push	r15
    16e0:	0f 93       	push	r16
    16e2:	1f 93       	push	r17
    16e4:	cf 93       	push	r28
    16e6:	df 93       	push	r29
    16e8:	b4 2e       	mov	r11, r20
    16ea:	79 01       	movw	r14, r18
    16ec:	8c 01       	movw	r16, r24
    16ee:	20 e8       	ldi	r18, 0x80	; 128
    16f0:	62 9f       	mul	r22, r18
    16f2:	00 0d       	add	r16, r0
    16f4:	11 1d       	adc	r17, r1
    16f6:	11 24       	eor	r1, r1
    16f8:	c1 2c       	mov	r12, r1
    16fa:	d1 2c       	mov	r13, r1
    16fc:	79 c0       	rjmp	.+242    	; 0x17f0 <LCD_12864_Decode_UTF8+0x11a>
    16fe:	f7 01       	movw	r30, r14
    1700:	ec 0d       	add	r30, r12
    1702:	fd 1d       	adc	r31, r13
    1704:	c0 81       	ld	r28, Z
    1706:	c0 3c       	cpi	r28, 0xC0	; 192
    1708:	d0 f4       	brcc	.+52     	; 0x173e <LCD_12864_Decode_UTF8+0x68>
    170a:	c8 3a       	cpi	r28, 0xA8	; 168
    170c:	c1 f0       	breq	.+48     	; 0x173e <LCD_12864_Decode_UTF8+0x68>
    170e:	c8 3b       	cpi	r28, 0xB8	; 184
    1710:	b1 f0       	breq	.+44     	; 0x173e <LCD_12864_Decode_UTF8+0x68>
    1712:	c0 3b       	cpi	r28, 0xB0	; 176
    1714:	a1 f0       	breq	.+40     	; 0x173e <LCD_12864_Decode_UTF8+0x68>
    1716:	6c 2f       	mov	r22, r28
    1718:	70 e0       	ldi	r23, 0x00	; 0
    171a:	bb 20       	and	r11, r11
    171c:	39 f0       	breq	.+14     	; 0x172c <LCD_12864_Decode_UTF8+0x56>
    171e:	60 52       	subi	r22, 0x20	; 32
    1720:	71 09       	sbc	r23, r1
    1722:	41 e0       	ldi	r20, 0x01	; 1
    1724:	c8 01       	movw	r24, r16
    1726:	0e 94 5e 09 	call	0x12bc	; 0x12bc <LCD_12864_print_symbol>
    172a:	06 c0       	rjmp	.+12     	; 0x1738 <LCD_12864_Decode_UTF8+0x62>
    172c:	60 52       	subi	r22, 0x20	; 32
    172e:	71 09       	sbc	r23, r1
    1730:	40 e0       	ldi	r20, 0x00	; 0
    1732:	c8 01       	movw	r24, r16
    1734:	0e 94 5e 09 	call	0x12bc	; 0x12bc <LCD_12864_print_symbol>
    1738:	0a 5f       	subi	r16, 0xFA	; 250
    173a:	1f 4f       	sbci	r17, 0xFF	; 255
    173c:	56 c0       	rjmp	.+172    	; 0x17ea <LCD_12864_Decode_UTF8+0x114>
    173e:	d0 e0       	ldi	r29, 0x00	; 0
    1740:	ce 01       	movw	r24, r28
    1742:	80 5c       	subi	r24, 0xC0	; 192
    1744:	91 09       	sbc	r25, r1
    1746:	80 34       	cpi	r24, 0x40	; 64
    1748:	91 05       	cpc	r25, r1
    174a:	98 f4       	brcc	.+38     	; 0x1772 <LCD_12864_Decode_UTF8+0x9c>
    174c:	bb 20       	and	r11, r11
    174e:	41 f0       	breq	.+16     	; 0x1760 <LCD_12864_Decode_UTF8+0x8a>
    1750:	41 e0       	ldi	r20, 0x01	; 1
    1752:	be 01       	movw	r22, r28
    1754:	61 56       	subi	r22, 0x61	; 97
    1756:	71 09       	sbc	r23, r1
    1758:	c8 01       	movw	r24, r16
    175a:	0e 94 5e 09 	call	0x12bc	; 0x12bc <LCD_12864_print_symbol>
    175e:	07 c0       	rjmp	.+14     	; 0x176e <LCD_12864_Decode_UTF8+0x98>
    1760:	40 e0       	ldi	r20, 0x00	; 0
    1762:	be 01       	movw	r22, r28
    1764:	61 56       	subi	r22, 0x61	; 97
    1766:	71 09       	sbc	r23, r1
    1768:	c8 01       	movw	r24, r16
    176a:	0e 94 5e 09 	call	0x12bc	; 0x12bc <LCD_12864_print_symbol>
    176e:	0a 5f       	subi	r16, 0xFA	; 250
    1770:	1f 4f       	sbci	r17, 0xFF	; 255
    1772:	c8 3a       	cpi	r28, 0xA8	; 168
    1774:	d1 05       	cpc	r29, r1
    1776:	89 f4       	brne	.+34     	; 0x179a <LCD_12864_Decode_UTF8+0xc4>
    1778:	bb 20       	and	r11, r11
    177a:	39 f0       	breq	.+14     	; 0x178a <LCD_12864_Decode_UTF8+0xb4>
    177c:	41 e0       	ldi	r20, 0x01	; 1
    177e:	6f e9       	ldi	r22, 0x9F	; 159
    1780:	70 e0       	ldi	r23, 0x00	; 0
    1782:	c8 01       	movw	r24, r16
    1784:	0e 94 5e 09 	call	0x12bc	; 0x12bc <LCD_12864_print_symbol>
    1788:	06 c0       	rjmp	.+12     	; 0x1796 <LCD_12864_Decode_UTF8+0xc0>
    178a:	40 e0       	ldi	r20, 0x00	; 0
    178c:	6f e9       	ldi	r22, 0x9F	; 159
    178e:	70 e0       	ldi	r23, 0x00	; 0
    1790:	c8 01       	movw	r24, r16
    1792:	0e 94 5e 09 	call	0x12bc	; 0x12bc <LCD_12864_print_symbol>
    1796:	0a 5f       	subi	r16, 0xFA	; 250
    1798:	1f 4f       	sbci	r17, 0xFF	; 255
    179a:	c8 3b       	cpi	r28, 0xB8	; 184
    179c:	d1 05       	cpc	r29, r1
    179e:	89 f4       	brne	.+34     	; 0x17c2 <LCD_12864_Decode_UTF8+0xec>
    17a0:	bb 20       	and	r11, r11
    17a2:	39 f0       	breq	.+14     	; 0x17b2 <LCD_12864_Decode_UTF8+0xdc>
    17a4:	41 e0       	ldi	r20, 0x01	; 1
    17a6:	60 ea       	ldi	r22, 0xA0	; 160
    17a8:	70 e0       	ldi	r23, 0x00	; 0
    17aa:	c8 01       	movw	r24, r16
    17ac:	0e 94 5e 09 	call	0x12bc	; 0x12bc <LCD_12864_print_symbol>
    17b0:	06 c0       	rjmp	.+12     	; 0x17be <LCD_12864_Decode_UTF8+0xe8>
    17b2:	40 e0       	ldi	r20, 0x00	; 0
    17b4:	60 ea       	ldi	r22, 0xA0	; 160
    17b6:	70 e0       	ldi	r23, 0x00	; 0
    17b8:	c8 01       	movw	r24, r16
    17ba:	0e 94 5e 09 	call	0x12bc	; 0x12bc <LCD_12864_print_symbol>
    17be:	0a 5f       	subi	r16, 0xFA	; 250
    17c0:	1f 4f       	sbci	r17, 0xFF	; 255
    17c2:	c0 3b       	cpi	r28, 0xB0	; 176
    17c4:	d1 05       	cpc	r29, r1
    17c6:	89 f4       	brne	.+34     	; 0x17ea <LCD_12864_Decode_UTF8+0x114>
    17c8:	bb 20       	and	r11, r11
    17ca:	39 f0       	breq	.+14     	; 0x17da <LCD_12864_Decode_UTF8+0x104>
    17cc:	41 e0       	ldi	r20, 0x01	; 1
    17ce:	61 ea       	ldi	r22, 0xA1	; 161
    17d0:	70 e0       	ldi	r23, 0x00	; 0
    17d2:	c8 01       	movw	r24, r16
    17d4:	0e 94 5e 09 	call	0x12bc	; 0x12bc <LCD_12864_print_symbol>
    17d8:	06 c0       	rjmp	.+12     	; 0x17e6 <LCD_12864_Decode_UTF8+0x110>
    17da:	40 e0       	ldi	r20, 0x00	; 0
    17dc:	61 ea       	ldi	r22, 0xA1	; 161
    17de:	70 e0       	ldi	r23, 0x00	; 0
    17e0:	c8 01       	movw	r24, r16
    17e2:	0e 94 5e 09 	call	0x12bc	; 0x12bc <LCD_12864_print_symbol>
    17e6:	0a 5f       	subi	r16, 0xFA	; 250
    17e8:	1f 4f       	sbci	r17, 0xFF	; 255
    17ea:	8f ef       	ldi	r24, 0xFF	; 255
    17ec:	c8 1a       	sub	r12, r24
    17ee:	d8 0a       	sbc	r13, r24
    17f0:	f7 01       	movw	r30, r14
    17f2:	01 90       	ld	r0, Z+
    17f4:	00 20       	and	r0, r0
    17f6:	e9 f7       	brne	.-6      	; 0x17f2 <LCD_12864_Decode_UTF8+0x11c>
    17f8:	31 97       	sbiw	r30, 0x01	; 1
    17fa:	ee 19       	sub	r30, r14
    17fc:	ff 09       	sbc	r31, r15
    17fe:	ce 16       	cp	r12, r30
    1800:	df 06       	cpc	r13, r31
    1802:	08 f4       	brcc	.+2      	; 0x1806 <LCD_12864_Decode_UTF8+0x130>
    1804:	7c cf       	rjmp	.-264    	; 0x16fe <LCD_12864_Decode_UTF8+0x28>
    1806:	df 91       	pop	r29
    1808:	cf 91       	pop	r28
    180a:	1f 91       	pop	r17
    180c:	0f 91       	pop	r16
    180e:	ff 90       	pop	r15
    1810:	ef 90       	pop	r14
    1812:	df 90       	pop	r13
    1814:	cf 90       	pop	r12
    1816:	bf 90       	pop	r11
    1818:	08 95       	ret

0000181a <LCD_12864_Clean_Frame_buffer>:
    181a:	80 e0       	ldi	r24, 0x00	; 0
    181c:	94 e0       	ldi	r25, 0x04	; 4
    181e:	ec ea       	ldi	r30, 0xAC	; 172
    1820:	f3 e0       	ldi	r31, 0x03	; 3
    1822:	df 01       	movw	r26, r30
    1824:	9c 01       	movw	r18, r24
    1826:	1d 92       	st	X+, r1
    1828:	21 50       	subi	r18, 0x01	; 1
    182a:	30 40       	sbci	r19, 0x00	; 0
    182c:	e1 f7       	brne	.-8      	; 0x1826 <LCD_12864_Clean_Frame_buffer+0xc>
    182e:	08 95       	ret

00001830 <LCD_12864_Draw_line>:
    1830:	8f 92       	push	r8
    1832:	9f 92       	push	r9
    1834:	af 92       	push	r10
    1836:	bf 92       	push	r11
    1838:	cf 92       	push	r12
    183a:	df 92       	push	r13
    183c:	ef 92       	push	r14
    183e:	ff 92       	push	r15
    1840:	0f 93       	push	r16
    1842:	1f 93       	push	r17
    1844:	cf 93       	push	r28
    1846:	df 93       	push	r29
    1848:	c8 2f       	mov	r28, r24
    184a:	d6 2f       	mov	r29, r22
    184c:	b4 2e       	mov	r11, r20
    184e:	82 2e       	mov	r8, r18
    1850:	48 17       	cp	r20, r24
    1852:	28 f0       	brcs	.+10     	; 0x185e <LCD_12864_Draw_line+0x2e>
    1854:	c4 2e       	mov	r12, r20
    1856:	d1 2c       	mov	r13, r1
    1858:	c8 1a       	sub	r12, r24
    185a:	d1 08       	sbc	r13, r1
    185c:	04 c0       	rjmp	.+8      	; 0x1866 <LCD_12864_Draw_line+0x36>
    185e:	c8 2e       	mov	r12, r24
    1860:	d1 2c       	mov	r13, r1
    1862:	c4 1a       	sub	r12, r20
    1864:	d1 08       	sbc	r13, r1
    1866:	8d 16       	cp	r8, r29
    1868:	28 f0       	brcs	.+10     	; 0x1874 <LCD_12864_Draw_line+0x44>
    186a:	e8 2c       	mov	r14, r8
    186c:	f1 2c       	mov	r15, r1
    186e:	ed 1a       	sub	r14, r29
    1870:	f1 08       	sbc	r15, r1
    1872:	04 c0       	rjmp	.+8      	; 0x187c <LCD_12864_Draw_line+0x4c>
    1874:	ed 2e       	mov	r14, r29
    1876:	f1 2c       	mov	r15, r1
    1878:	e8 18       	sub	r14, r8
    187a:	f1 08       	sbc	r15, r1
    187c:	cb 15       	cp	r28, r11
    187e:	18 f4       	brcc	.+6      	; 0x1886 <LCD_12864_Draw_line+0x56>
    1880:	aa 24       	eor	r10, r10
    1882:	a3 94       	inc	r10
    1884:	02 c0       	rjmp	.+4      	; 0x188a <LCD_12864_Draw_line+0x5a>
    1886:	aa 24       	eor	r10, r10
    1888:	aa 94       	dec	r10
    188a:	d8 15       	cp	r29, r8
    188c:	18 f4       	brcc	.+6      	; 0x1894 <LCD_12864_Draw_line+0x64>
    188e:	99 24       	eor	r9, r9
    1890:	93 94       	inc	r9
    1892:	02 c0       	rjmp	.+4      	; 0x1898 <LCD_12864_Draw_line+0x68>
    1894:	99 24       	eor	r9, r9
    1896:	9a 94       	dec	r9
    1898:	86 01       	movw	r16, r12
    189a:	0e 19       	sub	r16, r14
    189c:	1f 09       	sbc	r17, r15
    189e:	6d 2f       	mov	r22, r29
    18a0:	8c 2f       	mov	r24, r28
    18a2:	0e 94 c6 06 	call	0xd8c	; 0xd8c <LCD_12864_Draw_pixel>
    18a6:	cb 11       	cpse	r28, r11
    18a8:	02 c0       	rjmp	.+4      	; 0x18ae <LCD_12864_Draw_line+0x7e>
    18aa:	d8 15       	cp	r29, r8
    18ac:	a1 f0       	breq	.+40     	; 0x18d6 <LCD_12864_Draw_line+0xa6>
    18ae:	c8 01       	movw	r24, r16
    18b0:	88 0f       	add	r24, r24
    18b2:	99 1f       	adc	r25, r25
    18b4:	22 27       	eor	r18, r18
    18b6:	33 27       	eor	r19, r19
    18b8:	2e 19       	sub	r18, r14
    18ba:	3f 09       	sbc	r19, r15
    18bc:	28 17       	cp	r18, r24
    18be:	39 07       	cpc	r19, r25
    18c0:	1c f4       	brge	.+6      	; 0x18c8 <LCD_12864_Draw_line+0x98>
    18c2:	0e 19       	sub	r16, r14
    18c4:	1f 09       	sbc	r17, r15
    18c6:	ca 0d       	add	r28, r10
    18c8:	8c 15       	cp	r24, r12
    18ca:	9d 05       	cpc	r25, r13
    18cc:	44 f7       	brge	.-48     	; 0x189e <LCD_12864_Draw_line+0x6e>
    18ce:	0c 0d       	add	r16, r12
    18d0:	1d 1d       	adc	r17, r13
    18d2:	d9 0d       	add	r29, r9
    18d4:	e4 cf       	rjmp	.-56     	; 0x189e <LCD_12864_Draw_line+0x6e>
    18d6:	df 91       	pop	r29
    18d8:	cf 91       	pop	r28
    18da:	1f 91       	pop	r17
    18dc:	0f 91       	pop	r16
    18de:	ff 90       	pop	r15
    18e0:	ef 90       	pop	r14
    18e2:	df 90       	pop	r13
    18e4:	cf 90       	pop	r12
    18e6:	bf 90       	pop	r11
    18e8:	af 90       	pop	r10
    18ea:	9f 90       	pop	r9
    18ec:	8f 90       	pop	r8
    18ee:	08 95       	ret

000018f0 <LCD_12864_Draw_circle>:
/*---------------------------------Пустотелая окружность-----------------------------------*/
void LCD_12864_Draw_circle(uint8_t x, uint8_t y, uint8_t radius) {
    18f0:	5f 92       	push	r5
    18f2:	6f 92       	push	r6
    18f4:	7f 92       	push	r7
    18f6:	8f 92       	push	r8
    18f8:	9f 92       	push	r9
    18fa:	af 92       	push	r10
    18fc:	bf 92       	push	r11
    18fe:	cf 92       	push	r12
    1900:	df 92       	push	r13
    1902:	ef 92       	push	r14
    1904:	ff 92       	push	r15
    1906:	0f 93       	push	r16
    1908:	1f 93       	push	r17
    190a:	cf 93       	push	r28
    190c:	df 93       	push	r29
    190e:	78 2e       	mov	r7, r24
    1910:	66 2e       	mov	r6, r22
    1912:	c4 2f       	mov	r28, r20
	/// Вывести пустотелую окружность
	/// \param x - точка центра окружности по оси "x"
	/// \param y - точка центра окружности по оси "y"
	/// \param radius - радиус окружности

	int f = 1 - (int) radius;
    1914:	04 2f       	mov	r16, r20
    1916:	10 e0       	ldi	r17, 0x00	; 0
    1918:	81 e0       	ldi	r24, 0x01	; 1
    191a:	90 e0       	ldi	r25, 0x00	; 0
    191c:	6c 01       	movw	r12, r24
    191e:	c0 1a       	sub	r12, r16
    1920:	d1 0a       	sbc	r13, r17
	int ddF_x = 1;

	int ddF_y = -2 * (int) radius;
    1922:	aa 24       	eor	r10, r10
    1924:	bb 24       	eor	r11, r11
    1926:	a0 1a       	sub	r10, r16
    1928:	b1 0a       	sbc	r11, r17
    192a:	aa 0c       	add	r10, r10
    192c:	bb 1c       	adc	r11, r11
	int x_0 = 0;

	LCD_12864_Draw_pixel(x, y + radius);
    192e:	64 2f       	mov	r22, r20
    1930:	66 0d       	add	r22, r6
    1932:	87 2d       	mov	r24, r7
    1934:	0e 94 c6 06 	call	0xd8c	; 0xd8c <LCD_12864_Draw_pixel>
	LCD_12864_Draw_pixel(x, y - radius);
    1938:	66 2d       	mov	r22, r6
    193a:	6c 1b       	sub	r22, r28
    193c:	87 2d       	mov	r24, r7
    193e:	0e 94 c6 06 	call	0xd8c	; 0xd8c <LCD_12864_Draw_pixel>
	LCD_12864_Draw_pixel(x + radius, y);
    1942:	66 2d       	mov	r22, r6
    1944:	8c 2f       	mov	r24, r28
    1946:	87 0d       	add	r24, r7
    1948:	0e 94 c6 06 	call	0xd8c	; 0xd8c <LCD_12864_Draw_pixel>
	LCD_12864_Draw_pixel(x - radius, y);
    194c:	66 2d       	mov	r22, r6
    194e:	87 2d       	mov	r24, r7
    1950:	8c 1b       	sub	r24, r28
    1952:	0e 94 c6 06 	call	0xd8c	; 0xd8c <LCD_12864_Draw_pixel>

	int f = 1 - (int) radius;
	int ddF_x = 1;

	int ddF_y = -2 * (int) radius;
	int x_0 = 0;
    1956:	c0 e0       	ldi	r28, 0x00	; 0
    1958:	d0 e0       	ldi	r29, 0x00	; 0
	/// \param x - точка центра окружности по оси "x"
	/// \param y - точка центра окружности по оси "y"
	/// \param radius - радиус окружности

	int f = 1 - (int) radius;
	int ddF_x = 1;
    195a:	88 24       	eor	r8, r8
    195c:	83 94       	inc	r8
    195e:	91 2c       	mov	r9, r1
	LCD_12864_Draw_pixel(x, y - radius);
	LCD_12864_Draw_pixel(x + radius, y);
	LCD_12864_Draw_pixel(x - radius, y);

	int y_0 = radius;
	while (x_0 < y_0) {
    1960:	3f c0       	rjmp	.+126    	; 0x19e0 <LCD_12864_Draw_circle+0xf0>
		if (f >= 0) {
    1962:	dd 20       	and	r13, r13
    1964:	3c f0       	brlt	.+14     	; 0x1974 <LCD_12864_Draw_circle+0x84>
			y_0--;
    1966:	01 50       	subi	r16, 0x01	; 1
    1968:	11 09       	sbc	r17, r1
			ddF_y += 2;
    196a:	82 e0       	ldi	r24, 0x02	; 2
    196c:	a8 0e       	add	r10, r24
    196e:	b1 1c       	adc	r11, r1
			f += ddF_y;
    1970:	ca 0c       	add	r12, r10
    1972:	db 1c       	adc	r13, r11
		}
		x_0++;
    1974:	21 96       	adiw	r28, 0x01	; 1
		ddF_x += 2;
    1976:	82 e0       	ldi	r24, 0x02	; 2
    1978:	88 0e       	add	r8, r24
    197a:	91 1c       	adc	r9, r1
		f += ddF_x;
    197c:	c8 0c       	add	r12, r8
    197e:	d9 1c       	adc	r13, r9
		LCD_12864_Draw_pixel(x + x_0, y + y_0);
    1980:	5c 2e       	mov	r5, r28
    1982:	57 0c       	add	r5, r7
    1984:	f6 2c       	mov	r15, r6
    1986:	f0 0e       	add	r15, r16
    1988:	6f 2d       	mov	r22, r15
    198a:	85 2d       	mov	r24, r5
    198c:	0e 94 c6 06 	call	0xd8c	; 0xd8c <LCD_12864_Draw_pixel>
		LCD_12864_Draw_pixel(x - x_0, y + y_0);
    1990:	e7 2c       	mov	r14, r7
    1992:	ec 1a       	sub	r14, r28
    1994:	6f 2d       	mov	r22, r15
    1996:	8e 2d       	mov	r24, r14
    1998:	0e 94 c6 06 	call	0xd8c	; 0xd8c <LCD_12864_Draw_pixel>
		LCD_12864_Draw_pixel(x + x_0, y - y_0);
    199c:	f6 2c       	mov	r15, r6
    199e:	f0 1a       	sub	r15, r16
    19a0:	6f 2d       	mov	r22, r15
    19a2:	85 2d       	mov	r24, r5
    19a4:	0e 94 c6 06 	call	0xd8c	; 0xd8c <LCD_12864_Draw_pixel>
		LCD_12864_Draw_pixel(x - x_0, y - y_0);
    19a8:	6f 2d       	mov	r22, r15
    19aa:	8e 2d       	mov	r24, r14
    19ac:	0e 94 c6 06 	call	0xd8c	; 0xd8c <LCD_12864_Draw_pixel>
		LCD_12864_Draw_pixel(x + y_0, y + x_0);
    19b0:	fc 2e       	mov	r15, r28
    19b2:	f6 0c       	add	r15, r6
    19b4:	6f 2d       	mov	r22, r15
    19b6:	e7 2c       	mov	r14, r7
    19b8:	e0 0e       	add	r14, r16
    19ba:	8e 2d       	mov	r24, r14
    19bc:	0e 94 c6 06 	call	0xd8c	; 0xd8c <LCD_12864_Draw_pixel>
		LCD_12864_Draw_pixel(x - y_0, y + x_0);
    19c0:	6f 2d       	mov	r22, r15
    19c2:	f7 2c       	mov	r15, r7
    19c4:	f0 1a       	sub	r15, r16
    19c6:	8f 2d       	mov	r24, r15
    19c8:	0e 94 c6 06 	call	0xd8c	; 0xd8c <LCD_12864_Draw_pixel>
		LCD_12864_Draw_pixel(x + y_0, y - x_0);
    19cc:	56 2c       	mov	r5, r6
    19ce:	5c 1a       	sub	r5, r28
    19d0:	65 2d       	mov	r22, r5
    19d2:	8e 2d       	mov	r24, r14
    19d4:	0e 94 c6 06 	call	0xd8c	; 0xd8c <LCD_12864_Draw_pixel>
		LCD_12864_Draw_pixel(x - y_0, y - x_0);
    19d8:	65 2d       	mov	r22, r5
    19da:	8f 2d       	mov	r24, r15
    19dc:	0e 94 c6 06 	call	0xd8c	; 0xd8c <LCD_12864_Draw_pixel>
	LCD_12864_Draw_pixel(x, y - radius);
	LCD_12864_Draw_pixel(x + radius, y);
	LCD_12864_Draw_pixel(x - radius, y);

	int y_0 = radius;
	while (x_0 < y_0) {
    19e0:	c0 17       	cp	r28, r16
    19e2:	d1 07       	cpc	r29, r17
    19e4:	0c f4       	brge	.+2      	; 0x19e8 <LCD_12864_Draw_circle+0xf8>
    19e6:	bd cf       	rjmp	.-134    	; 0x1962 <LCD_12864_Draw_circle+0x72>
		LCD_12864_Draw_pixel(x + y_0, y + x_0);
		LCD_12864_Draw_pixel(x - y_0, y + x_0);
		LCD_12864_Draw_pixel(x + y_0, y - x_0);
		LCD_12864_Draw_pixel(x - y_0, y - x_0);
	}
}
    19e8:	df 91       	pop	r29
    19ea:	cf 91       	pop	r28
    19ec:	1f 91       	pop	r17
    19ee:	0f 91       	pop	r16
    19f0:	ff 90       	pop	r15
    19f2:	ef 90       	pop	r14
    19f4:	df 90       	pop	r13
    19f6:	cf 90       	pop	r12
    19f8:	bf 90       	pop	r11
    19fa:	af 90       	pop	r10
    19fc:	9f 90       	pop	r9
    19fe:	8f 90       	pop	r8
    1a00:	7f 90       	pop	r7
    1a02:	6f 90       	pop	r6
    1a04:	5f 90       	pop	r5
    1a06:	08 95       	ret

00001a08 <LCD_12864_Draw_circle_filled>:
/*--------------------------------Закрашенная окружность-----------------------------------*/
void LCD_12864_Draw_circle_filled(int16_t x, int16_t y, int16_t radius) {
    1a08:	6f 92       	push	r6
    1a0a:	7f 92       	push	r7
    1a0c:	8f 92       	push	r8
    1a0e:	9f 92       	push	r9
    1a10:	af 92       	push	r10
    1a12:	bf 92       	push	r11
    1a14:	cf 92       	push	r12
    1a16:	df 92       	push	r13
    1a18:	ef 92       	push	r14
    1a1a:	ff 92       	push	r15
    1a1c:	0f 93       	push	r16
    1a1e:	1f 93       	push	r17
    1a20:	cf 93       	push	r28
    1a22:	df 93       	push	r29
    1a24:	18 2f       	mov	r17, r24
    1a26:	06 2f       	mov	r16, r22
    1a28:	ea 01       	movw	r28, r20
	/// Вывести закрашенную окружность
	/// \param x - точка центра окружности по оси "x"
	/// \param y - точка центра окружности по оси "y"
	/// \param radius - радиус окружности

	int16_t f = 1 - radius;
    1a2a:	81 e0       	ldi	r24, 0x01	; 1
    1a2c:	90 e0       	ldi	r25, 0x00	; 0
    1a2e:	6c 01       	movw	r12, r24
    1a30:	c4 1a       	sub	r12, r20
    1a32:	d5 0a       	sbc	r13, r21
	int16_t ddF_x = 1;
	int16_t ddF_y = -2 * radius;
    1a34:	aa 24       	eor	r10, r10
    1a36:	bb 24       	eor	r11, r11
    1a38:	a4 1a       	sub	r10, r20
    1a3a:	b5 0a       	sbc	r11, r21
    1a3c:	aa 0c       	add	r10, r10
    1a3e:	bb 1c       	adc	r11, r11
	int16_t x_0 = 0;
	int16_t y_0 = radius;

	LCD_12864_Draw_pixel(x, y + radius);
    1a40:	66 2e       	mov	r6, r22
    1a42:	71 2e       	mov	r7, r17
    1a44:	64 2f       	mov	r22, r20
    1a46:	60 0f       	add	r22, r16
    1a48:	81 2f       	mov	r24, r17
    1a4a:	0e 94 c6 06 	call	0xd8c	; 0xd8c <LCD_12864_Draw_pixel>
	LCD_12864_Draw_pixel(x, y - radius);
    1a4e:	60 2f       	mov	r22, r16
    1a50:	6c 1b       	sub	r22, r28
    1a52:	81 2f       	mov	r24, r17
    1a54:	0e 94 c6 06 	call	0xd8c	; 0xd8c <LCD_12864_Draw_pixel>
	LCD_12864_Draw_pixel(x + radius, y);
    1a58:	fc 2e       	mov	r15, r28
    1a5a:	f1 0e       	add	r15, r17
    1a5c:	60 2f       	mov	r22, r16
    1a5e:	8f 2d       	mov	r24, r15
    1a60:	0e 94 c6 06 	call	0xd8c	; 0xd8c <LCD_12864_Draw_pixel>
	LCD_12864_Draw_pixel(x - radius, y);
    1a64:	1c 1b       	sub	r17, r28
    1a66:	60 2f       	mov	r22, r16
    1a68:	81 2f       	mov	r24, r17
    1a6a:	0e 94 c6 06 	call	0xd8c	; 0xd8c <LCD_12864_Draw_pixel>
	LCD_12864_Draw_line(x - radius, y, x + radius, y);
    1a6e:	20 2f       	mov	r18, r16
    1a70:	4f 2d       	mov	r20, r15
    1a72:	60 2f       	mov	r22, r16
    1a74:	81 2f       	mov	r24, r17
    1a76:	0e 94 18 0c 	call	0x1830	; 0x1830 <LCD_12864_Draw_line>
	/// \param radius - радиус окружности

	int16_t f = 1 - radius;
	int16_t ddF_x = 1;
	int16_t ddF_y = -2 * radius;
	int16_t x_0 = 0;
    1a7a:	00 e0       	ldi	r16, 0x00	; 0
    1a7c:	10 e0       	ldi	r17, 0x00	; 0
	/// \param x - точка центра окружности по оси "x"
	/// \param y - точка центра окружности по оси "y"
	/// \param radius - радиус окружности

	int16_t f = 1 - radius;
	int16_t ddF_x = 1;
    1a7e:	88 24       	eor	r8, r8
    1a80:	83 94       	inc	r8
    1a82:	91 2c       	mov	r9, r1
	LCD_12864_Draw_pixel(x, y - radius);
	LCD_12864_Draw_pixel(x + radius, y);
	LCD_12864_Draw_pixel(x - radius, y);
	LCD_12864_Draw_line(x - radius, y, x + radius, y);

	while (x_0 < y_0) {
    1a84:	33 c0       	rjmp	.+102    	; 0x1aec <LCD_12864_Draw_circle_filled+0xe4>
		if (f >= 0) {
    1a86:	dd 20       	and	r13, r13
    1a88:	34 f0       	brlt	.+12     	; 0x1a96 <LCD_12864_Draw_circle_filled+0x8e>
			y_0--;
    1a8a:	21 97       	sbiw	r28, 0x01	; 1
			ddF_y += 2;
    1a8c:	82 e0       	ldi	r24, 0x02	; 2
    1a8e:	a8 0e       	add	r10, r24
    1a90:	b1 1c       	adc	r11, r1
			f += ddF_y;
    1a92:	ca 0c       	add	r12, r10
    1a94:	db 1c       	adc	r13, r11
		}
		x_0++;
    1a96:	0f 5f       	subi	r16, 0xFF	; 255
    1a98:	1f 4f       	sbci	r17, 0xFF	; 255
		ddF_x += 2;
    1a9a:	82 e0       	ldi	r24, 0x02	; 2
    1a9c:	88 0e       	add	r8, r24
    1a9e:	91 1c       	adc	r9, r1
		f += ddF_x;
    1aa0:	c8 0c       	add	r12, r8
    1aa2:	d9 1c       	adc	r13, r9

		LCD_12864_Draw_line(x - x_0, y + y_0, x + x_0, y + y_0);
    1aa4:	f7 2c       	mov	r15, r7
    1aa6:	f0 0e       	add	r15, r16
    1aa8:	e7 2c       	mov	r14, r7
    1aaa:	e0 1a       	sub	r14, r16
    1aac:	6c 2f       	mov	r22, r28
    1aae:	66 0d       	add	r22, r6
    1ab0:	26 2f       	mov	r18, r22
    1ab2:	4f 2d       	mov	r20, r15
    1ab4:	8e 2d       	mov	r24, r14
    1ab6:	0e 94 18 0c 	call	0x1830	; 0x1830 <LCD_12864_Draw_line>
		LCD_12864_Draw_line(x + x_0, y - y_0, x - x_0, y - y_0);
    1aba:	66 2d       	mov	r22, r6
    1abc:	6c 1b       	sub	r22, r28
    1abe:	26 2f       	mov	r18, r22
    1ac0:	4e 2d       	mov	r20, r14
    1ac2:	8f 2d       	mov	r24, r15
    1ac4:	0e 94 18 0c 	call	0x1830	; 0x1830 <LCD_12864_Draw_line>
		LCD_12864_Draw_line(x + y_0, y + x_0, x - y_0, y + x_0);
    1ac8:	66 2d       	mov	r22, r6
    1aca:	60 0f       	add	r22, r16
    1acc:	26 2f       	mov	r18, r22
    1ace:	e7 2c       	mov	r14, r7
    1ad0:	ec 1a       	sub	r14, r28
    1ad2:	4e 2d       	mov	r20, r14
    1ad4:	fc 2e       	mov	r15, r28
    1ad6:	f7 0c       	add	r15, r7
    1ad8:	8f 2d       	mov	r24, r15
    1ada:	0e 94 18 0c 	call	0x1830	; 0x1830 <LCD_12864_Draw_line>
		LCD_12864_Draw_line(x + y_0, y - x_0, x - y_0, y - x_0);
    1ade:	66 2d       	mov	r22, r6
    1ae0:	60 1b       	sub	r22, r16
    1ae2:	26 2f       	mov	r18, r22
    1ae4:	4e 2d       	mov	r20, r14
    1ae6:	8f 2d       	mov	r24, r15
    1ae8:	0e 94 18 0c 	call	0x1830	; 0x1830 <LCD_12864_Draw_line>
	LCD_12864_Draw_pixel(x, y - radius);
	LCD_12864_Draw_pixel(x + radius, y);
	LCD_12864_Draw_pixel(x - radius, y);
	LCD_12864_Draw_line(x - radius, y, x + radius, y);

	while (x_0 < y_0) {
    1aec:	0c 17       	cp	r16, r28
    1aee:	1d 07       	cpc	r17, r29
    1af0:	54 f2       	brlt	.-108    	; 0x1a86 <LCD_12864_Draw_circle_filled+0x7e>
		LCD_12864_Draw_line(x - x_0, y + y_0, x + x_0, y + y_0);
		LCD_12864_Draw_line(x + x_0, y - y_0, x - x_0, y - y_0);
		LCD_12864_Draw_line(x + y_0, y + x_0, x - y_0, y + x_0);
		LCD_12864_Draw_line(x + y_0, y - x_0, x - y_0, y - x_0);
	}
}
    1af2:	df 91       	pop	r29
    1af4:	cf 91       	pop	r28
    1af6:	1f 91       	pop	r17
    1af8:	0f 91       	pop	r16
    1afa:	ff 90       	pop	r15
    1afc:	ef 90       	pop	r14
    1afe:	df 90       	pop	r13
    1b00:	cf 90       	pop	r12
    1b02:	bf 90       	pop	r11
    1b04:	af 90       	pop	r10
    1b06:	9f 90       	pop	r9
    1b08:	8f 90       	pop	r8
    1b0a:	7f 90       	pop	r7
    1b0c:	6f 90       	pop	r6
    1b0e:	08 95       	ret

00001b10 <timer1_ini>:
extern volatile uint8_t rx_flag;

//-------------------------------------------------------------
void timer1_ini(void)//период 4сек
{
	TCCR1B |= (1<<WGM12); // устанавливаем режим СТС (сброс по совпадению)
    1b10:	e1 e8       	ldi	r30, 0x81	; 129
    1b12:	f0 e0       	ldi	r31, 0x00	; 0
    1b14:	80 81       	ld	r24, Z
    1b16:	88 60       	ori	r24, 0x08	; 8
    1b18:	80 83       	st	Z, r24
	TIMSK1 |= (1<<OCIE1A); //устанавливаем бит разрешения прерывания 1ого счетчика по совпадению с OCR1A(H и L)
    1b1a:	af e6       	ldi	r26, 0x6F	; 111
    1b1c:	b0 e0       	ldi	r27, 0x00	; 0
    1b1e:	8c 91       	ld	r24, X
    1b20:	82 60       	ori	r24, 0x02	; 2
    1b22:	8c 93       	st	X, r24
	OCR1AH = 0b01111010; //записываем в регистр число для сравнения
    1b24:	8a e7       	ldi	r24, 0x7A	; 122
    1b26:	80 93 89 00 	sts	0x0089, r24	; 0x800089 <__TEXT_REGION_LENGTH__+0x7f8089>
	OCR1AL = 0b00010010;
    1b2a:	82 e1       	ldi	r24, 0x12	; 18
    1b2c:	80 93 88 00 	sts	0x0088, r24	; 0x800088 <__TEXT_REGION_LENGTH__+0x7f8088>
	TCCR1B |= (1<<CS12)|(1<<CS10);//установим делитель 1024.
    1b30:	80 81       	ld	r24, Z
    1b32:	85 60       	ori	r24, 0x05	; 5
    1b34:	80 83       	st	Z, r24
    1b36:	08 95       	ret

00001b38 <timer0_ini>:
}
//-------------------------------------------------------------
void timer0_ini(void) // период 100мкс
{
	TCCR0B |= (1<<WGM01); // устанавливаем режим СТС (сброс по совпадению)
    1b38:	85 b5       	in	r24, 0x25	; 37
    1b3a:	82 60       	ori	r24, 0x02	; 2
    1b3c:	85 bd       	out	0x25, r24	; 37
	OCR0A = 0b01100100; //записываем в регистр число для сравнения 100
    1b3e:	84 e6       	ldi	r24, 0x64	; 100
    1b40:	87 bd       	out	0x27, r24	; 39
	TCCR0B |= (1<<CS01); //делитель 8
    1b42:	85 b5       	in	r24, 0x25	; 37
    1b44:	82 60       	ori	r24, 0x02	; 2
    1b46:	85 bd       	out	0x25, r24	; 37
	TIMSK0 |= (1<<OCIE0A); //устанавливаем бит разрешения прерывания 0-ого счетчика по совпадению с OCR0A
    1b48:	ee e6       	ldi	r30, 0x6E	; 110
    1b4a:	f0 e0       	ldi	r31, 0x00	; 0
    1b4c:	80 81       	ld	r24, Z
    1b4e:	82 60       	ori	r24, 0x02	; 2
    1b50:	80 83       	st	Z, r24
    1b52:	08 95       	ret

00001b54 <__vector_11>:
}
//-------------------------------------------------------------
ISR (TIMER1_COMPA_vect)
{
    1b54:	1f 92       	push	r1
    1b56:	0f 92       	push	r0
    1b58:	0f b6       	in	r0, 0x3f	; 63
    1b5a:	0f 92       	push	r0
    1b5c:	11 24       	eor	r1, r1
    1b5e:	2f 93       	push	r18
    1b60:	3f 93       	push	r19
    1b62:	4f 93       	push	r20
    1b64:	5f 93       	push	r21
    1b66:	6f 93       	push	r22
    1b68:	7f 93       	push	r23
    1b6a:	8f 93       	push	r24
    1b6c:	9f 93       	push	r25
    1b6e:	af 93       	push	r26
    1b70:	bf 93       	push	r27
    1b72:	cf 93       	push	r28
    1b74:	df 93       	push	r29
    1b76:	ef 93       	push	r30
    1b78:	ff 93       	push	r31
	//if((strlen(temp_street)!=0)&&(strlen(hum_street)!=0)&&(strlen(WIND_speed)!=0)&&(strlen(Rain)!=0)&&(strlen(Vbat)!=0)&&(strlen(wind_direction)!=0))
	//{
		//отправка строки по UART в формате: ул.темп./дом.темп./ул.влажность/дом.влажн./давление/осадки/заряд АКБ/скор.ветра/направл.ветра
		sprintf(DATA_TO_UART,"%s %s %s %s %s %s %s %s %s ",temp_street, temp_home, hum_street, hum_home, Press_home, Rain, Vbat, WIND_speed, wind_direction);
    1b7a:	89 e8       	ldi	r24, 0x89	; 137
    1b7c:	93 e0       	ldi	r25, 0x03	; 3
    1b7e:	9f 93       	push	r25
    1b80:	8f 93       	push	r24
    1b82:	8e e8       	ldi	r24, 0x8E	; 142
    1b84:	93 e0       	ldi	r25, 0x03	; 3
    1b86:	9f 93       	push	r25
    1b88:	8f 93       	push	r24
    1b8a:	8a e7       	ldi	r24, 0x7A	; 122
    1b8c:	93 e0       	ldi	r25, 0x03	; 3
    1b8e:	9f 93       	push	r25
    1b90:	8f 93       	push	r24
    1b92:	85 e7       	ldi	r24, 0x75	; 117
    1b94:	93 e0       	ldi	r25, 0x03	; 3
    1b96:	9f 93       	push	r25
    1b98:	8f 93       	push	r24
    1b9a:	83 e3       	ldi	r24, 0x33	; 51
    1b9c:	93 e0       	ldi	r25, 0x03	; 3
    1b9e:	9f 93       	push	r25
    1ba0:	8f 93       	push	r24
    1ba2:	88 e9       	ldi	r24, 0x98	; 152
    1ba4:	93 e0       	ldi	r25, 0x03	; 3
    1ba6:	9f 93       	push	r25
    1ba8:	8f 93       	push	r24
    1baa:	82 ea       	ldi	r24, 0xA2	; 162
    1bac:	93 e0       	ldi	r25, 0x03	; 3
    1bae:	9f 93       	push	r25
    1bb0:	8f 93       	push	r24
    1bb2:	8d e9       	ldi	r24, 0x9D	; 157
    1bb4:	93 e0       	ldi	r25, 0x03	; 3
    1bb6:	9f 93       	push	r25
    1bb8:	8f 93       	push	r24
    1bba:	87 ea       	ldi	r24, 0xA7	; 167
    1bbc:	93 e0       	ldi	r25, 0x03	; 3
    1bbe:	9f 93       	push	r25
    1bc0:	8f 93       	push	r24
    1bc2:	89 e1       	ldi	r24, 0x19	; 25
    1bc4:	91 e0       	ldi	r25, 0x01	; 1
    1bc6:	9f 93       	push	r25
    1bc8:	8f 93       	push	r24
    1bca:	c9 e3       	ldi	r28, 0x39	; 57
    1bcc:	d3 e0       	ldi	r29, 0x03	; 3
    1bce:	df 93       	push	r29
    1bd0:	cf 93       	push	r28
    1bd2:	0e 94 2e 2f 	call	0x5e5c	; 0x5e5c <sprintf>
		USART_Transmit(DATA_TO_UART);
    1bd6:	ce 01       	movw	r24, r28
    1bd8:	0e 94 cb 14 	call	0x2996	; 0x2996 <USART_Transmit>
		memset(DATA_TO_UART, 0, sizeof(int) * strlen(DATA_TO_UART));//очистка массива
    1bdc:	09 90       	ld	r0, Y+
    1bde:	00 20       	and	r0, r0
    1be0:	e9 f7       	brne	.-6      	; 0x1bdc <__vector_11+0x88>
    1be2:	21 97       	sbiw	r28, 0x01	; 1
    1be4:	c9 53       	subi	r28, 0x39	; 57
    1be6:	d3 40       	sbci	r29, 0x03	; 3
    1be8:	ae 01       	movw	r20, r28
    1bea:	44 0f       	add	r20, r20
    1bec:	55 1f       	adc	r21, r21
    1bee:	60 e0       	ldi	r22, 0x00	; 0
    1bf0:	70 e0       	ldi	r23, 0x00	; 0
    1bf2:	89 e3       	ldi	r24, 0x39	; 57
    1bf4:	93 e0       	ldi	r25, 0x03	; 3
    1bf6:	0e 94 d7 2e 	call	0x5dae	; 0x5dae <memset>
	//}
}
    1bfa:	8d b7       	in	r24, 0x3d	; 61
    1bfc:	9e b7       	in	r25, 0x3e	; 62
    1bfe:	46 96       	adiw	r24, 0x16	; 22
    1c00:	0f b6       	in	r0, 0x3f	; 63
    1c02:	f8 94       	cli
    1c04:	9e bf       	out	0x3e, r25	; 62
    1c06:	0f be       	out	0x3f, r0	; 63
    1c08:	8d bf       	out	0x3d, r24	; 61
    1c0a:	ff 91       	pop	r31
    1c0c:	ef 91       	pop	r30
    1c0e:	df 91       	pop	r29
    1c10:	cf 91       	pop	r28
    1c12:	bf 91       	pop	r27
    1c14:	af 91       	pop	r26
    1c16:	9f 91       	pop	r25
    1c18:	8f 91       	pop	r24
    1c1a:	7f 91       	pop	r23
    1c1c:	6f 91       	pop	r22
    1c1e:	5f 91       	pop	r21
    1c20:	4f 91       	pop	r20
    1c22:	3f 91       	pop	r19
    1c24:	2f 91       	pop	r18
    1c26:	0f 90       	pop	r0
    1c28:	0f be       	out	0x3f, r0	; 63
    1c2a:	0f 90       	pop	r0
    1c2c:	1f 90       	pop	r1
    1c2e:	18 95       	reti

00001c30 <__vector_14>:
//-------------------------------------------------------------
ISR (TIMER0_COMPA_vect)
{
    1c30:	1f 92       	push	r1
    1c32:	0f 92       	push	r0
    1c34:	0f b6       	in	r0, 0x3f	; 63
    1c36:	0f 92       	push	r0
    1c38:	11 24       	eor	r1, r1
    1c3a:	2f 93       	push	r18
    1c3c:	8f 93       	push	r24
    1c3e:	9f 93       	push	r25
	  static unsigned char new_state=0;
	  static unsigned char old_state=0;
	  
	  new_state = (PINB&0b11000000)>>6;
    1c40:	83 b1       	in	r24, 0x03	; 3
    1c42:	82 95       	swap	r24
    1c44:	86 95       	lsr	r24
    1c46:	86 95       	lsr	r24
    1c48:	83 70       	andi	r24, 0x03	; 3
	  
	  switch(old_state | new_state)
    1c4a:	90 91 26 03 	lds	r25, 0x0326	; 0x800326 <old_state.2603>
    1c4e:	98 2b       	or	r25, r24
    1c50:	94 30       	cpi	r25, 0x04	; 4
    1c52:	c1 f0       	breq	.+48     	; 0x1c84 <__vector_14+0x54>
    1c54:	18 f4       	brcc	.+6      	; 0x1c5c <__vector_14+0x2c>
    1c56:	91 30       	cpi	r25, 0x01	; 1
    1c58:	29 f0       	breq	.+10     	; 0x1c64 <__vector_14+0x34>
    1c5a:	23 c0       	rjmp	.+70     	; 0x1ca2 <__vector_14+0x72>
    1c5c:	9b 30       	cpi	r25, 0x0B	; 11
    1c5e:	91 f0       	breq	.+36     	; 0x1c84 <__vector_14+0x54>
    1c60:	9e 30       	cpi	r25, 0x0E	; 14
    1c62:	f9 f4       	brne	.+62     	; 0x1ca2 <__vector_14+0x72>
	  {
		  case 0x01: case 0x0e:
		  if (change_flag) add_cnt++;
    1c64:	90 91 2a 03 	lds	r25, 0x032A	; 0x80032a <change_flag>
    1c68:	99 23       	and	r25, r25
    1c6a:	31 f0       	breq	.+12     	; 0x1c78 <__vector_14+0x48>
    1c6c:	90 91 29 03 	lds	r25, 0x0329	; 0x800329 <add_cnt>
    1c70:	9f 5f       	subi	r25, 0xFF	; 255
    1c72:	90 93 29 03 	sts	0x0329, r25	; 0x800329 <add_cnt>
    1c76:	15 c0       	rjmp	.+42     	; 0x1ca2 <__vector_14+0x72>
		  else cnt++;
    1c78:	90 91 28 03 	lds	r25, 0x0328	; 0x800328 <cnt>
    1c7c:	9f 5f       	subi	r25, 0xFF	; 255
    1c7e:	90 93 28 03 	sts	0x0328, r25	; 0x800328 <cnt>
    1c82:	0f c0       	rjmp	.+30     	; 0x1ca2 <__vector_14+0x72>
		  break;
		  case 0x04: case 0x0b:
		  if (change_flag) add_cnt--;
    1c84:	90 91 2a 03 	lds	r25, 0x032A	; 0x80032a <change_flag>
    1c88:	99 23       	and	r25, r25
    1c8a:	31 f0       	breq	.+12     	; 0x1c98 <__vector_14+0x68>
    1c8c:	90 91 29 03 	lds	r25, 0x0329	; 0x800329 <add_cnt>
    1c90:	91 50       	subi	r25, 0x01	; 1
    1c92:	90 93 29 03 	sts	0x0329, r25	; 0x800329 <add_cnt>
    1c96:	05 c0       	rjmp	.+10     	; 0x1ca2 <__vector_14+0x72>
		  else cnt--;
    1c98:	90 91 28 03 	lds	r25, 0x0328	; 0x800328 <cnt>
    1c9c:	91 50       	subi	r25, 0x01	; 1
    1c9e:	90 93 28 03 	sts	0x0328, r25	; 0x800328 <cnt>
		  break;
	  }
	  old_state = new_state<<2;
    1ca2:	88 0f       	add	r24, r24
    1ca4:	88 0f       	add	r24, r24
    1ca6:	80 93 26 03 	sts	0x0326, r24	; 0x800326 <old_state.2603>
	  //ограничение диапазона cnt
	  if (cnt >= 120){cnt = 0;}
    1caa:	80 91 28 03 	lds	r24, 0x0328	; 0x800328 <cnt>
    1cae:	88 37       	cpi	r24, 0x78	; 120
    1cb0:	1c f0       	brlt	.+6      	; 0x1cb8 <__vector_14+0x88>
    1cb2:	10 92 28 03 	sts	0x0328, r1	; 0x800328 <cnt>
    1cb6:	05 c0       	rjmp	.+10     	; 0x1cc2 <__vector_14+0x92>
	  else if (cnt <= -1){cnt = 119;}
    1cb8:	88 23       	and	r24, r24
    1cba:	1c f4       	brge	.+6      	; 0x1cc2 <__vector_14+0x92>
    1cbc:	87 e7       	ldi	r24, 0x77	; 119
    1cbe:	80 93 28 03 	sts	0x0328, r24	; 0x800328 <cnt>
	  else {} 
	  //ограничение диапазона add_cnt
	  switch(cnt%7)
    1cc2:	90 91 28 03 	lds	r25, 0x0328	; 0x800328 <cnt>
    1cc6:	83 e9       	ldi	r24, 0x93	; 147
    1cc8:	98 02       	muls	r25, r24
    1cca:	81 2d       	mov	r24, r1
    1ccc:	11 24       	eor	r1, r1
    1cce:	89 0f       	add	r24, r25
    1cd0:	85 95       	asr	r24
    1cd2:	85 95       	asr	r24
    1cd4:	97 fd       	sbrc	r25, 7
    1cd6:	83 95       	inc	r24
    1cd8:	28 2f       	mov	r18, r24
    1cda:	22 0f       	add	r18, r18
    1cdc:	22 0f       	add	r18, r18
    1cde:	22 0f       	add	r18, r18
    1ce0:	28 1b       	sub	r18, r24
    1ce2:	92 1b       	sub	r25, r18
    1ce4:	92 30       	cpi	r25, 0x02	; 2
    1ce6:	41 f1       	breq	.+80     	; 0x1d38 <__vector_14+0x108>
    1ce8:	2c f4       	brge	.+10     	; 0x1cf4 <__vector_14+0xc4>
    1cea:	99 23       	and	r25, r25
    1cec:	51 f0       	breq	.+20     	; 0x1d02 <__vector_14+0xd2>
    1cee:	91 30       	cpi	r25, 0x01	; 1
    1cf0:	b1 f0       	breq	.+44     	; 0x1d1e <__vector_14+0xee>
    1cf2:	55 c0       	rjmp	.+170    	; 0x1d9e <__vector_14+0x16e>
    1cf4:	94 30       	cpi	r25, 0x04	; 4
    1cf6:	d1 f1       	breq	.+116    	; 0x1d6c <__vector_14+0x13c>
    1cf8:	64 f1       	brlt	.+88     	; 0x1d52 <__vector_14+0x122>
    1cfa:	95 30       	cpi	r25, 0x05	; 5
    1cfc:	09 f4       	brne	.+2      	; 0x1d00 <__vector_14+0xd0>
    1cfe:	43 c0       	rjmp	.+134    	; 0x1d86 <__vector_14+0x156>
    1d00:	4e c0       	rjmp	.+156    	; 0x1d9e <__vector_14+0x16e>
	  {
			case 0:	if (add_cnt >= 25){add_cnt = 0;}
    1d02:	80 91 29 03 	lds	r24, 0x0329	; 0x800329 <add_cnt>
    1d06:	89 31       	cpi	r24, 0x19	; 25
    1d08:	1c f0       	brlt	.+6      	; 0x1d10 <__vector_14+0xe0>
    1d0a:	10 92 29 03 	sts	0x0329, r1	; 0x800329 <add_cnt>
    1d0e:	47 c0       	rjmp	.+142    	; 0x1d9e <__vector_14+0x16e>
					else if (add_cnt <= -1){add_cnt = 23;}
    1d10:	88 23       	and	r24, r24
    1d12:	0c f0       	brlt	.+2      	; 0x1d16 <__vector_14+0xe6>
    1d14:	44 c0       	rjmp	.+136    	; 0x1d9e <__vector_14+0x16e>
    1d16:	87 e1       	ldi	r24, 0x17	; 23
    1d18:	80 93 29 03 	sts	0x0329, r24	; 0x800329 <add_cnt>
    1d1c:	40 c0       	rjmp	.+128    	; 0x1d9e <__vector_14+0x16e>
					else {}
					break;
			case 1: if (add_cnt >= 60){add_cnt = 0;}
    1d1e:	80 91 29 03 	lds	r24, 0x0329	; 0x800329 <add_cnt>
    1d22:	8c 33       	cpi	r24, 0x3C	; 60
    1d24:	1c f0       	brlt	.+6      	; 0x1d2c <__vector_14+0xfc>
    1d26:	10 92 29 03 	sts	0x0329, r1	; 0x800329 <add_cnt>
    1d2a:	39 c0       	rjmp	.+114    	; 0x1d9e <__vector_14+0x16e>
					else if (add_cnt <= -1){add_cnt = 59;}
    1d2c:	88 23       	and	r24, r24
    1d2e:	bc f5       	brge	.+110    	; 0x1d9e <__vector_14+0x16e>
    1d30:	8b e3       	ldi	r24, 0x3B	; 59
    1d32:	80 93 29 03 	sts	0x0329, r24	; 0x800329 <add_cnt>
    1d36:	33 c0       	rjmp	.+102    	; 0x1d9e <__vector_14+0x16e>
					else {}	
					break;
			case 2: if (add_cnt >= 8){add_cnt = 0;}
    1d38:	80 91 29 03 	lds	r24, 0x0329	; 0x800329 <add_cnt>
    1d3c:	88 30       	cpi	r24, 0x08	; 8
    1d3e:	1c f0       	brlt	.+6      	; 0x1d46 <__vector_14+0x116>
    1d40:	10 92 29 03 	sts	0x0329, r1	; 0x800329 <add_cnt>
    1d44:	2c c0       	rjmp	.+88     	; 0x1d9e <__vector_14+0x16e>
					else if (add_cnt <= -1){add_cnt = 7;}
    1d46:	88 23       	and	r24, r24
    1d48:	54 f5       	brge	.+84     	; 0x1d9e <__vector_14+0x16e>
    1d4a:	87 e0       	ldi	r24, 0x07	; 7
    1d4c:	80 93 29 03 	sts	0x0329, r24	; 0x800329 <add_cnt>
    1d50:	26 c0       	rjmp	.+76     	; 0x1d9e <__vector_14+0x16e>
					else {}	  
					break;
			case 3: if (add_cnt >= 32){add_cnt = 0;}
    1d52:	80 91 29 03 	lds	r24, 0x0329	; 0x800329 <add_cnt>
    1d56:	80 32       	cpi	r24, 0x20	; 32
    1d58:	1c f0       	brlt	.+6      	; 0x1d60 <__vector_14+0x130>
    1d5a:	10 92 29 03 	sts	0x0329, r1	; 0x800329 <add_cnt>
    1d5e:	1f c0       	rjmp	.+62     	; 0x1d9e <__vector_14+0x16e>
					else if (add_cnt <= -1){add_cnt = 31;}
    1d60:	88 23       	and	r24, r24
    1d62:	ec f4       	brge	.+58     	; 0x1d9e <__vector_14+0x16e>
    1d64:	8f e1       	ldi	r24, 0x1F	; 31
    1d66:	80 93 29 03 	sts	0x0329, r24	; 0x800329 <add_cnt>
    1d6a:	19 c0       	rjmp	.+50     	; 0x1d9e <__vector_14+0x16e>
					else {} 
					break;
			case 4: if (add_cnt >= 13){add_cnt = 0;}
    1d6c:	80 91 29 03 	lds	r24, 0x0329	; 0x800329 <add_cnt>
    1d70:	8d 30       	cpi	r24, 0x0D	; 13
    1d72:	1c f0       	brlt	.+6      	; 0x1d7a <__vector_14+0x14a>
    1d74:	10 92 29 03 	sts	0x0329, r1	; 0x800329 <add_cnt>
    1d78:	12 c0       	rjmp	.+36     	; 0x1d9e <__vector_14+0x16e>
					else if (add_cnt <= -1){add_cnt = 12;}
    1d7a:	88 23       	and	r24, r24
    1d7c:	84 f4       	brge	.+32     	; 0x1d9e <__vector_14+0x16e>
    1d7e:	8c e0       	ldi	r24, 0x0C	; 12
    1d80:	80 93 29 03 	sts	0x0329, r24	; 0x800329 <add_cnt>
    1d84:	0c c0       	rjmp	.+24     	; 0x1d9e <__vector_14+0x16e>
					else {}	  
					break;
		    case 5: if (add_cnt >= 100){add_cnt = 0;}
    1d86:	80 91 29 03 	lds	r24, 0x0329	; 0x800329 <add_cnt>
    1d8a:	84 36       	cpi	r24, 0x64	; 100
    1d8c:	1c f0       	brlt	.+6      	; 0x1d94 <__vector_14+0x164>
    1d8e:	10 92 29 03 	sts	0x0329, r1	; 0x800329 <add_cnt>
    1d92:	05 c0       	rjmp	.+10     	; 0x1d9e <__vector_14+0x16e>
					else if (add_cnt <= -1){add_cnt = 99;}
    1d94:	88 23       	and	r24, r24
    1d96:	1c f4       	brge	.+6      	; 0x1d9e <__vector_14+0x16e>
    1d98:	83 e6       	ldi	r24, 0x63	; 99
    1d9a:	80 93 29 03 	sts	0x0329, r24	; 0x800329 <add_cnt>
					else {}
					break;
		  }    
}
    1d9e:	9f 91       	pop	r25
    1da0:	8f 91       	pop	r24
    1da2:	2f 91       	pop	r18
    1da4:	0f 90       	pop	r0
    1da6:	0f be       	out	0x3f, r0	; 63
    1da8:	0f 90       	pop	r0
    1daa:	1f 90       	pop	r1
    1dac:	18 95       	reti

00001dae <enc_interrupt_ini>:
//-------------------------------------------------------------
//прерывания от кнопки энкодера для переключения в окно меню
void enc_interrupt_ini(void)
{
	//включим прерывания INT1 по нисходящему фронту
	MCUCR |= (1<<ISC11);
    1dae:	85 b7       	in	r24, 0x35	; 53
    1db0:	88 60       	ori	r24, 0x08	; 8
    1db2:	85 bf       	out	0x35, r24	; 53
	//разрешим внешние прерывания INT1
	EIMSK |= (1<<INT1);
    1db4:	8d b3       	in	r24, 0x1d	; 29
    1db6:	82 60       	ori	r24, 0x02	; 2
    1db8:	8d bb       	out	0x1d, r24	; 29
    1dba:	08 95       	ret

00001dbc <__vector_2>:
}
//-------------------------------------------------------------
//обработчик внешн.прерываний от кнопки энкодера
ISR(INT1_vect)
{
    1dbc:	1f 92       	push	r1
    1dbe:	0f 92       	push	r0
    1dc0:	0f b6       	in	r0, 0x3f	; 63
    1dc2:	0f 92       	push	r0
    1dc4:	11 24       	eor	r1, r1
    1dc6:	8f 93       	push	r24
	enc_int_flag = 1;
    1dc8:	81 e0       	ldi	r24, 0x01	; 1
    1dca:	80 93 27 03 	sts	0x0327, r24	; 0x800327 <enc_int_flag>
		break;
		case 4: menu_flag = 1;
		//cnt = 0;
		break;
	}*/
}
    1dce:	8f 91       	pop	r24
    1dd0:	0f 90       	pop	r0
    1dd2:	0f be       	out	0x3f, r0	; 63
    1dd4:	0f 90       	pop	r0
    1dd6:	1f 90       	pop	r1
    1dd8:	18 95       	reti

00001dda <SPI_init>:
//-------------------------------------------------------------
void SPI_init(void) //инициализация SPI
{
	DDRB |= ((1<<SS)|(1<<MOSI)|(1<<CE)|(1<<SCK)); //ножки SPI на выход
    1dda:	84 b1       	in	r24, 0x04	; 4
    1ddc:	8e 62       	ori	r24, 0x2E	; 46
    1dde:	84 b9       	out	0x04, r24	; 4
	PORTB &= ~((1<<SS)|(1<<MOSI)|(1<<SCK)); //низкий уровень
    1de0:	85 b1       	in	r24, 0x05	; 5
    1de2:	83 7d       	andi	r24, 0xD3	; 211
    1de4:	85 b9       	out	0x05, r24	; 5
	DDRD &= ~(1<<IRQ);
    1de6:	8a b1       	in	r24, 0x0a	; 10
    1de8:	8b 7f       	andi	r24, 0xFB	; 251
    1dea:	8a b9       	out	0x0a, r24	; 10
	PORTD |= (1<<IRQ);
    1dec:	8b b1       	in	r24, 0x0b	; 11
    1dee:	84 60       	ori	r24, 0x04	; 4
    1df0:	8b b9       	out	0x0b, r24	; 11
	HIGH_CSN;
    1df2:	85 b1       	in	r24, 0x05	; 5
    1df4:	84 60       	ori	r24, 0x04	; 4
    1df6:	85 b9       	out	0x05, r24	; 5
	SPCR = ((1<<SPE)|(1<<MSTR));//включим шину, объявим ведущим
    1df8:	80 e5       	ldi	r24, 0x50	; 80
    1dfa:	8c bd       	out	0x2c, r24	; 44
    1dfc:	08 95       	ret

00001dfe <port_init>:
}
//-------------------------------------------------------------
void port_init(void)
{
	//инициализация портов для светодиода
	DDRD |= (1 << LED);//led
    1dfe:	8a b1       	in	r24, 0x0a	; 10
    1e00:	80 61       	ori	r24, 0x10	; 16
    1e02:	8a b9       	out	0x0a, r24	; 10
	PORTD &= ~ (1 << LED);
    1e04:	8b b1       	in	r24, 0x0b	; 11
    1e06:	8f 7e       	andi	r24, 0xEF	; 239
    1e08:	8b b9       	out	0x0b, r24	; 11
	
	//инициализация портов для LCD12864
	DDRD |= (1<<RS);//ножка RS на выход для LCD12864
    1e0a:	8a b1       	in	r24, 0x0a	; 10
    1e0c:	80 68       	ori	r24, 0x80	; 128
    1e0e:	8a b9       	out	0x0a, r24	; 10
	PORTD &= ~(1<<RS);
    1e10:	8b b1       	in	r24, 0x0b	; 11
    1e12:	8f 77       	andi	r24, 0x7F	; 127
    1e14:	8b b9       	out	0x0b, r24	; 11
	DDRD |= (1<<E);
    1e16:	8a b1       	in	r24, 0x0a	; 10
    1e18:	80 62       	ori	r24, 0x20	; 32
    1e1a:	8a b9       	out	0x0a, r24	; 10
	PORTD &= ~(1<<E);
    1e1c:	8b b1       	in	r24, 0x0b	; 11
    1e1e:	8f 7d       	andi	r24, 0xDF	; 223
    1e20:	8b b9       	out	0x0b, r24	; 11
	DDRD |= (1<<RW);
    1e22:	8a b1       	in	r24, 0x0a	; 10
    1e24:	80 64       	ori	r24, 0x40	; 64
    1e26:	8a b9       	out	0x0a, r24	; 10
	PORTD &= ~(1<<RW);
    1e28:	8b b1       	in	r24, 0x0b	; 11
    1e2a:	8f 7b       	andi	r24, 0xBF	; 191
    1e2c:	8b b9       	out	0x0b, r24	; 11
	//DDRB |= (1<<PSB);//ножка PSB на выход для LCD12864
	//PORTB &= ~(1<<PSB);
	
	//Инициализация для энкодера
	DDRD &= ~(1<<SW_ENC);
    1e2e:	8a b1       	in	r24, 0x0a	; 10
    1e30:	87 7f       	andi	r24, 0xF7	; 247
    1e32:	8a b9       	out	0x0a, r24	; 10
	DDRB &= ~((1<<DT_ENC)||(1<<CLK_ENC));
    1e34:	84 b1       	in	r24, 0x04	; 4
    1e36:	8e 7f       	andi	r24, 0xFE	; 254
    1e38:	84 b9       	out	0x04, r24	; 4
	PORTD |= (1 << SW_ENC);
    1e3a:	8b b1       	in	r24, 0x0b	; 11
    1e3c:	88 60       	ori	r24, 0x08	; 8
    1e3e:	8b b9       	out	0x0b, r24	; 11
	PORTB &= ~((1 << DT_ENC)|(1 << CLK_ENC));
    1e40:	85 b1       	in	r24, 0x05	; 5
    1e42:	8f 73       	andi	r24, 0x3F	; 63
    1e44:	85 b9       	out	0x05, r24	; 5
    1e46:	08 95       	ret

00001e48 <spi_send_recv>:
	 DDRC|=(1<<MOSI_SD)|(1<<SCK_SD);*/
} 
//-------------------------------------------------------------
uint8_t spi_send_recv(uint8_t data) // Передаёт и принимает 1 байт по SPI, возвращает полученное значение
{
	SPDR = data;
    1e48:	8e bd       	out	0x2e, r24	; 46
	while (!(SPSR & (1 << SPIF)));
    1e4a:	0d b4       	in	r0, 0x2d	; 45
    1e4c:	07 fe       	sbrs	r0, 7
    1e4e:	fd cf       	rjmp	.-6      	; 0x1e4a <spi_send_recv+0x2>
	return SPDR;
    1e50:	8e b5       	in	r24, 0x2e	; 46
}
    1e52:	08 95       	ret

00001e54 <main>:
//-------------------------------------------------------------
void main(void)
{	
	cli();
    1e54:	f8 94       	cli
	port_init();
    1e56:	0e 94 ff 0e 	call	0x1dfe	; 0x1dfe <port_init>
	PORTD |= (1<<LED);
    1e5a:	8b b1       	in	r24, 0x0b	; 11
    1e5c:	80 61       	ori	r24, 0x10	; 16
    1e5e:	8b b9       	out	0x0b, r24	; 11
	//Инициализация интерфейсов
	SPI_init();
    1e60:	0e 94 ed 0e 	call	0x1dda	; 0x1dda <SPI_init>
	I2C_Init();
    1e64:	0e 94 87 14 	call	0x290e	; 0x290e <I2C_Init>
	USART_Init(8);    //Инициализация модуля USART скорость 115200
    1e68:	88 e0       	ldi	r24, 0x08	; 8
    1e6a:	90 e0       	ldi	r25, 0x00	; 0
    1e6c:	0e 94 b5 14 	call	0x296a	; 0x296a <USART_Init>
	LCD_12864_ini();
    1e70:	0e 94 40 09 	call	0x1280	; 0x1280 <LCD_12864_ini>
	//очистка дисплея
	LCD_12864_GrapnicMode(1);
    1e74:	81 e0       	ldi	r24, 0x01	; 1
    1e76:	0e 94 c9 07 	call	0xf92	; 0xf92 <LCD_12864_GrapnicMode>
	LCD_12864_Clean_Frame_buffer();
    1e7a:	0e 94 0d 0c 	call	0x181a	; 0x181a <LCD_12864_Clean_Frame_buffer>
	LCD_12864_Draw_bitmap(Frame_buffer);
    1e7e:	8c ea       	ldi	r24, 0xAC	; 172
    1e80:	93 e0       	ldi	r25, 0x03	; 3
    1e82:	0e 94 e8 07 	call	0xfd0	; 0xfd0 <LCD_12864_Draw_bitmap>
	LCD_12864_GrapnicMode(0);
    1e86:	80 e0       	ldi	r24, 0x00	; 0
    1e88:	0e 94 c9 07 	call	0xf92	; 0xf92 <LCD_12864_GrapnicMode>
	//Вывод приветствия
	//Print_Hello_World(Frame_buffer);
	//Инициализация оборудования
	NRF24_ini();
    1e8c:	0e 94 3c 13 	call	0x2678	; 0x2678 <NRF24_ini>
	RTC_init();
    1e90:	0e 94 a6 13 	call	0x274c	; 0x274c <RTC_init>
	dht22_init();
    1e94:	0e 94 54 06 	call	0xca8	; 0xca8 <dht22_init>
	BMP180_Calibration();
    1e98:	0e 94 e4 03 	call	0x7c8	; 0x7c8 <BMP180_Calibration>
	// Установка времени для DS3231(делается 1 разv)
	//RTC_write_time(13, 30, 0);
	//RTC_write_date(2, 28, 6, 22);
	//Вывод окна загрузки
	//Print_Download(Frame_buffer);
	PORTD &= ~(1<<LED);
    1e9c:	8b b1       	in	r24, 0x0b	; 11
    1e9e:	8f 7e       	andi	r24, 0xEF	; 239
    1ea0:	8b b9       	out	0x0b, r24	; 11
	//Инициализация таймеров и прерываний
	timer1_ini();
    1ea2:	0e 94 88 0d 	call	0x1b10	; 0x1b10 <timer1_ini>
	timer0_ini();
    1ea6:	0e 94 9c 0d 	call	0x1b38	; 0x1b38 <timer0_ini>
	// настраиваем параметры прерывания
	EICRA |= (1<<ISC01) | (0<<ISC00);
    1eaa:	e9 e6       	ldi	r30, 0x69	; 105
    1eac:	f0 e0       	ldi	r31, 0x00	; 0
    1eae:	80 81       	ld	r24, Z
    1eb0:	82 60       	ori	r24, 0x02	; 2
    1eb2:	80 83       	st	Z, r24
	EIMSK |= (1<<INT0);
    1eb4:	8d b3       	in	r24, 0x1d	; 29
    1eb6:	81 60       	ori	r24, 0x01	; 1
    1eb8:	8d bb       	out	0x1d, r24	; 29
	enc_interrupt_ini();
    1eba:	0e 94 d7 0e 	call	0x1dae	; 0x1dae <enc_interrupt_ini>
	// и разрешаем его глобально
	sei();
    1ebe:	78 94       	sei
	temp_street[0] = '0';
    1ec0:	e7 ea       	ldi	r30, 0xA7	; 167
    1ec2:	f3 e0       	ldi	r31, 0x03	; 3
    1ec4:	80 e3       	ldi	r24, 0x30	; 48
    1ec6:	80 83       	st	Z, r24
	temp_street[1] = '0';
    1ec8:	81 83       	std	Z+1, r24	; 0x01
	temp_street[2] = '.';
    1eca:	9e e2       	ldi	r25, 0x2E	; 46
    1ecc:	92 83       	std	Z+2, r25	; 0x02
	temp_street[3] = '0';
    1ece:	83 83       	std	Z+3, r24	; 0x03
	hum_street[0] = '0';
    1ed0:	e2 ea       	ldi	r30, 0xA2	; 162
    1ed2:	f3 e0       	ldi	r31, 0x03	; 3
    1ed4:	80 83       	st	Z, r24
	hum_street[1] = '0';
    1ed6:	81 83       	std	Z+1, r24	; 0x01
    wind_direction[0] = '-';
    1ed8:	8d e2       	ldi	r24, 0x2D	; 45
    1eda:	80 93 89 03 	sts	0x0389, r24	; 0x800389 <wind_direction>
    while (1) 
    {
		if (enc_int_flag)
    1ede:	80 91 27 03 	lds	r24, 0x0327	; 0x800327 <enc_int_flag>
    1ee2:	88 23       	and	r24, r24
    1ee4:	09 f4       	brne	.+2      	; 0x1ee8 <main+0x94>
    1ee6:	f6 c0       	rjmp	.+492    	; 0x20d4 <main+0x280>
		{
			switch (menu_flag)
    1ee8:	80 91 2b 03 	lds	r24, 0x032B	; 0x80032b <menu_flag>
    1eec:	82 30       	cpi	r24, 0x02	; 2
    1eee:	91 f1       	breq	.+100    	; 0x1f54 <main+0x100>
    1ef0:	28 f4       	brcc	.+10     	; 0x1efc <main+0xa8>
    1ef2:	88 23       	and	r24, r24
    1ef4:	51 f0       	breq	.+20     	; 0x1f0a <main+0xb6>
    1ef6:	81 30       	cpi	r24, 0x01	; 1
    1ef8:	61 f0       	breq	.+24     	; 0x1f12 <main+0xbe>
    1efa:	ea c0       	rjmp	.+468    	; 0x20d0 <main+0x27c>
    1efc:	83 30       	cpi	r24, 0x03	; 3
    1efe:	09 f4       	brne	.+2      	; 0x1f02 <main+0xae>
    1f00:	e0 c0       	rjmp	.+448    	; 0x20c2 <main+0x26e>
    1f02:	84 30       	cpi	r24, 0x04	; 4
    1f04:	09 f4       	brne	.+2      	; 0x1f08 <main+0xb4>
    1f06:	e1 c0       	rjmp	.+450    	; 0x20ca <main+0x276>
    1f08:	e3 c0       	rjmp	.+454    	; 0x20d0 <main+0x27c>
			{
				case 0: menu_flag = 1;
    1f0a:	81 e0       	ldi	r24, 0x01	; 1
    1f0c:	80 93 2b 03 	sts	0x032B, r24	; 0x80032b <menu_flag>
						//cnt = 0;
						break;
    1f10:	df c0       	rjmp	.+446    	; 0x20d0 <main+0x27c>
				case 1:	switch(cnt%4)
    1f12:	80 91 28 03 	lds	r24, 0x0328	; 0x800328 <cnt>
    1f16:	83 78       	andi	r24, 0x83	; 131
    1f18:	1c f4       	brge	.+6      	; 0x1f20 <main+0xcc>
    1f1a:	81 50       	subi	r24, 0x01	; 1
    1f1c:	8c 6f       	ori	r24, 0xFC	; 252
    1f1e:	8f 5f       	subi	r24, 0xFF	; 255
    1f20:	81 30       	cpi	r24, 0x01	; 1
    1f22:	61 f0       	breq	.+24     	; 0x1f3c <main+0xe8>
    1f24:	1c f4       	brge	.+6      	; 0x1f2c <main+0xd8>
    1f26:	88 23       	and	r24, r24
    1f28:	31 f0       	breq	.+12     	; 0x1f36 <main+0xe2>
    1f2a:	d2 c0       	rjmp	.+420    	; 0x20d0 <main+0x27c>
    1f2c:	82 30       	cpi	r24, 0x02	; 2
    1f2e:	51 f0       	breq	.+20     	; 0x1f44 <main+0xf0>
    1f30:	83 30       	cpi	r24, 0x03	; 3
    1f32:	61 f0       	breq	.+24     	; 0x1f4c <main+0xf8>
    1f34:	cd c0       	rjmp	.+410    	; 0x20d0 <main+0x27c>
				{
					case 0:	menu_flag = 0;
    1f36:	10 92 2b 03 	sts	0x032B, r1	; 0x80032b <menu_flag>
							break;
    1f3a:	ca c0       	rjmp	.+404    	; 0x20d0 <main+0x27c>
					case 1:	menu_flag = 2;
    1f3c:	82 e0       	ldi	r24, 0x02	; 2
    1f3e:	80 93 2b 03 	sts	0x032B, r24	; 0x80032b <menu_flag>
							break;
    1f42:	c6 c0       	rjmp	.+396    	; 0x20d0 <main+0x27c>
					case 2: menu_flag = 3;
    1f44:	83 e0       	ldi	r24, 0x03	; 3
    1f46:	80 93 2b 03 	sts	0x032B, r24	; 0x80032b <menu_flag>
							break;
    1f4a:	c2 c0       	rjmp	.+388    	; 0x20d0 <main+0x27c>
					case 3: menu_flag = 4;
    1f4c:	84 e0       	ldi	r24, 0x04	; 4
    1f4e:	80 93 2b 03 	sts	0x032B, r24	; 0x80032b <menu_flag>
							break;
    1f52:	be c0       	rjmp	.+380    	; 0x20d0 <main+0x27c>
				}
						//cnt = 0;
						break;
				case 2:	switch(cnt%7)
    1f54:	90 91 28 03 	lds	r25, 0x0328	; 0x800328 <cnt>
    1f58:	83 e9       	ldi	r24, 0x93	; 147
    1f5a:	98 02       	muls	r25, r24
    1f5c:	81 2d       	mov	r24, r1
    1f5e:	11 24       	eor	r1, r1
    1f60:	89 0f       	add	r24, r25
    1f62:	85 95       	asr	r24
    1f64:	85 95       	asr	r24
    1f66:	e8 2f       	mov	r30, r24
    1f68:	97 fd       	sbrc	r25, 7
    1f6a:	e3 95       	inc	r30
    1f6c:	8e 2f       	mov	r24, r30
    1f6e:	88 0f       	add	r24, r24
    1f70:	88 0f       	add	r24, r24
    1f72:	88 0f       	add	r24, r24
    1f74:	8e 1b       	sub	r24, r30
    1f76:	e9 2f       	mov	r30, r25
    1f78:	e8 1b       	sub	r30, r24
    1f7a:	8e 2f       	mov	r24, r30
    1f7c:	ee 0f       	add	r30, r30
    1f7e:	99 0b       	sbc	r25, r25
    1f80:	aa 0b       	sbc	r26, r26
    1f82:	bb 0b       	sbc	r27, r27
    1f84:	87 30       	cpi	r24, 0x07	; 7
    1f86:	91 05       	cpc	r25, r1
    1f88:	08 f0       	brcs	.+2      	; 0x1f8c <main+0x138>
    1f8a:	a2 c0       	rjmp	.+324    	; 0x20d0 <main+0x27c>
    1f8c:	fc 01       	movw	r30, r24
    1f8e:	ec 5c       	subi	r30, 0xCC	; 204
    1f90:	ff 4f       	sbci	r31, 0xFF	; 255
    1f92:	0c 94 95 2d 	jmp	0x5b2a	; 0x5b2a <__tablejump2__>
				{
					case 0:	if(!change_flag)
    1f96:	80 91 2a 03 	lds	r24, 0x032A	; 0x80032a <change_flag>
    1f9a:	81 11       	cpse	r24, r1
    1f9c:	08 c0       	rjmp	.+16     	; 0x1fae <main+0x15a>
							{
								add_cnt = hour;
    1f9e:	80 91 f7 07 	lds	r24, 0x07F7	; 0x8007f7 <hour>
    1fa2:	80 93 29 03 	sts	0x0329, r24	; 0x800329 <add_cnt>
								change_flag = 1;
    1fa6:	81 e0       	ldi	r24, 0x01	; 1
    1fa8:	80 93 2a 03 	sts	0x032A, r24	; 0x80032a <change_flag>
    1fac:	91 c0       	rjmp	.+290    	; 0x20d0 <main+0x27c>
							}
							else
							{
								hour = add_cnt;
    1fae:	80 91 29 03 	lds	r24, 0x0329	; 0x800329 <add_cnt>
    1fb2:	80 93 f7 07 	sts	0x07F7, r24	; 0x8007f7 <hour>
								clock_change_mode = 1;
    1fb6:	81 e0       	ldi	r24, 0x01	; 1
    1fb8:	80 93 fe 07 	sts	0x07FE, r24	; 0x8007fe <clock_change_mode>
								ModifyRTC();
    1fbc:	0e 94 b7 13 	call	0x276e	; 0x276e <ModifyRTC>
								change_flag = 0;
    1fc0:	10 92 2a 03 	sts	0x032A, r1	; 0x80032a <change_flag>
    1fc4:	85 c0       	rjmp	.+266    	; 0x20d0 <main+0x27c>
							}
							break;
					case 1:	if(!change_flag)
    1fc6:	80 91 2a 03 	lds	r24, 0x032A	; 0x80032a <change_flag>
    1fca:	81 11       	cpse	r24, r1
    1fcc:	08 c0       	rjmp	.+16     	; 0x1fde <main+0x18a>
							{
								add_cnt = min;
    1fce:	80 91 03 08 	lds	r24, 0x0803	; 0x800803 <min>
    1fd2:	80 93 29 03 	sts	0x0329, r24	; 0x800329 <add_cnt>
								change_flag = 1;
    1fd6:	81 e0       	ldi	r24, 0x01	; 1
    1fd8:	80 93 2a 03 	sts	0x032A, r24	; 0x80032a <change_flag>
    1fdc:	79 c0       	rjmp	.+242    	; 0x20d0 <main+0x27c>
							}
							else
							{
								min = add_cnt;
    1fde:	80 91 29 03 	lds	r24, 0x0329	; 0x800329 <add_cnt>
    1fe2:	80 93 03 08 	sts	0x0803, r24	; 0x800803 <min>
								clock_change_mode = 2;
    1fe6:	82 e0       	ldi	r24, 0x02	; 2
    1fe8:	80 93 fe 07 	sts	0x07FE, r24	; 0x8007fe <clock_change_mode>
								ModifyRTC();
    1fec:	0e 94 b7 13 	call	0x276e	; 0x276e <ModifyRTC>
								change_flag = 0;
    1ff0:	10 92 2a 03 	sts	0x032A, r1	; 0x80032a <change_flag>
    1ff4:	6d c0       	rjmp	.+218    	; 0x20d0 <main+0x27c>
							}
							break;
					case 2:	if(!change_flag)
    1ff6:	80 91 2a 03 	lds	r24, 0x032A	; 0x80032a <change_flag>
    1ffa:	81 11       	cpse	r24, r1
    1ffc:	08 c0       	rjmp	.+16     	; 0x200e <main+0x1ba>
							{
								add_cnt = day;
    1ffe:	80 91 0e 08 	lds	r24, 0x080E	; 0x80080e <day>
    2002:	80 93 29 03 	sts	0x0329, r24	; 0x800329 <add_cnt>
								change_flag = 1;
    2006:	81 e0       	ldi	r24, 0x01	; 1
    2008:	80 93 2a 03 	sts	0x032A, r24	; 0x80032a <change_flag>
    200c:	61 c0       	rjmp	.+194    	; 0x20d0 <main+0x27c>
							}
							else
							{
								day = add_cnt;
    200e:	80 91 29 03 	lds	r24, 0x0329	; 0x800329 <add_cnt>
    2012:	80 93 0e 08 	sts	0x080E, r24	; 0x80080e <day>
								clock_change_mode = 6;
    2016:	86 e0       	ldi	r24, 0x06	; 6
    2018:	80 93 fe 07 	sts	0x07FE, r24	; 0x8007fe <clock_change_mode>
								ModifyRTC();
    201c:	0e 94 b7 13 	call	0x276e	; 0x276e <ModifyRTC>
								change_flag = 0;
    2020:	10 92 2a 03 	sts	0x032A, r1	; 0x80032a <change_flag>
    2024:	55 c0       	rjmp	.+170    	; 0x20d0 <main+0x27c>
							}
							break;
					case 3:	if(!change_flag)
    2026:	80 91 2a 03 	lds	r24, 0x032A	; 0x80032a <change_flag>
    202a:	81 11       	cpse	r24, r1
    202c:	08 c0       	rjmp	.+16     	; 0x203e <main+0x1ea>
							{
								add_cnt = date;
    202e:	80 91 10 08 	lds	r24, 0x0810	; 0x800810 <date>
    2032:	80 93 29 03 	sts	0x0329, r24	; 0x800329 <add_cnt>
								change_flag = 1;
    2036:	81 e0       	ldi	r24, 0x01	; 1
    2038:	80 93 2a 03 	sts	0x032A, r24	; 0x80032a <change_flag>
    203c:	49 c0       	rjmp	.+146    	; 0x20d0 <main+0x27c>
							}
							else
							{
								date = add_cnt;
    203e:	80 91 29 03 	lds	r24, 0x0329	; 0x800329 <add_cnt>
    2042:	80 93 10 08 	sts	0x0810, r24	; 0x800810 <date>
								clock_change_mode = 3;
    2046:	83 e0       	ldi	r24, 0x03	; 3
    2048:	80 93 fe 07 	sts	0x07FE, r24	; 0x8007fe <clock_change_mode>
								ModifyRTC();
    204c:	0e 94 b7 13 	call	0x276e	; 0x276e <ModifyRTC>
								change_flag = 0;
    2050:	10 92 2a 03 	sts	0x032A, r1	; 0x80032a <change_flag>
    2054:	3d c0       	rjmp	.+122    	; 0x20d0 <main+0x27c>
							}
							break;
					case 4:	if(!change_flag)
    2056:	80 91 2a 03 	lds	r24, 0x032A	; 0x80032a <change_flag>
    205a:	81 11       	cpse	r24, r1
    205c:	08 c0       	rjmp	.+16     	; 0x206e <main+0x21a>
							{
								add_cnt = month;
    205e:	80 91 f3 07 	lds	r24, 0x07F3	; 0x8007f3 <month>
    2062:	80 93 29 03 	sts	0x0329, r24	; 0x800329 <add_cnt>
								change_flag = 1;
    2066:	81 e0       	ldi	r24, 0x01	; 1
    2068:	80 93 2a 03 	sts	0x032A, r24	; 0x80032a <change_flag>
    206c:	31 c0       	rjmp	.+98     	; 0x20d0 <main+0x27c>
							}
							else
							{
								month = add_cnt;
    206e:	80 91 29 03 	lds	r24, 0x0329	; 0x800329 <add_cnt>
    2072:	80 93 f3 07 	sts	0x07F3, r24	; 0x8007f3 <month>
								clock_change_mode = 4;
    2076:	84 e0       	ldi	r24, 0x04	; 4
    2078:	80 93 fe 07 	sts	0x07FE, r24	; 0x8007fe <clock_change_mode>
								ModifyRTC();
    207c:	0e 94 b7 13 	call	0x276e	; 0x276e <ModifyRTC>
								change_flag = 0;
    2080:	10 92 2a 03 	sts	0x032A, r1	; 0x80032a <change_flag>
    2084:	25 c0       	rjmp	.+74     	; 0x20d0 <main+0x27c>
							}
							break;
					case 5:	if(!change_flag)
    2086:	80 91 2a 03 	lds	r24, 0x032A	; 0x80032a <change_flag>
    208a:	81 11       	cpse	r24, r1
    208c:	08 c0       	rjmp	.+16     	; 0x209e <main+0x24a>
							{
								add_cnt = year;
    208e:	80 91 0c 08 	lds	r24, 0x080C	; 0x80080c <year>
    2092:	80 93 29 03 	sts	0x0329, r24	; 0x800329 <add_cnt>
								change_flag = 1;
    2096:	81 e0       	ldi	r24, 0x01	; 1
    2098:	80 93 2a 03 	sts	0x032A, r24	; 0x80032a <change_flag>
    209c:	19 c0       	rjmp	.+50     	; 0x20d0 <main+0x27c>
							}
							else
							{
								year = add_cnt;
    209e:	80 91 29 03 	lds	r24, 0x0329	; 0x800329 <add_cnt>
    20a2:	80 93 0c 08 	sts	0x080C, r24	; 0x80080c <year>
								clock_change_mode = 5;
    20a6:	85 e0       	ldi	r24, 0x05	; 5
    20a8:	80 93 fe 07 	sts	0x07FE, r24	; 0x8007fe <clock_change_mode>
								ModifyRTC();
    20ac:	0e 94 b7 13 	call	0x276e	; 0x276e <ModifyRTC>
								change_flag = 0;
    20b0:	10 92 2a 03 	sts	0x032A, r1	; 0x80032a <change_flag>
    20b4:	0d c0       	rjmp	.+26     	; 0x20d0 <main+0x27c>
							}
							break;
					case 6:	clock_change_mode = 0;
    20b6:	10 92 fe 07 	sts	0x07FE, r1	; 0x8007fe <clock_change_mode>
							menu_flag = 1;
    20ba:	81 e0       	ldi	r24, 0x01	; 1
    20bc:	80 93 2b 03 	sts	0x032B, r24	; 0x80032b <menu_flag>
							//cnt = 1;
							break;
    20c0:	07 c0       	rjmp	.+14     	; 0x20d0 <main+0x27c>
				}
						break;
				case 3: menu_flag = 1;
    20c2:	81 e0       	ldi	r24, 0x01	; 1
    20c4:	80 93 2b 03 	sts	0x032B, r24	; 0x80032b <menu_flag>
						//cnt = 0;
						break;
    20c8:	03 c0       	rjmp	.+6      	; 0x20d0 <main+0x27c>
				case 4: menu_flag = 1;
    20ca:	81 e0       	ldi	r24, 0x01	; 1
    20cc:	80 93 2b 03 	sts	0x032B, r24	; 0x80032b <menu_flag>
						//cnt = 0;
						break;
			}
			enc_int_flag = 0;
    20d0:	10 92 27 03 	sts	0x0327, r1	; 0x800327 <enc_int_flag>
		}
		switch (menu_flag)
    20d4:	80 91 2b 03 	lds	r24, 0x032B	; 0x80032b <menu_flag>
    20d8:	82 30       	cpi	r24, 0x02	; 2
    20da:	a9 f0       	breq	.+42     	; 0x2106 <main+0x2b2>
    20dc:	28 f4       	brcc	.+10     	; 0x20e8 <main+0x294>
    20de:	88 23       	and	r24, r24
    20e0:	41 f0       	breq	.+16     	; 0x20f2 <main+0x29e>
    20e2:	81 30       	cpi	r24, 0x01	; 1
    20e4:	59 f0       	breq	.+22     	; 0x20fc <main+0x2a8>
    20e6:	fb ce       	rjmp	.-522    	; 0x1ede <main+0x8a>
    20e8:	83 30       	cpi	r24, 0x03	; 3
    20ea:	91 f0       	breq	.+36     	; 0x2110 <main+0x2bc>
    20ec:	84 30       	cpi	r24, 0x04	; 4
    20ee:	a9 f0       	breq	.+42     	; 0x211a <main+0x2c6>
    20f0:	f6 ce       	rjmp	.-532    	; 0x1ede <main+0x8a>
		{
			case 0:	Print_Home_Page(Frame_buffer);
    20f2:	8c ea       	ldi	r24, 0xAC	; 172
    20f4:	93 e0       	ldi	r25, 0x03	; 3
    20f6:	0e 94 a8 23 	call	0x4750	; 0x4750 <Print_Home_Page>
					break;
    20fa:	f1 ce       	rjmp	.-542    	; 0x1ede <main+0x8a>
			case 1:	Print_Menu_Page(Frame_buffer);
    20fc:	8c ea       	ldi	r24, 0xAC	; 172
    20fe:	93 e0       	ldi	r25, 0x03	; 3
    2100:	0e 94 e6 14 	call	0x29cc	; 0x29cc <Print_Menu_Page>
					break;
    2104:	ec ce       	rjmp	.-552    	; 0x1ede <main+0x8a>
			case 2:	Print_Page_Clock_Settings(Frame_buffer);
    2106:	8c ea       	ldi	r24, 0xAC	; 172
    2108:	93 e0       	ldi	r25, 0x03	; 3
    210a:	0e 94 5d 1f 	call	0x3eba	; 0x3eba <Print_Page_Clock_Settings>
					break;
    210e:	e7 ce       	rjmp	.-562    	; 0x1ede <main+0x8a>
			case 3:	Print_Page_About(Frame_buffer);
    2110:	8c ea       	ldi	r24, 0xAC	; 172
    2112:	93 e0       	ldi	r25, 0x03	; 3
    2114:	0e 94 96 15 	call	0x2b2c	; 0x2b2c <Print_Page_About>
					break;
    2118:	e2 ce       	rjmp	.-572    	; 0x1ede <main+0x8a>
			case 4:	Print_Page_Dop_Info(Frame_buffer);
    211a:	8c ea       	ldi	r24, 0xAC	; 172
    211c:	93 e0       	ldi	r25, 0x03	; 3
    211e:	0e 94 e7 15 	call	0x2bce	; 0x2bce <Print_Page_Dop_Info>
					break;				
    2122:	dd ce       	rjmp	.-582    	; 0x1ede <main+0x8a>

00002124 <NRF24L01_Receive>:
//-------------------------------------------------------------
void nRF_command(uint8_t command)
{
	LOW_CSN;
	spi_send_recv(command);
	HIGH_CSN;
    2124:	cf 93       	push	r28
    2126:	df 93       	push	r29
    2128:	80 91 ad 07 	lds	r24, 0x07AD	; 0x8007ad <rx_flag>
    212c:	81 30       	cpi	r24, 0x01	; 1
    212e:	09 f0       	breq	.+2      	; 0x2132 <NRF24L01_Receive+0xe>
    2130:	5e c1       	rjmp	.+700    	; 0x23ee <NRF24L01_Receive+0x2ca>
    2132:	80 91 b6 07 	lds	r24, 0x07B6	; 0x8007b6 <RX_BUF>
    2136:	81 30       	cpi	r24, 0x01	; 1
    2138:	09 f0       	breq	.+2      	; 0x213c <NRF24L01_Receive+0x18>
    213a:	59 c0       	rjmp	.+178    	; 0x21ee <NRF24L01_Receive+0xca>
    213c:	e7 ea       	ldi	r30, 0xA7	; 167
    213e:	f3 e0       	ldi	r31, 0x03	; 3
    2140:	01 90       	ld	r0, Z+
    2142:	00 20       	and	r0, r0
    2144:	e9 f7       	brne	.-6      	; 0x2140 <NRF24L01_Receive+0x1c>
    2146:	31 97       	sbiw	r30, 0x01	; 1
    2148:	af 01       	movw	r20, r30
    214a:	47 5a       	subi	r20, 0xA7	; 167
    214c:	53 40       	sbci	r21, 0x03	; 3
    214e:	44 0f       	add	r20, r20
    2150:	55 1f       	adc	r21, r21
    2152:	60 e0       	ldi	r22, 0x00	; 0
    2154:	70 e0       	ldi	r23, 0x00	; 0
    2156:	87 ea       	ldi	r24, 0xA7	; 167
    2158:	93 e0       	ldi	r25, 0x03	; 3
    215a:	0e 94 d7 2e 	call	0x5dae	; 0x5dae <memset>
    215e:	e6 eb       	ldi	r30, 0xB6	; 182
    2160:	f7 e0       	ldi	r31, 0x07	; 7
    2162:	81 81       	ldd	r24, Z+1	; 0x01
    2164:	c2 81       	ldd	r28, Z+2	; 0x02
    2166:	d0 e0       	ldi	r29, 0x00	; 0
    2168:	dc 2f       	mov	r29, r28
    216a:	cc 27       	eor	r28, r28
    216c:	c8 2b       	or	r28, r24
    216e:	be 01       	movw	r22, r28
    2170:	0d 2e       	mov	r0, r29
    2172:	00 0c       	add	r0, r0
    2174:	88 0b       	sbc	r24, r24
    2176:	99 0b       	sbc	r25, r25
    2178:	0e 94 a5 28 	call	0x514a	; 0x514a <__floatsisf>
    217c:	20 e0       	ldi	r18, 0x00	; 0
    217e:	30 e0       	ldi	r19, 0x00	; 0
    2180:	40 e2       	ldi	r20, 0x20	; 32
    2182:	51 e4       	ldi	r21, 0x41	; 65
    2184:	0e 94 fb 27 	call	0x4ff6	; 0x4ff6 <__divsf3>
    2188:	60 93 b2 07 	sts	0x07B2, r22	; 0x8007b2 <temp>
    218c:	70 93 b3 07 	sts	0x07B3, r23	; 0x8007b3 <temp+0x1>
    2190:	80 93 b4 07 	sts	0x07B4, r24	; 0x8007b4 <temp+0x2>
    2194:	90 93 b5 07 	sts	0x07B5, r25	; 0x8007b5 <temp+0x3>
    2198:	dd 23       	and	r29, r29
    219a:	5c f4       	brge	.+22     	; 0x21b2 <NRF24L01_Receive+0x8e>
    219c:	dc 01       	movw	r26, r24
    219e:	cb 01       	movw	r24, r22
    21a0:	b0 58       	subi	r27, 0x80	; 128
    21a2:	80 93 b2 07 	sts	0x07B2, r24	; 0x8007b2 <temp>
    21a6:	90 93 b3 07 	sts	0x07B3, r25	; 0x8007b3 <temp+0x1>
    21aa:	a0 93 b4 07 	sts	0x07B4, r26	; 0x8007b4 <temp+0x2>
    21ae:	b0 93 b5 07 	sts	0x07B5, r27	; 0x8007b5 <temp+0x3>
    21b2:	80 91 b5 07 	lds	r24, 0x07B5	; 0x8007b5 <temp+0x3>
    21b6:	8f 93       	push	r24
    21b8:	80 91 b4 07 	lds	r24, 0x07B4	; 0x8007b4 <temp+0x2>
    21bc:	8f 93       	push	r24
    21be:	80 91 b3 07 	lds	r24, 0x07B3	; 0x8007b3 <temp+0x1>
    21c2:	8f 93       	push	r24
    21c4:	80 91 b2 07 	lds	r24, 0x07B2	; 0x8007b2 <temp>
    21c8:	8f 93       	push	r24
    21ca:	85 e3       	ldi	r24, 0x35	; 53
    21cc:	91 e0       	ldi	r25, 0x01	; 1
    21ce:	9f 93       	push	r25
    21d0:	8f 93       	push	r24
    21d2:	87 ea       	ldi	r24, 0xA7	; 167
    21d4:	93 e0       	ldi	r25, 0x03	; 3
    21d6:	9f 93       	push	r25
    21d8:	8f 93       	push	r24
    21da:	0e 94 2e 2f 	call	0x5e5c	; 0x5e5c <sprintf>
    21de:	8d b7       	in	r24, 0x3d	; 61
    21e0:	9e b7       	in	r25, 0x3e	; 62
    21e2:	08 96       	adiw	r24, 0x08	; 8
    21e4:	0f b6       	in	r0, 0x3f	; 63
    21e6:	f8 94       	cli
    21e8:	9e bf       	out	0x3e, r25	; 62
    21ea:	0f be       	out	0x3f, r0	; 63
    21ec:	8d bf       	out	0x3d, r24	; 61
    21ee:	80 91 b6 07 	lds	r24, 0x07B6	; 0x8007b6 <RX_BUF>
    21f2:	85 30       	cpi	r24, 0x05	; 5
    21f4:	09 f0       	breq	.+2      	; 0x21f8 <NRF24L01_Receive+0xd4>
    21f6:	3f c0       	rjmp	.+126    	; 0x2276 <NRF24L01_Receive+0x152>
    21f8:	c2 ea       	ldi	r28, 0xA2	; 162
    21fa:	d3 e0       	ldi	r29, 0x03	; 3
    21fc:	fe 01       	movw	r30, r28
    21fe:	01 90       	ld	r0, Z+
    2200:	00 20       	and	r0, r0
    2202:	e9 f7       	brne	.-6      	; 0x21fe <NRF24L01_Receive+0xda>
    2204:	31 97       	sbiw	r30, 0x01	; 1
    2206:	af 01       	movw	r20, r30
    2208:	42 5a       	subi	r20, 0xA2	; 162
    220a:	53 40       	sbci	r21, 0x03	; 3
    220c:	44 0f       	add	r20, r20
    220e:	55 1f       	adc	r21, r21
    2210:	60 e0       	ldi	r22, 0x00	; 0
    2212:	70 e0       	ldi	r23, 0x00	; 0
    2214:	ce 01       	movw	r24, r28
    2216:	0e 94 d7 2e 	call	0x5dae	; 0x5dae <memset>
    221a:	e6 eb       	ldi	r30, 0xB6	; 182
    221c:	f7 e0       	ldi	r31, 0x07	; 7
    221e:	81 81       	ldd	r24, Z+1	; 0x01
    2220:	62 81       	ldd	r22, Z+2	; 0x02
    2222:	70 e0       	ldi	r23, 0x00	; 0
    2224:	76 2f       	mov	r23, r22
    2226:	66 27       	eor	r22, r22
    2228:	68 2b       	or	r22, r24
    222a:	07 2e       	mov	r0, r23
    222c:	00 0c       	add	r0, r0
    222e:	88 0b       	sbc	r24, r24
    2230:	99 0b       	sbc	r25, r25
    2232:	0e 94 a5 28 	call	0x514a	; 0x514a <__floatsisf>
    2236:	20 e0       	ldi	r18, 0x00	; 0
    2238:	30 e0       	ldi	r19, 0x00	; 0
    223a:	40 e2       	ldi	r20, 0x20	; 32
    223c:	51 e4       	ldi	r21, 0x41	; 65
    223e:	0e 94 fb 27 	call	0x4ff6	; 0x4ff6 <__divsf3>
    2242:	60 93 ae 07 	sts	0x07AE, r22	; 0x8007ae <hum>
    2246:	70 93 af 07 	sts	0x07AF, r23	; 0x8007af <hum+0x1>
    224a:	80 93 b0 07 	sts	0x07B0, r24	; 0x8007b0 <hum+0x2>
    224e:	90 93 b1 07 	sts	0x07B1, r25	; 0x8007b1 <hum+0x3>
    2252:	0e 94 6d 28 	call	0x50da	; 0x50da <__fixsfsi>
    2256:	7f 93       	push	r23
    2258:	6f 93       	push	r22
    225a:	85 eb       	ldi	r24, 0xB5	; 181
    225c:	92 e0       	ldi	r25, 0x02	; 2
    225e:	9f 93       	push	r25
    2260:	8f 93       	push	r24
    2262:	df 93       	push	r29
    2264:	cf 93       	push	r28
    2266:	0e 94 2e 2f 	call	0x5e5c	; 0x5e5c <sprintf>
    226a:	0f 90       	pop	r0
    226c:	0f 90       	pop	r0
    226e:	0f 90       	pop	r0
    2270:	0f 90       	pop	r0
    2272:	0f 90       	pop	r0
    2274:	0f 90       	pop	r0
    2276:	c0 91 b6 07 	lds	r28, 0x07B6	; 0x8007b6 <RX_BUF>
    227a:	c2 30       	cpi	r28, 0x02	; 2
    227c:	61 f5       	brne	.+88     	; 0x22d6 <NRF24L01_Receive+0x1b2>
    227e:	e3 e9       	ldi	r30, 0x93	; 147
    2280:	f3 e0       	ldi	r31, 0x03	; 3
    2282:	01 90       	ld	r0, Z+
    2284:	00 20       	and	r0, r0
    2286:	e9 f7       	brne	.-6      	; 0x2282 <NRF24L01_Receive+0x15e>
    2288:	31 97       	sbiw	r30, 0x01	; 1
    228a:	af 01       	movw	r20, r30
    228c:	43 59       	subi	r20, 0x93	; 147
    228e:	53 40       	sbci	r21, 0x03	; 3
    2290:	44 0f       	add	r20, r20
    2292:	55 1f       	adc	r21, r21
    2294:	60 e0       	ldi	r22, 0x00	; 0
    2296:	70 e0       	ldi	r23, 0x00	; 0
    2298:	83 e9       	ldi	r24, 0x93	; 147
    229a:	93 e0       	ldi	r25, 0x03	; 3
    229c:	0e 94 d7 2e 	call	0x5dae	; 0x5dae <memset>
    22a0:	20 e0       	ldi	r18, 0x00	; 0
    22a2:	0b c0       	rjmp	.+22     	; 0x22ba <NRF24L01_Receive+0x196>
    22a4:	82 2f       	mov	r24, r18
    22a6:	90 e0       	ldi	r25, 0x00	; 0
    22a8:	fc 01       	movw	r30, r24
    22aa:	e9 54       	subi	r30, 0x49	; 73
    22ac:	f8 4f       	sbci	r31, 0xF8	; 248
    22ae:	30 81       	ld	r19, Z
    22b0:	fc 01       	movw	r30, r24
    22b2:	ed 56       	subi	r30, 0x6D	; 109
    22b4:	fc 4f       	sbci	r31, 0xFC	; 252
    22b6:	30 83       	st	Z, r19
    22b8:	2f 5f       	subi	r18, 0xFF	; 255
    22ba:	82 2f       	mov	r24, r18
    22bc:	90 e0       	ldi	r25, 0x00	; 0
    22be:	e6 eb       	ldi	r30, 0xB6	; 182
    22c0:	f7 e0       	ldi	r31, 0x07	; 7
    22c2:	01 90       	ld	r0, Z+
    22c4:	00 20       	and	r0, r0
    22c6:	e9 f7       	brne	.-6      	; 0x22c2 <NRF24L01_Receive+0x19e>
    22c8:	31 97       	sbiw	r30, 0x01	; 1
    22ca:	e6 5b       	subi	r30, 0xB6	; 182
    22cc:	f7 40       	sbci	r31, 0x07	; 7
    22ce:	31 97       	sbiw	r30, 0x01	; 1
    22d0:	8e 17       	cp	r24, r30
    22d2:	9f 07       	cpc	r25, r31
    22d4:	38 f3       	brcs	.-50     	; 0x22a4 <NRF24L01_Receive+0x180>
    22d6:	c3 30       	cpi	r28, 0x03	; 3
    22d8:	61 f5       	brne	.+88     	; 0x2332 <NRF24L01_Receive+0x20e>
    22da:	e9 e8       	ldi	r30, 0x89	; 137
    22dc:	f3 e0       	ldi	r31, 0x03	; 3
    22de:	01 90       	ld	r0, Z+
    22e0:	00 20       	and	r0, r0
    22e2:	e9 f7       	brne	.-6      	; 0x22de <NRF24L01_Receive+0x1ba>
    22e4:	31 97       	sbiw	r30, 0x01	; 1
    22e6:	af 01       	movw	r20, r30
    22e8:	49 58       	subi	r20, 0x89	; 137
    22ea:	53 40       	sbci	r21, 0x03	; 3
    22ec:	44 0f       	add	r20, r20
    22ee:	55 1f       	adc	r21, r21
    22f0:	60 e0       	ldi	r22, 0x00	; 0
    22f2:	70 e0       	ldi	r23, 0x00	; 0
    22f4:	89 e8       	ldi	r24, 0x89	; 137
    22f6:	93 e0       	ldi	r25, 0x03	; 3
    22f8:	0e 94 d7 2e 	call	0x5dae	; 0x5dae <memset>
    22fc:	20 e0       	ldi	r18, 0x00	; 0
    22fe:	0b c0       	rjmp	.+22     	; 0x2316 <NRF24L01_Receive+0x1f2>
    2300:	82 2f       	mov	r24, r18
    2302:	90 e0       	ldi	r25, 0x00	; 0
    2304:	fc 01       	movw	r30, r24
    2306:	e9 54       	subi	r30, 0x49	; 73
    2308:	f8 4f       	sbci	r31, 0xF8	; 248
    230a:	30 81       	ld	r19, Z
    230c:	fc 01       	movw	r30, r24
    230e:	e7 57       	subi	r30, 0x77	; 119
    2310:	fc 4f       	sbci	r31, 0xFC	; 252
    2312:	30 83       	st	Z, r19
    2314:	2f 5f       	subi	r18, 0xFF	; 255
    2316:	82 2f       	mov	r24, r18
    2318:	90 e0       	ldi	r25, 0x00	; 0
    231a:	e6 eb       	ldi	r30, 0xB6	; 182
    231c:	f7 e0       	ldi	r31, 0x07	; 7
    231e:	01 90       	ld	r0, Z+
    2320:	00 20       	and	r0, r0
    2322:	e9 f7       	brne	.-6      	; 0x231e <NRF24L01_Receive+0x1fa>
    2324:	31 97       	sbiw	r30, 0x01	; 1
    2326:	e6 5b       	subi	r30, 0xB6	; 182
    2328:	f7 40       	sbci	r31, 0x07	; 7
    232a:	31 97       	sbiw	r30, 0x01	; 1
    232c:	8e 17       	cp	r24, r30
    232e:	9f 07       	cpc	r25, r31
    2330:	38 f3       	brcs	.-50     	; 0x2300 <NRF24L01_Receive+0x1dc>
    2332:	c4 30       	cpi	r28, 0x04	; 4
    2334:	61 f5       	brne	.+88     	; 0x238e <NRF24L01_Receive+0x26a>
    2336:	e4 e8       	ldi	r30, 0x84	; 132
    2338:	f3 e0       	ldi	r31, 0x03	; 3
    233a:	01 90       	ld	r0, Z+
    233c:	00 20       	and	r0, r0
    233e:	e9 f7       	brne	.-6      	; 0x233a <NRF24L01_Receive+0x216>
    2340:	31 97       	sbiw	r30, 0x01	; 1
    2342:	af 01       	movw	r20, r30
    2344:	44 58       	subi	r20, 0x84	; 132
    2346:	53 40       	sbci	r21, 0x03	; 3
    2348:	44 0f       	add	r20, r20
    234a:	55 1f       	adc	r21, r21
    234c:	60 e0       	ldi	r22, 0x00	; 0
    234e:	70 e0       	ldi	r23, 0x00	; 0
    2350:	84 e8       	ldi	r24, 0x84	; 132
    2352:	93 e0       	ldi	r25, 0x03	; 3
    2354:	0e 94 d7 2e 	call	0x5dae	; 0x5dae <memset>
    2358:	20 e0       	ldi	r18, 0x00	; 0
    235a:	0b c0       	rjmp	.+22     	; 0x2372 <NRF24L01_Receive+0x24e>
    235c:	82 2f       	mov	r24, r18
    235e:	90 e0       	ldi	r25, 0x00	; 0
    2360:	fc 01       	movw	r30, r24
    2362:	e9 54       	subi	r30, 0x49	; 73
    2364:	f8 4f       	sbci	r31, 0xF8	; 248
    2366:	30 81       	ld	r19, Z
    2368:	fc 01       	movw	r30, r24
    236a:	ec 57       	subi	r30, 0x7C	; 124
    236c:	fc 4f       	sbci	r31, 0xFC	; 252
    236e:	30 83       	st	Z, r19
    2370:	2f 5f       	subi	r18, 0xFF	; 255
    2372:	82 2f       	mov	r24, r18
    2374:	90 e0       	ldi	r25, 0x00	; 0
    2376:	e6 eb       	ldi	r30, 0xB6	; 182
    2378:	f7 e0       	ldi	r31, 0x07	; 7
    237a:	01 90       	ld	r0, Z+
    237c:	00 20       	and	r0, r0
    237e:	e9 f7       	brne	.-6      	; 0x237a <NRF24L01_Receive+0x256>
    2380:	31 97       	sbiw	r30, 0x01	; 1
    2382:	e6 5b       	subi	r30, 0xB6	; 182
    2384:	f7 40       	sbci	r31, 0x07	; 7
    2386:	31 97       	sbiw	r30, 0x01	; 1
    2388:	8e 17       	cp	r24, r30
    238a:	9f 07       	cpc	r25, r31
    238c:	38 f3       	brcs	.-50     	; 0x235c <NRF24L01_Receive+0x238>
    238e:	c6 30       	cpi	r28, 0x06	; 6
    2390:	61 f5       	brne	.+88     	; 0x23ea <NRF24L01_Receive+0x2c6>
    2392:	ef e7       	ldi	r30, 0x7F	; 127
    2394:	f3 e0       	ldi	r31, 0x03	; 3
    2396:	01 90       	ld	r0, Z+
    2398:	00 20       	and	r0, r0
    239a:	e9 f7       	brne	.-6      	; 0x2396 <NRF24L01_Receive+0x272>
    239c:	31 97       	sbiw	r30, 0x01	; 1
    239e:	af 01       	movw	r20, r30
    23a0:	4f 57       	subi	r20, 0x7F	; 127
    23a2:	53 40       	sbci	r21, 0x03	; 3
    23a4:	44 0f       	add	r20, r20
    23a6:	55 1f       	adc	r21, r21
    23a8:	60 e0       	ldi	r22, 0x00	; 0
    23aa:	70 e0       	ldi	r23, 0x00	; 0
    23ac:	8f e7       	ldi	r24, 0x7F	; 127
    23ae:	93 e0       	ldi	r25, 0x03	; 3
    23b0:	0e 94 d7 2e 	call	0x5dae	; 0x5dae <memset>
    23b4:	20 e0       	ldi	r18, 0x00	; 0
    23b6:	0b c0       	rjmp	.+22     	; 0x23ce <NRF24L01_Receive+0x2aa>
    23b8:	82 2f       	mov	r24, r18
    23ba:	90 e0       	ldi	r25, 0x00	; 0
    23bc:	fc 01       	movw	r30, r24
    23be:	e9 54       	subi	r30, 0x49	; 73
    23c0:	f8 4f       	sbci	r31, 0xF8	; 248
    23c2:	30 81       	ld	r19, Z
    23c4:	fc 01       	movw	r30, r24
    23c6:	e1 58       	subi	r30, 0x81	; 129
    23c8:	fc 4f       	sbci	r31, 0xFC	; 252
    23ca:	30 83       	st	Z, r19
    23cc:	2f 5f       	subi	r18, 0xFF	; 255
    23ce:	82 2f       	mov	r24, r18
    23d0:	90 e0       	ldi	r25, 0x00	; 0
    23d2:	e6 eb       	ldi	r30, 0xB6	; 182
    23d4:	f7 e0       	ldi	r31, 0x07	; 7
    23d6:	01 90       	ld	r0, Z+
    23d8:	00 20       	and	r0, r0
    23da:	e9 f7       	brne	.-6      	; 0x23d6 <NRF24L01_Receive+0x2b2>
    23dc:	31 97       	sbiw	r30, 0x01	; 1
    23de:	e6 5b       	subi	r30, 0xB6	; 182
    23e0:	f7 40       	sbci	r31, 0x07	; 7
    23e2:	31 97       	sbiw	r30, 0x01	; 1
    23e4:	8e 17       	cp	r24, r30
    23e6:	9f 07       	cpc	r25, r31
    23e8:	38 f3       	brcs	.-50     	; 0x23b8 <NRF24L01_Receive+0x294>
    23ea:	10 92 ad 07 	sts	0x07AD, r1	; 0x8007ad <rx_flag>
    23ee:	df 91       	pop	r29
    23f0:	cf 91       	pop	r28
    23f2:	08 95       	ret

000023f4 <NRF24_FlushRX>:
    23f4:	85 b1       	in	r24, 0x05	; 5
    23f6:	8b 7f       	andi	r24, 0xFB	; 251
    23f8:	85 b9       	out	0x05, r24	; 5
    23fa:	82 ee       	ldi	r24, 0xE2	; 226
    23fc:	90 e0       	ldi	r25, 0x00	; 0
    23fe:	0e 94 24 0f 	call	0x1e48	; 0x1e48 <spi_send_recv>
    2402:	82 e0       	ldi	r24, 0x02	; 2
    2404:	8a 95       	dec	r24
    2406:	f1 f7       	brne	.-4      	; 0x2404 <NRF24_FlushRX+0x10>
    2408:	00 c0       	rjmp	.+0      	; 0x240a <NRF24_FlushRX+0x16>
    240a:	85 b1       	in	r24, 0x05	; 5
    240c:	84 60       	ori	r24, 0x04	; 4
    240e:	85 b9       	out	0x05, r24	; 5
    2410:	08 95       	ret

00002412 <NRF24_FlushTX>:
    2412:	85 b1       	in	r24, 0x05	; 5
    2414:	8b 7f       	andi	r24, 0xFB	; 251
    2416:	85 b9       	out	0x05, r24	; 5
    2418:	81 ee       	ldi	r24, 0xE1	; 225
    241a:	90 e0       	ldi	r25, 0x00	; 0
    241c:	0e 94 24 0f 	call	0x1e48	; 0x1e48 <spi_send_recv>
    2420:	82 e0       	ldi	r24, 0x02	; 2
    2422:	8a 95       	dec	r24
    2424:	f1 f7       	brne	.-4      	; 0x2422 <NRF24_FlushTX+0x10>
    2426:	00 c0       	rjmp	.+0      	; 0x2428 <NRF24_FlushTX+0x16>
    2428:	85 b1       	in	r24, 0x05	; 5
    242a:	84 60       	ori	r24, 0x04	; 4
    242c:	85 b9       	out	0x05, r24	; 5
    242e:	08 95       	ret

00002430 <NRF24_ToggleFeatures>:
    2430:	85 b1       	in	r24, 0x05	; 5
    2432:	8b 7f       	andi	r24, 0xFB	; 251
    2434:	85 b9       	out	0x05, r24	; 5
    2436:	80 e5       	ldi	r24, 0x50	; 80
    2438:	90 e0       	ldi	r25, 0x00	; 0
    243a:	0e 94 24 0f 	call	0x1e48	; 0x1e48 <spi_send_recv>
    243e:	82 e0       	ldi	r24, 0x02	; 2
    2440:	8a 95       	dec	r24
    2442:	f1 f7       	brne	.-4      	; 0x2440 <NRF24_ToggleFeatures+0x10>
    2444:	00 c0       	rjmp	.+0      	; 0x2446 <NRF24_ToggleFeatures+0x16>
    2446:	83 e7       	ldi	r24, 0x73	; 115
    2448:	90 e0       	ldi	r25, 0x00	; 0
    244a:	0e 94 24 0f 	call	0x1e48	; 0x1e48 <spi_send_recv>
    244e:	85 b1       	in	r24, 0x05	; 5
    2450:	84 60       	ori	r24, 0x04	; 4
    2452:	85 b9       	out	0x05, r24	; 5
    2454:	08 95       	ret

00002456 <NRF24_Read_Buf>:
    2456:	ef 92       	push	r14
    2458:	ff 92       	push	r15
    245a:	0f 93       	push	r16
    245c:	1f 93       	push	r17
    245e:	cf 93       	push	r28
    2460:	df 93       	push	r29
    2462:	8b 01       	movw	r16, r22
    2464:	c4 2f       	mov	r28, r20
    2466:	95 b1       	in	r25, 0x05	; 5
    2468:	9b 7f       	andi	r25, 0xFB	; 251
    246a:	95 b9       	out	0x05, r25	; 5
    246c:	90 e0       	ldi	r25, 0x00	; 0
    246e:	0e 94 24 0f 	call	0x1e48	; 0x1e48 <spi_send_recv>
    2472:	0c c0       	rjmp	.+24     	; 0x248c <NRF24_Read_Buf+0x36>
    2474:	78 01       	movw	r14, r16
    2476:	8f ef       	ldi	r24, 0xFF	; 255
    2478:	e8 1a       	sub	r14, r24
    247a:	f8 0a       	sbc	r15, r24
    247c:	8f ef       	ldi	r24, 0xFF	; 255
    247e:	90 e0       	ldi	r25, 0x00	; 0
    2480:	0e 94 24 0f 	call	0x1e48	; 0x1e48 <spi_send_recv>
    2484:	f8 01       	movw	r30, r16
    2486:	80 83       	st	Z, r24
    2488:	cd 2f       	mov	r28, r29
    248a:	87 01       	movw	r16, r14
    248c:	df ef       	ldi	r29, 0xFF	; 255
    248e:	dc 0f       	add	r29, r28
    2490:	c1 11       	cpse	r28, r1
    2492:	f0 cf       	rjmp	.-32     	; 0x2474 <NRF24_Read_Buf+0x1e>
    2494:	85 b1       	in	r24, 0x05	; 5
    2496:	84 60       	ori	r24, 0x04	; 4
    2498:	85 b9       	out	0x05, r24	; 5
    249a:	df 91       	pop	r29
    249c:	cf 91       	pop	r28
    249e:	1f 91       	pop	r17
    24a0:	0f 91       	pop	r16
    24a2:	ff 90       	pop	r15
    24a4:	ef 90       	pop	r14
    24a6:	08 95       	ret

000024a8 <NRF24_Write_Buf>:
    24a8:	ef 92       	push	r14
    24aa:	ff 92       	push	r15
    24ac:	0f 93       	push	r16
    24ae:	1f 93       	push	r17
    24b0:	cf 93       	push	r28
    24b2:	df 93       	push	r29
    24b4:	8b 01       	movw	r16, r22
    24b6:	c4 2f       	mov	r28, r20
    24b8:	80 62       	ori	r24, 0x20	; 32
    24ba:	95 b1       	in	r25, 0x05	; 5
    24bc:	9b 7f       	andi	r25, 0xFB	; 251
    24be:	95 b9       	out	0x05, r25	; 5
    24c0:	90 e0       	ldi	r25, 0x00	; 0
    24c2:	0e 94 24 0f 	call	0x1e48	; 0x1e48 <spi_send_recv>
    24c6:	82 e0       	ldi	r24, 0x02	; 2
    24c8:	8a 95       	dec	r24
    24ca:	f1 f7       	brne	.-4      	; 0x24c8 <NRF24_Write_Buf+0x20>
    24cc:	00 c0       	rjmp	.+0      	; 0x24ce <NRF24_Write_Buf+0x26>
    24ce:	0b c0       	rjmp	.+22     	; 0x24e6 <NRF24_Write_Buf+0x3e>
    24d0:	78 01       	movw	r14, r16
    24d2:	ef ef       	ldi	r30, 0xFF	; 255
    24d4:	ee 1a       	sub	r14, r30
    24d6:	fe 0a       	sbc	r15, r30
    24d8:	f8 01       	movw	r30, r16
    24da:	80 81       	ld	r24, Z
    24dc:	90 e0       	ldi	r25, 0x00	; 0
    24de:	0e 94 24 0f 	call	0x1e48	; 0x1e48 <spi_send_recv>
    24e2:	cd 2f       	mov	r28, r29
    24e4:	87 01       	movw	r16, r14
    24e6:	df ef       	ldi	r29, 0xFF	; 255
    24e8:	dc 0f       	add	r29, r28
    24ea:	c1 11       	cpse	r28, r1
    24ec:	f1 cf       	rjmp	.-30     	; 0x24d0 <NRF24_Write_Buf+0x28>
    24ee:	85 b1       	in	r24, 0x05	; 5
    24f0:	84 60       	ori	r24, 0x04	; 4
    24f2:	85 b9       	out	0x05, r24	; 5
    24f4:	df 91       	pop	r29
    24f6:	cf 91       	pop	r28
    24f8:	1f 91       	pop	r17
    24fa:	0f 91       	pop	r16
    24fc:	ff 90       	pop	r15
    24fe:	ef 90       	pop	r14
    2500:	08 95       	ret

00002502 <nRF_write_register>:
}
//-------------------------------------------------------------
void nRF_write_register(uint8_t reg, uint8_t data_out)
{
    2502:	cf 93       	push	r28
    2504:	c6 2f       	mov	r28, r22
	reg |= W_REGISTER;
    2506:	80 62       	ori	r24, 0x20	; 32
	LOW_CSN;
    2508:	95 b1       	in	r25, 0x05	; 5
    250a:	9b 7f       	andi	r25, 0xFB	; 251
    250c:	95 b9       	out	0x05, r25	; 5
	spi_send_recv(reg);
    250e:	90 e0       	ldi	r25, 0x00	; 0
    2510:	0e 94 24 0f 	call	0x1e48	; 0x1e48 <spi_send_recv>
	spi_send_recv(data_out);
    2514:	8c 2f       	mov	r24, r28
    2516:	90 e0       	ldi	r25, 0x00	; 0
    2518:	0e 94 24 0f 	call	0x1e48	; 0x1e48 <spi_send_recv>
	HIGH_CSN;
    251c:	85 b1       	in	r24, 0x05	; 5
    251e:	84 60       	ori	r24, 0x04	; 4
    2520:	85 b9       	out	0x05, r24	; 5
}
    2522:	cf 91       	pop	r28
    2524:	08 95       	ret

00002526 <nRF_read_register>:
//-------------------------------------------------------------
uint8_t nRF_read_register(uint8_t reg)
{
    2526:	cf 93       	push	r28
    2528:	c8 2f       	mov	r28, r24
	uint8_t data_in;
	LOW_CSN;
    252a:	85 b1       	in	r24, 0x05	; 5
    252c:	8b 7f       	andi	r24, 0xFB	; 251
    252e:	85 b9       	out	0x05, r24	; 5
	data_in = spi_send_recv(reg);
    2530:	8c 2f       	mov	r24, r28
    2532:	90 e0       	ldi	r25, 0x00	; 0
    2534:	0e 94 24 0f 	call	0x1e48	; 0x1e48 <spi_send_recv>
	if(reg != STATUS)
    2538:	c7 30       	cpi	r28, 0x07	; 7
    253a:	21 f0       	breq	.+8      	; 0x2544 <nRF_read_register+0x1e>
	{
		data_in = spi_send_recv(NOP);
    253c:	8f ef       	ldi	r24, 0xFF	; 255
    253e:	90 e0       	ldi	r25, 0x00	; 0
    2540:	0e 94 24 0f 	call	0x1e48	; 0x1e48 <spi_send_recv>
	}
	HIGH_CSN;
    2544:	95 b1       	in	r25, 0x05	; 5
    2546:	94 60       	ori	r25, 0x04	; 4
    2548:	95 b9       	out	0x05, r25	; 5
	return data_in;
}
    254a:	cf 91       	pop	r28
    254c:	08 95       	ret

0000254e <__vector_1>:
		//memset(RX_BUF, 0, sizeof(int) * strlen(RX_BUF));//очистка массива
		rx_flag = 0;
	}
}
ISR(INT0_vect)
{
    254e:	1f 92       	push	r1
    2550:	0f 92       	push	r0
    2552:	0f b6       	in	r0, 0x3f	; 63
    2554:	0f 92       	push	r0
    2556:	11 24       	eor	r1, r1
    2558:	2f 93       	push	r18
    255a:	3f 93       	push	r19
    255c:	4f 93       	push	r20
    255e:	5f 93       	push	r21
    2560:	6f 93       	push	r22
    2562:	7f 93       	push	r23
    2564:	8f 93       	push	r24
    2566:	9f 93       	push	r25
    2568:	af 93       	push	r26
    256a:	bf 93       	push	r27
    256c:	ef 93       	push	r30
    256e:	ff 93       	push	r31
    2570:	87 e5       	ldi	r24, 0x57	; 87
    2572:	92 e0       	ldi	r25, 0x02	; 2
    2574:	01 97       	sbiw	r24, 0x01	; 1
    2576:	f1 f7       	brne	.-4      	; 0x2574 <__vector_1+0x26>
    2578:	00 c0       	rjmp	.+0      	; 0x257a <__vector_1+0x2c>
    257a:	00 00       	nop
	uint8_t status=0x01;
	uint8_t pipe;
	_delay_us(300);
	PORTD |= (1<<LED);
    257c:	8b b1       	in	r24, 0x0b	; 11
    257e:	80 61       	ori	r24, 0x10	; 16
    2580:	8b b9       	out	0x0b, r24	; 11
    2582:	87 e5       	ldi	r24, 0x57	; 87
    2584:	92 e0       	ldi	r25, 0x02	; 2
    2586:	01 97       	sbiw	r24, 0x01	; 1
    2588:	f1 f7       	brne	.-4      	; 0x2586 <__vector_1+0x38>
    258a:	00 c0       	rjmp	.+0      	; 0x258c <__vector_1+0x3e>
    258c:	00 00       	nop
	_delay_us(300);
	PORTD &= ~(1<<LED);
    258e:	8b b1       	in	r24, 0x0b	; 11
    2590:	8f 7e       	andi	r24, 0xEF	; 239
    2592:	8b b9       	out	0x0b, r24	; 11
	status = nRF_read_register(STATUS);
    2594:	87 e0       	ldi	r24, 0x07	; 7
    2596:	0e 94 93 12 	call	0x2526	; 0x2526 <nRF_read_register>
	if(status & 0x40)
    259a:	86 ff       	sbrs	r24, 6
    259c:	0a c0       	rjmp	.+20     	; 0x25b2 <__vector_1+0x64>
	{
		NRF24_Read_Buf(R_RX_PAYLOAD,RX_BUF,TX_PLOAD_WIDTH);
    259e:	45 e0       	ldi	r20, 0x05	; 5
    25a0:	66 eb       	ldi	r22, 0xB6	; 182
    25a2:	77 e0       	ldi	r23, 0x07	; 7
    25a4:	81 e6       	ldi	r24, 0x61	; 97
    25a6:	0e 94 2b 12 	call	0x2456	; 0x2456 <NRF24_Read_Buf>
		nRF_write_register(STATUS, 0x40);
    25aa:	60 e4       	ldi	r22, 0x40	; 64
    25ac:	87 e0       	ldi	r24, 0x07	; 7
    25ae:	0e 94 81 12 	call	0x2502	; 0x2502 <nRF_write_register>
	}
	 rx_flag = 1;
    25b2:	81 e0       	ldi	r24, 0x01	; 1
    25b4:	80 93 ad 07 	sts	0x07AD, r24	; 0x8007ad <rx_flag>
	 if(receive_counter == 6)
    25b8:	80 91 ac 07 	lds	r24, 0x07AC	; 0x8007ac <receive_counter>
    25bc:	86 30       	cpi	r24, 0x06	; 6
    25be:	11 f4       	brne	.+4      	; 0x25c4 <__vector_1+0x76>
	 {
		 receive_counter = 0;
    25c0:	10 92 ac 07 	sts	0x07AC, r1	; 0x8007ac <receive_counter>
	 }
	 NRF24L01_Receive();
    25c4:	0e 94 92 10 	call	0x2124	; 0x2124 <NRF24L01_Receive>
	 receive_counter++;
    25c8:	80 91 ac 07 	lds	r24, 0x07AC	; 0x8007ac <receive_counter>
    25cc:	8f 5f       	subi	r24, 0xFF	; 255
    25ce:	80 93 ac 07 	sts	0x07AC, r24	; 0x8007ac <receive_counter>
	 Clock ();
    25d2:	0e 94 7f 21 	call	0x42fe	; 0x42fe <Clock>
	 sprintf(receive_time,"%s:%s:%s,%s/%s/%s", hours, minutes, seconds, mounthday, Mounth, Year);
    25d6:	84 e0       	ldi	r24, 0x04	; 4
    25d8:	98 e0       	ldi	r25, 0x08	; 8
    25da:	9f 93       	push	r25
    25dc:	8f 93       	push	r24
    25de:	88 ef       	ldi	r24, 0xF8	; 248
    25e0:	97 e0       	ldi	r25, 0x07	; 7
    25e2:	9f 93       	push	r25
    25e4:	8f 93       	push	r24
    25e6:	88 e0       	ldi	r24, 0x08	; 8
    25e8:	98 e0       	ldi	r25, 0x08	; 8
    25ea:	9f 93       	push	r25
    25ec:	8f 93       	push	r24
    25ee:	8f ef       	ldi	r24, 0xFF	; 255
    25f0:	97 e0       	ldi	r25, 0x07	; 7
    25f2:	9f 93       	push	r25
    25f4:	8f 93       	push	r24
    25f6:	82 e1       	ldi	r24, 0x12	; 18
    25f8:	98 e0       	ldi	r25, 0x08	; 8
    25fa:	9f 93       	push	r25
    25fc:	8f 93       	push	r24
    25fe:	86 e1       	ldi	r24, 0x16	; 22
    2600:	98 e0       	ldi	r25, 0x08	; 8
    2602:	9f 93       	push	r25
    2604:	8f 93       	push	r24
    2606:	8a e3       	ldi	r24, 0x3A	; 58
    2608:	91 e0       	ldi	r25, 0x01	; 1
    260a:	9f 93       	push	r25
    260c:	8f 93       	push	r24
    260e:	82 e0       	ldi	r24, 0x02	; 2
    2610:	91 e0       	ldi	r25, 0x01	; 1
    2612:	9f 93       	push	r25
    2614:	8f 93       	push	r24
    2616:	0e 94 2e 2f 	call	0x5e5c	; 0x5e5c <sprintf>
}
    261a:	8d b7       	in	r24, 0x3d	; 61
    261c:	9e b7       	in	r25, 0x3e	; 62
    261e:	40 96       	adiw	r24, 0x10	; 16
    2620:	0f b6       	in	r0, 0x3f	; 63
    2622:	f8 94       	cli
    2624:	9e bf       	out	0x3e, r25	; 62
    2626:	0f be       	out	0x3f, r0	; 63
    2628:	8d bf       	out	0x3d, r24	; 61
    262a:	ff 91       	pop	r31
    262c:	ef 91       	pop	r30
    262e:	bf 91       	pop	r27
    2630:	af 91       	pop	r26
    2632:	9f 91       	pop	r25
    2634:	8f 91       	pop	r24
    2636:	7f 91       	pop	r23
    2638:	6f 91       	pop	r22
    263a:	5f 91       	pop	r21
    263c:	4f 91       	pop	r20
    263e:	3f 91       	pop	r19
    2640:	2f 91       	pop	r18
    2642:	0f 90       	pop	r0
    2644:	0f be       	out	0x3f, r0	; 63
    2646:	0f 90       	pop	r0
    2648:	1f 90       	pop	r1
    264a:	18 95       	reti

0000264c <NRF24L01_RX_Mode>:
}
//-------------------------------------------------------------
void NRF24L01_RX_Mode(void) // включение режима приема
{
	uint8_t regval = 0x00;
	regval = nRF_read_register(CONFIG);
    264c:	80 e0       	ldi	r24, 0x00	; 0
    264e:	0e 94 93 12 	call	0x2526	; 0x2526 <nRF_read_register>
	//разбудим модуль и переведём его в режим приёмника, включив биты PWR_UP и PRIM_RX
	regval |= (1<<PWR_UP)|(1<<PRIM_RX);
    2652:	68 2f       	mov	r22, r24
    2654:	63 60       	ori	r22, 0x03	; 3
	nRF_write_register(CONFIG,regval);
    2656:	80 e0       	ldi	r24, 0x00	; 0
    2658:	0e 94 81 12 	call	0x2502	; 0x2502 <nRF_write_register>
	HIGH_CE;
    265c:	85 b1       	in	r24, 0x05	; 5
    265e:	82 60       	ori	r24, 0x02	; 2
    2660:	85 b9       	out	0x05, r24	; 5
    2662:	8b e2       	ldi	r24, 0x2B	; 43
    2664:	91 e0       	ldi	r25, 0x01	; 1
    2666:	01 97       	sbiw	r24, 0x01	; 1
    2668:	f1 f7       	brne	.-4      	; 0x2666 <NRF24L01_RX_Mode+0x1a>
    266a:	00 c0       	rjmp	.+0      	; 0x266c <NRF24L01_RX_Mode+0x20>
    266c:	00 00       	nop
	_delay_us(150); //Задержка минимум 130 мкс
	// Flush buffers
	NRF24_FlushRX();
    266e:	0e 94 fa 11 	call	0x23f4	; 0x23f4 <NRF24_FlushRX>
	NRF24_FlushTX();
    2672:	0e 94 09 12 	call	0x2412	; 0x2412 <NRF24_FlushTX>
    2676:	08 95       	ret

00002678 <NRF24_ini>:
char Year[4];

//-------------------------------------------------------------
void NRF24_ini(void)
{
	LOW_CE;
    2678:	85 b1       	in	r24, 0x05	; 5
    267a:	8d 7f       	andi	r24, 0xFD	; 253
    267c:	85 b9       	out	0x05, r24	; 5
	#else
		//round up by default
		__ticks_dc = (uint32_t)(ceil(fabs(__tmp)));
	#endif

	__builtin_avr_delay_cycles(__ticks_dc);
    267e:	8f e0       	ldi	r24, 0x0F	; 15
    2680:	97 e2       	ldi	r25, 0x27	; 39
    2682:	01 97       	sbiw	r24, 0x01	; 1
    2684:	f1 f7       	brne	.-4      	; 0x2682 <NRF24_ini+0xa>
    2686:	00 c0       	rjmp	.+0      	; 0x2688 <NRF24_ini+0x10>
    2688:	00 00       	nop
	_delay_ms(5);
	nRF_write_register(CONFIG, 0x0a); // Set PWR_UP bit, enable CRC(1 byte) &Prim_RX:0 (Transmitter)
    268a:	6a e0       	ldi	r22, 0x0A	; 10
    268c:	80 e0       	ldi	r24, 0x00	; 0
    268e:	0e 94 81 12 	call	0x2502	; 0x2502 <nRF_write_register>
    2692:	8f e0       	ldi	r24, 0x0F	; 15
    2694:	97 e2       	ldi	r25, 0x27	; 39
    2696:	01 97       	sbiw	r24, 0x01	; 1
    2698:	f1 f7       	brne	.-4      	; 0x2696 <NRF24_ini+0x1e>
    269a:	00 c0       	rjmp	.+0      	; 0x269c <NRF24_ini+0x24>
    269c:	00 00       	nop
	_delay_ms(5);
	nRF_write_register(EN_AA, 0x02); // Enable Pipe1
    269e:	62 e0       	ldi	r22, 0x02	; 2
    26a0:	81 e0       	ldi	r24, 0x01	; 1
    26a2:	0e 94 81 12 	call	0x2502	; 0x2502 <nRF_write_register>
	nRF_write_register(EN_RXADDR, 0x02); // Enable Pipe1
    26a6:	62 e0       	ldi	r22, 0x02	; 2
    26a8:	82 e0       	ldi	r24, 0x02	; 2
    26aa:	0e 94 81 12 	call	0x2502	; 0x2502 <nRF_write_register>
	nRF_write_register(SETUP_AW, 0x01); // Setup address width=3 bytes
    26ae:	61 e0       	ldi	r22, 0x01	; 1
    26b0:	83 e0       	ldi	r24, 0x03	; 3
    26b2:	0e 94 81 12 	call	0x2502	; 0x2502 <nRF_write_register>
	nRF_write_register(SETUP_RETR, 0x5F); // // 1500us, 15 retrans
    26b6:	6f e5       	ldi	r22, 0x5F	; 95
    26b8:	84 e0       	ldi	r24, 0x04	; 4
    26ba:	0e 94 81 12 	call	0x2502	; 0x2502 <nRF_write_register>
	NRF24_ToggleFeatures();
    26be:	0e 94 18 12 	call	0x2430	; 0x2430 <NRF24_ToggleFeatures>
	nRF_write_register(FEATURE, 0);
    26c2:	60 e0       	ldi	r22, 0x00	; 0
    26c4:	8d e1       	ldi	r24, 0x1D	; 29
    26c6:	0e 94 81 12 	call	0x2502	; 0x2502 <nRF_write_register>
	nRF_write_register(DYNPD, 0);
    26ca:	60 e0       	ldi	r22, 0x00	; 0
    26cc:	8c e1       	ldi	r24, 0x1C	; 28
    26ce:	0e 94 81 12 	call	0x2502	; 0x2502 <nRF_write_register>
	nRF_write_register(STATUS, 0x70);//Reset flags for IRQ
    26d2:	60 e7       	ldi	r22, 0x70	; 112
    26d4:	87 e0       	ldi	r24, 0x07	; 7
    26d6:	0e 94 81 12 	call	0x2502	; 0x2502 <nRF_write_register>
	nRF_write_register(RF_CH, 76); // частота 2476 MHz
    26da:	6c e4       	ldi	r22, 0x4C	; 76
    26dc:	85 e0       	ldi	r24, 0x05	; 5
    26de:	0e 94 81 12 	call	0x2502	; 0x2502 <nRF_write_register>
	nRF_write_register(RF_SETUP, 0x06); //TX_PWR:0dBm, Datarate:1Mbps
    26e2:	66 e0       	ldi	r22, 0x06	; 6
    26e4:	86 e0       	ldi	r24, 0x06	; 6
    26e6:	0e 94 81 12 	call	0x2502	; 0x2502 <nRF_write_register>
	NRF24_Write_Buf(TX_ADDR, TX_ADDRESS, TX_ADR_WIDTH);
    26ea:	43 e0       	ldi	r20, 0x03	; 3
    26ec:	66 e1       	ldi	r22, 0x16	; 22
    26ee:	71 e0       	ldi	r23, 0x01	; 1
    26f0:	80 e1       	ldi	r24, 0x10	; 16
    26f2:	0e 94 54 12 	call	0x24a8	; 0x24a8 <NRF24_Write_Buf>
	NRF24_Write_Buf(RX_ADDR_P1, TX_ADDRESS, TX_ADR_WIDTH);
    26f6:	43 e0       	ldi	r20, 0x03	; 3
    26f8:	66 e1       	ldi	r22, 0x16	; 22
    26fa:	71 e0       	ldi	r23, 0x01	; 1
    26fc:	8b e0       	ldi	r24, 0x0B	; 11
    26fe:	0e 94 54 12 	call	0x24a8	; 0x24a8 <NRF24_Write_Buf>
	nRF_write_register(RX_PW_P1, TX_PLOAD_WIDTH); //Number of bytes in RX payload in data pipe 1
    2702:	65 e0       	ldi	r22, 0x05	; 5
    2704:	82 e1       	ldi	r24, 0x12	; 18
    2706:	0e 94 81 12 	call	0x2502	; 0x2502 <nRF_write_register>
	//пока уходим в режим приёмника
	NRF24L01_RX_Mode();
    270a:	0e 94 26 13 	call	0x264c	; 0x264c <NRF24L01_RX_Mode>
    270e:	08 95       	ret

00002710 <RTC_ConvertFromBinDec>:
	I2C_SendByte(RTC_ConvertFromBinDec(wday));       // 0x03 день недели (воскресенье - 1, пн 2, вт 3, ср 4, чт 5, пт 6, сб 7)
	I2C_SendByte(RTC_ConvertFromBinDec(day));        // 0x04 день месяц
	I2C_SendByte(RTC_ConvertFromBinDec(month));      // 0x05 месяц
	I2C_SendByte(RTC_ConvertFromBinDec(year));       // 0x06 год
	I2C_StopCondition();                // остановка i2c
}
    2710:	9d ec       	ldi	r25, 0xCD	; 205
    2712:	89 9f       	mul	r24, r25
    2714:	91 2d       	mov	r25, r1
    2716:	11 24       	eor	r1, r1
    2718:	96 95       	lsr	r25
    271a:	96 95       	lsr	r25
    271c:	96 95       	lsr	r25
    271e:	20 e1       	ldi	r18, 0x10	; 16
    2720:	92 9f       	mul	r25, r18
    2722:	a0 01       	movw	r20, r0
    2724:	11 24       	eor	r1, r1
    2726:	99 0f       	add	r25, r25
    2728:	29 2f       	mov	r18, r25
    272a:	22 0f       	add	r18, r18
    272c:	22 0f       	add	r18, r18
    272e:	92 0f       	add	r25, r18
    2730:	89 1b       	sub	r24, r25
    2732:	84 2b       	or	r24, r20
    2734:	08 95       	ret

00002736 <RTC_ConvertFromDec>:
    2736:	98 2f       	mov	r25, r24
    2738:	92 95       	swap	r25
    273a:	9f 70       	andi	r25, 0x0F	; 15
    273c:	99 0f       	add	r25, r25
    273e:	29 2f       	mov	r18, r25
    2740:	22 0f       	add	r18, r18
    2742:	22 0f       	add	r18, r18
    2744:	92 0f       	add	r25, r18
    2746:	8f 70       	andi	r24, 0x0F	; 15
    2748:	89 0f       	add	r24, r25
    274a:	08 95       	ret

0000274c <RTC_init>:
    274c:	0e 94 8b 14 	call	0x2916	; 0x2916 <I2C_StartCondition>
    2750:	80 ed       	ldi	r24, 0xD0	; 208
    2752:	0e 94 97 14 	call	0x292e	; 0x292e <I2C_SendByte>
    2756:	8e e0       	ldi	r24, 0x0E	; 14
    2758:	0e 94 97 14 	call	0x292e	; 0x292e <I2C_SendByte>
    275c:	80 e2       	ldi	r24, 0x20	; 32
    275e:	0e 94 97 14 	call	0x292e	; 0x292e <I2C_SendByte>
    2762:	88 e0       	ldi	r24, 0x08	; 8
    2764:	0e 94 97 14 	call	0x292e	; 0x292e <I2C_SendByte>
    2768:	0e 94 93 14 	call	0x2926	; 0x2926 <I2C_StopCondition>
    276c:	08 95       	ret

0000276e <ModifyRTC>:
	t2=t2*5;
}
*/
void ModifyRTC(void)
{
	I2C_StartCondition();
    276e:	0e 94 8b 14 	call	0x2916	; 0x2916 <I2C_StartCondition>
	I2C_SendByte(0b11010000);
    2772:	80 ed       	ldi	r24, 0xD0	; 208
    2774:	0e 94 97 14 	call	0x292e	; 0x292e <I2C_SendByte>
	switch(clock_change_mode)
    2778:	80 91 fe 07 	lds	r24, 0x07FE	; 0x8007fe <clock_change_mode>
    277c:	83 30       	cpi	r24, 0x03	; 3
    277e:	99 f1       	breq	.+102    	; 0x27e6 <ModifyRTC+0x78>
    2780:	28 f4       	brcc	.+10     	; 0x278c <ModifyRTC+0x1e>
    2782:	81 30       	cpi	r24, 0x01	; 1
    2784:	61 f0       	breq	.+24     	; 0x279e <ModifyRTC+0x30>
    2786:	82 30       	cpi	r24, 0x02	; 2
    2788:	e1 f0       	breq	.+56     	; 0x27c2 <ModifyRTC+0x54>
    278a:	be c0       	rjmp	.+380    	; 0x2908 <ModifyRTC+0x19a>
    278c:	85 30       	cpi	r24, 0x05	; 5
    278e:	09 f4       	brne	.+2      	; 0x2792 <ModifyRTC+0x24>
    2790:	98 c0       	rjmp	.+304    	; 0x28c2 <ModifyRTC+0x154>
    2792:	08 f4       	brcc	.+2      	; 0x2796 <ModifyRTC+0x28>
    2794:	84 c0       	rjmp	.+264    	; 0x289e <ModifyRTC+0x130>
    2796:	86 30       	cpi	r24, 0x06	; 6
    2798:	09 f4       	brne	.+2      	; 0x279c <ModifyRTC+0x2e>
    279a:	a5 c0       	rjmp	.+330    	; 0x28e6 <ModifyRTC+0x178>
    279c:	b5 c0       	rjmp	.+362    	; 0x2908 <ModifyRTC+0x19a>
	{
		case MODE_CHANGE_HOURS: //часы
		{
			I2C_SendByte(2);//Переходим на 0x02 — байт часов
    279e:	82 e0       	ldi	r24, 0x02	; 2
    27a0:	0e 94 97 14 	call	0x292e	; 0x292e <I2C_SendByte>
			if (hour < 23) I2C_SendByte(RTC_ConvertFromBinDec( hour ));
    27a4:	80 91 f7 07 	lds	r24, 0x07F7	; 0x8007f7 <hour>
    27a8:	87 31       	cpi	r24, 0x17	; 23
    27aa:	28 f4       	brcc	.+10     	; 0x27b6 <ModifyRTC+0x48>
    27ac:	0e 94 88 13 	call	0x2710	; 0x2710 <RTC_ConvertFromBinDec>
    27b0:	0e 94 97 14 	call	0x292e	; 0x292e <I2C_SendByte>
    27b4:	a9 c0       	rjmp	.+338    	; 0x2908 <ModifyRTC+0x19a>
			else I2C_SendByte(RTC_ConvertFromBinDec(0));
    27b6:	80 e0       	ldi	r24, 0x00	; 0
    27b8:	0e 94 88 13 	call	0x2710	; 0x2710 <RTC_ConvertFromBinDec>
    27bc:	0e 94 97 14 	call	0x292e	; 0x292e <I2C_SendByte>
    27c0:	a3 c0       	rjmp	.+326    	; 0x2908 <ModifyRTC+0x19a>
			break;
		}
		case MODE_CHANGE_MINUTES: // минуты
		{
			I2C_SendByte(1);//Переходим на 0x01 — байт минут
    27c2:	81 e0       	ldi	r24, 0x01	; 1
    27c4:	0e 94 97 14 	call	0x292e	; 0x292e <I2C_SendByte>
			if(min<59) I2C_SendByte(RTC_ConvertFromBinDec(min));
    27c8:	80 91 03 08 	lds	r24, 0x0803	; 0x800803 <min>
    27cc:	8b 33       	cpi	r24, 0x3B	; 59
    27ce:	28 f4       	brcc	.+10     	; 0x27da <ModifyRTC+0x6c>
    27d0:	0e 94 88 13 	call	0x2710	; 0x2710 <RTC_ConvertFromBinDec>
    27d4:	0e 94 97 14 	call	0x292e	; 0x292e <I2C_SendByte>
    27d8:	97 c0       	rjmp	.+302    	; 0x2908 <ModifyRTC+0x19a>
			else I2C_SendByte(RTC_ConvertFromBinDec(0));
    27da:	80 e0       	ldi	r24, 0x00	; 0
    27dc:	0e 94 88 13 	call	0x2710	; 0x2710 <RTC_ConvertFromBinDec>
    27e0:	0e 94 97 14 	call	0x292e	; 0x292e <I2C_SendByte>
    27e4:	91 c0       	rjmp	.+290    	; 0x2908 <ModifyRTC+0x19a>
			break;
		}
		case MODE_CHANGE_DATE: // дата
		{
			I2C_SendByte(4);//Переходим на 0x04 — байт даты
    27e6:	84 e0       	ldi	r24, 0x04	; 4
    27e8:	0e 94 97 14 	call	0x292e	; 0x292e <I2C_SendByte>
			if (month==2) //февраль
    27ec:	80 91 f3 07 	lds	r24, 0x07F3	; 0x8007f3 <month>
    27f0:	82 30       	cpi	r24, 0x02	; 2
    27f2:	11 f5       	brne	.+68     	; 0x2838 <ModifyRTC+0xca>
			{
				if(year%4==0) //високосный год
    27f4:	80 91 0c 08 	lds	r24, 0x080C	; 0x80080c <year>
    27f8:	83 70       	andi	r24, 0x03	; 3
    27fa:	79 f4       	brne	.+30     	; 0x281a <ModifyRTC+0xac>
				{
					if(date<29) I2C_SendByte(RTC_ConvertFromBinDec(date));
    27fc:	80 91 10 08 	lds	r24, 0x0810	; 0x800810 <date>
    2800:	8d 31       	cpi	r24, 0x1D	; 29
    2802:	28 f4       	brcc	.+10     	; 0x280e <ModifyRTC+0xa0>
    2804:	0e 94 88 13 	call	0x2710	; 0x2710 <RTC_ConvertFromBinDec>
    2808:	0e 94 97 14 	call	0x292e	; 0x292e <I2C_SendByte>
    280c:	7d c0       	rjmp	.+250    	; 0x2908 <ModifyRTC+0x19a>
					else I2C_SendByte(RTC_ConvertFromBinDec(1));
    280e:	81 e0       	ldi	r24, 0x01	; 1
    2810:	0e 94 88 13 	call	0x2710	; 0x2710 <RTC_ConvertFromBinDec>
    2814:	0e 94 97 14 	call	0x292e	; 0x292e <I2C_SendByte>
    2818:	77 c0       	rjmp	.+238    	; 0x2908 <ModifyRTC+0x19a>
				}
				else
				{
					if(date<28) I2C_SendByte(RTC_ConvertFromBinDec(date));
    281a:	80 91 10 08 	lds	r24, 0x0810	; 0x800810 <date>
    281e:	8c 31       	cpi	r24, 0x1C	; 28
    2820:	28 f4       	brcc	.+10     	; 0x282c <ModifyRTC+0xbe>
    2822:	0e 94 88 13 	call	0x2710	; 0x2710 <RTC_ConvertFromBinDec>
    2826:	0e 94 97 14 	call	0x292e	; 0x292e <I2C_SendByte>
    282a:	6e c0       	rjmp	.+220    	; 0x2908 <ModifyRTC+0x19a>
					else I2C_SendByte(RTC_ConvertFromBinDec(1));
    282c:	81 e0       	ldi	r24, 0x01	; 1
    282e:	0e 94 88 13 	call	0x2710	; 0x2710 <RTC_ConvertFromBinDec>
    2832:	0e 94 97 14 	call	0x292e	; 0x292e <I2C_SendByte>
    2836:	68 c0       	rjmp	.+208    	; 0x2908 <ModifyRTC+0x19a>
				}
			}
			else if ((month==4)|(month==6)|(month==9)|(month==11))
    2838:	21 e0       	ldi	r18, 0x01	; 1
    283a:	84 30       	cpi	r24, 0x04	; 4
    283c:	09 f0       	breq	.+2      	; 0x2840 <ModifyRTC+0xd2>
    283e:	20 e0       	ldi	r18, 0x00	; 0
    2840:	91 e0       	ldi	r25, 0x01	; 1
    2842:	86 30       	cpi	r24, 0x06	; 6
    2844:	09 f0       	breq	.+2      	; 0x2848 <ModifyRTC+0xda>
    2846:	90 e0       	ldi	r25, 0x00	; 0
    2848:	29 2b       	or	r18, r25
    284a:	91 e0       	ldi	r25, 0x01	; 1
    284c:	89 30       	cpi	r24, 0x09	; 9
    284e:	09 f0       	breq	.+2      	; 0x2852 <ModifyRTC+0xe4>
    2850:	90 e0       	ldi	r25, 0x00	; 0
    2852:	31 e0       	ldi	r19, 0x01	; 1
    2854:	8b 30       	cpi	r24, 0x0B	; 11
    2856:	09 f0       	breq	.+2      	; 0x285a <ModifyRTC+0xec>
    2858:	30 e0       	ldi	r19, 0x00	; 0
    285a:	92 2b       	or	r25, r18
    285c:	11 f4       	brne	.+4      	; 0x2862 <ModifyRTC+0xf4>
    285e:	33 23       	and	r19, r19
    2860:	79 f0       	breq	.+30     	; 0x2880 <ModifyRTC+0x112>
			{
				if(date<30) I2C_SendByte(RTC_ConvertFromBinDec(date));
    2862:	80 91 10 08 	lds	r24, 0x0810	; 0x800810 <date>
    2866:	8e 31       	cpi	r24, 0x1E	; 30
    2868:	28 f4       	brcc	.+10     	; 0x2874 <ModifyRTC+0x106>
    286a:	0e 94 88 13 	call	0x2710	; 0x2710 <RTC_ConvertFromBinDec>
    286e:	0e 94 97 14 	call	0x292e	; 0x292e <I2C_SendByte>
    2872:	4a c0       	rjmp	.+148    	; 0x2908 <ModifyRTC+0x19a>
				else I2C_SendByte(RTC_ConvertFromBinDec(1));
    2874:	81 e0       	ldi	r24, 0x01	; 1
    2876:	0e 94 88 13 	call	0x2710	; 0x2710 <RTC_ConvertFromBinDec>
    287a:	0e 94 97 14 	call	0x292e	; 0x292e <I2C_SendByte>
    287e:	44 c0       	rjmp	.+136    	; 0x2908 <ModifyRTC+0x19a>
			}
			else
			{
				if(date<31) I2C_SendByte(RTC_ConvertFromBinDec(date));
    2880:	80 91 10 08 	lds	r24, 0x0810	; 0x800810 <date>
    2884:	8f 31       	cpi	r24, 0x1F	; 31
    2886:	28 f4       	brcc	.+10     	; 0x2892 <ModifyRTC+0x124>
    2888:	0e 94 88 13 	call	0x2710	; 0x2710 <RTC_ConvertFromBinDec>
    288c:	0e 94 97 14 	call	0x292e	; 0x292e <I2C_SendByte>
    2890:	3b c0       	rjmp	.+118    	; 0x2908 <ModifyRTC+0x19a>
				else I2C_SendByte(RTC_ConvertFromBinDec(1));
    2892:	81 e0       	ldi	r24, 0x01	; 1
    2894:	0e 94 88 13 	call	0x2710	; 0x2710 <RTC_ConvertFromBinDec>
    2898:	0e 94 97 14 	call	0x292e	; 0x292e <I2C_SendByte>
    289c:	35 c0       	rjmp	.+106    	; 0x2908 <ModifyRTC+0x19a>
			}
			break;
		}
		case MODE_CHANGE_MONTH: // месяц
		{
			I2C_SendByte(5);//Переходим на 0x05 — байт месяца
    289e:	85 e0       	ldi	r24, 0x05	; 5
    28a0:	0e 94 97 14 	call	0x292e	; 0x292e <I2C_SendByte>
			if(month<12) I2C_SendByte(RTC_ConvertFromBinDec(month));
    28a4:	80 91 f3 07 	lds	r24, 0x07F3	; 0x8007f3 <month>
    28a8:	8c 30       	cpi	r24, 0x0C	; 12
    28aa:	28 f4       	brcc	.+10     	; 0x28b6 <ModifyRTC+0x148>
    28ac:	0e 94 88 13 	call	0x2710	; 0x2710 <RTC_ConvertFromBinDec>
    28b0:	0e 94 97 14 	call	0x292e	; 0x292e <I2C_SendByte>
    28b4:	29 c0       	rjmp	.+82     	; 0x2908 <ModifyRTC+0x19a>
			else I2C_SendByte(RTC_ConvertFromBinDec(1));
    28b6:	81 e0       	ldi	r24, 0x01	; 1
    28b8:	0e 94 88 13 	call	0x2710	; 0x2710 <RTC_ConvertFromBinDec>
    28bc:	0e 94 97 14 	call	0x292e	; 0x292e <I2C_SendByte>
    28c0:	23 c0       	rjmp	.+70     	; 0x2908 <ModifyRTC+0x19a>
			break;
		}
		case MODE_CHANGE_YEAR: // год
		{
			I2C_SendByte(6);//Переходим на 0x06 — байт года
    28c2:	86 e0       	ldi	r24, 0x06	; 6
    28c4:	0e 94 97 14 	call	0x292e	; 0x292e <I2C_SendByte>
			if(year<99) I2C_SendByte(RTC_ConvertFromBinDec(year));
    28c8:	80 91 0c 08 	lds	r24, 0x080C	; 0x80080c <year>
    28cc:	83 36       	cpi	r24, 0x63	; 99
    28ce:	28 f4       	brcc	.+10     	; 0x28da <ModifyRTC+0x16c>
    28d0:	0e 94 88 13 	call	0x2710	; 0x2710 <RTC_ConvertFromBinDec>
    28d4:	0e 94 97 14 	call	0x292e	; 0x292e <I2C_SendByte>
    28d8:	17 c0       	rjmp	.+46     	; 0x2908 <ModifyRTC+0x19a>
			else I2C_SendByte(RTC_ConvertFromBinDec(1));
    28da:	81 e0       	ldi	r24, 0x01	; 1
    28dc:	0e 94 88 13 	call	0x2710	; 0x2710 <RTC_ConvertFromBinDec>
    28e0:	0e 94 97 14 	call	0x292e	; 0x292e <I2C_SendByte>
    28e4:	11 c0       	rjmp	.+34     	; 0x2908 <ModifyRTC+0x19a>
			break;
		}
		case MODE_CHANGE_WEAKDAY: // день недели
		{
			I2C_SendByte(3);//Переходим на 0x03 — байт дня недели
    28e6:	83 e0       	ldi	r24, 0x03	; 3
    28e8:	0e 94 97 14 	call	0x292e	; 0x292e <I2C_SendByte>
			if(day<7) I2C_SendByte(RTC_ConvertFromBinDec(day));
    28ec:	80 91 0e 08 	lds	r24, 0x080E	; 0x80080e <day>
    28f0:	87 30       	cpi	r24, 0x07	; 7
    28f2:	28 f4       	brcc	.+10     	; 0x28fe <ModifyRTC+0x190>
    28f4:	0e 94 88 13 	call	0x2710	; 0x2710 <RTC_ConvertFromBinDec>
    28f8:	0e 94 97 14 	call	0x292e	; 0x292e <I2C_SendByte>
    28fc:	05 c0       	rjmp	.+10     	; 0x2908 <ModifyRTC+0x19a>
			else I2C_SendByte(RTC_ConvertFromBinDec(1));
    28fe:	81 e0       	ldi	r24, 0x01	; 1
    2900:	0e 94 88 13 	call	0x2710	; 0x2710 <RTC_ConvertFromBinDec>
    2904:	0e 94 97 14 	call	0x292e	; 0x292e <I2C_SendByte>
			if(alarmmin<59) EEPROM_write(3,alarmmin+1);
			else EEPROM_write(3,0);
			break;
		}*/
	}
	I2C_StopCondition();
    2908:	0e 94 93 14 	call	0x2926	; 0x2926 <I2C_StopCondition>
    290c:	08 95       	ret

0000290e <I2C_Init>:
{
    I2C_StartCondition(); // Отправим условие START
	I2C_SendByte(addr); // Отправим в шину адрес устройства + бит чтения-записи
	I2C_SendByte(c);// Отправим байт данных
	I2C_StopCondition();// Отправим условие STOP
}
    290e:	80 e2       	ldi	r24, 0x20	; 32
    2910:	80 93 b8 00 	sts	0x00B8, r24	; 0x8000b8 <__TEXT_REGION_LENGTH__+0x7f80b8>
    2914:	08 95       	ret

00002916 <I2C_StartCondition>:
    2916:	84 ea       	ldi	r24, 0xA4	; 164
    2918:	80 93 bc 00 	sts	0x00BC, r24	; 0x8000bc <__TEXT_REGION_LENGTH__+0x7f80bc>
    291c:	80 91 bc 00 	lds	r24, 0x00BC	; 0x8000bc <__TEXT_REGION_LENGTH__+0x7f80bc>
    2920:	88 23       	and	r24, r24
    2922:	e4 f7       	brge	.-8      	; 0x291c <I2C_StartCondition+0x6>
    2924:	08 95       	ret

00002926 <I2C_StopCondition>:
    2926:	84 e9       	ldi	r24, 0x94	; 148
    2928:	80 93 bc 00 	sts	0x00BC, r24	; 0x8000bc <__TEXT_REGION_LENGTH__+0x7f80bc>
    292c:	08 95       	ret

0000292e <I2C_SendByte>:
    292e:	80 93 bb 00 	sts	0x00BB, r24	; 0x8000bb <__TEXT_REGION_LENGTH__+0x7f80bb>
    2932:	84 e8       	ldi	r24, 0x84	; 132
    2934:	80 93 bc 00 	sts	0x00BC, r24	; 0x8000bc <__TEXT_REGION_LENGTH__+0x7f80bc>
    2938:	80 91 bc 00 	lds	r24, 0x00BC	; 0x8000bc <__TEXT_REGION_LENGTH__+0x7f80bc>
    293c:	88 23       	and	r24, r24
    293e:	e4 f7       	brge	.-8      	; 0x2938 <I2C_SendByte+0xa>
    2940:	08 95       	ret

00002942 <I2C_ReadByte>:
unsigned char I2C_ReadByte(void)
{
	TWCR = (1<<TWINT)|(1<<TWEN)|(1<<TWEA);
    2942:	84 ec       	ldi	r24, 0xC4	; 196
    2944:	80 93 bc 00 	sts	0x00BC, r24	; 0x8000bc <__TEXT_REGION_LENGTH__+0x7f80bc>
	while (!(TWCR & (1<<TWINT)));//ожидание установки бита TWIN
    2948:	80 91 bc 00 	lds	r24, 0x00BC	; 0x8000bc <__TEXT_REGION_LENGTH__+0x7f80bc>
    294c:	88 23       	and	r24, r24
    294e:	e4 f7       	brge	.-8      	; 0x2948 <I2C_ReadByte+0x6>
	return TWDR;//читаем регистр данных
    2950:	80 91 bb 00 	lds	r24, 0x00BB	; 0x8000bb <__TEXT_REGION_LENGTH__+0x7f80bb>
}
    2954:	08 95       	ret

00002956 <I2C_ReadLastByte>:
unsigned char I2C_ReadLastByte(void)
{
	TWCR = (1<<TWINT)|(1<<TWEN);
    2956:	84 e8       	ldi	r24, 0x84	; 132
    2958:	80 93 bc 00 	sts	0x00BC, r24	; 0x8000bc <__TEXT_REGION_LENGTH__+0x7f80bc>
	while (!(TWCR & (1<<TWINT)));//ожидание установки бита TWIN
    295c:	80 91 bc 00 	lds	r24, 0x00BC	; 0x8000bc <__TEXT_REGION_LENGTH__+0x7f80bc>
    2960:	88 23       	and	r24, r24
    2962:	e4 f7       	brge	.-8      	; 0x295c <I2C_ReadLastByte+0x6>
	return TWDR;//читаем регистр данных
    2964:	80 91 bb 00 	lds	r24, 0x00BB	; 0x8000bb <__TEXT_REGION_LENGTH__+0x7f80bb>
    2968:	08 95       	ret

0000296a <USART_Init>:
 */ 
#include "usart.h"

void USART_Init( unsigned int speed)//Инициализация модуля USART
{	
  UBRR0H = (unsigned char)(speed>>8);
    296a:	90 93 c5 00 	sts	0x00C5, r25	; 0x8000c5 <__TEXT_REGION_LENGTH__+0x7f80c5>
  UBRR0L = (unsigned char)speed;
    296e:	80 93 c4 00 	sts	0x00C4, r24	; 0x8000c4 <__TEXT_REGION_LENGTH__+0x7f80c4>
  UCSR0B=(1<<RXEN0)|( 1<<TXEN0); //Включаем прием и передачу по USART
    2972:	e1 ec       	ldi	r30, 0xC1	; 193
    2974:	f0 e0       	ldi	r31, 0x00	; 0
    2976:	88 e1       	ldi	r24, 0x18	; 24
    2978:	80 83       	st	Z, r24
  UCSR0B |= (1<<RXCIE0); //Разрешаем прерывание при приеме
    297a:	80 81       	ld	r24, Z
    297c:	80 68       	ori	r24, 0x80	; 128
    297e:	80 83       	st	Z, r24
  UCSR0A |= (1<<U2X0); // Для 8 мгц, удвоение скорости
    2980:	e0 ec       	ldi	r30, 0xC0	; 192
    2982:	f0 e0       	ldi	r31, 0x00	; 0
    2984:	80 81       	ld	r24, Z
    2986:	82 60       	ori	r24, 0x02	; 2
    2988:	80 83       	st	Z, r24
  UCSR0C |= (1<<USBS0)|(1<<UCSZ01)|(1<<UCSZ00);// Обращаемся именно к регистру UCSRC (URSEL=1),
    298a:	e2 ec       	ldi	r30, 0xC2	; 194
    298c:	f0 e0       	ldi	r31, 0x00	; 0
    298e:	80 81       	ld	r24, Z
    2990:	8e 60       	ori	r24, 0x0E	; 14
    2992:	80 83       	st	Z, r24
    2994:	08 95       	ret

00002996 <USART_Transmit>:
  //ассинхронный режим (UMSEL=0), без контроля четности (UPM1=0 и UPM0=0),
  //2 стоп-бит (USBS=1), 8-бит посылка (UCSZ1=1 и UCSZ0=1)
  //UCSRC |= (1<<UPM1);//четность
}
void USART_Transmit( char* data ) //Функция отправки данных
{
    2996:	dc 01       	movw	r26, r24
  uint8_t i;
  for (i = 0; i < strlen(data); i++)
    2998:	80 e0       	ldi	r24, 0x00	; 0
    299a:	0b c0       	rjmp	.+22     	; 0x29b2 <USART_Transmit+0x1c>
  {
	  while ( !(UCSR0A & (1<<UDRE0)) ); //Ожидание опустошения буфера приема
    299c:	90 91 c0 00 	lds	r25, 0x00C0	; 0x8000c0 <__TEXT_REGION_LENGTH__+0x7f80c0>
    29a0:	95 ff       	sbrs	r25, 5
    29a2:	fc cf       	rjmp	.-8      	; 0x299c <USART_Transmit+0x6>
	  UDR0 = data[i]; //Начало передачи данных
    29a4:	fd 01       	movw	r30, r26
    29a6:	e2 0f       	add	r30, r18
    29a8:	f3 1f       	adc	r31, r19
    29aa:	90 81       	ld	r25, Z
    29ac:	90 93 c6 00 	sts	0x00C6, r25	; 0x8000c6 <__TEXT_REGION_LENGTH__+0x7f80c6>
  //UCSRC |= (1<<UPM1);//четность
}
void USART_Transmit( char* data ) //Функция отправки данных
{
  uint8_t i;
  for (i = 0; i < strlen(data); i++)
    29b0:	8f 5f       	subi	r24, 0xFF	; 255
    29b2:	28 2f       	mov	r18, r24
    29b4:	30 e0       	ldi	r19, 0x00	; 0
    29b6:	fd 01       	movw	r30, r26
    29b8:	01 90       	ld	r0, Z+
    29ba:	00 20       	and	r0, r0
    29bc:	e9 f7       	brne	.-6      	; 0x29b8 <USART_Transmit+0x22>
    29be:	31 97       	sbiw	r30, 0x01	; 1
    29c0:	ea 1b       	sub	r30, r26
    29c2:	fb 0b       	sbc	r31, r27
    29c4:	2e 17       	cp	r18, r30
    29c6:	3f 07       	cpc	r19, r31
    29c8:	48 f3       	brcs	.-46     	; 0x299c <USART_Transmit+0x6>
  {
	  while ( !(UCSR0A & (1<<UDRE0)) ); //Ожидание опустошения буфера приема
	  UDR0 = data[i]; //Начало передачи данных
  }

}
    29ca:	08 95       	ret

000029cc <Print_Menu_Page>:
	LCD_12864_Draw_bitmap(Frame_buffer);
	LCD_12864_GrapnicMode(0);
}
//Окно меню
void Print_Menu_Page(uint8_t *Frame_buffer)
{
    29cc:	cf 93       	push	r28
    29ce:	df 93       	push	r29
    29d0:	ec 01       	movw	r28, r24
	LCD_12864_GrapnicMode(1);
    29d2:	81 e0       	ldi	r24, 0x01	; 1
    29d4:	0e 94 c9 07 	call	0xf92	; 0xf92 <LCD_12864_GrapnicMode>
	LCD_12864_Clean_Frame_buffer();
    29d8:	0e 94 0d 0c 	call	0x181a	; 0x181a <LCD_12864_Clean_Frame_buffer>
	LCD_12864_Decode_UTF8(30, 0, 1, "ГЛАВНОЕ МЕНЮ");
    29dc:	29 e8       	ldi	r18, 0x89	; 137
    29de:	31 e0       	ldi	r19, 0x01	; 1
    29e0:	41 e0       	ldi	r20, 0x01	; 1
    29e2:	60 e0       	ldi	r22, 0x00	; 0
    29e4:	8e e1       	ldi	r24, 0x1E	; 30
    29e6:	90 e0       	ldi	r25, 0x00	; 0
    29e8:	0e 94 6b 0b 	call	0x16d6	; 0x16d6 <LCD_12864_Decode_UTF8>
	switch (cnt%4)
    29ec:	80 91 28 03 	lds	r24, 0x0328	; 0x800328 <cnt>
    29f0:	83 78       	andi	r24, 0x83	; 131
    29f2:	1c f4       	brge	.+6      	; 0x29fa <Print_Menu_Page+0x2e>
    29f4:	81 50       	subi	r24, 0x01	; 1
    29f6:	8c 6f       	ori	r24, 0xFC	; 252
    29f8:	8f 5f       	subi	r24, 0xFF	; 255
    29fa:	81 30       	cpi	r24, 0x01	; 1
    29fc:	61 f1       	breq	.+88     	; 0x2a56 <Print_Menu_Page+0x8a>
    29fe:	1c f4       	brge	.+6      	; 0x2a06 <Print_Menu_Page+0x3a>
    2a00:	88 23       	and	r24, r24
    2a02:	41 f0       	breq	.+16     	; 0x2a14 <Print_Menu_Page+0x48>
    2a04:	8a c0       	rjmp	.+276    	; 0x2b1a <Print_Menu_Page+0x14e>
    2a06:	82 30       	cpi	r24, 0x02	; 2
    2a08:	09 f4       	brne	.+2      	; 0x2a0c <Print_Menu_Page+0x40>
    2a0a:	46 c0       	rjmp	.+140    	; 0x2a98 <Print_Menu_Page+0xcc>
    2a0c:	83 30       	cpi	r24, 0x03	; 3
    2a0e:	09 f4       	brne	.+2      	; 0x2a12 <Print_Menu_Page+0x46>
    2a10:	64 c0       	rjmp	.+200    	; 0x2ada <Print_Menu_Page+0x10e>
    2a12:	83 c0       	rjmp	.+262    	; 0x2b1a <Print_Menu_Page+0x14e>
	{
		case 0: LCD_12864_Decode_UTF8(15, 2, 1, "Главное инфо-окно");
    2a14:	26 e9       	ldi	r18, 0x96	; 150
    2a16:	31 e0       	ldi	r19, 0x01	; 1
    2a18:	41 e0       	ldi	r20, 0x01	; 1
    2a1a:	62 e0       	ldi	r22, 0x02	; 2
    2a1c:	8f e0       	ldi	r24, 0x0F	; 15
    2a1e:	90 e0       	ldi	r25, 0x00	; 0
    2a20:	0e 94 6b 0b 	call	0x16d6	; 0x16d6 <LCD_12864_Decode_UTF8>
				LCD_12864_Decode_UTF8(15, 3, 0, "Настройка времени");
    2a24:	28 ea       	ldi	r18, 0xA8	; 168
    2a26:	31 e0       	ldi	r19, 0x01	; 1
    2a28:	40 e0       	ldi	r20, 0x00	; 0
    2a2a:	63 e0       	ldi	r22, 0x03	; 3
    2a2c:	8f e0       	ldi	r24, 0x0F	; 15
    2a2e:	90 e0       	ldi	r25, 0x00	; 0
    2a30:	0e 94 6b 0b 	call	0x16d6	; 0x16d6 <LCD_12864_Decode_UTF8>
				LCD_12864_Decode_UTF8(15, 4, 0, "Справка");
    2a34:	2a eb       	ldi	r18, 0xBA	; 186
    2a36:	31 e0       	ldi	r19, 0x01	; 1
    2a38:	40 e0       	ldi	r20, 0x00	; 0
    2a3a:	64 e0       	ldi	r22, 0x04	; 4
    2a3c:	8f e0       	ldi	r24, 0x0F	; 15
    2a3e:	90 e0       	ldi	r25, 0x00	; 0
    2a40:	0e 94 6b 0b 	call	0x16d6	; 0x16d6 <LCD_12864_Decode_UTF8>
				LCD_12864_Decode_UTF8(15, 5, 0, "Доп.инфо");
    2a44:	22 ec       	ldi	r18, 0xC2	; 194
    2a46:	31 e0       	ldi	r19, 0x01	; 1
    2a48:	40 e0       	ldi	r20, 0x00	; 0
    2a4a:	65 e0       	ldi	r22, 0x05	; 5
    2a4c:	8f e0       	ldi	r24, 0x0F	; 15
    2a4e:	90 e0       	ldi	r25, 0x00	; 0
    2a50:	0e 94 6b 0b 	call	0x16d6	; 0x16d6 <LCD_12864_Decode_UTF8>
				break;
    2a54:	62 c0       	rjmp	.+196    	; 0x2b1a <Print_Menu_Page+0x14e>
		case 1: LCD_12864_Decode_UTF8(15, 2, 0, "Главное инфо-окно");
    2a56:	26 e9       	ldi	r18, 0x96	; 150
    2a58:	31 e0       	ldi	r19, 0x01	; 1
    2a5a:	40 e0       	ldi	r20, 0x00	; 0
    2a5c:	62 e0       	ldi	r22, 0x02	; 2
    2a5e:	8f e0       	ldi	r24, 0x0F	; 15
    2a60:	90 e0       	ldi	r25, 0x00	; 0
    2a62:	0e 94 6b 0b 	call	0x16d6	; 0x16d6 <LCD_12864_Decode_UTF8>
				LCD_12864_Decode_UTF8(15, 3, 1, "Настройка времени");
    2a66:	28 ea       	ldi	r18, 0xA8	; 168
    2a68:	31 e0       	ldi	r19, 0x01	; 1
    2a6a:	41 e0       	ldi	r20, 0x01	; 1
    2a6c:	63 e0       	ldi	r22, 0x03	; 3
    2a6e:	8f e0       	ldi	r24, 0x0F	; 15
    2a70:	90 e0       	ldi	r25, 0x00	; 0
    2a72:	0e 94 6b 0b 	call	0x16d6	; 0x16d6 <LCD_12864_Decode_UTF8>
				LCD_12864_Decode_UTF8(15, 4, 0, "Справка");
    2a76:	2a eb       	ldi	r18, 0xBA	; 186
    2a78:	31 e0       	ldi	r19, 0x01	; 1
    2a7a:	40 e0       	ldi	r20, 0x00	; 0
    2a7c:	64 e0       	ldi	r22, 0x04	; 4
    2a7e:	8f e0       	ldi	r24, 0x0F	; 15
    2a80:	90 e0       	ldi	r25, 0x00	; 0
    2a82:	0e 94 6b 0b 	call	0x16d6	; 0x16d6 <LCD_12864_Decode_UTF8>
				LCD_12864_Decode_UTF8(15, 5, 0, "Доп.инфо");
    2a86:	22 ec       	ldi	r18, 0xC2	; 194
    2a88:	31 e0       	ldi	r19, 0x01	; 1
    2a8a:	40 e0       	ldi	r20, 0x00	; 0
    2a8c:	65 e0       	ldi	r22, 0x05	; 5
    2a8e:	8f e0       	ldi	r24, 0x0F	; 15
    2a90:	90 e0       	ldi	r25, 0x00	; 0
    2a92:	0e 94 6b 0b 	call	0x16d6	; 0x16d6 <LCD_12864_Decode_UTF8>
				break;
    2a96:	41 c0       	rjmp	.+130    	; 0x2b1a <Print_Menu_Page+0x14e>
		case 2: LCD_12864_Decode_UTF8(15, 2, 0, "Главное инфо-окно");
    2a98:	26 e9       	ldi	r18, 0x96	; 150
    2a9a:	31 e0       	ldi	r19, 0x01	; 1
    2a9c:	40 e0       	ldi	r20, 0x00	; 0
    2a9e:	62 e0       	ldi	r22, 0x02	; 2
    2aa0:	8f e0       	ldi	r24, 0x0F	; 15
    2aa2:	90 e0       	ldi	r25, 0x00	; 0
    2aa4:	0e 94 6b 0b 	call	0x16d6	; 0x16d6 <LCD_12864_Decode_UTF8>
				LCD_12864_Decode_UTF8(15, 3, 0, "Настройка времени");
    2aa8:	28 ea       	ldi	r18, 0xA8	; 168
    2aaa:	31 e0       	ldi	r19, 0x01	; 1
    2aac:	40 e0       	ldi	r20, 0x00	; 0
    2aae:	63 e0       	ldi	r22, 0x03	; 3
    2ab0:	8f e0       	ldi	r24, 0x0F	; 15
    2ab2:	90 e0       	ldi	r25, 0x00	; 0
    2ab4:	0e 94 6b 0b 	call	0x16d6	; 0x16d6 <LCD_12864_Decode_UTF8>
				LCD_12864_Decode_UTF8(15, 4, 1, "Справка");
    2ab8:	2a eb       	ldi	r18, 0xBA	; 186
    2aba:	31 e0       	ldi	r19, 0x01	; 1
    2abc:	41 e0       	ldi	r20, 0x01	; 1
    2abe:	64 e0       	ldi	r22, 0x04	; 4
    2ac0:	8f e0       	ldi	r24, 0x0F	; 15
    2ac2:	90 e0       	ldi	r25, 0x00	; 0
    2ac4:	0e 94 6b 0b 	call	0x16d6	; 0x16d6 <LCD_12864_Decode_UTF8>
				LCD_12864_Decode_UTF8(15, 5, 0, "Доп.инфо");
    2ac8:	22 ec       	ldi	r18, 0xC2	; 194
    2aca:	31 e0       	ldi	r19, 0x01	; 1
    2acc:	40 e0       	ldi	r20, 0x00	; 0
    2ace:	65 e0       	ldi	r22, 0x05	; 5
    2ad0:	8f e0       	ldi	r24, 0x0F	; 15
    2ad2:	90 e0       	ldi	r25, 0x00	; 0
    2ad4:	0e 94 6b 0b 	call	0x16d6	; 0x16d6 <LCD_12864_Decode_UTF8>
				break;
    2ad8:	20 c0       	rjmp	.+64     	; 0x2b1a <Print_Menu_Page+0x14e>
		case 3: LCD_12864_Decode_UTF8(15, 2, 0, "Главное инфо-окно");
    2ada:	26 e9       	ldi	r18, 0x96	; 150
    2adc:	31 e0       	ldi	r19, 0x01	; 1
    2ade:	40 e0       	ldi	r20, 0x00	; 0
    2ae0:	62 e0       	ldi	r22, 0x02	; 2
    2ae2:	8f e0       	ldi	r24, 0x0F	; 15
    2ae4:	90 e0       	ldi	r25, 0x00	; 0
    2ae6:	0e 94 6b 0b 	call	0x16d6	; 0x16d6 <LCD_12864_Decode_UTF8>
				LCD_12864_Decode_UTF8(15, 3, 0, "Настройка времени");
    2aea:	28 ea       	ldi	r18, 0xA8	; 168
    2aec:	31 e0       	ldi	r19, 0x01	; 1
    2aee:	40 e0       	ldi	r20, 0x00	; 0
    2af0:	63 e0       	ldi	r22, 0x03	; 3
    2af2:	8f e0       	ldi	r24, 0x0F	; 15
    2af4:	90 e0       	ldi	r25, 0x00	; 0
    2af6:	0e 94 6b 0b 	call	0x16d6	; 0x16d6 <LCD_12864_Decode_UTF8>
				LCD_12864_Decode_UTF8(15, 4, 0, "Справка");
    2afa:	2a eb       	ldi	r18, 0xBA	; 186
    2afc:	31 e0       	ldi	r19, 0x01	; 1
    2afe:	40 e0       	ldi	r20, 0x00	; 0
    2b00:	64 e0       	ldi	r22, 0x04	; 4
    2b02:	8f e0       	ldi	r24, 0x0F	; 15
    2b04:	90 e0       	ldi	r25, 0x00	; 0
    2b06:	0e 94 6b 0b 	call	0x16d6	; 0x16d6 <LCD_12864_Decode_UTF8>
				LCD_12864_Decode_UTF8(15, 5, 1, "Доп.инфо");
    2b0a:	22 ec       	ldi	r18, 0xC2	; 194
    2b0c:	31 e0       	ldi	r19, 0x01	; 1
    2b0e:	41 e0       	ldi	r20, 0x01	; 1
    2b10:	65 e0       	ldi	r22, 0x05	; 5
    2b12:	8f e0       	ldi	r24, 0x0F	; 15
    2b14:	90 e0       	ldi	r25, 0x00	; 0
    2b16:	0e 94 6b 0b 	call	0x16d6	; 0x16d6 <LCD_12864_Decode_UTF8>
				break;
	}
	
	LCD_12864_Draw_bitmap(Frame_buffer);
    2b1a:	ce 01       	movw	r24, r28
    2b1c:	0e 94 e8 07 	call	0xfd0	; 0xfd0 <LCD_12864_Draw_bitmap>
	LCD_12864_GrapnicMode(0);
    2b20:	80 e0       	ldi	r24, 0x00	; 0
    2b22:	0e 94 c9 07 	call	0xf92	; 0xf92 <LCD_12864_GrapnicMode>
}
    2b26:	df 91       	pop	r29
    2b28:	cf 91       	pop	r28
    2b2a:	08 95       	ret

00002b2c <Print_Page_About>:
	LCD_12864_Draw_bitmap(Frame_buffer);
	LCD_12864_GrapnicMode(0);
}
//Окно справки
void Print_Page_About(uint8_t *Frame_buffer)
{
    2b2c:	cf 93       	push	r28
    2b2e:	df 93       	push	r29
    2b30:	ec 01       	movw	r28, r24
	LCD_12864_GrapnicMode(1);
    2b32:	81 e0       	ldi	r24, 0x01	; 1
    2b34:	0e 94 c9 07 	call	0xf92	; 0xf92 <LCD_12864_GrapnicMode>
	LCD_12864_Clean_Frame_buffer();
    2b38:	0e 94 0d 0c 	call	0x181a	; 0x181a <LCD_12864_Clean_Frame_buffer>
	
	LCD_12864_Decode_UTF8(25, 0, 1, "Об устройстве");
    2b3c:	2b ec       	ldi	r18, 0xCB	; 203
    2b3e:	31 e0       	ldi	r19, 0x01	; 1
    2b40:	41 e0       	ldi	r20, 0x01	; 1
    2b42:	60 e0       	ldi	r22, 0x00	; 0
    2b44:	89 e1       	ldi	r24, 0x19	; 25
    2b46:	90 e0       	ldi	r25, 0x00	; 0
    2b48:	0e 94 6b 0b 	call	0x16d6	; 0x16d6 <LCD_12864_Decode_UTF8>
	LCD_12864_Decode_UTF8(2, 1, 0, "\"Домашняя метеостан-");
    2b4c:	29 ed       	ldi	r18, 0xD9	; 217
    2b4e:	31 e0       	ldi	r19, 0x01	; 1
    2b50:	40 e0       	ldi	r20, 0x00	; 0
    2b52:	61 e0       	ldi	r22, 0x01	; 1
    2b54:	82 e0       	ldi	r24, 0x02	; 2
    2b56:	90 e0       	ldi	r25, 0x00	; 0
    2b58:	0e 94 6b 0b 	call	0x16d6	; 0x16d6 <LCD_12864_Decode_UTF8>
	LCD_12864_Decode_UTF8(0, 2, 0, "ция (v.1.0)\"-предна-");
    2b5c:	2e ee       	ldi	r18, 0xEE	; 238
    2b5e:	31 e0       	ldi	r19, 0x01	; 1
    2b60:	40 e0       	ldi	r20, 0x00	; 0
    2b62:	62 e0       	ldi	r22, 0x02	; 2
    2b64:	80 e0       	ldi	r24, 0x00	; 0
    2b66:	90 e0       	ldi	r25, 0x00	; 0
    2b68:	0e 94 6b 0b 	call	0x16d6	; 0x16d6 <LCD_12864_Decode_UTF8>
	LCD_12864_Decode_UTF8(0, 3, 0, "значена для сбора и ");
    2b6c:	23 e0       	ldi	r18, 0x03	; 3
    2b6e:	32 e0       	ldi	r19, 0x02	; 2
    2b70:	40 e0       	ldi	r20, 0x00	; 0
    2b72:	63 e0       	ldi	r22, 0x03	; 3
    2b74:	80 e0       	ldi	r24, 0x00	; 0
    2b76:	90 e0       	ldi	r25, 0x00	; 0
    2b78:	0e 94 6b 0b 	call	0x16d6	; 0x16d6 <LCD_12864_Decode_UTF8>
	LCD_12864_Decode_UTF8(0, 4, 0, "обработки информации ");
    2b7c:	28 e1       	ldi	r18, 0x18	; 24
    2b7e:	32 e0       	ldi	r19, 0x02	; 2
    2b80:	40 e0       	ldi	r20, 0x00	; 0
    2b82:	64 e0       	ldi	r22, 0x04	; 4
    2b84:	80 e0       	ldi	r24, 0x00	; 0
    2b86:	90 e0       	ldi	r25, 0x00	; 0
    2b88:	0e 94 6b 0b 	call	0x16d6	; 0x16d6 <LCD_12864_Decode_UTF8>
	LCD_12864_Decode_UTF8(0, 5, 0, "о метео условиях за ");
    2b8c:	2e e2       	ldi	r18, 0x2E	; 46
    2b8e:	32 e0       	ldi	r19, 0x02	; 2
    2b90:	40 e0       	ldi	r20, 0x00	; 0
    2b92:	65 e0       	ldi	r22, 0x05	; 5
    2b94:	80 e0       	ldi	r24, 0x00	; 0
    2b96:	90 e0       	ldi	r25, 0x00	; 0
    2b98:	0e 94 6b 0b 	call	0x16d6	; 0x16d6 <LCD_12864_Decode_UTF8>
	LCD_12864_Decode_UTF8(0, 6, 0, "окном и в помещении.");
    2b9c:	23 e4       	ldi	r18, 0x43	; 67
    2b9e:	32 e0       	ldi	r19, 0x02	; 2
    2ba0:	40 e0       	ldi	r20, 0x00	; 0
    2ba2:	66 e0       	ldi	r22, 0x06	; 6
    2ba4:	80 e0       	ldi	r24, 0x00	; 0
    2ba6:	90 e0       	ldi	r25, 0x00	; 0
    2ba8:	0e 94 6b 0b 	call	0x16d6	; 0x16d6 <LCD_12864_Decode_UTF8>
	LCD_12864_Decode_UTF8(25, 7, 1, "Назад в МЕНЮ");
    2bac:	28 e5       	ldi	r18, 0x58	; 88
    2bae:	32 e0       	ldi	r19, 0x02	; 2
    2bb0:	41 e0       	ldi	r20, 0x01	; 1
    2bb2:	67 e0       	ldi	r22, 0x07	; 7
    2bb4:	89 e1       	ldi	r24, 0x19	; 25
    2bb6:	90 e0       	ldi	r25, 0x00	; 0
    2bb8:	0e 94 6b 0b 	call	0x16d6	; 0x16d6 <LCD_12864_Decode_UTF8>
	
	LCD_12864_Draw_bitmap(Frame_buffer);
    2bbc:	ce 01       	movw	r24, r28
    2bbe:	0e 94 e8 07 	call	0xfd0	; 0xfd0 <LCD_12864_Draw_bitmap>
	LCD_12864_GrapnicMode(0);
    2bc2:	80 e0       	ldi	r24, 0x00	; 0
    2bc4:	0e 94 c9 07 	call	0xf92	; 0xf92 <LCD_12864_GrapnicMode>
}
    2bc8:	df 91       	pop	r29
    2bca:	cf 91       	pop	r28
    2bcc:	08 95       	ret

00002bce <Print_Page_Dop_Info>:
//Окно доп инфо
void Print_Page_Dop_Info(uint8_t *Frame_buffer)
{
    2bce:	cf 93       	push	r28
    2bd0:	df 93       	push	r29
    2bd2:	ec 01       	movw	r28, r24
	LCD_12864_GrapnicMode(1);
    2bd4:	81 e0       	ldi	r24, 0x01	; 1
    2bd6:	0e 94 c9 07 	call	0xf92	; 0xf92 <LCD_12864_GrapnicMode>
	LCD_12864_Clean_Frame_buffer();
    2bda:	0e 94 0d 0c 	call	0x181a	; 0x181a <LCD_12864_Clean_Frame_buffer>
	
	LCD_12864_Decode_UTF8(5, 0, 1, "Дополнительная инфо");
    2bde:	25 e6       	ldi	r18, 0x65	; 101
    2be0:	32 e0       	ldi	r19, 0x02	; 2
    2be2:	41 e0       	ldi	r20, 0x01	; 1
    2be4:	60 e0       	ldi	r22, 0x00	; 0
    2be6:	85 e0       	ldi	r24, 0x05	; 5
    2be8:	90 e0       	ldi	r25, 0x00	; 0
    2bea:	0e 94 6b 0b 	call	0x16d6	; 0x16d6 <LCD_12864_Decode_UTF8>
	LCD_12864_Decode_UTF8(0, 1, 0, "Уличный передатчик:");
    2bee:	29 e7       	ldi	r18, 0x79	; 121
    2bf0:	32 e0       	ldi	r19, 0x02	; 2
    2bf2:	40 e0       	ldi	r20, 0x00	; 0
    2bf4:	61 e0       	ldi	r22, 0x01	; 1
    2bf6:	80 e0       	ldi	r24, 0x00	; 0
    2bf8:	90 e0       	ldi	r25, 0x00	; 0
    2bfa:	0e 94 6b 0b 	call	0x16d6	; 0x16d6 <LCD_12864_Decode_UTF8>
	LCD_12864_Decode_UTF8(0, 2, 0, "время посл.приема:");
    2bfe:	2d e8       	ldi	r18, 0x8D	; 141
    2c00:	32 e0       	ldi	r19, 0x02	; 2
    2c02:	40 e0       	ldi	r20, 0x00	; 0
    2c04:	62 e0       	ldi	r22, 0x02	; 2
    2c06:	80 e0       	ldi	r24, 0x00	; 0
    2c08:	90 e0       	ldi	r25, 0x00	; 0
    2c0a:	0e 94 6b 0b 	call	0x16d6	; 0x16d6 <LCD_12864_Decode_UTF8>
	LCD_12864_Decode_UTF8(0, 3, 0, receive_time);
    2c0e:	22 e0       	ldi	r18, 0x02	; 2
    2c10:	31 e0       	ldi	r19, 0x01	; 1
    2c12:	40 e0       	ldi	r20, 0x00	; 0
    2c14:	63 e0       	ldi	r22, 0x03	; 3
    2c16:	80 e0       	ldi	r24, 0x00	; 0
    2c18:	90 e0       	ldi	r25, 0x00	; 0
    2c1a:	0e 94 6b 0b 	call	0x16d6	; 0x16d6 <LCD_12864_Decode_UTF8>
	
	LCD_12864_Decode_UTF8(25, 7, 1, "Назад в МЕНЮ");
    2c1e:	28 e5       	ldi	r18, 0x58	; 88
    2c20:	32 e0       	ldi	r19, 0x02	; 2
    2c22:	41 e0       	ldi	r20, 0x01	; 1
    2c24:	67 e0       	ldi	r22, 0x07	; 7
    2c26:	89 e1       	ldi	r24, 0x19	; 25
    2c28:	90 e0       	ldi	r25, 0x00	; 0
    2c2a:	0e 94 6b 0b 	call	0x16d6	; 0x16d6 <LCD_12864_Decode_UTF8>
	
	LCD_12864_Draw_bitmap(Frame_buffer);
    2c2e:	ce 01       	movw	r24, r28
    2c30:	0e 94 e8 07 	call	0xfd0	; 0xfd0 <LCD_12864_Draw_bitmap>
	LCD_12864_GrapnicMode(0);
    2c34:	80 e0       	ldi	r24, 0x00	; 0
    2c36:	0e 94 c9 07 	call	0xf92	; 0xf92 <LCD_12864_GrapnicMode>
}
    2c3a:	df 91       	pop	r29
    2c3c:	cf 91       	pop	r28
    2c3e:	08 95       	ret

00002c40 <DrawSun>:
//-----------Графика вспомогательная для главного окна------//
void DrawSun(void)
{
	LCD_12864_Draw_circle_filled(110, 53, 5);
    2c40:	45 e0       	ldi	r20, 0x05	; 5
    2c42:	50 e0       	ldi	r21, 0x00	; 0
    2c44:	65 e3       	ldi	r22, 0x35	; 53
    2c46:	70 e0       	ldi	r23, 0x00	; 0
    2c48:	8e e6       	ldi	r24, 0x6E	; 110
    2c4a:	90 e0       	ldi	r25, 0x00	; 0
    2c4c:	0e 94 04 0d 	call	0x1a08	; 0x1a08 <LCD_12864_Draw_circle_filled>
	LCD_12864_Draw_line(110, 45, 110, 43);
    2c50:	2b e2       	ldi	r18, 0x2B	; 43
    2c52:	4e e6       	ldi	r20, 0x6E	; 110
    2c54:	6d e2       	ldi	r22, 0x2D	; 45
    2c56:	8e e6       	ldi	r24, 0x6E	; 110
    2c58:	0e 94 18 0c 	call	0x1830	; 0x1830 <LCD_12864_Draw_line>
	LCD_12864_Draw_line(118, 53, 120, 53);
    2c5c:	25 e3       	ldi	r18, 0x35	; 53
    2c5e:	48 e7       	ldi	r20, 0x78	; 120
    2c60:	65 e3       	ldi	r22, 0x35	; 53
    2c62:	86 e7       	ldi	r24, 0x76	; 118
    2c64:	0e 94 18 0c 	call	0x1830	; 0x1830 <LCD_12864_Draw_line>
	LCD_12864_Draw_line(102, 53, 100, 53);
    2c68:	25 e3       	ldi	r18, 0x35	; 53
    2c6a:	44 e6       	ldi	r20, 0x64	; 100
    2c6c:	65 e3       	ldi	r22, 0x35	; 53
    2c6e:	86 e6       	ldi	r24, 0x66	; 102
    2c70:	0e 94 18 0c 	call	0x1830	; 0x1830 <LCD_12864_Draw_line>
	LCD_12864_Draw_line(110, 61, 110, 63);
    2c74:	2f e3       	ldi	r18, 0x3F	; 63
    2c76:	4e e6       	ldi	r20, 0x6E	; 110
    2c78:	6d e3       	ldi	r22, 0x3D	; 61
    2c7a:	8e e6       	ldi	r24, 0x6E	; 110
    2c7c:	0e 94 18 0c 	call	0x1830	; 0x1830 <LCD_12864_Draw_line>
	LCD_12864_Draw_line(104, 48, 102, 46);
    2c80:	2e e2       	ldi	r18, 0x2E	; 46
    2c82:	46 e6       	ldi	r20, 0x66	; 102
    2c84:	60 e3       	ldi	r22, 0x30	; 48
    2c86:	88 e6       	ldi	r24, 0x68	; 104
    2c88:	0e 94 18 0c 	call	0x1830	; 0x1830 <LCD_12864_Draw_line>
	LCD_12864_Draw_line(116, 48, 118, 46);
    2c8c:	2e e2       	ldi	r18, 0x2E	; 46
    2c8e:	46 e7       	ldi	r20, 0x76	; 118
    2c90:	60 e3       	ldi	r22, 0x30	; 48
    2c92:	84 e7       	ldi	r24, 0x74	; 116
    2c94:	0e 94 18 0c 	call	0x1830	; 0x1830 <LCD_12864_Draw_line>
	LCD_12864_Draw_line(116, 58, 118, 60);
    2c98:	2c e3       	ldi	r18, 0x3C	; 60
    2c9a:	46 e7       	ldi	r20, 0x76	; 118
    2c9c:	6a e3       	ldi	r22, 0x3A	; 58
    2c9e:	84 e7       	ldi	r24, 0x74	; 116
    2ca0:	0e 94 18 0c 	call	0x1830	; 0x1830 <LCD_12864_Draw_line>
	LCD_12864_Draw_line(104, 58, 102, 60);
    2ca4:	2c e3       	ldi	r18, 0x3C	; 60
    2ca6:	46 e6       	ldi	r20, 0x66	; 102
    2ca8:	6a e3       	ldi	r22, 0x3A	; 58
    2caa:	88 e6       	ldi	r24, 0x68	; 104
    2cac:	0e 94 18 0c 	call	0x1830	; 0x1830 <LCD_12864_Draw_line>
    2cb0:	08 95       	ret

00002cb2 <DrawSunWithClouds>:
}
void DrawSunWithClouds(void)
{
	//солнце
	LCD_12864_Draw_circle(110, 53, 5);
    2cb2:	45 e0       	ldi	r20, 0x05	; 5
    2cb4:	65 e3       	ldi	r22, 0x35	; 53
    2cb6:	8e e6       	ldi	r24, 0x6E	; 110
    2cb8:	0e 94 78 0c 	call	0x18f0	; 0x18f0 <LCD_12864_Draw_circle>
	LCD_12864_Draw_line(110, 45, 110, 43);
    2cbc:	2b e2       	ldi	r18, 0x2B	; 43
    2cbe:	4e e6       	ldi	r20, 0x6E	; 110
    2cc0:	6d e2       	ldi	r22, 0x2D	; 45
    2cc2:	8e e6       	ldi	r24, 0x6E	; 110
    2cc4:	0e 94 18 0c 	call	0x1830	; 0x1830 <LCD_12864_Draw_line>
	LCD_12864_Draw_line(118, 53, 120, 53);
    2cc8:	25 e3       	ldi	r18, 0x35	; 53
    2cca:	48 e7       	ldi	r20, 0x78	; 120
    2ccc:	65 e3       	ldi	r22, 0x35	; 53
    2cce:	86 e7       	ldi	r24, 0x76	; 118
    2cd0:	0e 94 18 0c 	call	0x1830	; 0x1830 <LCD_12864_Draw_line>
	LCD_12864_Draw_line(110, 61, 110, 63);
    2cd4:	2f e3       	ldi	r18, 0x3F	; 63
    2cd6:	4e e6       	ldi	r20, 0x6E	; 110
    2cd8:	6d e3       	ldi	r22, 0x3D	; 61
    2cda:	8e e6       	ldi	r24, 0x6E	; 110
    2cdc:	0e 94 18 0c 	call	0x1830	; 0x1830 <LCD_12864_Draw_line>
	LCD_12864_Draw_line(116, 48, 118, 46);
    2ce0:	2e e2       	ldi	r18, 0x2E	; 46
    2ce2:	46 e7       	ldi	r20, 0x76	; 118
    2ce4:	60 e3       	ldi	r22, 0x30	; 48
    2ce6:	84 e7       	ldi	r24, 0x74	; 116
    2ce8:	0e 94 18 0c 	call	0x1830	; 0x1830 <LCD_12864_Draw_line>
	LCD_12864_Draw_line(116, 58, 118, 60);
    2cec:	2c e3       	ldi	r18, 0x3C	; 60
    2cee:	46 e7       	ldi	r20, 0x76	; 118
    2cf0:	6a e3       	ldi	r22, 0x3A	; 58
    2cf2:	84 e7       	ldi	r24, 0x74	; 116
    2cf4:	0e 94 18 0c 	call	0x1830	; 0x1830 <LCD_12864_Draw_line>
	//облако
	LCD_12864_Draw_line(90, 57, 106, 57);
    2cf8:	29 e3       	ldi	r18, 0x39	; 57
    2cfa:	4a e6       	ldi	r20, 0x6A	; 106
    2cfc:	69 e3       	ldi	r22, 0x39	; 57
    2cfe:	8a e5       	ldi	r24, 0x5A	; 90
    2d00:	0e 94 18 0c 	call	0x1830	; 0x1830 <LCD_12864_Draw_line>
	LCD_12864_Draw_pixel(89, 56);
    2d04:	68 e3       	ldi	r22, 0x38	; 56
    2d06:	89 e5       	ldi	r24, 0x59	; 89
    2d08:	0e 94 c6 06 	call	0xd8c	; 0xd8c <LCD_12864_Draw_pixel>
	LCD_12864_Draw_pixel(88, 55);
    2d0c:	67 e3       	ldi	r22, 0x37	; 55
    2d0e:	88 e5       	ldi	r24, 0x58	; 88
    2d10:	0e 94 c6 06 	call	0xd8c	; 0xd8c <LCD_12864_Draw_pixel>
	LCD_12864_Draw_pixel(87, 54);
    2d14:	66 e3       	ldi	r22, 0x36	; 54
    2d16:	87 e5       	ldi	r24, 0x57	; 87
    2d18:	0e 94 c6 06 	call	0xd8c	; 0xd8c <LCD_12864_Draw_pixel>
	LCD_12864_Draw_pixel(87, 53);
    2d1c:	65 e3       	ldi	r22, 0x35	; 53
    2d1e:	87 e5       	ldi	r24, 0x57	; 87
    2d20:	0e 94 c6 06 	call	0xd8c	; 0xd8c <LCD_12864_Draw_pixel>
	LCD_12864_Draw_pixel(87, 52);
    2d24:	64 e3       	ldi	r22, 0x34	; 52
    2d26:	87 e5       	ldi	r24, 0x57	; 87
    2d28:	0e 94 c6 06 	call	0xd8c	; 0xd8c <LCD_12864_Draw_pixel>
	LCD_12864_Draw_pixel(88, 51);
    2d2c:	63 e3       	ldi	r22, 0x33	; 51
    2d2e:	88 e5       	ldi	r24, 0x58	; 88
    2d30:	0e 94 c6 06 	call	0xd8c	; 0xd8c <LCD_12864_Draw_pixel>
	LCD_12864_Draw_pixel(89, 50);
    2d34:	62 e3       	ldi	r22, 0x32	; 50
    2d36:	89 e5       	ldi	r24, 0x59	; 89
    2d38:	0e 94 c6 06 	call	0xd8c	; 0xd8c <LCD_12864_Draw_pixel>
	LCD_12864_Draw_pixel(90, 50);
    2d3c:	62 e3       	ldi	r22, 0x32	; 50
    2d3e:	8a e5       	ldi	r24, 0x5A	; 90
    2d40:	0e 94 c6 06 	call	0xd8c	; 0xd8c <LCD_12864_Draw_pixel>
	LCD_12864_Draw_pixel(91, 50);
    2d44:	62 e3       	ldi	r22, 0x32	; 50
    2d46:	8b e5       	ldi	r24, 0x5B	; 91
    2d48:	0e 94 c6 06 	call	0xd8c	; 0xd8c <LCD_12864_Draw_pixel>
	LCD_12864_Draw_pixel(92, 50);
    2d4c:	62 e3       	ldi	r22, 0x32	; 50
    2d4e:	8c e5       	ldi	r24, 0x5C	; 92
    2d50:	0e 94 c6 06 	call	0xd8c	; 0xd8c <LCD_12864_Draw_pixel>
	LCD_12864_Draw_pixel(94, 51);
    2d54:	63 e3       	ldi	r22, 0x33	; 51
    2d56:	8e e5       	ldi	r24, 0x5E	; 94
    2d58:	0e 94 c6 06 	call	0xd8c	; 0xd8c <LCD_12864_Draw_pixel>
	LCD_12864_Draw_pixel(93, 50);
    2d5c:	62 e3       	ldi	r22, 0x32	; 50
    2d5e:	8d e5       	ldi	r24, 0x5D	; 93
    2d60:	0e 94 c6 06 	call	0xd8c	; 0xd8c <LCD_12864_Draw_pixel>
	LCD_12864_Draw_pixel(92, 49);
    2d64:	61 e3       	ldi	r22, 0x31	; 49
    2d66:	8c e5       	ldi	r24, 0x5C	; 92
    2d68:	0e 94 c6 06 	call	0xd8c	; 0xd8c <LCD_12864_Draw_pixel>
	LCD_12864_Draw_pixel(92, 48);
    2d6c:	60 e3       	ldi	r22, 0x30	; 48
    2d6e:	8c e5       	ldi	r24, 0x5C	; 92
    2d70:	0e 94 c6 06 	call	0xd8c	; 0xd8c <LCD_12864_Draw_pixel>
	LCD_12864_Draw_pixel(92, 47);
    2d74:	6f e2       	ldi	r22, 0x2F	; 47
    2d76:	8c e5       	ldi	r24, 0x5C	; 92
    2d78:	0e 94 c6 06 	call	0xd8c	; 0xd8c <LCD_12864_Draw_pixel>
	LCD_12864_Draw_pixel(92, 46);
    2d7c:	6e e2       	ldi	r22, 0x2E	; 46
    2d7e:	8c e5       	ldi	r24, 0x5C	; 92
    2d80:	0e 94 c6 06 	call	0xd8c	; 0xd8c <LCD_12864_Draw_pixel>
	LCD_12864_Draw_pixel(93, 45);
    2d84:	6d e2       	ldi	r22, 0x2D	; 45
    2d86:	8d e5       	ldi	r24, 0x5D	; 93
    2d88:	0e 94 c6 06 	call	0xd8c	; 0xd8c <LCD_12864_Draw_pixel>
	LCD_12864_Draw_pixel(94, 44);
    2d8c:	6c e2       	ldi	r22, 0x2C	; 44
    2d8e:	8e e5       	ldi	r24, 0x5E	; 94
    2d90:	0e 94 c6 06 	call	0xd8c	; 0xd8c <LCD_12864_Draw_pixel>
	LCD_12864_Draw_pixel(95, 44);
    2d94:	6c e2       	ldi	r22, 0x2C	; 44
    2d96:	8f e5       	ldi	r24, 0x5F	; 95
    2d98:	0e 94 c6 06 	call	0xd8c	; 0xd8c <LCD_12864_Draw_pixel>
	LCD_12864_Draw_pixel(96, 44);
    2d9c:	6c e2       	ldi	r22, 0x2C	; 44
    2d9e:	80 e6       	ldi	r24, 0x60	; 96
    2da0:	0e 94 c6 06 	call	0xd8c	; 0xd8c <LCD_12864_Draw_pixel>
	LCD_12864_Draw_pixel(97, 44);
    2da4:	6c e2       	ldi	r22, 0x2C	; 44
    2da6:	81 e6       	ldi	r24, 0x61	; 97
    2da8:	0e 94 c6 06 	call	0xd8c	; 0xd8c <LCD_12864_Draw_pixel>
	LCD_12864_Draw_pixel(98, 44);
    2dac:	6c e2       	ldi	r22, 0x2C	; 44
    2dae:	82 e6       	ldi	r24, 0x62	; 98
    2db0:	0e 94 c6 06 	call	0xd8c	; 0xd8c <LCD_12864_Draw_pixel>
	LCD_12864_Draw_pixel(99, 44);
    2db4:	6c e2       	ldi	r22, 0x2C	; 44
    2db6:	83 e6       	ldi	r24, 0x63	; 99
    2db8:	0e 94 c6 06 	call	0xd8c	; 0xd8c <LCD_12864_Draw_pixel>
	LCD_12864_Draw_pixel(100, 44);
    2dbc:	6c e2       	ldi	r22, 0x2C	; 44
    2dbe:	84 e6       	ldi	r24, 0x64	; 100
    2dc0:	0e 94 c6 06 	call	0xd8c	; 0xd8c <LCD_12864_Draw_pixel>
	LCD_12864_Draw_pixel(101, 45);
    2dc4:	6d e2       	ldi	r22, 0x2D	; 45
    2dc6:	85 e6       	ldi	r24, 0x65	; 101
    2dc8:	0e 94 c6 06 	call	0xd8c	; 0xd8c <LCD_12864_Draw_pixel>
	LCD_12864_Draw_pixel(102, 46);
    2dcc:	6e e2       	ldi	r22, 0x2E	; 46
    2dce:	86 e6       	ldi	r24, 0x66	; 102
    2dd0:	0e 94 c6 06 	call	0xd8c	; 0xd8c <LCD_12864_Draw_pixel>
	LCD_12864_Draw_pixel(102, 47);
    2dd4:	6f e2       	ldi	r22, 0x2F	; 47
    2dd6:	86 e6       	ldi	r24, 0x66	; 102
    2dd8:	0e 94 c6 06 	call	0xd8c	; 0xd8c <LCD_12864_Draw_pixel>
	LCD_12864_Draw_pixel(102, 48);
    2ddc:	60 e3       	ldi	r22, 0x30	; 48
    2dde:	86 e6       	ldi	r24, 0x66	; 102
    2de0:	0e 94 c6 06 	call	0xd8c	; 0xd8c <LCD_12864_Draw_pixel>
	LCD_12864_Draw_pixel(101, 49);
    2de4:	61 e3       	ldi	r22, 0x31	; 49
    2de6:	85 e6       	ldi	r24, 0x65	; 101
    2de8:	0e 94 c6 06 	call	0xd8c	; 0xd8c <LCD_12864_Draw_pixel>
	LCD_12864_Draw_pixel(102, 48);
    2dec:	60 e3       	ldi	r22, 0x30	; 48
    2dee:	86 e6       	ldi	r24, 0x66	; 102
    2df0:	0e 94 c6 06 	call	0xd8c	; 0xd8c <LCD_12864_Draw_pixel>
	LCD_12864_Draw_pixel(103, 48);
    2df4:	60 e3       	ldi	r22, 0x30	; 48
    2df6:	87 e6       	ldi	r24, 0x67	; 103
    2df8:	0e 94 c6 06 	call	0xd8c	; 0xd8c <LCD_12864_Draw_pixel>
	LCD_12864_Draw_pixel(104, 48);
    2dfc:	60 e3       	ldi	r22, 0x30	; 48
    2dfe:	88 e6       	ldi	r24, 0x68	; 104
    2e00:	0e 94 c6 06 	call	0xd8c	; 0xd8c <LCD_12864_Draw_pixel>
	LCD_12864_Draw_pixel(105, 48);
    2e04:	60 e3       	ldi	r22, 0x30	; 48
    2e06:	89 e6       	ldi	r24, 0x69	; 105
    2e08:	0e 94 c6 06 	call	0xd8c	; 0xd8c <LCD_12864_Draw_pixel>
	
	LCD_12864_Draw_pixel(107, 56);
    2e0c:	68 e3       	ldi	r22, 0x38	; 56
    2e0e:	8b e6       	ldi	r24, 0x6B	; 107
    2e10:	0e 94 c6 06 	call	0xd8c	; 0xd8c <LCD_12864_Draw_pixel>
	LCD_12864_Draw_pixel(108, 55);
    2e14:	67 e3       	ldi	r22, 0x37	; 55
    2e16:	8c e6       	ldi	r24, 0x6C	; 108
    2e18:	0e 94 c6 06 	call	0xd8c	; 0xd8c <LCD_12864_Draw_pixel>
	LCD_12864_Draw_pixel(109, 54);
    2e1c:	66 e3       	ldi	r22, 0x36	; 54
    2e1e:	8d e6       	ldi	r24, 0x6D	; 109
    2e20:	0e 94 c6 06 	call	0xd8c	; 0xd8c <LCD_12864_Draw_pixel>
	LCD_12864_Draw_pixel(109, 53);
    2e24:	65 e3       	ldi	r22, 0x35	; 53
    2e26:	8d e6       	ldi	r24, 0x6D	; 109
    2e28:	0e 94 c6 06 	call	0xd8c	; 0xd8c <LCD_12864_Draw_pixel>
	LCD_12864_Draw_pixel(109, 52);
    2e2c:	64 e3       	ldi	r22, 0x34	; 52
    2e2e:	8d e6       	ldi	r24, 0x6D	; 109
    2e30:	0e 94 c6 06 	call	0xd8c	; 0xd8c <LCD_12864_Draw_pixel>
	LCD_12864_Draw_pixel(109, 51);
    2e34:	63 e3       	ldi	r22, 0x33	; 51
    2e36:	8d e6       	ldi	r24, 0x6D	; 109
    2e38:	0e 94 c6 06 	call	0xd8c	; 0xd8c <LCD_12864_Draw_pixel>
	LCD_12864_Draw_pixel(108, 50);
    2e3c:	62 e3       	ldi	r22, 0x32	; 50
    2e3e:	8c e6       	ldi	r24, 0x6C	; 108
    2e40:	0e 94 c6 06 	call	0xd8c	; 0xd8c <LCD_12864_Draw_pixel>
	LCD_12864_Draw_pixel(107, 49);
    2e44:	61 e3       	ldi	r22, 0x31	; 49
    2e46:	8b e6       	ldi	r24, 0x6B	; 107
    2e48:	0e 94 c6 06 	call	0xd8c	; 0xd8c <LCD_12864_Draw_pixel>
	LCD_12864_Draw_pixel(106, 48);
    2e4c:	60 e3       	ldi	r22, 0x30	; 48
    2e4e:	8a e6       	ldi	r24, 0x6A	; 106
    2e50:	0e 94 c6 06 	call	0xd8c	; 0xd8c <LCD_12864_Draw_pixel>
	//очистка куска солнца
	LCD_12864_Clean_pixel(106, 50);
    2e54:	62 e3       	ldi	r22, 0x32	; 50
    2e56:	8a e6       	ldi	r24, 0x6A	; 106
    2e58:	0e 94 e7 06 	call	0xdce	; 0xdce <LCD_12864_Clean_pixel>
	LCD_12864_Clean_pixel(105, 51);
    2e5c:	63 e3       	ldi	r22, 0x33	; 51
    2e5e:	89 e6       	ldi	r24, 0x69	; 105
    2e60:	0e 94 e7 06 	call	0xdce	; 0xdce <LCD_12864_Clean_pixel>
	LCD_12864_Clean_pixel(105, 52);
    2e64:	64 e3       	ldi	r22, 0x34	; 52
    2e66:	89 e6       	ldi	r24, 0x69	; 105
    2e68:	0e 94 e7 06 	call	0xdce	; 0xdce <LCD_12864_Clean_pixel>
	LCD_12864_Clean_pixel(105, 53);
    2e6c:	65 e3       	ldi	r22, 0x35	; 53
    2e6e:	89 e6       	ldi	r24, 0x69	; 105
    2e70:	0e 94 e7 06 	call	0xdce	; 0xdce <LCD_12864_Clean_pixel>
	LCD_12864_Clean_pixel(105, 54);
    2e74:	66 e3       	ldi	r22, 0x36	; 54
    2e76:	89 e6       	ldi	r24, 0x69	; 105
    2e78:	0e 94 e7 06 	call	0xdce	; 0xdce <LCD_12864_Clean_pixel>
	LCD_12864_Clean_pixel(105, 55);
    2e7c:	67 e3       	ldi	r22, 0x37	; 55
    2e7e:	89 e6       	ldi	r24, 0x69	; 105
    2e80:	0e 94 e7 06 	call	0xdce	; 0xdce <LCD_12864_Clean_pixel>
	LCD_12864_Clean_pixel(106, 56);
    2e84:	68 e3       	ldi	r22, 0x38	; 56
    2e86:	8a e6       	ldi	r24, 0x6A	; 106
    2e88:	0e 94 e7 06 	call	0xdce	; 0xdce <LCD_12864_Clean_pixel>
	LCD_12864_Draw_pixel(106, 48);
    2e8c:	60 e3       	ldi	r22, 0x30	; 48
    2e8e:	8a e6       	ldi	r24, 0x6A	; 106
    2e90:	0e 94 c6 06 	call	0xd8c	; 0xd8c <LCD_12864_Draw_pixel>
	LCD_12864_Draw_pixel(105, 48);
    2e94:	60 e3       	ldi	r22, 0x30	; 48
    2e96:	89 e6       	ldi	r24, 0x69	; 105
    2e98:	0e 94 c6 06 	call	0xd8c	; 0xd8c <LCD_12864_Draw_pixel>
	//закраска солнца
	LCD_12864_Draw_pixel(108, 57);
    2e9c:	69 e3       	ldi	r22, 0x39	; 57
    2e9e:	8c e6       	ldi	r24, 0x6C	; 108
    2ea0:	0e 94 c6 06 	call	0xd8c	; 0xd8c <LCD_12864_Draw_pixel>
	LCD_12864_Draw_pixel(109, 57);
    2ea4:	69 e3       	ldi	r22, 0x39	; 57
    2ea6:	8d e6       	ldi	r24, 0x6D	; 109
    2ea8:	0e 94 c6 06 	call	0xd8c	; 0xd8c <LCD_12864_Draw_pixel>
	LCD_12864_Draw_pixel(110, 57);
    2eac:	69 e3       	ldi	r22, 0x39	; 57
    2eae:	8e e6       	ldi	r24, 0x6E	; 110
    2eb0:	0e 94 c6 06 	call	0xd8c	; 0xd8c <LCD_12864_Draw_pixel>
	LCD_12864_Draw_pixel(111, 57);
    2eb4:	69 e3       	ldi	r22, 0x39	; 57
    2eb6:	8f e6       	ldi	r24, 0x6F	; 111
    2eb8:	0e 94 c6 06 	call	0xd8c	; 0xd8c <LCD_12864_Draw_pixel>
	LCD_12864_Draw_pixel(112, 57);
    2ebc:	69 e3       	ldi	r22, 0x39	; 57
    2ebe:	80 e7       	ldi	r24, 0x70	; 112
    2ec0:	0e 94 c6 06 	call	0xd8c	; 0xd8c <LCD_12864_Draw_pixel>
	LCD_12864_Draw_pixel(109, 56);
    2ec4:	68 e3       	ldi	r22, 0x38	; 56
    2ec6:	8d e6       	ldi	r24, 0x6D	; 109
    2ec8:	0e 94 c6 06 	call	0xd8c	; 0xd8c <LCD_12864_Draw_pixel>
	LCD_12864_Draw_pixel(110, 56);
    2ecc:	68 e3       	ldi	r22, 0x38	; 56
    2ece:	8e e6       	ldi	r24, 0x6E	; 110
    2ed0:	0e 94 c6 06 	call	0xd8c	; 0xd8c <LCD_12864_Draw_pixel>
	LCD_12864_Draw_pixel(111, 56);
    2ed4:	68 e3       	ldi	r22, 0x38	; 56
    2ed6:	8f e6       	ldi	r24, 0x6F	; 111
    2ed8:	0e 94 c6 06 	call	0xd8c	; 0xd8c <LCD_12864_Draw_pixel>
	LCD_12864_Draw_pixel(112, 56);
    2edc:	68 e3       	ldi	r22, 0x38	; 56
    2ede:	80 e7       	ldi	r24, 0x70	; 112
    2ee0:	0e 94 c6 06 	call	0xd8c	; 0xd8c <LCD_12864_Draw_pixel>
	LCD_12864_Draw_pixel(113, 56);
    2ee4:	68 e3       	ldi	r22, 0x38	; 56
    2ee6:	81 e7       	ldi	r24, 0x71	; 113
    2ee8:	0e 94 c6 06 	call	0xd8c	; 0xd8c <LCD_12864_Draw_pixel>
	LCD_12864_Draw_pixel(110, 55);
    2eec:	67 e3       	ldi	r22, 0x37	; 55
    2eee:	8e e6       	ldi	r24, 0x6E	; 110
    2ef0:	0e 94 c6 06 	call	0xd8c	; 0xd8c <LCD_12864_Draw_pixel>
	LCD_12864_Draw_pixel(111, 55);
    2ef4:	67 e3       	ldi	r22, 0x37	; 55
    2ef6:	8f e6       	ldi	r24, 0x6F	; 111
    2ef8:	0e 94 c6 06 	call	0xd8c	; 0xd8c <LCD_12864_Draw_pixel>
	LCD_12864_Draw_pixel(112, 55);
    2efc:	67 e3       	ldi	r22, 0x37	; 55
    2efe:	80 e7       	ldi	r24, 0x70	; 112
    2f00:	0e 94 c6 06 	call	0xd8c	; 0xd8c <LCD_12864_Draw_pixel>
	LCD_12864_Draw_pixel(113, 55);
    2f04:	67 e3       	ldi	r22, 0x37	; 55
    2f06:	81 e7       	ldi	r24, 0x71	; 113
    2f08:	0e 94 c6 06 	call	0xd8c	; 0xd8c <LCD_12864_Draw_pixel>
	LCD_12864_Draw_pixel(114, 55);
    2f0c:	67 e3       	ldi	r22, 0x37	; 55
    2f0e:	82 e7       	ldi	r24, 0x72	; 114
    2f10:	0e 94 c6 06 	call	0xd8c	; 0xd8c <LCD_12864_Draw_pixel>
	LCD_12864_Draw_pixel(111, 54);
    2f14:	66 e3       	ldi	r22, 0x36	; 54
    2f16:	8f e6       	ldi	r24, 0x6F	; 111
    2f18:	0e 94 c6 06 	call	0xd8c	; 0xd8c <LCD_12864_Draw_pixel>
	LCD_12864_Draw_pixel(112, 54);
    2f1c:	66 e3       	ldi	r22, 0x36	; 54
    2f1e:	80 e7       	ldi	r24, 0x70	; 112
    2f20:	0e 94 c6 06 	call	0xd8c	; 0xd8c <LCD_12864_Draw_pixel>
	LCD_12864_Draw_pixel(113, 54);
    2f24:	66 e3       	ldi	r22, 0x36	; 54
    2f26:	81 e7       	ldi	r24, 0x71	; 113
    2f28:	0e 94 c6 06 	call	0xd8c	; 0xd8c <LCD_12864_Draw_pixel>
	LCD_12864_Draw_pixel(114, 54);
    2f2c:	66 e3       	ldi	r22, 0x36	; 54
    2f2e:	82 e7       	ldi	r24, 0x72	; 114
    2f30:	0e 94 c6 06 	call	0xd8c	; 0xd8c <LCD_12864_Draw_pixel>
	LCD_12864_Draw_pixel(111, 53);
    2f34:	65 e3       	ldi	r22, 0x35	; 53
    2f36:	8f e6       	ldi	r24, 0x6F	; 111
    2f38:	0e 94 c6 06 	call	0xd8c	; 0xd8c <LCD_12864_Draw_pixel>
	LCD_12864_Draw_pixel(112, 53);
    2f3c:	65 e3       	ldi	r22, 0x35	; 53
    2f3e:	80 e7       	ldi	r24, 0x70	; 112
    2f40:	0e 94 c6 06 	call	0xd8c	; 0xd8c <LCD_12864_Draw_pixel>
	LCD_12864_Draw_pixel(113, 53);
    2f44:	65 e3       	ldi	r22, 0x35	; 53
    2f46:	81 e7       	ldi	r24, 0x71	; 113
    2f48:	0e 94 c6 06 	call	0xd8c	; 0xd8c <LCD_12864_Draw_pixel>
	LCD_12864_Draw_pixel(114, 53);
    2f4c:	65 e3       	ldi	r22, 0x35	; 53
    2f4e:	82 e7       	ldi	r24, 0x72	; 114
    2f50:	0e 94 c6 06 	call	0xd8c	; 0xd8c <LCD_12864_Draw_pixel>
	LCD_12864_Draw_pixel(111, 52);
    2f54:	64 e3       	ldi	r22, 0x34	; 52
    2f56:	8f e6       	ldi	r24, 0x6F	; 111
    2f58:	0e 94 c6 06 	call	0xd8c	; 0xd8c <LCD_12864_Draw_pixel>
	LCD_12864_Draw_pixel(112, 52);
    2f5c:	64 e3       	ldi	r22, 0x34	; 52
    2f5e:	80 e7       	ldi	r24, 0x70	; 112
    2f60:	0e 94 c6 06 	call	0xd8c	; 0xd8c <LCD_12864_Draw_pixel>
	LCD_12864_Draw_pixel(113, 52);
    2f64:	64 e3       	ldi	r22, 0x34	; 52
    2f66:	81 e7       	ldi	r24, 0x71	; 113
    2f68:	0e 94 c6 06 	call	0xd8c	; 0xd8c <LCD_12864_Draw_pixel>
	LCD_12864_Draw_pixel(114, 52);
    2f6c:	64 e3       	ldi	r22, 0x34	; 52
    2f6e:	82 e7       	ldi	r24, 0x72	; 114
    2f70:	0e 94 c6 06 	call	0xd8c	; 0xd8c <LCD_12864_Draw_pixel>
	LCD_12864_Draw_pixel(111, 51);
    2f74:	63 e3       	ldi	r22, 0x33	; 51
    2f76:	8f e6       	ldi	r24, 0x6F	; 111
    2f78:	0e 94 c6 06 	call	0xd8c	; 0xd8c <LCD_12864_Draw_pixel>
	LCD_12864_Draw_pixel(112, 51);
    2f7c:	63 e3       	ldi	r22, 0x33	; 51
    2f7e:	80 e7       	ldi	r24, 0x70	; 112
    2f80:	0e 94 c6 06 	call	0xd8c	; 0xd8c <LCD_12864_Draw_pixel>
	LCD_12864_Draw_pixel(113, 51);
    2f84:	63 e3       	ldi	r22, 0x33	; 51
    2f86:	81 e7       	ldi	r24, 0x71	; 113
    2f88:	0e 94 c6 06 	call	0xd8c	; 0xd8c <LCD_12864_Draw_pixel>
	LCD_12864_Draw_pixel(114, 51);
    2f8c:	63 e3       	ldi	r22, 0x33	; 51
    2f8e:	82 e7       	ldi	r24, 0x72	; 114
    2f90:	0e 94 c6 06 	call	0xd8c	; 0xd8c <LCD_12864_Draw_pixel>
	LCD_12864_Draw_pixel(110, 50);
    2f94:	62 e3       	ldi	r22, 0x32	; 50
    2f96:	8e e6       	ldi	r24, 0x6E	; 110
    2f98:	0e 94 c6 06 	call	0xd8c	; 0xd8c <LCD_12864_Draw_pixel>
	LCD_12864_Draw_pixel(111, 50);
    2f9c:	62 e3       	ldi	r22, 0x32	; 50
    2f9e:	8f e6       	ldi	r24, 0x6F	; 111
    2fa0:	0e 94 c6 06 	call	0xd8c	; 0xd8c <LCD_12864_Draw_pixel>
	LCD_12864_Draw_pixel(112, 50);
    2fa4:	62 e3       	ldi	r22, 0x32	; 50
    2fa6:	80 e7       	ldi	r24, 0x70	; 112
    2fa8:	0e 94 c6 06 	call	0xd8c	; 0xd8c <LCD_12864_Draw_pixel>
	LCD_12864_Draw_pixel(113, 50);
    2fac:	62 e3       	ldi	r22, 0x32	; 50
    2fae:	81 e7       	ldi	r24, 0x71	; 113
    2fb0:	0e 94 c6 06 	call	0xd8c	; 0xd8c <LCD_12864_Draw_pixel>
	LCD_12864_Draw_pixel(109, 49);
    2fb4:	61 e3       	ldi	r22, 0x31	; 49
    2fb6:	8d e6       	ldi	r24, 0x6D	; 109
    2fb8:	0e 94 c6 06 	call	0xd8c	; 0xd8c <LCD_12864_Draw_pixel>
	LCD_12864_Draw_pixel(110, 49);
    2fbc:	61 e3       	ldi	r22, 0x31	; 49
    2fbe:	8e e6       	ldi	r24, 0x6E	; 110
    2fc0:	0e 94 c6 06 	call	0xd8c	; 0xd8c <LCD_12864_Draw_pixel>
	LCD_12864_Draw_pixel(111, 49);
    2fc4:	61 e3       	ldi	r22, 0x31	; 49
    2fc6:	8f e6       	ldi	r24, 0x6F	; 111
    2fc8:	0e 94 c6 06 	call	0xd8c	; 0xd8c <LCD_12864_Draw_pixel>
	LCD_12864_Draw_pixel(112, 49);
    2fcc:	61 e3       	ldi	r22, 0x31	; 49
    2fce:	80 e7       	ldi	r24, 0x70	; 112
    2fd0:	0e 94 c6 06 	call	0xd8c	; 0xd8c <LCD_12864_Draw_pixel>
    2fd4:	08 95       	ret

00002fd6 <DrawClouds>:
}
void DrawClouds(void)
{
	//облако№1
	LCD_12864_Draw_line(90, 57, 106, 57);
    2fd6:	29 e3       	ldi	r18, 0x39	; 57
    2fd8:	4a e6       	ldi	r20, 0x6A	; 106
    2fda:	69 e3       	ldi	r22, 0x39	; 57
    2fdc:	8a e5       	ldi	r24, 0x5A	; 90
    2fde:	0e 94 18 0c 	call	0x1830	; 0x1830 <LCD_12864_Draw_line>
	LCD_12864_Draw_pixel(89, 56);
    2fe2:	68 e3       	ldi	r22, 0x38	; 56
    2fe4:	89 e5       	ldi	r24, 0x59	; 89
    2fe6:	0e 94 c6 06 	call	0xd8c	; 0xd8c <LCD_12864_Draw_pixel>
	LCD_12864_Draw_pixel(88, 55);
    2fea:	67 e3       	ldi	r22, 0x37	; 55
    2fec:	88 e5       	ldi	r24, 0x58	; 88
    2fee:	0e 94 c6 06 	call	0xd8c	; 0xd8c <LCD_12864_Draw_pixel>
	LCD_12864_Draw_pixel(87, 54);
    2ff2:	66 e3       	ldi	r22, 0x36	; 54
    2ff4:	87 e5       	ldi	r24, 0x57	; 87
    2ff6:	0e 94 c6 06 	call	0xd8c	; 0xd8c <LCD_12864_Draw_pixel>
	LCD_12864_Draw_pixel(87, 53);
    2ffa:	65 e3       	ldi	r22, 0x35	; 53
    2ffc:	87 e5       	ldi	r24, 0x57	; 87
    2ffe:	0e 94 c6 06 	call	0xd8c	; 0xd8c <LCD_12864_Draw_pixel>
	LCD_12864_Draw_pixel(87, 52);
    3002:	64 e3       	ldi	r22, 0x34	; 52
    3004:	87 e5       	ldi	r24, 0x57	; 87
    3006:	0e 94 c6 06 	call	0xd8c	; 0xd8c <LCD_12864_Draw_pixel>
	LCD_12864_Draw_pixel(88, 51);
    300a:	63 e3       	ldi	r22, 0x33	; 51
    300c:	88 e5       	ldi	r24, 0x58	; 88
    300e:	0e 94 c6 06 	call	0xd8c	; 0xd8c <LCD_12864_Draw_pixel>
	LCD_12864_Draw_pixel(89, 50);
    3012:	62 e3       	ldi	r22, 0x32	; 50
    3014:	89 e5       	ldi	r24, 0x59	; 89
    3016:	0e 94 c6 06 	call	0xd8c	; 0xd8c <LCD_12864_Draw_pixel>
	LCD_12864_Draw_pixel(90, 50);
    301a:	62 e3       	ldi	r22, 0x32	; 50
    301c:	8a e5       	ldi	r24, 0x5A	; 90
    301e:	0e 94 c6 06 	call	0xd8c	; 0xd8c <LCD_12864_Draw_pixel>
	LCD_12864_Draw_pixel(91, 50);
    3022:	62 e3       	ldi	r22, 0x32	; 50
    3024:	8b e5       	ldi	r24, 0x5B	; 91
    3026:	0e 94 c6 06 	call	0xd8c	; 0xd8c <LCD_12864_Draw_pixel>
	LCD_12864_Draw_pixel(92, 50);
    302a:	62 e3       	ldi	r22, 0x32	; 50
    302c:	8c e5       	ldi	r24, 0x5C	; 92
    302e:	0e 94 c6 06 	call	0xd8c	; 0xd8c <LCD_12864_Draw_pixel>
	LCD_12864_Draw_pixel(94, 51);
    3032:	63 e3       	ldi	r22, 0x33	; 51
    3034:	8e e5       	ldi	r24, 0x5E	; 94
    3036:	0e 94 c6 06 	call	0xd8c	; 0xd8c <LCD_12864_Draw_pixel>
	LCD_12864_Draw_pixel(93, 50);
    303a:	62 e3       	ldi	r22, 0x32	; 50
    303c:	8d e5       	ldi	r24, 0x5D	; 93
    303e:	0e 94 c6 06 	call	0xd8c	; 0xd8c <LCD_12864_Draw_pixel>
	LCD_12864_Draw_pixel(92, 49);
    3042:	61 e3       	ldi	r22, 0x31	; 49
    3044:	8c e5       	ldi	r24, 0x5C	; 92
    3046:	0e 94 c6 06 	call	0xd8c	; 0xd8c <LCD_12864_Draw_pixel>
	LCD_12864_Draw_pixel(92, 48);
    304a:	60 e3       	ldi	r22, 0x30	; 48
    304c:	8c e5       	ldi	r24, 0x5C	; 92
    304e:	0e 94 c6 06 	call	0xd8c	; 0xd8c <LCD_12864_Draw_pixel>
	LCD_12864_Draw_pixel(92, 47);
    3052:	6f e2       	ldi	r22, 0x2F	; 47
    3054:	8c e5       	ldi	r24, 0x5C	; 92
    3056:	0e 94 c6 06 	call	0xd8c	; 0xd8c <LCD_12864_Draw_pixel>
	LCD_12864_Draw_pixel(92, 46);
    305a:	6e e2       	ldi	r22, 0x2E	; 46
    305c:	8c e5       	ldi	r24, 0x5C	; 92
    305e:	0e 94 c6 06 	call	0xd8c	; 0xd8c <LCD_12864_Draw_pixel>
	LCD_12864_Draw_pixel(93, 45);
    3062:	6d e2       	ldi	r22, 0x2D	; 45
    3064:	8d e5       	ldi	r24, 0x5D	; 93
    3066:	0e 94 c6 06 	call	0xd8c	; 0xd8c <LCD_12864_Draw_pixel>
	LCD_12864_Draw_pixel(94, 44);
    306a:	6c e2       	ldi	r22, 0x2C	; 44
    306c:	8e e5       	ldi	r24, 0x5E	; 94
    306e:	0e 94 c6 06 	call	0xd8c	; 0xd8c <LCD_12864_Draw_pixel>
	LCD_12864_Draw_pixel(95, 44);
    3072:	6c e2       	ldi	r22, 0x2C	; 44
    3074:	8f e5       	ldi	r24, 0x5F	; 95
    3076:	0e 94 c6 06 	call	0xd8c	; 0xd8c <LCD_12864_Draw_pixel>
	LCD_12864_Draw_pixel(96, 44);
    307a:	6c e2       	ldi	r22, 0x2C	; 44
    307c:	80 e6       	ldi	r24, 0x60	; 96
    307e:	0e 94 c6 06 	call	0xd8c	; 0xd8c <LCD_12864_Draw_pixel>
	LCD_12864_Draw_pixel(97, 44);
    3082:	6c e2       	ldi	r22, 0x2C	; 44
    3084:	81 e6       	ldi	r24, 0x61	; 97
    3086:	0e 94 c6 06 	call	0xd8c	; 0xd8c <LCD_12864_Draw_pixel>
	LCD_12864_Draw_pixel(98, 44);
    308a:	6c e2       	ldi	r22, 0x2C	; 44
    308c:	82 e6       	ldi	r24, 0x62	; 98
    308e:	0e 94 c6 06 	call	0xd8c	; 0xd8c <LCD_12864_Draw_pixel>
	LCD_12864_Draw_pixel(99, 44);
    3092:	6c e2       	ldi	r22, 0x2C	; 44
    3094:	83 e6       	ldi	r24, 0x63	; 99
    3096:	0e 94 c6 06 	call	0xd8c	; 0xd8c <LCD_12864_Draw_pixel>
	LCD_12864_Draw_pixel(100, 44);
    309a:	6c e2       	ldi	r22, 0x2C	; 44
    309c:	84 e6       	ldi	r24, 0x64	; 100
    309e:	0e 94 c6 06 	call	0xd8c	; 0xd8c <LCD_12864_Draw_pixel>
	LCD_12864_Draw_pixel(101, 45);
    30a2:	6d e2       	ldi	r22, 0x2D	; 45
    30a4:	85 e6       	ldi	r24, 0x65	; 101
    30a6:	0e 94 c6 06 	call	0xd8c	; 0xd8c <LCD_12864_Draw_pixel>
	LCD_12864_Draw_pixel(102, 46);
    30aa:	6e e2       	ldi	r22, 0x2E	; 46
    30ac:	86 e6       	ldi	r24, 0x66	; 102
    30ae:	0e 94 c6 06 	call	0xd8c	; 0xd8c <LCD_12864_Draw_pixel>
	LCD_12864_Draw_pixel(102, 47);
    30b2:	6f e2       	ldi	r22, 0x2F	; 47
    30b4:	86 e6       	ldi	r24, 0x66	; 102
    30b6:	0e 94 c6 06 	call	0xd8c	; 0xd8c <LCD_12864_Draw_pixel>
	LCD_12864_Draw_pixel(102, 48);
    30ba:	60 e3       	ldi	r22, 0x30	; 48
    30bc:	86 e6       	ldi	r24, 0x66	; 102
    30be:	0e 94 c6 06 	call	0xd8c	; 0xd8c <LCD_12864_Draw_pixel>
	LCD_12864_Draw_pixel(101, 49);
    30c2:	61 e3       	ldi	r22, 0x31	; 49
    30c4:	85 e6       	ldi	r24, 0x65	; 101
    30c6:	0e 94 c6 06 	call	0xd8c	; 0xd8c <LCD_12864_Draw_pixel>
	LCD_12864_Draw_pixel(102, 48);
    30ca:	60 e3       	ldi	r22, 0x30	; 48
    30cc:	86 e6       	ldi	r24, 0x66	; 102
    30ce:	0e 94 c6 06 	call	0xd8c	; 0xd8c <LCD_12864_Draw_pixel>
	LCD_12864_Draw_pixel(103, 48);
    30d2:	60 e3       	ldi	r22, 0x30	; 48
    30d4:	87 e6       	ldi	r24, 0x67	; 103
    30d6:	0e 94 c6 06 	call	0xd8c	; 0xd8c <LCD_12864_Draw_pixel>
	LCD_12864_Draw_pixel(104, 48);
    30da:	60 e3       	ldi	r22, 0x30	; 48
    30dc:	88 e6       	ldi	r24, 0x68	; 104
    30de:	0e 94 c6 06 	call	0xd8c	; 0xd8c <LCD_12864_Draw_pixel>
	LCD_12864_Draw_pixel(105, 48);
    30e2:	60 e3       	ldi	r22, 0x30	; 48
    30e4:	89 e6       	ldi	r24, 0x69	; 105
    30e6:	0e 94 c6 06 	call	0xd8c	; 0xd8c <LCD_12864_Draw_pixel>
	
	LCD_12864_Draw_pixel(107, 56);
    30ea:	68 e3       	ldi	r22, 0x38	; 56
    30ec:	8b e6       	ldi	r24, 0x6B	; 107
    30ee:	0e 94 c6 06 	call	0xd8c	; 0xd8c <LCD_12864_Draw_pixel>
	LCD_12864_Draw_pixel(108, 55);
    30f2:	67 e3       	ldi	r22, 0x37	; 55
    30f4:	8c e6       	ldi	r24, 0x6C	; 108
    30f6:	0e 94 c6 06 	call	0xd8c	; 0xd8c <LCD_12864_Draw_pixel>
	LCD_12864_Draw_pixel(109, 54);
    30fa:	66 e3       	ldi	r22, 0x36	; 54
    30fc:	8d e6       	ldi	r24, 0x6D	; 109
    30fe:	0e 94 c6 06 	call	0xd8c	; 0xd8c <LCD_12864_Draw_pixel>
	LCD_12864_Draw_pixel(109, 53);
    3102:	65 e3       	ldi	r22, 0x35	; 53
    3104:	8d e6       	ldi	r24, 0x6D	; 109
    3106:	0e 94 c6 06 	call	0xd8c	; 0xd8c <LCD_12864_Draw_pixel>
	LCD_12864_Draw_pixel(109, 52);
    310a:	64 e3       	ldi	r22, 0x34	; 52
    310c:	8d e6       	ldi	r24, 0x6D	; 109
    310e:	0e 94 c6 06 	call	0xd8c	; 0xd8c <LCD_12864_Draw_pixel>
	LCD_12864_Draw_pixel(109, 51);
    3112:	63 e3       	ldi	r22, 0x33	; 51
    3114:	8d e6       	ldi	r24, 0x6D	; 109
    3116:	0e 94 c6 06 	call	0xd8c	; 0xd8c <LCD_12864_Draw_pixel>
	LCD_12864_Draw_pixel(108, 50);
    311a:	62 e3       	ldi	r22, 0x32	; 50
    311c:	8c e6       	ldi	r24, 0x6C	; 108
    311e:	0e 94 c6 06 	call	0xd8c	; 0xd8c <LCD_12864_Draw_pixel>
	LCD_12864_Draw_pixel(107, 49);
    3122:	61 e3       	ldi	r22, 0x31	; 49
    3124:	8b e6       	ldi	r24, 0x6B	; 107
    3126:	0e 94 c6 06 	call	0xd8c	; 0xd8c <LCD_12864_Draw_pixel>
	LCD_12864_Draw_pixel(106, 48);
    312a:	60 e3       	ldi	r22, 0x30	; 48
    312c:	8a e6       	ldi	r24, 0x6A	; 106
    312e:	0e 94 c6 06 	call	0xd8c	; 0xd8c <LCD_12864_Draw_pixel>
	//облако№2
	LCD_12864_Draw_line(110, 55, 121, 55);
    3132:	27 e3       	ldi	r18, 0x37	; 55
    3134:	49 e7       	ldi	r20, 0x79	; 121
    3136:	67 e3       	ldi	r22, 0x37	; 55
    3138:	8e e6       	ldi	r24, 0x6E	; 110
    313a:	0e 94 18 0c 	call	0x1830	; 0x1830 <LCD_12864_Draw_line>
	LCD_12864_Draw_pixel(122, 54);
    313e:	66 e3       	ldi	r22, 0x36	; 54
    3140:	8a e7       	ldi	r24, 0x7A	; 122
    3142:	0e 94 c6 06 	call	0xd8c	; 0xd8c <LCD_12864_Draw_pixel>
	LCD_12864_Draw_pixel(122, 53);
    3146:	65 e3       	ldi	r22, 0x35	; 53
    3148:	8a e7       	ldi	r24, 0x7A	; 122
    314a:	0e 94 c6 06 	call	0xd8c	; 0xd8c <LCD_12864_Draw_pixel>
	LCD_12864_Draw_pixel(122, 52);
    314e:	64 e3       	ldi	r22, 0x34	; 52
    3150:	8a e7       	ldi	r24, 0x7A	; 122
    3152:	0e 94 c6 06 	call	0xd8c	; 0xd8c <LCD_12864_Draw_pixel>
	LCD_12864_Draw_pixel(122, 51);
    3156:	63 e3       	ldi	r22, 0x33	; 51
    3158:	8a e7       	ldi	r24, 0x7A	; 122
    315a:	0e 94 c6 06 	call	0xd8c	; 0xd8c <LCD_12864_Draw_pixel>
	LCD_12864_Draw_pixel(121, 50);
    315e:	62 e3       	ldi	r22, 0x32	; 50
    3160:	89 e7       	ldi	r24, 0x79	; 121
    3162:	0e 94 c6 06 	call	0xd8c	; 0xd8c <LCD_12864_Draw_pixel>
	LCD_12864_Draw_pixel(120, 49);
    3166:	61 e3       	ldi	r22, 0x31	; 49
    3168:	88 e7       	ldi	r24, 0x78	; 120
    316a:	0e 94 c6 06 	call	0xd8c	; 0xd8c <LCD_12864_Draw_pixel>
	LCD_12864_Draw_pixel(119, 49);
    316e:	61 e3       	ldi	r22, 0x31	; 49
    3170:	87 e7       	ldi	r24, 0x77	; 119
    3172:	0e 94 c6 06 	call	0xd8c	; 0xd8c <LCD_12864_Draw_pixel>
	LCD_12864_Draw_pixel(118, 49);
    3176:	61 e3       	ldi	r22, 0x31	; 49
    3178:	86 e7       	ldi	r24, 0x76	; 118
    317a:	0e 94 c6 06 	call	0xd8c	; 0xd8c <LCD_12864_Draw_pixel>
	LCD_12864_Draw_pixel(117, 50);
    317e:	62 e3       	ldi	r22, 0x32	; 50
    3180:	85 e7       	ldi	r24, 0x75	; 117
    3182:	0e 94 c6 06 	call	0xd8c	; 0xd8c <LCD_12864_Draw_pixel>
	LCD_12864_Draw_pixel(118, 48);
    3186:	60 e3       	ldi	r22, 0x30	; 48
    3188:	86 e7       	ldi	r24, 0x76	; 118
    318a:	0e 94 c6 06 	call	0xd8c	; 0xd8c <LCD_12864_Draw_pixel>
	LCD_12864_Draw_pixel(118, 47);
    318e:	6f e2       	ldi	r22, 0x2F	; 47
    3190:	86 e7       	ldi	r24, 0x76	; 118
    3192:	0e 94 c6 06 	call	0xd8c	; 0xd8c <LCD_12864_Draw_pixel>
	LCD_12864_Draw_pixel(117, 46);
    3196:	6e e2       	ldi	r22, 0x2E	; 46
    3198:	85 e7       	ldi	r24, 0x75	; 117
    319a:	0e 94 c6 06 	call	0xd8c	; 0xd8c <LCD_12864_Draw_pixel>
	LCD_12864_Draw_pixel(116, 46);
    319e:	6e e2       	ldi	r22, 0x2E	; 46
    31a0:	84 e7       	ldi	r24, 0x74	; 116
    31a2:	0e 94 c6 06 	call	0xd8c	; 0xd8c <LCD_12864_Draw_pixel>
	
	LCD_12864_Draw_pixel(115, 46);
    31a6:	6e e2       	ldi	r22, 0x2E	; 46
    31a8:	83 e7       	ldi	r24, 0x73	; 115
    31aa:	0e 94 c6 06 	call	0xd8c	; 0xd8c <LCD_12864_Draw_pixel>
	LCD_12864_Draw_pixel(114, 46);
    31ae:	6e e2       	ldi	r22, 0x2E	; 46
    31b0:	82 e7       	ldi	r24, 0x72	; 114
    31b2:	0e 94 c6 06 	call	0xd8c	; 0xd8c <LCD_12864_Draw_pixel>
	LCD_12864_Draw_pixel(113, 47);
    31b6:	6f e2       	ldi	r22, 0x2F	; 47
    31b8:	81 e7       	ldi	r24, 0x71	; 113
    31ba:	0e 94 c6 06 	call	0xd8c	; 0xd8c <LCD_12864_Draw_pixel>
	LCD_12864_Draw_pixel(113, 48);
    31be:	60 e3       	ldi	r22, 0x30	; 48
    31c0:	81 e7       	ldi	r24, 0x71	; 113
    31c2:	0e 94 c6 06 	call	0xd8c	; 0xd8c <LCD_12864_Draw_pixel>
	LCD_12864_Draw_pixel(113, 49);
    31c6:	61 e3       	ldi	r22, 0x31	; 49
    31c8:	81 e7       	ldi	r24, 0x71	; 113
    31ca:	0e 94 c6 06 	call	0xd8c	; 0xd8c <LCD_12864_Draw_pixel>
	LCD_12864_Draw_pixel(114, 50);
    31ce:	62 e3       	ldi	r22, 0x32	; 50
    31d0:	82 e7       	ldi	r24, 0x72	; 114
    31d2:	0e 94 c6 06 	call	0xd8c	; 0xd8c <LCD_12864_Draw_pixel>
	LCD_12864_Draw_pixel(112, 49);
    31d6:	61 e3       	ldi	r22, 0x31	; 49
    31d8:	80 e7       	ldi	r24, 0x70	; 112
    31da:	0e 94 c6 06 	call	0xd8c	; 0xd8c <LCD_12864_Draw_pixel>
	LCD_12864_Draw_pixel(111, 49);
    31de:	61 e3       	ldi	r22, 0x31	; 49
    31e0:	8f e6       	ldi	r24, 0x6F	; 111
    31e2:	0e 94 c6 06 	call	0xd8c	; 0xd8c <LCD_12864_Draw_pixel>
	LCD_12864_Draw_pixel(110, 50);
    31e6:	62 e3       	ldi	r22, 0x32	; 50
    31e8:	8e e6       	ldi	r24, 0x6E	; 110
    31ea:	0e 94 c6 06 	call	0xd8c	; 0xd8c <LCD_12864_Draw_pixel>
    31ee:	08 95       	ret

000031f0 <DrawCloudsWithRain>:

}
void DrawCloudsWithRain(void)
{
	//облако№1
	LCD_12864_Draw_line(90, 57, 106, 57);
    31f0:	29 e3       	ldi	r18, 0x39	; 57
    31f2:	4a e6       	ldi	r20, 0x6A	; 106
    31f4:	69 e3       	ldi	r22, 0x39	; 57
    31f6:	8a e5       	ldi	r24, 0x5A	; 90
    31f8:	0e 94 18 0c 	call	0x1830	; 0x1830 <LCD_12864_Draw_line>
	LCD_12864_Draw_pixel(89, 56);
    31fc:	68 e3       	ldi	r22, 0x38	; 56
    31fe:	89 e5       	ldi	r24, 0x59	; 89
    3200:	0e 94 c6 06 	call	0xd8c	; 0xd8c <LCD_12864_Draw_pixel>
	LCD_12864_Draw_pixel(88, 55);
    3204:	67 e3       	ldi	r22, 0x37	; 55
    3206:	88 e5       	ldi	r24, 0x58	; 88
    3208:	0e 94 c6 06 	call	0xd8c	; 0xd8c <LCD_12864_Draw_pixel>
	LCD_12864_Draw_pixel(87, 54);
    320c:	66 e3       	ldi	r22, 0x36	; 54
    320e:	87 e5       	ldi	r24, 0x57	; 87
    3210:	0e 94 c6 06 	call	0xd8c	; 0xd8c <LCD_12864_Draw_pixel>
	LCD_12864_Draw_pixel(87, 53);
    3214:	65 e3       	ldi	r22, 0x35	; 53
    3216:	87 e5       	ldi	r24, 0x57	; 87
    3218:	0e 94 c6 06 	call	0xd8c	; 0xd8c <LCD_12864_Draw_pixel>
	LCD_12864_Draw_pixel(87, 52);
    321c:	64 e3       	ldi	r22, 0x34	; 52
    321e:	87 e5       	ldi	r24, 0x57	; 87
    3220:	0e 94 c6 06 	call	0xd8c	; 0xd8c <LCD_12864_Draw_pixel>
	LCD_12864_Draw_pixel(88, 51);
    3224:	63 e3       	ldi	r22, 0x33	; 51
    3226:	88 e5       	ldi	r24, 0x58	; 88
    3228:	0e 94 c6 06 	call	0xd8c	; 0xd8c <LCD_12864_Draw_pixel>
	LCD_12864_Draw_pixel(89, 50);
    322c:	62 e3       	ldi	r22, 0x32	; 50
    322e:	89 e5       	ldi	r24, 0x59	; 89
    3230:	0e 94 c6 06 	call	0xd8c	; 0xd8c <LCD_12864_Draw_pixel>
	LCD_12864_Draw_pixel(90, 50);
    3234:	62 e3       	ldi	r22, 0x32	; 50
    3236:	8a e5       	ldi	r24, 0x5A	; 90
    3238:	0e 94 c6 06 	call	0xd8c	; 0xd8c <LCD_12864_Draw_pixel>
	LCD_12864_Draw_pixel(91, 50);
    323c:	62 e3       	ldi	r22, 0x32	; 50
    323e:	8b e5       	ldi	r24, 0x5B	; 91
    3240:	0e 94 c6 06 	call	0xd8c	; 0xd8c <LCD_12864_Draw_pixel>
	LCD_12864_Draw_pixel(92, 50);
    3244:	62 e3       	ldi	r22, 0x32	; 50
    3246:	8c e5       	ldi	r24, 0x5C	; 92
    3248:	0e 94 c6 06 	call	0xd8c	; 0xd8c <LCD_12864_Draw_pixel>
	LCD_12864_Draw_pixel(94, 51);
    324c:	63 e3       	ldi	r22, 0x33	; 51
    324e:	8e e5       	ldi	r24, 0x5E	; 94
    3250:	0e 94 c6 06 	call	0xd8c	; 0xd8c <LCD_12864_Draw_pixel>
	LCD_12864_Draw_pixel(93, 50);
    3254:	62 e3       	ldi	r22, 0x32	; 50
    3256:	8d e5       	ldi	r24, 0x5D	; 93
    3258:	0e 94 c6 06 	call	0xd8c	; 0xd8c <LCD_12864_Draw_pixel>
	LCD_12864_Draw_pixel(92, 49);
    325c:	61 e3       	ldi	r22, 0x31	; 49
    325e:	8c e5       	ldi	r24, 0x5C	; 92
    3260:	0e 94 c6 06 	call	0xd8c	; 0xd8c <LCD_12864_Draw_pixel>
	LCD_12864_Draw_pixel(92, 48);
    3264:	60 e3       	ldi	r22, 0x30	; 48
    3266:	8c e5       	ldi	r24, 0x5C	; 92
    3268:	0e 94 c6 06 	call	0xd8c	; 0xd8c <LCD_12864_Draw_pixel>
	LCD_12864_Draw_pixel(92, 47);
    326c:	6f e2       	ldi	r22, 0x2F	; 47
    326e:	8c e5       	ldi	r24, 0x5C	; 92
    3270:	0e 94 c6 06 	call	0xd8c	; 0xd8c <LCD_12864_Draw_pixel>
	LCD_12864_Draw_pixel(92, 46);
    3274:	6e e2       	ldi	r22, 0x2E	; 46
    3276:	8c e5       	ldi	r24, 0x5C	; 92
    3278:	0e 94 c6 06 	call	0xd8c	; 0xd8c <LCD_12864_Draw_pixel>
	LCD_12864_Draw_pixel(93, 45);
    327c:	6d e2       	ldi	r22, 0x2D	; 45
    327e:	8d e5       	ldi	r24, 0x5D	; 93
    3280:	0e 94 c6 06 	call	0xd8c	; 0xd8c <LCD_12864_Draw_pixel>
	LCD_12864_Draw_pixel(94, 44);
    3284:	6c e2       	ldi	r22, 0x2C	; 44
    3286:	8e e5       	ldi	r24, 0x5E	; 94
    3288:	0e 94 c6 06 	call	0xd8c	; 0xd8c <LCD_12864_Draw_pixel>
	LCD_12864_Draw_pixel(95, 44);
    328c:	6c e2       	ldi	r22, 0x2C	; 44
    328e:	8f e5       	ldi	r24, 0x5F	; 95
    3290:	0e 94 c6 06 	call	0xd8c	; 0xd8c <LCD_12864_Draw_pixel>
	LCD_12864_Draw_pixel(96, 44);
    3294:	6c e2       	ldi	r22, 0x2C	; 44
    3296:	80 e6       	ldi	r24, 0x60	; 96
    3298:	0e 94 c6 06 	call	0xd8c	; 0xd8c <LCD_12864_Draw_pixel>
	LCD_12864_Draw_pixel(97, 44);
    329c:	6c e2       	ldi	r22, 0x2C	; 44
    329e:	81 e6       	ldi	r24, 0x61	; 97
    32a0:	0e 94 c6 06 	call	0xd8c	; 0xd8c <LCD_12864_Draw_pixel>
	LCD_12864_Draw_pixel(98, 44);
    32a4:	6c e2       	ldi	r22, 0x2C	; 44
    32a6:	82 e6       	ldi	r24, 0x62	; 98
    32a8:	0e 94 c6 06 	call	0xd8c	; 0xd8c <LCD_12864_Draw_pixel>
	LCD_12864_Draw_pixel(99, 44);
    32ac:	6c e2       	ldi	r22, 0x2C	; 44
    32ae:	83 e6       	ldi	r24, 0x63	; 99
    32b0:	0e 94 c6 06 	call	0xd8c	; 0xd8c <LCD_12864_Draw_pixel>
	LCD_12864_Draw_pixel(100, 44);
    32b4:	6c e2       	ldi	r22, 0x2C	; 44
    32b6:	84 e6       	ldi	r24, 0x64	; 100
    32b8:	0e 94 c6 06 	call	0xd8c	; 0xd8c <LCD_12864_Draw_pixel>
	LCD_12864_Draw_pixel(101, 45);
    32bc:	6d e2       	ldi	r22, 0x2D	; 45
    32be:	85 e6       	ldi	r24, 0x65	; 101
    32c0:	0e 94 c6 06 	call	0xd8c	; 0xd8c <LCD_12864_Draw_pixel>
	LCD_12864_Draw_pixel(102, 46);
    32c4:	6e e2       	ldi	r22, 0x2E	; 46
    32c6:	86 e6       	ldi	r24, 0x66	; 102
    32c8:	0e 94 c6 06 	call	0xd8c	; 0xd8c <LCD_12864_Draw_pixel>
	LCD_12864_Draw_pixel(102, 47);
    32cc:	6f e2       	ldi	r22, 0x2F	; 47
    32ce:	86 e6       	ldi	r24, 0x66	; 102
    32d0:	0e 94 c6 06 	call	0xd8c	; 0xd8c <LCD_12864_Draw_pixel>
	LCD_12864_Draw_pixel(102, 48);
    32d4:	60 e3       	ldi	r22, 0x30	; 48
    32d6:	86 e6       	ldi	r24, 0x66	; 102
    32d8:	0e 94 c6 06 	call	0xd8c	; 0xd8c <LCD_12864_Draw_pixel>
	LCD_12864_Draw_pixel(101, 49);
    32dc:	61 e3       	ldi	r22, 0x31	; 49
    32de:	85 e6       	ldi	r24, 0x65	; 101
    32e0:	0e 94 c6 06 	call	0xd8c	; 0xd8c <LCD_12864_Draw_pixel>
	LCD_12864_Draw_pixel(102, 48);
    32e4:	60 e3       	ldi	r22, 0x30	; 48
    32e6:	86 e6       	ldi	r24, 0x66	; 102
    32e8:	0e 94 c6 06 	call	0xd8c	; 0xd8c <LCD_12864_Draw_pixel>
	LCD_12864_Draw_pixel(103, 48);
    32ec:	60 e3       	ldi	r22, 0x30	; 48
    32ee:	87 e6       	ldi	r24, 0x67	; 103
    32f0:	0e 94 c6 06 	call	0xd8c	; 0xd8c <LCD_12864_Draw_pixel>
	LCD_12864_Draw_pixel(104, 48);
    32f4:	60 e3       	ldi	r22, 0x30	; 48
    32f6:	88 e6       	ldi	r24, 0x68	; 104
    32f8:	0e 94 c6 06 	call	0xd8c	; 0xd8c <LCD_12864_Draw_pixel>
	LCD_12864_Draw_pixel(105, 48);
    32fc:	60 e3       	ldi	r22, 0x30	; 48
    32fe:	89 e6       	ldi	r24, 0x69	; 105
    3300:	0e 94 c6 06 	call	0xd8c	; 0xd8c <LCD_12864_Draw_pixel>
	
	LCD_12864_Draw_pixel(107, 56);
    3304:	68 e3       	ldi	r22, 0x38	; 56
    3306:	8b e6       	ldi	r24, 0x6B	; 107
    3308:	0e 94 c6 06 	call	0xd8c	; 0xd8c <LCD_12864_Draw_pixel>
	LCD_12864_Draw_pixel(108, 55);
    330c:	67 e3       	ldi	r22, 0x37	; 55
    330e:	8c e6       	ldi	r24, 0x6C	; 108
    3310:	0e 94 c6 06 	call	0xd8c	; 0xd8c <LCD_12864_Draw_pixel>
	LCD_12864_Draw_pixel(109, 54);
    3314:	66 e3       	ldi	r22, 0x36	; 54
    3316:	8d e6       	ldi	r24, 0x6D	; 109
    3318:	0e 94 c6 06 	call	0xd8c	; 0xd8c <LCD_12864_Draw_pixel>
	LCD_12864_Draw_pixel(109, 53);
    331c:	65 e3       	ldi	r22, 0x35	; 53
    331e:	8d e6       	ldi	r24, 0x6D	; 109
    3320:	0e 94 c6 06 	call	0xd8c	; 0xd8c <LCD_12864_Draw_pixel>
	LCD_12864_Draw_pixel(109, 52);
    3324:	64 e3       	ldi	r22, 0x34	; 52
    3326:	8d e6       	ldi	r24, 0x6D	; 109
    3328:	0e 94 c6 06 	call	0xd8c	; 0xd8c <LCD_12864_Draw_pixel>
	LCD_12864_Draw_pixel(109, 51);
    332c:	63 e3       	ldi	r22, 0x33	; 51
    332e:	8d e6       	ldi	r24, 0x6D	; 109
    3330:	0e 94 c6 06 	call	0xd8c	; 0xd8c <LCD_12864_Draw_pixel>
	LCD_12864_Draw_pixel(108, 50);
    3334:	62 e3       	ldi	r22, 0x32	; 50
    3336:	8c e6       	ldi	r24, 0x6C	; 108
    3338:	0e 94 c6 06 	call	0xd8c	; 0xd8c <LCD_12864_Draw_pixel>
	LCD_12864_Draw_pixel(107, 49);
    333c:	61 e3       	ldi	r22, 0x31	; 49
    333e:	8b e6       	ldi	r24, 0x6B	; 107
    3340:	0e 94 c6 06 	call	0xd8c	; 0xd8c <LCD_12864_Draw_pixel>
	LCD_12864_Draw_pixel(106, 48);
    3344:	60 e3       	ldi	r22, 0x30	; 48
    3346:	8a e6       	ldi	r24, 0x6A	; 106
    3348:	0e 94 c6 06 	call	0xd8c	; 0xd8c <LCD_12864_Draw_pixel>
	//облако№2
	LCD_12864_Draw_line(110, 55, 121, 55);
    334c:	27 e3       	ldi	r18, 0x37	; 55
    334e:	49 e7       	ldi	r20, 0x79	; 121
    3350:	67 e3       	ldi	r22, 0x37	; 55
    3352:	8e e6       	ldi	r24, 0x6E	; 110
    3354:	0e 94 18 0c 	call	0x1830	; 0x1830 <LCD_12864_Draw_line>
	LCD_12864_Draw_pixel(122, 54);
    3358:	66 e3       	ldi	r22, 0x36	; 54
    335a:	8a e7       	ldi	r24, 0x7A	; 122
    335c:	0e 94 c6 06 	call	0xd8c	; 0xd8c <LCD_12864_Draw_pixel>
	LCD_12864_Draw_pixel(122, 53);
    3360:	65 e3       	ldi	r22, 0x35	; 53
    3362:	8a e7       	ldi	r24, 0x7A	; 122
    3364:	0e 94 c6 06 	call	0xd8c	; 0xd8c <LCD_12864_Draw_pixel>
	LCD_12864_Draw_pixel(122, 52);
    3368:	64 e3       	ldi	r22, 0x34	; 52
    336a:	8a e7       	ldi	r24, 0x7A	; 122
    336c:	0e 94 c6 06 	call	0xd8c	; 0xd8c <LCD_12864_Draw_pixel>
	LCD_12864_Draw_pixel(122, 51);
    3370:	63 e3       	ldi	r22, 0x33	; 51
    3372:	8a e7       	ldi	r24, 0x7A	; 122
    3374:	0e 94 c6 06 	call	0xd8c	; 0xd8c <LCD_12864_Draw_pixel>
	LCD_12864_Draw_pixel(121, 50);
    3378:	62 e3       	ldi	r22, 0x32	; 50
    337a:	89 e7       	ldi	r24, 0x79	; 121
    337c:	0e 94 c6 06 	call	0xd8c	; 0xd8c <LCD_12864_Draw_pixel>
	LCD_12864_Draw_pixel(120, 49);
    3380:	61 e3       	ldi	r22, 0x31	; 49
    3382:	88 e7       	ldi	r24, 0x78	; 120
    3384:	0e 94 c6 06 	call	0xd8c	; 0xd8c <LCD_12864_Draw_pixel>
	LCD_12864_Draw_pixel(119, 49);
    3388:	61 e3       	ldi	r22, 0x31	; 49
    338a:	87 e7       	ldi	r24, 0x77	; 119
    338c:	0e 94 c6 06 	call	0xd8c	; 0xd8c <LCD_12864_Draw_pixel>
	LCD_12864_Draw_pixel(118, 49);
    3390:	61 e3       	ldi	r22, 0x31	; 49
    3392:	86 e7       	ldi	r24, 0x76	; 118
    3394:	0e 94 c6 06 	call	0xd8c	; 0xd8c <LCD_12864_Draw_pixel>
	LCD_12864_Draw_pixel(117, 50);
    3398:	62 e3       	ldi	r22, 0x32	; 50
    339a:	85 e7       	ldi	r24, 0x75	; 117
    339c:	0e 94 c6 06 	call	0xd8c	; 0xd8c <LCD_12864_Draw_pixel>
	LCD_12864_Draw_pixel(118, 48);
    33a0:	60 e3       	ldi	r22, 0x30	; 48
    33a2:	86 e7       	ldi	r24, 0x76	; 118
    33a4:	0e 94 c6 06 	call	0xd8c	; 0xd8c <LCD_12864_Draw_pixel>
	LCD_12864_Draw_pixel(118, 47);
    33a8:	6f e2       	ldi	r22, 0x2F	; 47
    33aa:	86 e7       	ldi	r24, 0x76	; 118
    33ac:	0e 94 c6 06 	call	0xd8c	; 0xd8c <LCD_12864_Draw_pixel>
	LCD_12864_Draw_pixel(117, 46);
    33b0:	6e e2       	ldi	r22, 0x2E	; 46
    33b2:	85 e7       	ldi	r24, 0x75	; 117
    33b4:	0e 94 c6 06 	call	0xd8c	; 0xd8c <LCD_12864_Draw_pixel>
	LCD_12864_Draw_pixel(116, 46);
    33b8:	6e e2       	ldi	r22, 0x2E	; 46
    33ba:	84 e7       	ldi	r24, 0x74	; 116
    33bc:	0e 94 c6 06 	call	0xd8c	; 0xd8c <LCD_12864_Draw_pixel>
	
	LCD_12864_Draw_pixel(115, 46);
    33c0:	6e e2       	ldi	r22, 0x2E	; 46
    33c2:	83 e7       	ldi	r24, 0x73	; 115
    33c4:	0e 94 c6 06 	call	0xd8c	; 0xd8c <LCD_12864_Draw_pixel>
	LCD_12864_Draw_pixel(114, 46);
    33c8:	6e e2       	ldi	r22, 0x2E	; 46
    33ca:	82 e7       	ldi	r24, 0x72	; 114
    33cc:	0e 94 c6 06 	call	0xd8c	; 0xd8c <LCD_12864_Draw_pixel>
	LCD_12864_Draw_pixel(113, 47);
    33d0:	6f e2       	ldi	r22, 0x2F	; 47
    33d2:	81 e7       	ldi	r24, 0x71	; 113
    33d4:	0e 94 c6 06 	call	0xd8c	; 0xd8c <LCD_12864_Draw_pixel>
	LCD_12864_Draw_pixel(113, 48);
    33d8:	60 e3       	ldi	r22, 0x30	; 48
    33da:	81 e7       	ldi	r24, 0x71	; 113
    33dc:	0e 94 c6 06 	call	0xd8c	; 0xd8c <LCD_12864_Draw_pixel>
	LCD_12864_Draw_pixel(113, 49);
    33e0:	61 e3       	ldi	r22, 0x31	; 49
    33e2:	81 e7       	ldi	r24, 0x71	; 113
    33e4:	0e 94 c6 06 	call	0xd8c	; 0xd8c <LCD_12864_Draw_pixel>
	LCD_12864_Draw_pixel(114, 50);
    33e8:	62 e3       	ldi	r22, 0x32	; 50
    33ea:	82 e7       	ldi	r24, 0x72	; 114
    33ec:	0e 94 c6 06 	call	0xd8c	; 0xd8c <LCD_12864_Draw_pixel>
	LCD_12864_Draw_pixel(112, 49);
    33f0:	61 e3       	ldi	r22, 0x31	; 49
    33f2:	80 e7       	ldi	r24, 0x70	; 112
    33f4:	0e 94 c6 06 	call	0xd8c	; 0xd8c <LCD_12864_Draw_pixel>
	LCD_12864_Draw_pixel(111, 49);
    33f8:	61 e3       	ldi	r22, 0x31	; 49
    33fa:	8f e6       	ldi	r24, 0x6F	; 111
    33fc:	0e 94 c6 06 	call	0xd8c	; 0xd8c <LCD_12864_Draw_pixel>
	LCD_12864_Draw_pixel(110, 50);
    3400:	62 e3       	ldi	r22, 0x32	; 50
    3402:	8e e6       	ldi	r24, 0x6E	; 110
    3404:	0e 94 c6 06 	call	0xd8c	; 0xd8c <LCD_12864_Draw_pixel>

	LCD_12864_Draw_line(91, 59, 89, 61);
    3408:	2d e3       	ldi	r18, 0x3D	; 61
    340a:	49 e5       	ldi	r20, 0x59	; 89
    340c:	6b e3       	ldi	r22, 0x3B	; 59
    340e:	8b e5       	ldi	r24, 0x5B	; 91
    3410:	0e 94 18 0c 	call	0x1830	; 0x1830 <LCD_12864_Draw_line>
	LCD_12864_Draw_line(94, 59, 92, 61);
    3414:	2d e3       	ldi	r18, 0x3D	; 61
    3416:	4c e5       	ldi	r20, 0x5C	; 92
    3418:	6b e3       	ldi	r22, 0x3B	; 59
    341a:	8e e5       	ldi	r24, 0x5E	; 94
    341c:	0e 94 18 0c 	call	0x1830	; 0x1830 <LCD_12864_Draw_line>
	LCD_12864_Draw_line(97, 59, 95, 61);
    3420:	2d e3       	ldi	r18, 0x3D	; 61
    3422:	4f e5       	ldi	r20, 0x5F	; 95
    3424:	6b e3       	ldi	r22, 0x3B	; 59
    3426:	81 e6       	ldi	r24, 0x61	; 97
    3428:	0e 94 18 0c 	call	0x1830	; 0x1830 <LCD_12864_Draw_line>
	LCD_12864_Draw_line(100, 59, 98, 61);
    342c:	2d e3       	ldi	r18, 0x3D	; 61
    342e:	42 e6       	ldi	r20, 0x62	; 98
    3430:	6b e3       	ldi	r22, 0x3B	; 59
    3432:	84 e6       	ldi	r24, 0x64	; 100
    3434:	0e 94 18 0c 	call	0x1830	; 0x1830 <LCD_12864_Draw_line>
	LCD_12864_Draw_line(103, 59, 101, 61);
    3438:	2d e3       	ldi	r18, 0x3D	; 61
    343a:	45 e6       	ldi	r20, 0x65	; 101
    343c:	6b e3       	ldi	r22, 0x3B	; 59
    343e:	87 e6       	ldi	r24, 0x67	; 103
    3440:	0e 94 18 0c 	call	0x1830	; 0x1830 <LCD_12864_Draw_line>
	LCD_12864_Draw_line(106, 59, 104, 61);
    3444:	2d e3       	ldi	r18, 0x3D	; 61
    3446:	48 e6       	ldi	r20, 0x68	; 104
    3448:	6b e3       	ldi	r22, 0x3B	; 59
    344a:	8a e6       	ldi	r24, 0x6A	; 106
    344c:	0e 94 18 0c 	call	0x1830	; 0x1830 <LCD_12864_Draw_line>
	
	LCD_12864_Draw_line(111, 57, 110, 58);
    3450:	2a e3       	ldi	r18, 0x3A	; 58
    3452:	4e e6       	ldi	r20, 0x6E	; 110
    3454:	69 e3       	ldi	r22, 0x39	; 57
    3456:	8f e6       	ldi	r24, 0x6F	; 111
    3458:	0e 94 18 0c 	call	0x1830	; 0x1830 <LCD_12864_Draw_line>
	LCD_12864_Draw_line(114, 57, 113, 58);
    345c:	2a e3       	ldi	r18, 0x3A	; 58
    345e:	41 e7       	ldi	r20, 0x71	; 113
    3460:	69 e3       	ldi	r22, 0x39	; 57
    3462:	82 e7       	ldi	r24, 0x72	; 114
    3464:	0e 94 18 0c 	call	0x1830	; 0x1830 <LCD_12864_Draw_line>
	LCD_12864_Draw_line(117, 57, 116, 58);
    3468:	2a e3       	ldi	r18, 0x3A	; 58
    346a:	44 e7       	ldi	r20, 0x74	; 116
    346c:	69 e3       	ldi	r22, 0x39	; 57
    346e:	85 e7       	ldi	r24, 0x75	; 117
    3470:	0e 94 18 0c 	call	0x1830	; 0x1830 <LCD_12864_Draw_line>
	LCD_12864_Draw_line(120, 57, 119, 58);
    3474:	2a e3       	ldi	r18, 0x3A	; 58
    3476:	47 e7       	ldi	r20, 0x77	; 119
    3478:	69 e3       	ldi	r22, 0x39	; 57
    347a:	88 e7       	ldi	r24, 0x78	; 120
    347c:	0e 94 18 0c 	call	0x1830	; 0x1830 <LCD_12864_Draw_line>
    3480:	08 95       	ret

00003482 <DrawWeatherVane>:
}
void DrawWeatherVane(void)
{
	LCD_12864_Draw_circle(11, 52, 9);
    3482:	49 e0       	ldi	r20, 0x09	; 9
    3484:	64 e3       	ldi	r22, 0x34	; 52
    3486:	8b e0       	ldi	r24, 0x0B	; 11
    3488:	0e 94 78 0c 	call	0x18f0	; 0x18f0 <LCD_12864_Draw_circle>
	//---------N-----------------
	LCD_12864_Clean_pixel(11, 44);
    348c:	6c e2       	ldi	r22, 0x2C	; 44
    348e:	8b e0       	ldi	r24, 0x0B	; 11
    3490:	0e 94 e7 06 	call	0xdce	; 0xdce <LCD_12864_Clean_pixel>
	LCD_12864_Clean_pixel(10, 44);
    3494:	6c e2       	ldi	r22, 0x2C	; 44
    3496:	8a e0       	ldi	r24, 0x0A	; 10
    3498:	0e 94 e7 06 	call	0xdce	; 0xdce <LCD_12864_Clean_pixel>
	LCD_12864_Clean_pixel(9, 44);
    349c:	6c e2       	ldi	r22, 0x2C	; 44
    349e:	89 e0       	ldi	r24, 0x09	; 9
    34a0:	0e 94 e7 06 	call	0xdce	; 0xdce <LCD_12864_Clean_pixel>
	LCD_12864_Clean_pixel(8, 44);
    34a4:	6c e2       	ldi	r22, 0x2C	; 44
    34a6:	88 e0       	ldi	r24, 0x08	; 8
    34a8:	0e 94 e7 06 	call	0xdce	; 0xdce <LCD_12864_Clean_pixel>
	LCD_12864_Clean_pixel(12, 44);
    34ac:	6c e2       	ldi	r22, 0x2C	; 44
    34ae:	8c e0       	ldi	r24, 0x0C	; 12
    34b0:	0e 94 e7 06 	call	0xdce	; 0xdce <LCD_12864_Clean_pixel>
	LCD_12864_Clean_pixel(13, 44);
    34b4:	6c e2       	ldi	r22, 0x2C	; 44
    34b6:	8d e0       	ldi	r24, 0x0D	; 13
    34b8:	0e 94 e7 06 	call	0xdce	; 0xdce <LCD_12864_Clean_pixel>
	LCD_12864_Clean_pixel(14, 44);
    34bc:	6c e2       	ldi	r22, 0x2C	; 44
    34be:	8e e0       	ldi	r24, 0x0E	; 14
    34c0:	0e 94 e7 06 	call	0xdce	; 0xdce <LCD_12864_Clean_pixel>
	LCD_12864_Draw_pixel(9, 43);
    34c4:	6b e2       	ldi	r22, 0x2B	; 43
    34c6:	89 e0       	ldi	r24, 0x09	; 9
    34c8:	0e 94 c6 06 	call	0xd8c	; 0xd8c <LCD_12864_Draw_pixel>
	LCD_12864_Draw_pixel(9, 44);
    34cc:	6c e2       	ldi	r22, 0x2C	; 44
    34ce:	89 e0       	ldi	r24, 0x09	; 9
    34d0:	0e 94 c6 06 	call	0xd8c	; 0xd8c <LCD_12864_Draw_pixel>
	LCD_12864_Draw_pixel(9, 45);
    34d4:	6d e2       	ldi	r22, 0x2D	; 45
    34d6:	89 e0       	ldi	r24, 0x09	; 9
    34d8:	0e 94 c6 06 	call	0xd8c	; 0xd8c <LCD_12864_Draw_pixel>
	LCD_12864_Draw_pixel(9, 42);
    34dc:	6a e2       	ldi	r22, 0x2A	; 42
    34de:	89 e0       	ldi	r24, 0x09	; 9
    34e0:	0e 94 c6 06 	call	0xd8c	; 0xd8c <LCD_12864_Draw_pixel>
	LCD_12864_Draw_pixel(9, 41);
    34e4:	69 e2       	ldi	r22, 0x29	; 41
    34e6:	89 e0       	ldi	r24, 0x09	; 9
    34e8:	0e 94 c6 06 	call	0xd8c	; 0xd8c <LCD_12864_Draw_pixel>
	LCD_12864_Draw_pixel(10, 42);
    34ec:	6a e2       	ldi	r22, 0x2A	; 42
    34ee:	8a e0       	ldi	r24, 0x0A	; 10
    34f0:	0e 94 c6 06 	call	0xd8c	; 0xd8c <LCD_12864_Draw_pixel>
	LCD_12864_Draw_pixel(11, 43);
    34f4:	6b e2       	ldi	r22, 0x2B	; 43
    34f6:	8b e0       	ldi	r24, 0x0B	; 11
    34f8:	0e 94 c6 06 	call	0xd8c	; 0xd8c <LCD_12864_Draw_pixel>
	LCD_12864_Draw_pixel(12, 44);
    34fc:	6c e2       	ldi	r22, 0x2C	; 44
    34fe:	8c e0       	ldi	r24, 0x0C	; 12
    3500:	0e 94 c6 06 	call	0xd8c	; 0xd8c <LCD_12864_Draw_pixel>
	LCD_12864_Draw_pixel(13, 43);
    3504:	6b e2       	ldi	r22, 0x2B	; 43
    3506:	8d e0       	ldi	r24, 0x0D	; 13
    3508:	0e 94 c6 06 	call	0xd8c	; 0xd8c <LCD_12864_Draw_pixel>
	LCD_12864_Draw_pixel(13, 44);
    350c:	6c e2       	ldi	r22, 0x2C	; 44
    350e:	8d e0       	ldi	r24, 0x0D	; 13
    3510:	0e 94 c6 06 	call	0xd8c	; 0xd8c <LCD_12864_Draw_pixel>
	LCD_12864_Draw_pixel(13, 45);
    3514:	6d e2       	ldi	r22, 0x2D	; 45
    3516:	8d e0       	ldi	r24, 0x0D	; 13
    3518:	0e 94 c6 06 	call	0xd8c	; 0xd8c <LCD_12864_Draw_pixel>
	LCD_12864_Draw_pixel(13, 42);
    351c:	6a e2       	ldi	r22, 0x2A	; 42
    351e:	8d e0       	ldi	r24, 0x0D	; 13
    3520:	0e 94 c6 06 	call	0xd8c	; 0xd8c <LCD_12864_Draw_pixel>
	LCD_12864_Draw_pixel(13, 41);
    3524:	69 e2       	ldi	r22, 0x29	; 41
    3526:	8d e0       	ldi	r24, 0x0D	; 13
    3528:	0e 94 c6 06 	call	0xd8c	; 0xd8c <LCD_12864_Draw_pixel>
	//---------S-----------------
	LCD_12864_Clean_pixel(11, 61);
    352c:	6d e3       	ldi	r22, 0x3D	; 61
    352e:	8b e0       	ldi	r24, 0x0B	; 11
    3530:	0e 94 e7 06 	call	0xdce	; 0xdce <LCD_12864_Clean_pixel>
	LCD_12864_Clean_pixel(10, 61);
    3534:	6d e3       	ldi	r22, 0x3D	; 61
    3536:	8a e0       	ldi	r24, 0x0A	; 10
    3538:	0e 94 e7 06 	call	0xdce	; 0xdce <LCD_12864_Clean_pixel>
	LCD_12864_Clean_pixel(9, 61);
    353c:	6d e3       	ldi	r22, 0x3D	; 61
    353e:	89 e0       	ldi	r24, 0x09	; 9
    3540:	0e 94 e7 06 	call	0xdce	; 0xdce <LCD_12864_Clean_pixel>
	LCD_12864_Clean_pixel(8, 61);
    3544:	6d e3       	ldi	r22, 0x3D	; 61
    3546:	88 e0       	ldi	r24, 0x08	; 8
    3548:	0e 94 e7 06 	call	0xdce	; 0xdce <LCD_12864_Clean_pixel>
	LCD_12864_Clean_pixel(12, 61);
    354c:	6d e3       	ldi	r22, 0x3D	; 61
    354e:	8c e0       	ldi	r24, 0x0C	; 12
    3550:	0e 94 e7 06 	call	0xdce	; 0xdce <LCD_12864_Clean_pixel>
	LCD_12864_Clean_pixel(13, 61);
    3554:	6d e3       	ldi	r22, 0x3D	; 61
    3556:	8d e0       	ldi	r24, 0x0D	; 13
    3558:	0e 94 e7 06 	call	0xdce	; 0xdce <LCD_12864_Clean_pixel>
	LCD_12864_Clean_pixel(14, 61);
    355c:	6d e3       	ldi	r22, 0x3D	; 61
    355e:	8e e0       	ldi	r24, 0x0E	; 14
    3560:	0e 94 e7 06 	call	0xdce	; 0xdce <LCD_12864_Clean_pixel>
	LCD_12864_Draw_pixel(9, 60);
    3564:	6c e3       	ldi	r22, 0x3C	; 60
    3566:	89 e0       	ldi	r24, 0x09	; 9
    3568:	0e 94 c6 06 	call	0xd8c	; 0xd8c <LCD_12864_Draw_pixel>
	LCD_12864_Draw_pixel(9, 63);
    356c:	6f e3       	ldi	r22, 0x3F	; 63
    356e:	89 e0       	ldi	r24, 0x09	; 9
    3570:	0e 94 c6 06 	call	0xd8c	; 0xd8c <LCD_12864_Draw_pixel>
	LCD_12864_Draw_pixel(10, 61);
    3574:	6d e3       	ldi	r22, 0x3D	; 61
    3576:	8a e0       	ldi	r24, 0x0A	; 10
    3578:	0e 94 c6 06 	call	0xd8c	; 0xd8c <LCD_12864_Draw_pixel>
	LCD_12864_Draw_pixel(10, 59);
    357c:	6b e3       	ldi	r22, 0x3B	; 59
    357e:	8a e0       	ldi	r24, 0x0A	; 10
    3580:	0e 94 c6 06 	call	0xd8c	; 0xd8c <LCD_12864_Draw_pixel>
	LCD_12864_Draw_pixel(10, 63);
    3584:	6f e3       	ldi	r22, 0x3F	; 63
    3586:	8a e0       	ldi	r24, 0x0A	; 10
    3588:	0e 94 c6 06 	call	0xd8c	; 0xd8c <LCD_12864_Draw_pixel>
	LCD_12864_Draw_pixel(11, 61);
    358c:	6d e3       	ldi	r22, 0x3D	; 61
    358e:	8b e0       	ldi	r24, 0x0B	; 11
    3590:	0e 94 c6 06 	call	0xd8c	; 0xd8c <LCD_12864_Draw_pixel>
	LCD_12864_Draw_pixel(11, 59);
    3594:	6b e3       	ldi	r22, 0x3B	; 59
    3596:	8b e0       	ldi	r24, 0x0B	; 11
    3598:	0e 94 c6 06 	call	0xd8c	; 0xd8c <LCD_12864_Draw_pixel>
	LCD_12864_Draw_pixel(11, 63);
    359c:	6f e3       	ldi	r22, 0x3F	; 63
    359e:	8b e0       	ldi	r24, 0x0B	; 11
    35a0:	0e 94 c6 06 	call	0xd8c	; 0xd8c <LCD_12864_Draw_pixel>
	LCD_12864_Draw_pixel(12, 61);
    35a4:	6d e3       	ldi	r22, 0x3D	; 61
    35a6:	8c e0       	ldi	r24, 0x0C	; 12
    35a8:	0e 94 c6 06 	call	0xd8c	; 0xd8c <LCD_12864_Draw_pixel>
	LCD_12864_Draw_pixel(12, 59);
    35ac:	6b e3       	ldi	r22, 0x3B	; 59
    35ae:	8c e0       	ldi	r24, 0x0C	; 12
    35b0:	0e 94 c6 06 	call	0xd8c	; 0xd8c <LCD_12864_Draw_pixel>
	LCD_12864_Draw_pixel(12, 63);
    35b4:	6f e3       	ldi	r22, 0x3F	; 63
    35b6:	8c e0       	ldi	r24, 0x0C	; 12
    35b8:	0e 94 c6 06 	call	0xd8c	; 0xd8c <LCD_12864_Draw_pixel>
	LCD_12864_Draw_pixel(13, 62);
    35bc:	6e e3       	ldi	r22, 0x3E	; 62
    35be:	8d e0       	ldi	r24, 0x0D	; 13
    35c0:	0e 94 c6 06 	call	0xd8c	; 0xd8c <LCD_12864_Draw_pixel>
	LCD_12864_Draw_pixel(13, 59);
    35c4:	6b e3       	ldi	r22, 0x3B	; 59
    35c6:	8d e0       	ldi	r24, 0x0D	; 13
    35c8:	0e 94 c6 06 	call	0xd8c	; 0xd8c <LCD_12864_Draw_pixel>
	//---------E-----------------
	LCD_12864_Clean_pixel(20, 52);
    35cc:	64 e3       	ldi	r22, 0x34	; 52
    35ce:	84 e1       	ldi	r24, 0x14	; 20
    35d0:	0e 94 e7 06 	call	0xdce	; 0xdce <LCD_12864_Clean_pixel>
	LCD_12864_Clean_pixel(20, 53);
    35d4:	65 e3       	ldi	r22, 0x35	; 53
    35d6:	84 e1       	ldi	r24, 0x14	; 20
    35d8:	0e 94 e7 06 	call	0xdce	; 0xdce <LCD_12864_Clean_pixel>
	LCD_12864_Clean_pixel(20, 54);
    35dc:	66 e3       	ldi	r22, 0x36	; 54
    35de:	84 e1       	ldi	r24, 0x14	; 20
    35e0:	0e 94 e7 06 	call	0xdce	; 0xdce <LCD_12864_Clean_pixel>
	LCD_12864_Clean_pixel(19, 55);
    35e4:	67 e3       	ldi	r22, 0x37	; 55
    35e6:	83 e1       	ldi	r24, 0x13	; 19
    35e8:	0e 94 e7 06 	call	0xdce	; 0xdce <LCD_12864_Clean_pixel>
	LCD_12864_Draw_pixel(19, 48);
    35ec:	60 e3       	ldi	r22, 0x30	; 48
    35ee:	83 e1       	ldi	r24, 0x13	; 19
    35f0:	0e 94 c6 06 	call	0xd8c	; 0xd8c <LCD_12864_Draw_pixel>
	LCD_12864_Clean_pixel(20, 51);
    35f4:	63 e3       	ldi	r22, 0x33	; 51
    35f6:	84 e1       	ldi	r24, 0x14	; 20
    35f8:	0e 94 e7 06 	call	0xdce	; 0xdce <LCD_12864_Clean_pixel>
	LCD_12864_Clean_pixel(20, 50);
    35fc:	62 e3       	ldi	r22, 0x32	; 50
    35fe:	84 e1       	ldi	r24, 0x14	; 20
    3600:	0e 94 e7 06 	call	0xdce	; 0xdce <LCD_12864_Clean_pixel>
	LCD_12864_Draw_pixel(20, 52);
    3604:	64 e3       	ldi	r22, 0x34	; 52
    3606:	84 e1       	ldi	r24, 0x14	; 20
    3608:	0e 94 c6 06 	call	0xd8c	; 0xd8c <LCD_12864_Draw_pixel>
	LCD_12864_Draw_pixel(20, 50);
    360c:	62 e3       	ldi	r22, 0x32	; 50
    360e:	84 e1       	ldi	r24, 0x14	; 20
    3610:	0e 94 c6 06 	call	0xd8c	; 0xd8c <LCD_12864_Draw_pixel>
	LCD_12864_Draw_pixel(20, 54);
    3614:	66 e3       	ldi	r22, 0x36	; 54
    3616:	84 e1       	ldi	r24, 0x14	; 20
    3618:	0e 94 c6 06 	call	0xd8c	; 0xd8c <LCD_12864_Draw_pixel>
	LCD_12864_Draw_pixel(21, 52);
    361c:	64 e3       	ldi	r22, 0x34	; 52
    361e:	85 e1       	ldi	r24, 0x15	; 21
    3620:	0e 94 c6 06 	call	0xd8c	; 0xd8c <LCD_12864_Draw_pixel>
	LCD_12864_Draw_pixel(21, 50);
    3624:	62 e3       	ldi	r22, 0x32	; 50
    3626:	85 e1       	ldi	r24, 0x15	; 21
    3628:	0e 94 c6 06 	call	0xd8c	; 0xd8c <LCD_12864_Draw_pixel>
	LCD_12864_Draw_pixel(21, 54);
    362c:	66 e3       	ldi	r22, 0x36	; 54
    362e:	85 e1       	ldi	r24, 0x15	; 21
    3630:	0e 94 c6 06 	call	0xd8c	; 0xd8c <LCD_12864_Draw_pixel>
	LCD_12864_Draw_pixel(22, 52);
    3634:	64 e3       	ldi	r22, 0x34	; 52
    3636:	86 e1       	ldi	r24, 0x16	; 22
    3638:	0e 94 c6 06 	call	0xd8c	; 0xd8c <LCD_12864_Draw_pixel>
	LCD_12864_Draw_pixel(22, 50);
    363c:	62 e3       	ldi	r22, 0x32	; 50
    363e:	86 e1       	ldi	r24, 0x16	; 22
    3640:	0e 94 c6 06 	call	0xd8c	; 0xd8c <LCD_12864_Draw_pixel>
	LCD_12864_Draw_pixel(22, 54);
    3644:	66 e3       	ldi	r22, 0x36	; 54
    3646:	86 e1       	ldi	r24, 0x16	; 22
    3648:	0e 94 c6 06 	call	0xd8c	; 0xd8c <LCD_12864_Draw_pixel>
	LCD_12864_Draw_pixel(19, 52);
    364c:	64 e3       	ldi	r22, 0x34	; 52
    364e:	83 e1       	ldi	r24, 0x13	; 19
    3650:	0e 94 c6 06 	call	0xd8c	; 0xd8c <LCD_12864_Draw_pixel>
	LCD_12864_Draw_pixel(19, 50);
    3654:	62 e3       	ldi	r22, 0x32	; 50
    3656:	83 e1       	ldi	r24, 0x13	; 19
    3658:	0e 94 c6 06 	call	0xd8c	; 0xd8c <LCD_12864_Draw_pixel>
	LCD_12864_Draw_pixel(19, 54);
    365c:	66 e3       	ldi	r22, 0x36	; 54
    365e:	83 e1       	ldi	r24, 0x13	; 19
    3660:	0e 94 c6 06 	call	0xd8c	; 0xd8c <LCD_12864_Draw_pixel>
	LCD_12864_Draw_pixel(18, 52);
    3664:	64 e3       	ldi	r22, 0x34	; 52
    3666:	82 e1       	ldi	r24, 0x12	; 18
    3668:	0e 94 c6 06 	call	0xd8c	; 0xd8c <LCD_12864_Draw_pixel>
	LCD_12864_Draw_pixel(18, 53);
    366c:	65 e3       	ldi	r22, 0x35	; 53
    366e:	82 e1       	ldi	r24, 0x12	; 18
    3670:	0e 94 c6 06 	call	0xd8c	; 0xd8c <LCD_12864_Draw_pixel>
	LCD_12864_Draw_pixel(18, 54);
    3674:	66 e3       	ldi	r22, 0x36	; 54
    3676:	82 e1       	ldi	r24, 0x12	; 18
    3678:	0e 94 c6 06 	call	0xd8c	; 0xd8c <LCD_12864_Draw_pixel>
	LCD_12864_Draw_pixel(18, 51);
    367c:	63 e3       	ldi	r22, 0x33	; 51
    367e:	82 e1       	ldi	r24, 0x12	; 18
    3680:	0e 94 c6 06 	call	0xd8c	; 0xd8c <LCD_12864_Draw_pixel>
	LCD_12864_Draw_pixel(18, 50);
    3684:	62 e3       	ldi	r22, 0x32	; 50
    3686:	82 e1       	ldi	r24, 0x12	; 18
    3688:	0e 94 c6 06 	call	0xd8c	; 0xd8c <LCD_12864_Draw_pixel>
	//---------W-----------------
	LCD_12864_Clean_pixel(2, 52);
    368c:	64 e3       	ldi	r22, 0x34	; 52
    368e:	82 e0       	ldi	r24, 0x02	; 2
    3690:	0e 94 e7 06 	call	0xdce	; 0xdce <LCD_12864_Clean_pixel>
	LCD_12864_Clean_pixel(2, 53);
    3694:	65 e3       	ldi	r22, 0x35	; 53
    3696:	82 e0       	ldi	r24, 0x02	; 2
    3698:	0e 94 e7 06 	call	0xdce	; 0xdce <LCD_12864_Clean_pixel>
	LCD_12864_Clean_pixel(2, 54);
    369c:	66 e3       	ldi	r22, 0x36	; 54
    369e:	82 e0       	ldi	r24, 0x02	; 2
    36a0:	0e 94 e7 06 	call	0xdce	; 0xdce <LCD_12864_Clean_pixel>
	LCD_12864_Clean_pixel(3, 55);
    36a4:	67 e3       	ldi	r22, 0x37	; 55
    36a6:	83 e0       	ldi	r24, 0x03	; 3
    36a8:	0e 94 e7 06 	call	0xdce	; 0xdce <LCD_12864_Clean_pixel>
	LCD_12864_Draw_pixel(3, 48);
    36ac:	60 e3       	ldi	r22, 0x30	; 48
    36ae:	83 e0       	ldi	r24, 0x03	; 3
    36b0:	0e 94 c6 06 	call	0xd8c	; 0xd8c <LCD_12864_Draw_pixel>
	LCD_12864_Clean_pixel(2, 51);
    36b4:	63 e3       	ldi	r22, 0x33	; 51
    36b6:	82 e0       	ldi	r24, 0x02	; 2
    36b8:	0e 94 e7 06 	call	0xdce	; 0xdce <LCD_12864_Clean_pixel>
	LCD_12864_Clean_pixel(2, 50);
    36bc:	62 e3       	ldi	r22, 0x32	; 50
    36be:	82 e0       	ldi	r24, 0x02	; 2
    36c0:	0e 94 e7 06 	call	0xdce	; 0xdce <LCD_12864_Clean_pixel>
	LCD_12864_Draw_pixel(2, 52);
    36c4:	64 e3       	ldi	r22, 0x34	; 52
    36c6:	82 e0       	ldi	r24, 0x02	; 2
    36c8:	0e 94 c6 06 	call	0xd8c	; 0xd8c <LCD_12864_Draw_pixel>
	LCD_12864_Draw_pixel(2, 53);
    36cc:	65 e3       	ldi	r22, 0x35	; 53
    36ce:	82 e0       	ldi	r24, 0x02	; 2
    36d0:	0e 94 c6 06 	call	0xd8c	; 0xd8c <LCD_12864_Draw_pixel>
	LCD_12864_Draw_pixel(3, 54);
    36d4:	66 e3       	ldi	r22, 0x36	; 54
    36d6:	83 e0       	ldi	r24, 0x03	; 3
    36d8:	0e 94 c6 06 	call	0xd8c	; 0xd8c <LCD_12864_Draw_pixel>
	LCD_12864_Draw_pixel(4, 52);
    36dc:	64 e3       	ldi	r22, 0x34	; 52
    36de:	84 e0       	ldi	r24, 0x04	; 4
    36e0:	0e 94 c6 06 	call	0xd8c	; 0xd8c <LCD_12864_Draw_pixel>
	LCD_12864_Draw_pixel(4, 53);
    36e4:	65 e3       	ldi	r22, 0x35	; 53
    36e6:	84 e0       	ldi	r24, 0x04	; 4
    36e8:	0e 94 c6 06 	call	0xd8c	; 0xd8c <LCD_12864_Draw_pixel>
	LCD_12864_Draw_pixel(4, 51);
    36ec:	63 e3       	ldi	r22, 0x33	; 51
    36ee:	84 e0       	ldi	r24, 0x04	; 4
    36f0:	0e 94 c6 06 	call	0xd8c	; 0xd8c <LCD_12864_Draw_pixel>
	LCD_12864_Draw_pixel(4, 50);
    36f4:	62 e3       	ldi	r22, 0x32	; 50
    36f6:	84 e0       	ldi	r24, 0x04	; 4
    36f8:	0e 94 c6 06 	call	0xd8c	; 0xd8c <LCD_12864_Draw_pixel>
	LCD_12864_Draw_pixel(1, 54);
    36fc:	66 e3       	ldi	r22, 0x36	; 54
    36fe:	81 e0       	ldi	r24, 0x01	; 1
    3700:	0e 94 c6 06 	call	0xd8c	; 0xd8c <LCD_12864_Draw_pixel>
	LCD_12864_Draw_pixel(0, 52);
    3704:	64 e3       	ldi	r22, 0x34	; 52
    3706:	80 e0       	ldi	r24, 0x00	; 0
    3708:	0e 94 c6 06 	call	0xd8c	; 0xd8c <LCD_12864_Draw_pixel>
	LCD_12864_Draw_pixel(0, 53);
    370c:	65 e3       	ldi	r22, 0x35	; 53
    370e:	80 e0       	ldi	r24, 0x00	; 0
    3710:	0e 94 c6 06 	call	0xd8c	; 0xd8c <LCD_12864_Draw_pixel>
	LCD_12864_Draw_pixel(0, 51);
    3714:	63 e3       	ldi	r22, 0x33	; 51
    3716:	80 e0       	ldi	r24, 0x00	; 0
    3718:	0e 94 c6 06 	call	0xd8c	; 0xd8c <LCD_12864_Draw_pixel>
	LCD_12864_Draw_pixel(0, 50);
    371c:	62 e3       	ldi	r22, 0x32	; 50
    371e:	80 e0       	ldi	r24, 0x00	; 0
    3720:	0e 94 c6 06 	call	0xd8c	; 0xd8c <LCD_12864_Draw_pixel>
	//---------Стрелка-----------------
	//--точка в центре---
	LCD_12864_Draw_pixel(11, 52);
    3724:	64 e3       	ldi	r22, 0x34	; 52
    3726:	8b e0       	ldi	r24, 0x0B	; 11
    3728:	0e 94 c6 06 	call	0xd8c	; 0xd8c <LCD_12864_Draw_pixel>
	if (!strcmp(wind_direction, "N"))
    372c:	60 ea       	ldi	r22, 0xA0	; 160
    372e:	72 e0       	ldi	r23, 0x02	; 2
    3730:	89 e8       	ldi	r24, 0x89	; 137
    3732:	93 e0       	ldi	r25, 0x03	; 3
    3734:	0e 94 de 2e 	call	0x5dbc	; 0x5dbc <strcmp>
    3738:	89 2b       	or	r24, r25
    373a:	09 f0       	breq	.+2      	; 0x373e <DrawWeatherVane+0x2bc>
    373c:	41 c0       	rjmp	.+130    	; 0x37c0 <DrawWeatherVane+0x33e>
	{
		LCD_12864_Draw_pixel(10, 53);
    373e:	65 e3       	ldi	r22, 0x35	; 53
    3740:	8a e0       	ldi	r24, 0x0A	; 10
    3742:	0e 94 c6 06 	call	0xd8c	; 0xd8c <LCD_12864_Draw_pixel>
		LCD_12864_Draw_pixel(10, 54);
    3746:	66 e3       	ldi	r22, 0x36	; 54
    3748:	8a e0       	ldi	r24, 0x0A	; 10
    374a:	0e 94 c6 06 	call	0xd8c	; 0xd8c <LCD_12864_Draw_pixel>
		LCD_12864_Draw_pixel(12, 53);
    374e:	65 e3       	ldi	r22, 0x35	; 53
    3750:	8c e0       	ldi	r24, 0x0C	; 12
    3752:	0e 94 c6 06 	call	0xd8c	; 0xd8c <LCD_12864_Draw_pixel>
		LCD_12864_Draw_pixel(12, 54);
    3756:	66 e3       	ldi	r22, 0x36	; 54
    3758:	8c e0       	ldi	r24, 0x0C	; 12
    375a:	0e 94 c6 06 	call	0xd8c	; 0xd8c <LCD_12864_Draw_pixel>
		LCD_12864_Draw_pixel(11, 51);
    375e:	63 e3       	ldi	r22, 0x33	; 51
    3760:	8b e0       	ldi	r24, 0x0B	; 11
    3762:	0e 94 c6 06 	call	0xd8c	; 0xd8c <LCD_12864_Draw_pixel>
		LCD_12864_Draw_pixel(11, 50);
    3766:	62 e3       	ldi	r22, 0x32	; 50
    3768:	8b e0       	ldi	r24, 0x0B	; 11
    376a:	0e 94 c6 06 	call	0xd8c	; 0xd8c <LCD_12864_Draw_pixel>
		LCD_12864_Draw_pixel(11, 49);
    376e:	61 e3       	ldi	r22, 0x31	; 49
    3770:	8b e0       	ldi	r24, 0x0B	; 11
    3772:	0e 94 c6 06 	call	0xd8c	; 0xd8c <LCD_12864_Draw_pixel>
		LCD_12864_Draw_pixel(11, 48);
    3776:	60 e3       	ldi	r22, 0x30	; 48
    3778:	8b e0       	ldi	r24, 0x0B	; 11
    377a:	0e 94 c6 06 	call	0xd8c	; 0xd8c <LCD_12864_Draw_pixel>
		LCD_12864_Draw_pixel(11, 47);
    377e:	6f e2       	ldi	r22, 0x2F	; 47
    3780:	8b e0       	ldi	r24, 0x0B	; 11
    3782:	0e 94 c6 06 	call	0xd8c	; 0xd8c <LCD_12864_Draw_pixel>
		LCD_12864_Draw_pixel(11, 46);
    3786:	6e e2       	ldi	r22, 0x2E	; 46
    3788:	8b e0       	ldi	r24, 0x0B	; 11
    378a:	0e 94 c6 06 	call	0xd8c	; 0xd8c <LCD_12864_Draw_pixel>
		LCD_12864_Draw_pixel(10, 47);
    378e:	6f e2       	ldi	r22, 0x2F	; 47
    3790:	8a e0       	ldi	r24, 0x0A	; 10
    3792:	0e 94 c6 06 	call	0xd8c	; 0xd8c <LCD_12864_Draw_pixel>
		LCD_12864_Draw_pixel(12, 47);
    3796:	6f e2       	ldi	r22, 0x2F	; 47
    3798:	8c e0       	ldi	r24, 0x0C	; 12
    379a:	0e 94 c6 06 	call	0xd8c	; 0xd8c <LCD_12864_Draw_pixel>
		LCD_12864_Draw_pixel(10, 48);
    379e:	60 e3       	ldi	r22, 0x30	; 48
    37a0:	8a e0       	ldi	r24, 0x0A	; 10
    37a2:	0e 94 c6 06 	call	0xd8c	; 0xd8c <LCD_12864_Draw_pixel>
		LCD_12864_Draw_pixel(9, 48);
    37a6:	60 e3       	ldi	r22, 0x30	; 48
    37a8:	89 e0       	ldi	r24, 0x09	; 9
    37aa:	0e 94 c6 06 	call	0xd8c	; 0xd8c <LCD_12864_Draw_pixel>
		LCD_12864_Draw_pixel(12, 48);
    37ae:	60 e3       	ldi	r22, 0x30	; 48
    37b0:	8c e0       	ldi	r24, 0x0C	; 12
    37b2:	0e 94 c6 06 	call	0xd8c	; 0xd8c <LCD_12864_Draw_pixel>
		LCD_12864_Draw_pixel(13, 48);
    37b6:	60 e3       	ldi	r22, 0x30	; 48
    37b8:	8d e0       	ldi	r24, 0x0D	; 13
    37ba:	0e 94 c6 06 	call	0xd8c	; 0xd8c <LCD_12864_Draw_pixel>
    37be:	08 95       	ret
	}
	else if (!strcmp(wind_direction, "S"))
    37c0:	62 ea       	ldi	r22, 0xA2	; 162
    37c2:	72 e0       	ldi	r23, 0x02	; 2
    37c4:	89 e8       	ldi	r24, 0x89	; 137
    37c6:	93 e0       	ldi	r25, 0x03	; 3
    37c8:	0e 94 de 2e 	call	0x5dbc	; 0x5dbc <strcmp>
    37cc:	89 2b       	or	r24, r25
    37ce:	09 f0       	breq	.+2      	; 0x37d2 <DrawWeatherVane+0x350>
    37d0:	41 c0       	rjmp	.+130    	; 0x3854 <DrawWeatherVane+0x3d2>
	{
		LCD_12864_Draw_pixel(10, 50);
    37d2:	62 e3       	ldi	r22, 0x32	; 50
    37d4:	8a e0       	ldi	r24, 0x0A	; 10
    37d6:	0e 94 c6 06 	call	0xd8c	; 0xd8c <LCD_12864_Draw_pixel>
		LCD_12864_Draw_pixel(10, 51);
    37da:	63 e3       	ldi	r22, 0x33	; 51
    37dc:	8a e0       	ldi	r24, 0x0A	; 10
    37de:	0e 94 c6 06 	call	0xd8c	; 0xd8c <LCD_12864_Draw_pixel>
		LCD_12864_Draw_pixel(12, 50);
    37e2:	62 e3       	ldi	r22, 0x32	; 50
    37e4:	8c e0       	ldi	r24, 0x0C	; 12
    37e6:	0e 94 c6 06 	call	0xd8c	; 0xd8c <LCD_12864_Draw_pixel>
		LCD_12864_Draw_pixel(12, 51);
    37ea:	63 e3       	ldi	r22, 0x33	; 51
    37ec:	8c e0       	ldi	r24, 0x0C	; 12
    37ee:	0e 94 c6 06 	call	0xd8c	; 0xd8c <LCD_12864_Draw_pixel>
		LCD_12864_Draw_pixel(11, 53);
    37f2:	65 e3       	ldi	r22, 0x35	; 53
    37f4:	8b e0       	ldi	r24, 0x0B	; 11
    37f6:	0e 94 c6 06 	call	0xd8c	; 0xd8c <LCD_12864_Draw_pixel>
		LCD_12864_Draw_pixel(11, 54);
    37fa:	66 e3       	ldi	r22, 0x36	; 54
    37fc:	8b e0       	ldi	r24, 0x0B	; 11
    37fe:	0e 94 c6 06 	call	0xd8c	; 0xd8c <LCD_12864_Draw_pixel>
		LCD_12864_Draw_pixel(11, 55);
    3802:	67 e3       	ldi	r22, 0x37	; 55
    3804:	8b e0       	ldi	r24, 0x0B	; 11
    3806:	0e 94 c6 06 	call	0xd8c	; 0xd8c <LCD_12864_Draw_pixel>
		LCD_12864_Draw_pixel(11, 56);
    380a:	68 e3       	ldi	r22, 0x38	; 56
    380c:	8b e0       	ldi	r24, 0x0B	; 11
    380e:	0e 94 c6 06 	call	0xd8c	; 0xd8c <LCD_12864_Draw_pixel>
		LCD_12864_Draw_pixel(11, 57);
    3812:	69 e3       	ldi	r22, 0x39	; 57
    3814:	8b e0       	ldi	r24, 0x0B	; 11
    3816:	0e 94 c6 06 	call	0xd8c	; 0xd8c <LCD_12864_Draw_pixel>
		LCD_12864_Draw_pixel(11, 58);
    381a:	6a e3       	ldi	r22, 0x3A	; 58
    381c:	8b e0       	ldi	r24, 0x0B	; 11
    381e:	0e 94 c6 06 	call	0xd8c	; 0xd8c <LCD_12864_Draw_pixel>
		LCD_12864_Draw_pixel(10, 57);
    3822:	69 e3       	ldi	r22, 0x39	; 57
    3824:	8a e0       	ldi	r24, 0x0A	; 10
    3826:	0e 94 c6 06 	call	0xd8c	; 0xd8c <LCD_12864_Draw_pixel>
		LCD_12864_Draw_pixel(12, 57);
    382a:	69 e3       	ldi	r22, 0x39	; 57
    382c:	8c e0       	ldi	r24, 0x0C	; 12
    382e:	0e 94 c6 06 	call	0xd8c	; 0xd8c <LCD_12864_Draw_pixel>
		LCD_12864_Draw_pixel(10, 56);
    3832:	68 e3       	ldi	r22, 0x38	; 56
    3834:	8a e0       	ldi	r24, 0x0A	; 10
    3836:	0e 94 c6 06 	call	0xd8c	; 0xd8c <LCD_12864_Draw_pixel>
		LCD_12864_Draw_pixel(9, 56);
    383a:	68 e3       	ldi	r22, 0x38	; 56
    383c:	89 e0       	ldi	r24, 0x09	; 9
    383e:	0e 94 c6 06 	call	0xd8c	; 0xd8c <LCD_12864_Draw_pixel>
		LCD_12864_Draw_pixel(12, 56);
    3842:	68 e3       	ldi	r22, 0x38	; 56
    3844:	8c e0       	ldi	r24, 0x0C	; 12
    3846:	0e 94 c6 06 	call	0xd8c	; 0xd8c <LCD_12864_Draw_pixel>
		LCD_12864_Draw_pixel(13, 56);
    384a:	68 e3       	ldi	r22, 0x38	; 56
    384c:	8d e0       	ldi	r24, 0x0D	; 13
    384e:	0e 94 c6 06 	call	0xd8c	; 0xd8c <LCD_12864_Draw_pixel>
    3852:	08 95       	ret
	}
	else if (!strcmp(wind_direction, "E"))
    3854:	66 ea       	ldi	r22, 0xA6	; 166
    3856:	72 e0       	ldi	r23, 0x02	; 2
    3858:	89 e8       	ldi	r24, 0x89	; 137
    385a:	93 e0       	ldi	r25, 0x03	; 3
    385c:	0e 94 de 2e 	call	0x5dbc	; 0x5dbc <strcmp>
    3860:	89 2b       	or	r24, r25
    3862:	09 f0       	breq	.+2      	; 0x3866 <DrawWeatherVane+0x3e4>
    3864:	41 c0       	rjmp	.+130    	; 0x38e8 <DrawWeatherVane+0x466>
	{
		LCD_12864_Draw_pixel(9, 51);
    3866:	63 e3       	ldi	r22, 0x33	; 51
    3868:	89 e0       	ldi	r24, 0x09	; 9
    386a:	0e 94 c6 06 	call	0xd8c	; 0xd8c <LCD_12864_Draw_pixel>
		LCD_12864_Draw_pixel(10, 51);
    386e:	63 e3       	ldi	r22, 0x33	; 51
    3870:	8a e0       	ldi	r24, 0x0A	; 10
    3872:	0e 94 c6 06 	call	0xd8c	; 0xd8c <LCD_12864_Draw_pixel>
		LCD_12864_Draw_pixel(9, 53);
    3876:	65 e3       	ldi	r22, 0x35	; 53
    3878:	89 e0       	ldi	r24, 0x09	; 9
    387a:	0e 94 c6 06 	call	0xd8c	; 0xd8c <LCD_12864_Draw_pixel>
		LCD_12864_Draw_pixel(10, 53);
    387e:	65 e3       	ldi	r22, 0x35	; 53
    3880:	8a e0       	ldi	r24, 0x0A	; 10
    3882:	0e 94 c6 06 	call	0xd8c	; 0xd8c <LCD_12864_Draw_pixel>
		LCD_12864_Draw_pixel(12, 52);
    3886:	64 e3       	ldi	r22, 0x34	; 52
    3888:	8c e0       	ldi	r24, 0x0C	; 12
    388a:	0e 94 c6 06 	call	0xd8c	; 0xd8c <LCD_12864_Draw_pixel>
		LCD_12864_Draw_pixel(13, 52);
    388e:	64 e3       	ldi	r22, 0x34	; 52
    3890:	8d e0       	ldi	r24, 0x0D	; 13
    3892:	0e 94 c6 06 	call	0xd8c	; 0xd8c <LCD_12864_Draw_pixel>
		LCD_12864_Draw_pixel(14, 52);
    3896:	64 e3       	ldi	r22, 0x34	; 52
    3898:	8e e0       	ldi	r24, 0x0E	; 14
    389a:	0e 94 c6 06 	call	0xd8c	; 0xd8c <LCD_12864_Draw_pixel>
		LCD_12864_Draw_pixel(15, 52);
    389e:	64 e3       	ldi	r22, 0x34	; 52
    38a0:	8f e0       	ldi	r24, 0x0F	; 15
    38a2:	0e 94 c6 06 	call	0xd8c	; 0xd8c <LCD_12864_Draw_pixel>
		LCD_12864_Draw_pixel(16, 52);
    38a6:	64 e3       	ldi	r22, 0x34	; 52
    38a8:	80 e1       	ldi	r24, 0x10	; 16
    38aa:	0e 94 c6 06 	call	0xd8c	; 0xd8c <LCD_12864_Draw_pixel>
		LCD_12864_Draw_pixel(17, 52);
    38ae:	64 e3       	ldi	r22, 0x34	; 52
    38b0:	81 e1       	ldi	r24, 0x11	; 17
    38b2:	0e 94 c6 06 	call	0xd8c	; 0xd8c <LCD_12864_Draw_pixel>
		LCD_12864_Draw_pixel(16, 51);
    38b6:	63 e3       	ldi	r22, 0x33	; 51
    38b8:	80 e1       	ldi	r24, 0x10	; 16
    38ba:	0e 94 c6 06 	call	0xd8c	; 0xd8c <LCD_12864_Draw_pixel>
		LCD_12864_Draw_pixel(16, 53);
    38be:	65 e3       	ldi	r22, 0x35	; 53
    38c0:	80 e1       	ldi	r24, 0x10	; 16
    38c2:	0e 94 c6 06 	call	0xd8c	; 0xd8c <LCD_12864_Draw_pixel>
		LCD_12864_Draw_pixel(15, 53);
    38c6:	65 e3       	ldi	r22, 0x35	; 53
    38c8:	8f e0       	ldi	r24, 0x0F	; 15
    38ca:	0e 94 c6 06 	call	0xd8c	; 0xd8c <LCD_12864_Draw_pixel>
		LCD_12864_Draw_pixel(15, 54);
    38ce:	66 e3       	ldi	r22, 0x36	; 54
    38d0:	8f e0       	ldi	r24, 0x0F	; 15
    38d2:	0e 94 c6 06 	call	0xd8c	; 0xd8c <LCD_12864_Draw_pixel>
		LCD_12864_Draw_pixel(15, 51);
    38d6:	63 e3       	ldi	r22, 0x33	; 51
    38d8:	8f e0       	ldi	r24, 0x0F	; 15
    38da:	0e 94 c6 06 	call	0xd8c	; 0xd8c <LCD_12864_Draw_pixel>
		LCD_12864_Draw_pixel(15, 50);
    38de:	62 e3       	ldi	r22, 0x32	; 50
    38e0:	8f e0       	ldi	r24, 0x0F	; 15
    38e2:	0e 94 c6 06 	call	0xd8c	; 0xd8c <LCD_12864_Draw_pixel>
    38e6:	08 95       	ret
	}
	else if (!strcmp(wind_direction, "W"))
    38e8:	6a ea       	ldi	r22, 0xAA	; 170
    38ea:	72 e0       	ldi	r23, 0x02	; 2
    38ec:	89 e8       	ldi	r24, 0x89	; 137
    38ee:	93 e0       	ldi	r25, 0x03	; 3
    38f0:	0e 94 de 2e 	call	0x5dbc	; 0x5dbc <strcmp>
    38f4:	89 2b       	or	r24, r25
    38f6:	09 f0       	breq	.+2      	; 0x38fa <DrawWeatherVane+0x478>
    38f8:	41 c0       	rjmp	.+130    	; 0x397c <DrawWeatherVane+0x4fa>
	{
		LCD_12864_Draw_pixel(13, 51);
    38fa:	63 e3       	ldi	r22, 0x33	; 51
    38fc:	8d e0       	ldi	r24, 0x0D	; 13
    38fe:	0e 94 c6 06 	call	0xd8c	; 0xd8c <LCD_12864_Draw_pixel>
		LCD_12864_Draw_pixel(12, 51);
    3902:	63 e3       	ldi	r22, 0x33	; 51
    3904:	8c e0       	ldi	r24, 0x0C	; 12
    3906:	0e 94 c6 06 	call	0xd8c	; 0xd8c <LCD_12864_Draw_pixel>
		LCD_12864_Draw_pixel(13, 53);
    390a:	65 e3       	ldi	r22, 0x35	; 53
    390c:	8d e0       	ldi	r24, 0x0D	; 13
    390e:	0e 94 c6 06 	call	0xd8c	; 0xd8c <LCD_12864_Draw_pixel>
		LCD_12864_Draw_pixel(12, 53);
    3912:	65 e3       	ldi	r22, 0x35	; 53
    3914:	8c e0       	ldi	r24, 0x0C	; 12
    3916:	0e 94 c6 06 	call	0xd8c	; 0xd8c <LCD_12864_Draw_pixel>
		LCD_12864_Draw_pixel(10, 52);
    391a:	64 e3       	ldi	r22, 0x34	; 52
    391c:	8a e0       	ldi	r24, 0x0A	; 10
    391e:	0e 94 c6 06 	call	0xd8c	; 0xd8c <LCD_12864_Draw_pixel>
		LCD_12864_Draw_pixel(9, 52);
    3922:	64 e3       	ldi	r22, 0x34	; 52
    3924:	89 e0       	ldi	r24, 0x09	; 9
    3926:	0e 94 c6 06 	call	0xd8c	; 0xd8c <LCD_12864_Draw_pixel>
		LCD_12864_Draw_pixel(8, 52);
    392a:	64 e3       	ldi	r22, 0x34	; 52
    392c:	88 e0       	ldi	r24, 0x08	; 8
    392e:	0e 94 c6 06 	call	0xd8c	; 0xd8c <LCD_12864_Draw_pixel>
		LCD_12864_Draw_pixel(7, 52);
    3932:	64 e3       	ldi	r22, 0x34	; 52
    3934:	87 e0       	ldi	r24, 0x07	; 7
    3936:	0e 94 c6 06 	call	0xd8c	; 0xd8c <LCD_12864_Draw_pixel>
		LCD_12864_Draw_pixel(6, 52);
    393a:	64 e3       	ldi	r22, 0x34	; 52
    393c:	86 e0       	ldi	r24, 0x06	; 6
    393e:	0e 94 c6 06 	call	0xd8c	; 0xd8c <LCD_12864_Draw_pixel>
		LCD_12864_Draw_pixel(5, 52);
    3942:	64 e3       	ldi	r22, 0x34	; 52
    3944:	85 e0       	ldi	r24, 0x05	; 5
    3946:	0e 94 c6 06 	call	0xd8c	; 0xd8c <LCD_12864_Draw_pixel>
		LCD_12864_Draw_pixel(6, 51);
    394a:	63 e3       	ldi	r22, 0x33	; 51
    394c:	86 e0       	ldi	r24, 0x06	; 6
    394e:	0e 94 c6 06 	call	0xd8c	; 0xd8c <LCD_12864_Draw_pixel>
		LCD_12864_Draw_pixel(6, 53);
    3952:	65 e3       	ldi	r22, 0x35	; 53
    3954:	86 e0       	ldi	r24, 0x06	; 6
    3956:	0e 94 c6 06 	call	0xd8c	; 0xd8c <LCD_12864_Draw_pixel>
		LCD_12864_Draw_pixel(7, 53);
    395a:	65 e3       	ldi	r22, 0x35	; 53
    395c:	87 e0       	ldi	r24, 0x07	; 7
    395e:	0e 94 c6 06 	call	0xd8c	; 0xd8c <LCD_12864_Draw_pixel>
		LCD_12864_Draw_pixel(7, 54);
    3962:	66 e3       	ldi	r22, 0x36	; 54
    3964:	87 e0       	ldi	r24, 0x07	; 7
    3966:	0e 94 c6 06 	call	0xd8c	; 0xd8c <LCD_12864_Draw_pixel>
		LCD_12864_Draw_pixel(7, 51);
    396a:	63 e3       	ldi	r22, 0x33	; 51
    396c:	87 e0       	ldi	r24, 0x07	; 7
    396e:	0e 94 c6 06 	call	0xd8c	; 0xd8c <LCD_12864_Draw_pixel>
		LCD_12864_Draw_pixel(7, 50);
    3972:	62 e3       	ldi	r22, 0x32	; 50
    3974:	87 e0       	ldi	r24, 0x07	; 7
    3976:	0e 94 c6 06 	call	0xd8c	; 0xd8c <LCD_12864_Draw_pixel>
    397a:	08 95       	ret
	}
	else if (!strcmp(wind_direction, "N-E"))
    397c:	64 ea       	ldi	r22, 0xA4	; 164
    397e:	72 e0       	ldi	r23, 0x02	; 2
    3980:	89 e8       	ldi	r24, 0x89	; 137
    3982:	93 e0       	ldi	r25, 0x03	; 3
    3984:	0e 94 de 2e 	call	0x5dbc	; 0x5dbc <strcmp>
    3988:	89 2b       	or	r24, r25
    398a:	b9 f5       	brne	.+110    	; 0x39fa <DrawWeatherVane+0x578>
	{
		LCD_12864_Draw_pixel(10, 51);
    398c:	63 e3       	ldi	r22, 0x33	; 51
    398e:	8a e0       	ldi	r24, 0x0A	; 10
    3990:	0e 94 c6 06 	call	0xd8c	; 0xd8c <LCD_12864_Draw_pixel>
		LCD_12864_Draw_pixel(9, 52);
    3994:	64 e3       	ldi	r22, 0x34	; 52
    3996:	89 e0       	ldi	r24, 0x09	; 9
    3998:	0e 94 c6 06 	call	0xd8c	; 0xd8c <LCD_12864_Draw_pixel>
		LCD_12864_Draw_pixel(12, 53);
    399c:	65 e3       	ldi	r22, 0x35	; 53
    399e:	8c e0       	ldi	r24, 0x0C	; 12
    39a0:	0e 94 c6 06 	call	0xd8c	; 0xd8c <LCD_12864_Draw_pixel>
		LCD_12864_Draw_pixel(11, 54);
    39a4:	66 e3       	ldi	r22, 0x36	; 54
    39a6:	8b e0       	ldi	r24, 0x0B	; 11
    39a8:	0e 94 c6 06 	call	0xd8c	; 0xd8c <LCD_12864_Draw_pixel>
		LCD_12864_Draw_line(11, 52, 16, 47);
    39ac:	2f e2       	ldi	r18, 0x2F	; 47
    39ae:	40 e1       	ldi	r20, 0x10	; 16
    39b0:	64 e3       	ldi	r22, 0x34	; 52
    39b2:	8b e0       	ldi	r24, 0x0B	; 11
    39b4:	0e 94 18 0c 	call	0x1830	; 0x1830 <LCD_12864_Draw_line>
		LCD_12864_Draw_pixel(15, 47);
    39b8:	6f e2       	ldi	r22, 0x2F	; 47
    39ba:	8f e0       	ldi	r24, 0x0F	; 15
    39bc:	0e 94 c6 06 	call	0xd8c	; 0xd8c <LCD_12864_Draw_pixel>
		LCD_12864_Draw_pixel(14, 47);
    39c0:	6f e2       	ldi	r22, 0x2F	; 47
    39c2:	8e e0       	ldi	r24, 0x0E	; 14
    39c4:	0e 94 c6 06 	call	0xd8c	; 0xd8c <LCD_12864_Draw_pixel>
		LCD_12864_Draw_pixel(13, 47);
    39c8:	6f e2       	ldi	r22, 0x2F	; 47
    39ca:	8d e0       	ldi	r24, 0x0D	; 13
    39cc:	0e 94 c6 06 	call	0xd8c	; 0xd8c <LCD_12864_Draw_pixel>
		LCD_12864_Draw_pixel(14, 48);
    39d0:	60 e3       	ldi	r22, 0x30	; 48
    39d2:	8e e0       	ldi	r24, 0x0E	; 14
    39d4:	0e 94 c6 06 	call	0xd8c	; 0xd8c <LCD_12864_Draw_pixel>
		LCD_12864_Draw_pixel(16, 48);
    39d8:	60 e3       	ldi	r22, 0x30	; 48
    39da:	80 e1       	ldi	r24, 0x10	; 16
    39dc:	0e 94 c6 06 	call	0xd8c	; 0xd8c <LCD_12864_Draw_pixel>
		LCD_12864_Draw_pixel(16, 49);
    39e0:	61 e3       	ldi	r22, 0x31	; 49
    39e2:	80 e1       	ldi	r24, 0x10	; 16
    39e4:	0e 94 c6 06 	call	0xd8c	; 0xd8c <LCD_12864_Draw_pixel>
		LCD_12864_Draw_pixel(15, 49);
    39e8:	61 e3       	ldi	r22, 0x31	; 49
    39ea:	8f e0       	ldi	r24, 0x0F	; 15
    39ec:	0e 94 c6 06 	call	0xd8c	; 0xd8c <LCD_12864_Draw_pixel>
		LCD_12864_Draw_pixel(16, 50);
    39f0:	62 e3       	ldi	r22, 0x32	; 50
    39f2:	80 e1       	ldi	r24, 0x10	; 16
    39f4:	0e 94 c6 06 	call	0xd8c	; 0xd8c <LCD_12864_Draw_pixel>
    39f8:	08 95       	ret
	}
	else if (!strcmp(wind_direction, "N-W"))
    39fa:	68 ea       	ldi	r22, 0xA8	; 168
    39fc:	72 e0       	ldi	r23, 0x02	; 2
    39fe:	89 e8       	ldi	r24, 0x89	; 137
    3a00:	93 e0       	ldi	r25, 0x03	; 3
    3a02:	0e 94 de 2e 	call	0x5dbc	; 0x5dbc <strcmp>
    3a06:	89 2b       	or	r24, r25
    3a08:	b9 f5       	brne	.+110    	; 0x3a78 <DrawWeatherVane+0x5f6>
	{
		LCD_12864_Draw_pixel(12, 51);
    3a0a:	63 e3       	ldi	r22, 0x33	; 51
    3a0c:	8c e0       	ldi	r24, 0x0C	; 12
    3a0e:	0e 94 c6 06 	call	0xd8c	; 0xd8c <LCD_12864_Draw_pixel>
		LCD_12864_Draw_pixel(13, 52);
    3a12:	64 e3       	ldi	r22, 0x34	; 52
    3a14:	8d e0       	ldi	r24, 0x0D	; 13
    3a16:	0e 94 c6 06 	call	0xd8c	; 0xd8c <LCD_12864_Draw_pixel>
		LCD_12864_Draw_pixel(10, 53);
    3a1a:	65 e3       	ldi	r22, 0x35	; 53
    3a1c:	8a e0       	ldi	r24, 0x0A	; 10
    3a1e:	0e 94 c6 06 	call	0xd8c	; 0xd8c <LCD_12864_Draw_pixel>
		LCD_12864_Draw_pixel(11, 54);
    3a22:	66 e3       	ldi	r22, 0x36	; 54
    3a24:	8b e0       	ldi	r24, 0x0B	; 11
    3a26:	0e 94 c6 06 	call	0xd8c	; 0xd8c <LCD_12864_Draw_pixel>
		LCD_12864_Draw_line(11, 52, 6, 47);
    3a2a:	2f e2       	ldi	r18, 0x2F	; 47
    3a2c:	46 e0       	ldi	r20, 0x06	; 6
    3a2e:	64 e3       	ldi	r22, 0x34	; 52
    3a30:	8b e0       	ldi	r24, 0x0B	; 11
    3a32:	0e 94 18 0c 	call	0x1830	; 0x1830 <LCD_12864_Draw_line>
		LCD_12864_Draw_pixel(7, 47);
    3a36:	6f e2       	ldi	r22, 0x2F	; 47
    3a38:	87 e0       	ldi	r24, 0x07	; 7
    3a3a:	0e 94 c6 06 	call	0xd8c	; 0xd8c <LCD_12864_Draw_pixel>
		LCD_12864_Draw_pixel(8, 47);
    3a3e:	6f e2       	ldi	r22, 0x2F	; 47
    3a40:	88 e0       	ldi	r24, 0x08	; 8
    3a42:	0e 94 c6 06 	call	0xd8c	; 0xd8c <LCD_12864_Draw_pixel>
		LCD_12864_Draw_pixel(9, 47);
    3a46:	6f e2       	ldi	r22, 0x2F	; 47
    3a48:	89 e0       	ldi	r24, 0x09	; 9
    3a4a:	0e 94 c6 06 	call	0xd8c	; 0xd8c <LCD_12864_Draw_pixel>
		LCD_12864_Draw_pixel(8, 48);
    3a4e:	60 e3       	ldi	r22, 0x30	; 48
    3a50:	88 e0       	ldi	r24, 0x08	; 8
    3a52:	0e 94 c6 06 	call	0xd8c	; 0xd8c <LCD_12864_Draw_pixel>
		LCD_12864_Draw_pixel(6, 48);
    3a56:	60 e3       	ldi	r22, 0x30	; 48
    3a58:	86 e0       	ldi	r24, 0x06	; 6
    3a5a:	0e 94 c6 06 	call	0xd8c	; 0xd8c <LCD_12864_Draw_pixel>
		LCD_12864_Draw_pixel(6, 49);
    3a5e:	61 e3       	ldi	r22, 0x31	; 49
    3a60:	86 e0       	ldi	r24, 0x06	; 6
    3a62:	0e 94 c6 06 	call	0xd8c	; 0xd8c <LCD_12864_Draw_pixel>
		LCD_12864_Draw_pixel(6, 50);
    3a66:	62 e3       	ldi	r22, 0x32	; 50
    3a68:	86 e0       	ldi	r24, 0x06	; 6
    3a6a:	0e 94 c6 06 	call	0xd8c	; 0xd8c <LCD_12864_Draw_pixel>
		LCD_12864_Draw_pixel(7, 49);
    3a6e:	61 e3       	ldi	r22, 0x31	; 49
    3a70:	87 e0       	ldi	r24, 0x07	; 7
    3a72:	0e 94 c6 06 	call	0xd8c	; 0xd8c <LCD_12864_Draw_pixel>
    3a76:	08 95       	ret
	}
	else if (!strcmp(wind_direction, "S-E"))
    3a78:	6c ea       	ldi	r22, 0xAC	; 172
    3a7a:	72 e0       	ldi	r23, 0x02	; 2
    3a7c:	89 e8       	ldi	r24, 0x89	; 137
    3a7e:	93 e0       	ldi	r25, 0x03	; 3
    3a80:	0e 94 de 2e 	call	0x5dbc	; 0x5dbc <strcmp>
    3a84:	89 2b       	or	r24, r25
    3a86:	b9 f5       	brne	.+110    	; 0x3af6 <DrawWeatherVane+0x674>
	{
		LCD_12864_Draw_pixel(11, 50);
    3a88:	62 e3       	ldi	r22, 0x32	; 50
    3a8a:	8b e0       	ldi	r24, 0x0B	; 11
    3a8c:	0e 94 c6 06 	call	0xd8c	; 0xd8c <LCD_12864_Draw_pixel>
		LCD_12864_Draw_pixel(12, 51);
    3a90:	63 e3       	ldi	r22, 0x33	; 51
    3a92:	8c e0       	ldi	r24, 0x0C	; 12
    3a94:	0e 94 c6 06 	call	0xd8c	; 0xd8c <LCD_12864_Draw_pixel>
		LCD_12864_Draw_pixel(10, 53);
    3a98:	65 e3       	ldi	r22, 0x35	; 53
    3a9a:	8a e0       	ldi	r24, 0x0A	; 10
    3a9c:	0e 94 c6 06 	call	0xd8c	; 0xd8c <LCD_12864_Draw_pixel>
		LCD_12864_Draw_pixel(9, 52);
    3aa0:	64 e3       	ldi	r22, 0x34	; 52
    3aa2:	89 e0       	ldi	r24, 0x09	; 9
    3aa4:	0e 94 c6 06 	call	0xd8c	; 0xd8c <LCD_12864_Draw_pixel>
		LCD_12864_Draw_line(11, 52, 16, 57);
    3aa8:	29 e3       	ldi	r18, 0x39	; 57
    3aaa:	40 e1       	ldi	r20, 0x10	; 16
    3aac:	64 e3       	ldi	r22, 0x34	; 52
    3aae:	8b e0       	ldi	r24, 0x0B	; 11
    3ab0:	0e 94 18 0c 	call	0x1830	; 0x1830 <LCD_12864_Draw_line>
		LCD_12864_Draw_pixel(16, 56);
    3ab4:	68 e3       	ldi	r22, 0x38	; 56
    3ab6:	80 e1       	ldi	r24, 0x10	; 16
    3ab8:	0e 94 c6 06 	call	0xd8c	; 0xd8c <LCD_12864_Draw_pixel>
		LCD_12864_Draw_pixel(15, 57);
    3abc:	69 e3       	ldi	r22, 0x39	; 57
    3abe:	8f e0       	ldi	r24, 0x0F	; 15
    3ac0:	0e 94 c6 06 	call	0xd8c	; 0xd8c <LCD_12864_Draw_pixel>
		LCD_12864_Draw_pixel(15, 55);
    3ac4:	67 e3       	ldi	r22, 0x37	; 55
    3ac6:	8f e0       	ldi	r24, 0x0F	; 15
    3ac8:	0e 94 c6 06 	call	0xd8c	; 0xd8c <LCD_12864_Draw_pixel>
		LCD_12864_Draw_pixel(16, 55);
    3acc:	67 e3       	ldi	r22, 0x37	; 55
    3ace:	80 e1       	ldi	r24, 0x10	; 16
    3ad0:	0e 94 c6 06 	call	0xd8c	; 0xd8c <LCD_12864_Draw_pixel>
		LCD_12864_Draw_pixel(16, 54);
    3ad4:	66 e3       	ldi	r22, 0x36	; 54
    3ad6:	80 e1       	ldi	r24, 0x10	; 16
    3ad8:	0e 94 c6 06 	call	0xd8c	; 0xd8c <LCD_12864_Draw_pixel>
		LCD_12864_Draw_pixel(14, 56);
    3adc:	68 e3       	ldi	r22, 0x38	; 56
    3ade:	8e e0       	ldi	r24, 0x0E	; 14
    3ae0:	0e 94 c6 06 	call	0xd8c	; 0xd8c <LCD_12864_Draw_pixel>
		LCD_12864_Draw_pixel(14, 57);
    3ae4:	69 e3       	ldi	r22, 0x39	; 57
    3ae6:	8e e0       	ldi	r24, 0x0E	; 14
    3ae8:	0e 94 c6 06 	call	0xd8c	; 0xd8c <LCD_12864_Draw_pixel>
		LCD_12864_Draw_pixel(13, 57);
    3aec:	69 e3       	ldi	r22, 0x39	; 57
    3aee:	8d e0       	ldi	r24, 0x0D	; 13
    3af0:	0e 94 c6 06 	call	0xd8c	; 0xd8c <LCD_12864_Draw_pixel>
    3af4:	08 95       	ret
	}
	else if (!strcmp(wind_direction, "S-W"))
    3af6:	60 eb       	ldi	r22, 0xB0	; 176
    3af8:	72 e0       	ldi	r23, 0x02	; 2
    3afa:	89 e8       	ldi	r24, 0x89	; 137
    3afc:	93 e0       	ldi	r25, 0x03	; 3
    3afe:	0e 94 de 2e 	call	0x5dbc	; 0x5dbc <strcmp>
    3b02:	89 2b       	or	r24, r25
    3b04:	b1 f5       	brne	.+108    	; 0x3b72 <DrawWeatherVane+0x6f0>
	{
		LCD_12864_Draw_pixel(11, 50);
    3b06:	62 e3       	ldi	r22, 0x32	; 50
    3b08:	8b e0       	ldi	r24, 0x0B	; 11
    3b0a:	0e 94 c6 06 	call	0xd8c	; 0xd8c <LCD_12864_Draw_pixel>
		LCD_12864_Draw_pixel(10, 51);
    3b0e:	63 e3       	ldi	r22, 0x33	; 51
    3b10:	8a e0       	ldi	r24, 0x0A	; 10
    3b12:	0e 94 c6 06 	call	0xd8c	; 0xd8c <LCD_12864_Draw_pixel>
		LCD_12864_Draw_pixel(13, 52);
    3b16:	64 e3       	ldi	r22, 0x34	; 52
    3b18:	8d e0       	ldi	r24, 0x0D	; 13
    3b1a:	0e 94 c6 06 	call	0xd8c	; 0xd8c <LCD_12864_Draw_pixel>
		LCD_12864_Draw_pixel(12, 53);
    3b1e:	65 e3       	ldi	r22, 0x35	; 53
    3b20:	8c e0       	ldi	r24, 0x0C	; 12
    3b22:	0e 94 c6 06 	call	0xd8c	; 0xd8c <LCD_12864_Draw_pixel>
		LCD_12864_Draw_line(11, 52, 6, 57);
    3b26:	29 e3       	ldi	r18, 0x39	; 57
    3b28:	46 e0       	ldi	r20, 0x06	; 6
    3b2a:	64 e3       	ldi	r22, 0x34	; 52
    3b2c:	8b e0       	ldi	r24, 0x0B	; 11
    3b2e:	0e 94 18 0c 	call	0x1830	; 0x1830 <LCD_12864_Draw_line>
		LCD_12864_Draw_pixel(6, 56);
    3b32:	68 e3       	ldi	r22, 0x38	; 56
    3b34:	86 e0       	ldi	r24, 0x06	; 6
    3b36:	0e 94 c6 06 	call	0xd8c	; 0xd8c <LCD_12864_Draw_pixel>
		LCD_12864_Draw_pixel(6, 55);
    3b3a:	67 e3       	ldi	r22, 0x37	; 55
    3b3c:	86 e0       	ldi	r24, 0x06	; 6
    3b3e:	0e 94 c6 06 	call	0xd8c	; 0xd8c <LCD_12864_Draw_pixel>
		LCD_12864_Draw_pixel(7, 55);
    3b42:	67 e3       	ldi	r22, 0x37	; 55
    3b44:	87 e0       	ldi	r24, 0x07	; 7
    3b46:	0e 94 c6 06 	call	0xd8c	; 0xd8c <LCD_12864_Draw_pixel>
		LCD_12864_Draw_pixel(6, 54);
    3b4a:	66 e3       	ldi	r22, 0x36	; 54
    3b4c:	86 e0       	ldi	r24, 0x06	; 6
    3b4e:	0e 94 c6 06 	call	0xd8c	; 0xd8c <LCD_12864_Draw_pixel>
		LCD_12864_Draw_pixel(7, 57);
    3b52:	69 e3       	ldi	r22, 0x39	; 57
    3b54:	87 e0       	ldi	r24, 0x07	; 7
    3b56:	0e 94 c6 06 	call	0xd8c	; 0xd8c <LCD_12864_Draw_pixel>
		LCD_12864_Draw_pixel(8, 57);
    3b5a:	69 e3       	ldi	r22, 0x39	; 57
    3b5c:	88 e0       	ldi	r24, 0x08	; 8
    3b5e:	0e 94 c6 06 	call	0xd8c	; 0xd8c <LCD_12864_Draw_pixel>
		LCD_12864_Draw_pixel(8, 56);
    3b62:	68 e3       	ldi	r22, 0x38	; 56
    3b64:	88 e0       	ldi	r24, 0x08	; 8
    3b66:	0e 94 c6 06 	call	0xd8c	; 0xd8c <LCD_12864_Draw_pixel>
		LCD_12864_Draw_pixel(9, 57);
    3b6a:	69 e3       	ldi	r22, 0x39	; 57
    3b6c:	89 e0       	ldi	r24, 0x09	; 9
    3b6e:	0e 94 c6 06 	call	0xd8c	; 0xd8c <LCD_12864_Draw_pixel>
    3b72:	08 95       	ret

00003b74 <Convert_to_string_Clock>:
	
	Convert_to_string_Clock();
}
void Convert_to_string_Clock(void)
{
	if ((sec >= 0) && (sec <= 9)) {
    3b74:	80 91 0d 08 	lds	r24, 0x080D	; 0x80080d <sec>
    3b78:	8a 30       	cpi	r24, 0x0A	; 10
    3b7a:	98 f4       	brcc	.+38     	; 0x3ba2 <Convert_to_string_Clock+0x2e>
		sprintf(seconds,"0%d",sec);
    3b7c:	1f 92       	push	r1
    3b7e:	8f 93       	push	r24
    3b80:	84 eb       	ldi	r24, 0xB4	; 180
    3b82:	92 e0       	ldi	r25, 0x02	; 2
    3b84:	9f 93       	push	r25
    3b86:	8f 93       	push	r24
    3b88:	8f ef       	ldi	r24, 0xFF	; 255
    3b8a:	97 e0       	ldi	r25, 0x07	; 7
    3b8c:	9f 93       	push	r25
    3b8e:	8f 93       	push	r24
    3b90:	0e 94 2e 2f 	call	0x5e5c	; 0x5e5c <sprintf>
    3b94:	0f 90       	pop	r0
    3b96:	0f 90       	pop	r0
    3b98:	0f 90       	pop	r0
    3b9a:	0f 90       	pop	r0
    3b9c:	0f 90       	pop	r0
    3b9e:	0f 90       	pop	r0
    3ba0:	12 c0       	rjmp	.+36     	; 0x3bc6 <Convert_to_string_Clock+0x52>
	}
	else {
		sprintf(seconds,"%d",sec);
    3ba2:	1f 92       	push	r1
    3ba4:	8f 93       	push	r24
    3ba6:	85 eb       	ldi	r24, 0xB5	; 181
    3ba8:	92 e0       	ldi	r25, 0x02	; 2
    3baa:	9f 93       	push	r25
    3bac:	8f 93       	push	r24
    3bae:	8f ef       	ldi	r24, 0xFF	; 255
    3bb0:	97 e0       	ldi	r25, 0x07	; 7
    3bb2:	9f 93       	push	r25
    3bb4:	8f 93       	push	r24
    3bb6:	0e 94 2e 2f 	call	0x5e5c	; 0x5e5c <sprintf>
    3bba:	0f 90       	pop	r0
    3bbc:	0f 90       	pop	r0
    3bbe:	0f 90       	pop	r0
    3bc0:	0f 90       	pop	r0
    3bc2:	0f 90       	pop	r0
    3bc4:	0f 90       	pop	r0
	}
	if ((min >= 0) && (min <= 9)) {
    3bc6:	80 91 03 08 	lds	r24, 0x0803	; 0x800803 <min>
    3bca:	8a 30       	cpi	r24, 0x0A	; 10
    3bcc:	98 f4       	brcc	.+38     	; 0x3bf4 <Convert_to_string_Clock+0x80>
		sprintf(minutes,"0%d",min);
    3bce:	1f 92       	push	r1
    3bd0:	8f 93       	push	r24
    3bd2:	84 eb       	ldi	r24, 0xB4	; 180
    3bd4:	92 e0       	ldi	r25, 0x02	; 2
    3bd6:	9f 93       	push	r25
    3bd8:	8f 93       	push	r24
    3bda:	82 e1       	ldi	r24, 0x12	; 18
    3bdc:	98 e0       	ldi	r25, 0x08	; 8
    3bde:	9f 93       	push	r25
    3be0:	8f 93       	push	r24
    3be2:	0e 94 2e 2f 	call	0x5e5c	; 0x5e5c <sprintf>
    3be6:	0f 90       	pop	r0
    3be8:	0f 90       	pop	r0
    3bea:	0f 90       	pop	r0
    3bec:	0f 90       	pop	r0
    3bee:	0f 90       	pop	r0
    3bf0:	0f 90       	pop	r0
    3bf2:	12 c0       	rjmp	.+36     	; 0x3c18 <Convert_to_string_Clock+0xa4>
	}
	else {
		sprintf(minutes,"%d",min);
    3bf4:	1f 92       	push	r1
    3bf6:	8f 93       	push	r24
    3bf8:	85 eb       	ldi	r24, 0xB5	; 181
    3bfa:	92 e0       	ldi	r25, 0x02	; 2
    3bfc:	9f 93       	push	r25
    3bfe:	8f 93       	push	r24
    3c00:	82 e1       	ldi	r24, 0x12	; 18
    3c02:	98 e0       	ldi	r25, 0x08	; 8
    3c04:	9f 93       	push	r25
    3c06:	8f 93       	push	r24
    3c08:	0e 94 2e 2f 	call	0x5e5c	; 0x5e5c <sprintf>
    3c0c:	0f 90       	pop	r0
    3c0e:	0f 90       	pop	r0
    3c10:	0f 90       	pop	r0
    3c12:	0f 90       	pop	r0
    3c14:	0f 90       	pop	r0
    3c16:	0f 90       	pop	r0
	}
	if ((hour >= 0) && (hour <= 9)) {
    3c18:	80 91 f7 07 	lds	r24, 0x07F7	; 0x8007f7 <hour>
    3c1c:	8a 30       	cpi	r24, 0x0A	; 10
    3c1e:	98 f4       	brcc	.+38     	; 0x3c46 <Convert_to_string_Clock+0xd2>
		sprintf(hours,"0%d",hour);
    3c20:	1f 92       	push	r1
    3c22:	8f 93       	push	r24
    3c24:	84 eb       	ldi	r24, 0xB4	; 180
    3c26:	92 e0       	ldi	r25, 0x02	; 2
    3c28:	9f 93       	push	r25
    3c2a:	8f 93       	push	r24
    3c2c:	86 e1       	ldi	r24, 0x16	; 22
    3c2e:	98 e0       	ldi	r25, 0x08	; 8
    3c30:	9f 93       	push	r25
    3c32:	8f 93       	push	r24
    3c34:	0e 94 2e 2f 	call	0x5e5c	; 0x5e5c <sprintf>
    3c38:	0f 90       	pop	r0
    3c3a:	0f 90       	pop	r0
    3c3c:	0f 90       	pop	r0
    3c3e:	0f 90       	pop	r0
    3c40:	0f 90       	pop	r0
    3c42:	0f 90       	pop	r0
    3c44:	12 c0       	rjmp	.+36     	; 0x3c6a <Convert_to_string_Clock+0xf6>
	}
	else {
		sprintf(hours,"%d",hour);
    3c46:	1f 92       	push	r1
    3c48:	8f 93       	push	r24
    3c4a:	85 eb       	ldi	r24, 0xB5	; 181
    3c4c:	92 e0       	ldi	r25, 0x02	; 2
    3c4e:	9f 93       	push	r25
    3c50:	8f 93       	push	r24
    3c52:	86 e1       	ldi	r24, 0x16	; 22
    3c54:	98 e0       	ldi	r25, 0x08	; 8
    3c56:	9f 93       	push	r25
    3c58:	8f 93       	push	r24
    3c5a:	0e 94 2e 2f 	call	0x5e5c	; 0x5e5c <sprintf>
    3c5e:	0f 90       	pop	r0
    3c60:	0f 90       	pop	r0
    3c62:	0f 90       	pop	r0
    3c64:	0f 90       	pop	r0
    3c66:	0f 90       	pop	r0
    3c68:	0f 90       	pop	r0
	}
	if ((date >= 0) && (date <= 9)) {
    3c6a:	80 91 10 08 	lds	r24, 0x0810	; 0x800810 <date>
    3c6e:	8a 30       	cpi	r24, 0x0A	; 10
    3c70:	98 f4       	brcc	.+38     	; 0x3c98 <Convert_to_string_Clock+0x124>
		sprintf(mounthday,"0%d",date);
    3c72:	1f 92       	push	r1
    3c74:	8f 93       	push	r24
    3c76:	84 eb       	ldi	r24, 0xB4	; 180
    3c78:	92 e0       	ldi	r25, 0x02	; 2
    3c7a:	9f 93       	push	r25
    3c7c:	8f 93       	push	r24
    3c7e:	88 e0       	ldi	r24, 0x08	; 8
    3c80:	98 e0       	ldi	r25, 0x08	; 8
    3c82:	9f 93       	push	r25
    3c84:	8f 93       	push	r24
    3c86:	0e 94 2e 2f 	call	0x5e5c	; 0x5e5c <sprintf>
    3c8a:	0f 90       	pop	r0
    3c8c:	0f 90       	pop	r0
    3c8e:	0f 90       	pop	r0
    3c90:	0f 90       	pop	r0
    3c92:	0f 90       	pop	r0
    3c94:	0f 90       	pop	r0
    3c96:	12 c0       	rjmp	.+36     	; 0x3cbc <Convert_to_string_Clock+0x148>
	}
	else {
		sprintf(mounthday,"%d",date);
    3c98:	1f 92       	push	r1
    3c9a:	8f 93       	push	r24
    3c9c:	85 eb       	ldi	r24, 0xB5	; 181
    3c9e:	92 e0       	ldi	r25, 0x02	; 2
    3ca0:	9f 93       	push	r25
    3ca2:	8f 93       	push	r24
    3ca4:	88 e0       	ldi	r24, 0x08	; 8
    3ca6:	98 e0       	ldi	r25, 0x08	; 8
    3ca8:	9f 93       	push	r25
    3caa:	8f 93       	push	r24
    3cac:	0e 94 2e 2f 	call	0x5e5c	; 0x5e5c <sprintf>
    3cb0:	0f 90       	pop	r0
    3cb2:	0f 90       	pop	r0
    3cb4:	0f 90       	pop	r0
    3cb6:	0f 90       	pop	r0
    3cb8:	0f 90       	pop	r0
    3cba:	0f 90       	pop	r0
	}
	if ((year >= 0) && (year <= 9)) {
    3cbc:	80 91 0c 08 	lds	r24, 0x080C	; 0x80080c <year>
    3cc0:	8a 30       	cpi	r24, 0x0A	; 10
    3cc2:	98 f4       	brcc	.+38     	; 0x3cea <Convert_to_string_Clock+0x176>
		sprintf(Year,"0%d",year);
    3cc4:	1f 92       	push	r1
    3cc6:	8f 93       	push	r24
    3cc8:	84 eb       	ldi	r24, 0xB4	; 180
    3cca:	92 e0       	ldi	r25, 0x02	; 2
    3ccc:	9f 93       	push	r25
    3cce:	8f 93       	push	r24
    3cd0:	84 e0       	ldi	r24, 0x04	; 4
    3cd2:	98 e0       	ldi	r25, 0x08	; 8
    3cd4:	9f 93       	push	r25
    3cd6:	8f 93       	push	r24
    3cd8:	0e 94 2e 2f 	call	0x5e5c	; 0x5e5c <sprintf>
    3cdc:	0f 90       	pop	r0
    3cde:	0f 90       	pop	r0
    3ce0:	0f 90       	pop	r0
    3ce2:	0f 90       	pop	r0
    3ce4:	0f 90       	pop	r0
    3ce6:	0f 90       	pop	r0
    3ce8:	12 c0       	rjmp	.+36     	; 0x3d0e <Convert_to_string_Clock+0x19a>
	}
	else {
		sprintf(Year,"%d",year);
    3cea:	1f 92       	push	r1
    3cec:	8f 93       	push	r24
    3cee:	85 eb       	ldi	r24, 0xB5	; 181
    3cf0:	92 e0       	ldi	r25, 0x02	; 2
    3cf2:	9f 93       	push	r25
    3cf4:	8f 93       	push	r24
    3cf6:	84 e0       	ldi	r24, 0x04	; 4
    3cf8:	98 e0       	ldi	r25, 0x08	; 8
    3cfa:	9f 93       	push	r25
    3cfc:	8f 93       	push	r24
    3cfe:	0e 94 2e 2f 	call	0x5e5c	; 0x5e5c <sprintf>
    3d02:	0f 90       	pop	r0
    3d04:	0f 90       	pop	r0
    3d06:	0f 90       	pop	r0
    3d08:	0f 90       	pop	r0
    3d0a:	0f 90       	pop	r0
    3d0c:	0f 90       	pop	r0
	}
	switch (day)
    3d0e:	e0 91 0e 08 	lds	r30, 0x080E	; 0x80080e <day>
    3d12:	8e 2f       	mov	r24, r30
    3d14:	90 e0       	ldi	r25, 0x00	; 0
    3d16:	fc 01       	movw	r30, r24
    3d18:	31 97       	sbiw	r30, 0x01	; 1
    3d1a:	e7 30       	cpi	r30, 0x07	; 7
    3d1c:	f1 05       	cpc	r31, r1
    3d1e:	d8 f5       	brcc	.+118    	; 0x3d96 <Convert_to_string_Clock+0x222>
    3d20:	e5 5c       	subi	r30, 0xC5	; 197
    3d22:	ff 4f       	sbci	r31, 0xFF	; 255
    3d24:	0c 94 95 2d 	jmp	0x5b2a	; 0x5b2a <__tablejump2__>
	{
		case 1:
		sprintf(weakday,"Пн");
    3d28:	ef ee       	ldi	r30, 0xEF	; 239
    3d2a:	f7 e0       	ldi	r31, 0x07	; 7
    3d2c:	8f ec       	ldi	r24, 0xCF	; 207
    3d2e:	9d ee       	ldi	r25, 0xED	; 237
    3d30:	91 83       	std	Z+1, r25	; 0x01
    3d32:	80 83       	st	Z, r24
    3d34:	12 82       	std	Z+2, r1	; 0x02
		break;
    3d36:	2f c0       	rjmp	.+94     	; 0x3d96 <Convert_to_string_Clock+0x222>
		case 2:
		sprintf(weakday,"Вт");
    3d38:	ef ee       	ldi	r30, 0xEF	; 239
    3d3a:	f7 e0       	ldi	r31, 0x07	; 7
    3d3c:	82 ec       	ldi	r24, 0xC2	; 194
    3d3e:	92 ef       	ldi	r25, 0xF2	; 242
    3d40:	91 83       	std	Z+1, r25	; 0x01
    3d42:	80 83       	st	Z, r24
    3d44:	12 82       	std	Z+2, r1	; 0x02
		break;
    3d46:	27 c0       	rjmp	.+78     	; 0x3d96 <Convert_to_string_Clock+0x222>
		case 3:
		sprintf(weakday,"Ср");
    3d48:	ef ee       	ldi	r30, 0xEF	; 239
    3d4a:	f7 e0       	ldi	r31, 0x07	; 7
    3d4c:	81 ed       	ldi	r24, 0xD1	; 209
    3d4e:	90 ef       	ldi	r25, 0xF0	; 240
    3d50:	91 83       	std	Z+1, r25	; 0x01
    3d52:	80 83       	st	Z, r24
    3d54:	12 82       	std	Z+2, r1	; 0x02
		break;
    3d56:	1f c0       	rjmp	.+62     	; 0x3d96 <Convert_to_string_Clock+0x222>
		case 4:
		sprintf(weakday,"Чт");
    3d58:	ef ee       	ldi	r30, 0xEF	; 239
    3d5a:	f7 e0       	ldi	r31, 0x07	; 7
    3d5c:	87 ed       	ldi	r24, 0xD7	; 215
    3d5e:	92 ef       	ldi	r25, 0xF2	; 242
    3d60:	91 83       	std	Z+1, r25	; 0x01
    3d62:	80 83       	st	Z, r24
    3d64:	12 82       	std	Z+2, r1	; 0x02
		break;
    3d66:	17 c0       	rjmp	.+46     	; 0x3d96 <Convert_to_string_Clock+0x222>
		case 5:
		sprintf(weakday,"Пт");
    3d68:	ef ee       	ldi	r30, 0xEF	; 239
    3d6a:	f7 e0       	ldi	r31, 0x07	; 7
    3d6c:	8f ec       	ldi	r24, 0xCF	; 207
    3d6e:	92 ef       	ldi	r25, 0xF2	; 242
    3d70:	91 83       	std	Z+1, r25	; 0x01
    3d72:	80 83       	st	Z, r24
    3d74:	12 82       	std	Z+2, r1	; 0x02
		break;
    3d76:	0f c0       	rjmp	.+30     	; 0x3d96 <Convert_to_string_Clock+0x222>
		case 6:
		sprintf(weakday,"Сб");
    3d78:	ef ee       	ldi	r30, 0xEF	; 239
    3d7a:	f7 e0       	ldi	r31, 0x07	; 7
    3d7c:	81 ed       	ldi	r24, 0xD1	; 209
    3d7e:	91 ee       	ldi	r25, 0xE1	; 225
    3d80:	91 83       	std	Z+1, r25	; 0x01
    3d82:	80 83       	st	Z, r24
    3d84:	12 82       	std	Z+2, r1	; 0x02
		break;
    3d86:	07 c0       	rjmp	.+14     	; 0x3d96 <Convert_to_string_Clock+0x222>
		case 7:
		sprintf(weakday,"Вс");
    3d88:	ef ee       	ldi	r30, 0xEF	; 239
    3d8a:	f7 e0       	ldi	r31, 0x07	; 7
    3d8c:	82 ec       	ldi	r24, 0xC2	; 194
    3d8e:	91 ef       	ldi	r25, 0xF1	; 241
    3d90:	91 83       	std	Z+1, r25	; 0x01
    3d92:	80 83       	st	Z, r24
    3d94:	12 82       	std	Z+2, r1	; 0x02
		break;
		default:
		break;
	}
	switch (month)
    3d96:	e0 91 f3 07 	lds	r30, 0x07F3	; 0x8007f3 <month>
    3d9a:	8e 2f       	mov	r24, r30
    3d9c:	90 e0       	ldi	r25, 0x00	; 0
    3d9e:	fc 01       	movw	r30, r24
    3da0:	31 97       	sbiw	r30, 0x01	; 1
    3da2:	ec 30       	cpi	r30, 0x0C	; 12
    3da4:	f1 05       	cpc	r31, r1
    3da6:	08 f0       	brcs	.+2      	; 0x3daa <Convert_to_string_Clock+0x236>
    3da8:	87 c0       	rjmp	.+270    	; 0x3eb8 <Convert_to_string_Clock+0x344>
    3daa:	ee 5b       	subi	r30, 0xBE	; 190
    3dac:	ff 4f       	sbci	r31, 0xFF	; 255
    3dae:	0c 94 95 2d 	jmp	0x5b2a	; 0x5b2a <__tablejump2__>
	{
		case 1:
		sprintf(Mounth,"Янв");
    3db2:	e8 ef       	ldi	r30, 0xF8	; 248
    3db4:	f7 e0       	ldi	r31, 0x07	; 7
    3db6:	8f ed       	ldi	r24, 0xDF	; 223
    3db8:	9d ee       	ldi	r25, 0xED	; 237
    3dba:	91 83       	std	Z+1, r25	; 0x01
    3dbc:	80 83       	st	Z, r24
    3dbe:	82 ee       	ldi	r24, 0xE2	; 226
    3dc0:	90 e0       	ldi	r25, 0x00	; 0
    3dc2:	93 83       	std	Z+3, r25	; 0x03
    3dc4:	82 83       	std	Z+2, r24	; 0x02
		break;
    3dc6:	08 95       	ret
		case 2:
		sprintf(Mounth,"Фев");
    3dc8:	e8 ef       	ldi	r30, 0xF8	; 248
    3dca:	f7 e0       	ldi	r31, 0x07	; 7
    3dcc:	84 ed       	ldi	r24, 0xD4	; 212
    3dce:	95 ee       	ldi	r25, 0xE5	; 229
    3dd0:	91 83       	std	Z+1, r25	; 0x01
    3dd2:	80 83       	st	Z, r24
    3dd4:	82 ee       	ldi	r24, 0xE2	; 226
    3dd6:	90 e0       	ldi	r25, 0x00	; 0
    3dd8:	93 83       	std	Z+3, r25	; 0x03
    3dda:	82 83       	std	Z+2, r24	; 0x02
		break;
    3ddc:	08 95       	ret
		case 3:
		sprintf(Mounth,"Мар");
    3dde:	e8 ef       	ldi	r30, 0xF8	; 248
    3de0:	f7 e0       	ldi	r31, 0x07	; 7
    3de2:	8c ec       	ldi	r24, 0xCC	; 204
    3de4:	90 ee       	ldi	r25, 0xE0	; 224
    3de6:	91 83       	std	Z+1, r25	; 0x01
    3de8:	80 83       	st	Z, r24
    3dea:	80 ef       	ldi	r24, 0xF0	; 240
    3dec:	90 e0       	ldi	r25, 0x00	; 0
    3dee:	93 83       	std	Z+3, r25	; 0x03
    3df0:	82 83       	std	Z+2, r24	; 0x02
		break;
    3df2:	08 95       	ret
		case 4:
		sprintf(Mounth,"Апр");
    3df4:	e8 ef       	ldi	r30, 0xF8	; 248
    3df6:	f7 e0       	ldi	r31, 0x07	; 7
    3df8:	80 ec       	ldi	r24, 0xC0	; 192
    3dfa:	9f ee       	ldi	r25, 0xEF	; 239
    3dfc:	91 83       	std	Z+1, r25	; 0x01
    3dfe:	80 83       	st	Z, r24
    3e00:	80 ef       	ldi	r24, 0xF0	; 240
    3e02:	90 e0       	ldi	r25, 0x00	; 0
    3e04:	93 83       	std	Z+3, r25	; 0x03
    3e06:	82 83       	std	Z+2, r24	; 0x02
		break;
    3e08:	08 95       	ret
		case 5:
		sprintf(Mounth,"Май");
    3e0a:	e8 ef       	ldi	r30, 0xF8	; 248
    3e0c:	f7 e0       	ldi	r31, 0x07	; 7
    3e0e:	8c ec       	ldi	r24, 0xCC	; 204
    3e10:	90 ee       	ldi	r25, 0xE0	; 224
    3e12:	91 83       	std	Z+1, r25	; 0x01
    3e14:	80 83       	st	Z, r24
    3e16:	89 ee       	ldi	r24, 0xE9	; 233
    3e18:	90 e0       	ldi	r25, 0x00	; 0
    3e1a:	93 83       	std	Z+3, r25	; 0x03
    3e1c:	82 83       	std	Z+2, r24	; 0x02
		break;
    3e1e:	08 95       	ret
		case 6:
		sprintf(Mounth,"Июн");
    3e20:	e8 ef       	ldi	r30, 0xF8	; 248
    3e22:	f7 e0       	ldi	r31, 0x07	; 7
    3e24:	88 ec       	ldi	r24, 0xC8	; 200
    3e26:	9e ef       	ldi	r25, 0xFE	; 254
    3e28:	91 83       	std	Z+1, r25	; 0x01
    3e2a:	80 83       	st	Z, r24
    3e2c:	8d ee       	ldi	r24, 0xED	; 237
    3e2e:	90 e0       	ldi	r25, 0x00	; 0
    3e30:	93 83       	std	Z+3, r25	; 0x03
    3e32:	82 83       	std	Z+2, r24	; 0x02
		break;
    3e34:	08 95       	ret
		case 7:
		sprintf(Mounth,"Июл");
    3e36:	e8 ef       	ldi	r30, 0xF8	; 248
    3e38:	f7 e0       	ldi	r31, 0x07	; 7
    3e3a:	88 ec       	ldi	r24, 0xC8	; 200
    3e3c:	9e ef       	ldi	r25, 0xFE	; 254
    3e3e:	91 83       	std	Z+1, r25	; 0x01
    3e40:	80 83       	st	Z, r24
    3e42:	8b ee       	ldi	r24, 0xEB	; 235
    3e44:	90 e0       	ldi	r25, 0x00	; 0
    3e46:	93 83       	std	Z+3, r25	; 0x03
    3e48:	82 83       	std	Z+2, r24	; 0x02
		break;
    3e4a:	08 95       	ret
		case 8:
		sprintf(Mounth,"Авг");
    3e4c:	e8 ef       	ldi	r30, 0xF8	; 248
    3e4e:	f7 e0       	ldi	r31, 0x07	; 7
    3e50:	80 ec       	ldi	r24, 0xC0	; 192
    3e52:	92 ee       	ldi	r25, 0xE2	; 226
    3e54:	91 83       	std	Z+1, r25	; 0x01
    3e56:	80 83       	st	Z, r24
    3e58:	83 ee       	ldi	r24, 0xE3	; 227
    3e5a:	90 e0       	ldi	r25, 0x00	; 0
    3e5c:	93 83       	std	Z+3, r25	; 0x03
    3e5e:	82 83       	std	Z+2, r24	; 0x02
		break;
    3e60:	08 95       	ret
		case 9:
		sprintf(Mounth,"Сен");
    3e62:	e8 ef       	ldi	r30, 0xF8	; 248
    3e64:	f7 e0       	ldi	r31, 0x07	; 7
    3e66:	81 ed       	ldi	r24, 0xD1	; 209
    3e68:	95 ee       	ldi	r25, 0xE5	; 229
    3e6a:	91 83       	std	Z+1, r25	; 0x01
    3e6c:	80 83       	st	Z, r24
    3e6e:	8d ee       	ldi	r24, 0xED	; 237
    3e70:	90 e0       	ldi	r25, 0x00	; 0
    3e72:	93 83       	std	Z+3, r25	; 0x03
    3e74:	82 83       	std	Z+2, r24	; 0x02
		break;
    3e76:	08 95       	ret
		case 10:
		sprintf(Mounth,"Окт");
    3e78:	e8 ef       	ldi	r30, 0xF8	; 248
    3e7a:	f7 e0       	ldi	r31, 0x07	; 7
    3e7c:	8e ec       	ldi	r24, 0xCE	; 206
    3e7e:	9a ee       	ldi	r25, 0xEA	; 234
    3e80:	91 83       	std	Z+1, r25	; 0x01
    3e82:	80 83       	st	Z, r24
    3e84:	82 ef       	ldi	r24, 0xF2	; 242
    3e86:	90 e0       	ldi	r25, 0x00	; 0
    3e88:	93 83       	std	Z+3, r25	; 0x03
    3e8a:	82 83       	std	Z+2, r24	; 0x02
		break;
    3e8c:	08 95       	ret
		case 11:
		sprintf(Mounth,"Ноя");
    3e8e:	e8 ef       	ldi	r30, 0xF8	; 248
    3e90:	f7 e0       	ldi	r31, 0x07	; 7
    3e92:	8d ec       	ldi	r24, 0xCD	; 205
    3e94:	9e ee       	ldi	r25, 0xEE	; 238
    3e96:	91 83       	std	Z+1, r25	; 0x01
    3e98:	80 83       	st	Z, r24
    3e9a:	8f ef       	ldi	r24, 0xFF	; 255
    3e9c:	90 e0       	ldi	r25, 0x00	; 0
    3e9e:	93 83       	std	Z+3, r25	; 0x03
    3ea0:	82 83       	std	Z+2, r24	; 0x02
		break;
    3ea2:	08 95       	ret
		case 12:
		sprintf(Mounth,"Дек");
    3ea4:	e8 ef       	ldi	r30, 0xF8	; 248
    3ea6:	f7 e0       	ldi	r31, 0x07	; 7
    3ea8:	84 ec       	ldi	r24, 0xC4	; 196
    3eaa:	95 ee       	ldi	r25, 0xE5	; 229
    3eac:	91 83       	std	Z+1, r25	; 0x01
    3eae:	80 83       	st	Z, r24
    3eb0:	8a ee       	ldi	r24, 0xEA	; 234
    3eb2:	90 e0       	ldi	r25, 0x00	; 0
    3eb4:	93 83       	std	Z+3, r25	; 0x03
    3eb6:	82 83       	std	Z+2, r24	; 0x02
    3eb8:	08 95       	ret

00003eba <Print_Page_Clock_Settings>:
	LCD_12864_Draw_bitmap(Frame_buffer);
	LCD_12864_GrapnicMode(0);
}
//Окно настроек времени
void Print_Page_Clock_Settings(uint8_t *Frame_buffer)
{
    3eba:	cf 93       	push	r28
    3ebc:	df 93       	push	r29
    3ebe:	ec 01       	movw	r28, r24
	Convert_to_string_Clock();
    3ec0:	0e 94 ba 1d 	call	0x3b74	; 0x3b74 <Convert_to_string_Clock>
	LCD_12864_GrapnicMode(1);
    3ec4:	81 e0       	ldi	r24, 0x01	; 1
    3ec6:	0e 94 c9 07 	call	0xf92	; 0xf92 <LCD_12864_GrapnicMode>
	LCD_12864_Clean_Frame_buffer();
    3eca:	0e 94 0d 0c 	call	0x181a	; 0x181a <LCD_12864_Clean_Frame_buffer>
	
	LCD_12864_Decode_UTF8(15, 0, 1, "НАСТРОЙКА ВРЕМЕНИ");
    3ece:	28 eb       	ldi	r18, 0xB8	; 184
    3ed0:	32 e0       	ldi	r19, 0x02	; 2
    3ed2:	41 e0       	ldi	r20, 0x01	; 1
    3ed4:	60 e0       	ldi	r22, 0x00	; 0
    3ed6:	8f e0       	ldi	r24, 0x0F	; 15
    3ed8:	90 e0       	ldi	r25, 0x00	; 0
    3eda:	0e 94 6b 0b 	call	0x16d6	; 0x16d6 <LCD_12864_Decode_UTF8>
	switch (cnt%7)
    3ede:	90 91 28 03 	lds	r25, 0x0328	; 0x800328 <cnt>
    3ee2:	83 e9       	ldi	r24, 0x93	; 147
    3ee4:	98 02       	muls	r25, r24
    3ee6:	81 2d       	mov	r24, r1
    3ee8:	11 24       	eor	r1, r1
    3eea:	89 0f       	add	r24, r25
    3eec:	85 95       	asr	r24
    3eee:	85 95       	asr	r24
    3ef0:	e8 2f       	mov	r30, r24
    3ef2:	97 fd       	sbrc	r25, 7
    3ef4:	e3 95       	inc	r30
    3ef6:	8e 2f       	mov	r24, r30
    3ef8:	88 0f       	add	r24, r24
    3efa:	88 0f       	add	r24, r24
    3efc:	88 0f       	add	r24, r24
    3efe:	8e 1b       	sub	r24, r30
    3f00:	e9 2f       	mov	r30, r25
    3f02:	e8 1b       	sub	r30, r24
    3f04:	8e 2f       	mov	r24, r30
    3f06:	ee 0f       	add	r30, r30
    3f08:	99 0b       	sbc	r25, r25
    3f0a:	aa 0b       	sbc	r26, r26
    3f0c:	bb 0b       	sbc	r27, r27
    3f0e:	87 30       	cpi	r24, 0x07	; 7
    3f10:	91 05       	cpc	r25, r1
    3f12:	08 f0       	brcs	.+2      	; 0x3f16 <Print_Page_Clock_Settings+0x5c>
    3f14:	c3 c1       	rjmp	.+902    	; 0x429c <Print_Page_Clock_Settings+0x3e2>
    3f16:	fc 01       	movw	r30, r24
    3f18:	e2 5b       	subi	r30, 0xB2	; 178
    3f1a:	ff 4f       	sbci	r31, 0xFF	; 255
    3f1c:	0c 94 95 2d 	jmp	0x5b2a	; 0x5b2a <__tablejump2__>
	{
		case 0:	if(change_flag)
    3f20:	80 91 2a 03 	lds	r24, 0x032A	; 0x80032a <change_flag>
    3f24:	88 23       	and	r24, r24
    3f26:	21 f0       	breq	.+8      	; 0x3f30 <Print_Page_Clock_Settings+0x76>
				{
					hour = add_cnt;
    3f28:	80 91 29 03 	lds	r24, 0x0329	; 0x800329 <add_cnt>
    3f2c:	80 93 f7 07 	sts	0x07F7, r24	; 0x8007f7 <hour>
				}
				LCD_12864_Print_11_16(32, 2, 1, hours);
    3f30:	26 e1       	ldi	r18, 0x16	; 22
    3f32:	38 e0       	ldi	r19, 0x08	; 8
    3f34:	41 e0       	ldi	r20, 0x01	; 1
    3f36:	62 e0       	ldi	r22, 0x02	; 2
    3f38:	80 e2       	ldi	r24, 0x20	; 32
    3f3a:	90 e0       	ldi	r25, 0x00	; 0
    3f3c:	0e 94 30 0b 	call	0x1660	; 0x1660 <LCD_12864_Print_11_16>
				LCD_12864_Print_11_16(62, 2, 0, minutes);
    3f40:	22 e1       	ldi	r18, 0x12	; 18
    3f42:	38 e0       	ldi	r19, 0x08	; 8
    3f44:	40 e0       	ldi	r20, 0x00	; 0
    3f46:	62 e0       	ldi	r22, 0x02	; 2
    3f48:	8e e3       	ldi	r24, 0x3E	; 62
    3f4a:	90 e0       	ldi	r25, 0x00	; 0
    3f4c:	0e 94 30 0b 	call	0x1660	; 0x1660 <LCD_12864_Print_11_16>
				LCD_12864_Decode_UTF8(28, 5, 0, weakday);
    3f50:	2f ee       	ldi	r18, 0xEF	; 239
    3f52:	37 e0       	ldi	r19, 0x07	; 7
    3f54:	40 e0       	ldi	r20, 0x00	; 0
    3f56:	65 e0       	ldi	r22, 0x05	; 5
    3f58:	8c e1       	ldi	r24, 0x1C	; 28
    3f5a:	90 e0       	ldi	r25, 0x00	; 0
    3f5c:	0e 94 6b 0b 	call	0x16d6	; 0x16d6 <LCD_12864_Decode_UTF8>
				LCD_12864_Decode_UTF8(49, 5, 0, mounthday);
    3f60:	28 e0       	ldi	r18, 0x08	; 8
    3f62:	38 e0       	ldi	r19, 0x08	; 8
    3f64:	40 e0       	ldi	r20, 0x00	; 0
    3f66:	65 e0       	ldi	r22, 0x05	; 5
    3f68:	81 e3       	ldi	r24, 0x31	; 49
    3f6a:	90 e0       	ldi	r25, 0x00	; 0
    3f6c:	0e 94 6b 0b 	call	0x16d6	; 0x16d6 <LCD_12864_Decode_UTF8>
				LCD_12864_Decode_UTF8(70, 5, 0, Mounth);
    3f70:	28 ef       	ldi	r18, 0xF8	; 248
    3f72:	37 e0       	ldi	r19, 0x07	; 7
    3f74:	40 e0       	ldi	r20, 0x00	; 0
    3f76:	65 e0       	ldi	r22, 0x05	; 5
    3f78:	86 e4       	ldi	r24, 0x46	; 70
    3f7a:	90 e0       	ldi	r25, 0x00	; 0
    3f7c:	0e 94 6b 0b 	call	0x16d6	; 0x16d6 <LCD_12864_Decode_UTF8>
				LCD_12864_Decode_UTF8(95, 5, 0, Year);
    3f80:	24 e0       	ldi	r18, 0x04	; 4
    3f82:	38 e0       	ldi	r19, 0x08	; 8
    3f84:	40 e0       	ldi	r20, 0x00	; 0
    3f86:	65 e0       	ldi	r22, 0x05	; 5
    3f88:	8f e5       	ldi	r24, 0x5F	; 95
    3f8a:	90 e0       	ldi	r25, 0x00	; 0
    3f8c:	0e 94 6b 0b 	call	0x16d6	; 0x16d6 <LCD_12864_Decode_UTF8>
				LCD_12864_Decode_UTF8(25, 7, 0, "Назад в МЕНЮ");
    3f90:	28 e5       	ldi	r18, 0x58	; 88
    3f92:	32 e0       	ldi	r19, 0x02	; 2
    3f94:	40 e0       	ldi	r20, 0x00	; 0
    3f96:	67 e0       	ldi	r22, 0x07	; 7
    3f98:	89 e1       	ldi	r24, 0x19	; 25
    3f9a:	90 e0       	ldi	r25, 0x00	; 0
    3f9c:	0e 94 6b 0b 	call	0x16d6	; 0x16d6 <LCD_12864_Decode_UTF8>
				break;	
    3fa0:	7d c1       	rjmp	.+762    	; 0x429c <Print_Page_Clock_Settings+0x3e2>
		case 1: if(change_flag)
    3fa2:	80 91 2a 03 	lds	r24, 0x032A	; 0x80032a <change_flag>
    3fa6:	88 23       	and	r24, r24
    3fa8:	21 f0       	breq	.+8      	; 0x3fb2 <Print_Page_Clock_Settings+0xf8>
				{
					min = add_cnt;
    3faa:	80 91 29 03 	lds	r24, 0x0329	; 0x800329 <add_cnt>
    3fae:	80 93 03 08 	sts	0x0803, r24	; 0x800803 <min>
				}
				LCD_12864_Print_11_16(32, 2, 0, hours);
    3fb2:	26 e1       	ldi	r18, 0x16	; 22
    3fb4:	38 e0       	ldi	r19, 0x08	; 8
    3fb6:	40 e0       	ldi	r20, 0x00	; 0
    3fb8:	62 e0       	ldi	r22, 0x02	; 2
    3fba:	80 e2       	ldi	r24, 0x20	; 32
    3fbc:	90 e0       	ldi	r25, 0x00	; 0
    3fbe:	0e 94 30 0b 	call	0x1660	; 0x1660 <LCD_12864_Print_11_16>
				LCD_12864_Print_11_16(62, 2, 1, minutes);
    3fc2:	22 e1       	ldi	r18, 0x12	; 18
    3fc4:	38 e0       	ldi	r19, 0x08	; 8
    3fc6:	41 e0       	ldi	r20, 0x01	; 1
    3fc8:	62 e0       	ldi	r22, 0x02	; 2
    3fca:	8e e3       	ldi	r24, 0x3E	; 62
    3fcc:	90 e0       	ldi	r25, 0x00	; 0
    3fce:	0e 94 30 0b 	call	0x1660	; 0x1660 <LCD_12864_Print_11_16>
				LCD_12864_Decode_UTF8(28, 5, 0, weakday);
    3fd2:	2f ee       	ldi	r18, 0xEF	; 239
    3fd4:	37 e0       	ldi	r19, 0x07	; 7
    3fd6:	40 e0       	ldi	r20, 0x00	; 0
    3fd8:	65 e0       	ldi	r22, 0x05	; 5
    3fda:	8c e1       	ldi	r24, 0x1C	; 28
    3fdc:	90 e0       	ldi	r25, 0x00	; 0
    3fde:	0e 94 6b 0b 	call	0x16d6	; 0x16d6 <LCD_12864_Decode_UTF8>
				LCD_12864_Decode_UTF8(49, 5, 0, mounthday);
    3fe2:	28 e0       	ldi	r18, 0x08	; 8
    3fe4:	38 e0       	ldi	r19, 0x08	; 8
    3fe6:	40 e0       	ldi	r20, 0x00	; 0
    3fe8:	65 e0       	ldi	r22, 0x05	; 5
    3fea:	81 e3       	ldi	r24, 0x31	; 49
    3fec:	90 e0       	ldi	r25, 0x00	; 0
    3fee:	0e 94 6b 0b 	call	0x16d6	; 0x16d6 <LCD_12864_Decode_UTF8>
				LCD_12864_Decode_UTF8(70, 5, 0, Mounth);
    3ff2:	28 ef       	ldi	r18, 0xF8	; 248
    3ff4:	37 e0       	ldi	r19, 0x07	; 7
    3ff6:	40 e0       	ldi	r20, 0x00	; 0
    3ff8:	65 e0       	ldi	r22, 0x05	; 5
    3ffa:	86 e4       	ldi	r24, 0x46	; 70
    3ffc:	90 e0       	ldi	r25, 0x00	; 0
    3ffe:	0e 94 6b 0b 	call	0x16d6	; 0x16d6 <LCD_12864_Decode_UTF8>
				LCD_12864_Decode_UTF8(95, 5, 0, Year);
    4002:	24 e0       	ldi	r18, 0x04	; 4
    4004:	38 e0       	ldi	r19, 0x08	; 8
    4006:	40 e0       	ldi	r20, 0x00	; 0
    4008:	65 e0       	ldi	r22, 0x05	; 5
    400a:	8f e5       	ldi	r24, 0x5F	; 95
    400c:	90 e0       	ldi	r25, 0x00	; 0
    400e:	0e 94 6b 0b 	call	0x16d6	; 0x16d6 <LCD_12864_Decode_UTF8>
				LCD_12864_Decode_UTF8(25, 7, 0, "Назад в МЕНЮ");
    4012:	28 e5       	ldi	r18, 0x58	; 88
    4014:	32 e0       	ldi	r19, 0x02	; 2
    4016:	40 e0       	ldi	r20, 0x00	; 0
    4018:	67 e0       	ldi	r22, 0x07	; 7
    401a:	89 e1       	ldi	r24, 0x19	; 25
    401c:	90 e0       	ldi	r25, 0x00	; 0
    401e:	0e 94 6b 0b 	call	0x16d6	; 0x16d6 <LCD_12864_Decode_UTF8>
				break;
    4022:	3c c1       	rjmp	.+632    	; 0x429c <Print_Page_Clock_Settings+0x3e2>
		case 2: if(change_flag)
    4024:	80 91 2a 03 	lds	r24, 0x032A	; 0x80032a <change_flag>
    4028:	88 23       	and	r24, r24
    402a:	21 f0       	breq	.+8      	; 0x4034 <Print_Page_Clock_Settings+0x17a>
				{
					day = add_cnt;
    402c:	80 91 29 03 	lds	r24, 0x0329	; 0x800329 <add_cnt>
    4030:	80 93 0e 08 	sts	0x080E, r24	; 0x80080e <day>
				}
				LCD_12864_Print_11_16(32, 2, 0, hours);
    4034:	26 e1       	ldi	r18, 0x16	; 22
    4036:	38 e0       	ldi	r19, 0x08	; 8
    4038:	40 e0       	ldi	r20, 0x00	; 0
    403a:	62 e0       	ldi	r22, 0x02	; 2
    403c:	80 e2       	ldi	r24, 0x20	; 32
    403e:	90 e0       	ldi	r25, 0x00	; 0
    4040:	0e 94 30 0b 	call	0x1660	; 0x1660 <LCD_12864_Print_11_16>
				LCD_12864_Print_11_16(62, 2, 0, minutes);
    4044:	22 e1       	ldi	r18, 0x12	; 18
    4046:	38 e0       	ldi	r19, 0x08	; 8
    4048:	40 e0       	ldi	r20, 0x00	; 0
    404a:	62 e0       	ldi	r22, 0x02	; 2
    404c:	8e e3       	ldi	r24, 0x3E	; 62
    404e:	90 e0       	ldi	r25, 0x00	; 0
    4050:	0e 94 30 0b 	call	0x1660	; 0x1660 <LCD_12864_Print_11_16>
				LCD_12864_Decode_UTF8(28, 5, 1, weakday);
    4054:	2f ee       	ldi	r18, 0xEF	; 239
    4056:	37 e0       	ldi	r19, 0x07	; 7
    4058:	41 e0       	ldi	r20, 0x01	; 1
    405a:	65 e0       	ldi	r22, 0x05	; 5
    405c:	8c e1       	ldi	r24, 0x1C	; 28
    405e:	90 e0       	ldi	r25, 0x00	; 0
    4060:	0e 94 6b 0b 	call	0x16d6	; 0x16d6 <LCD_12864_Decode_UTF8>
				LCD_12864_Decode_UTF8(49, 5, 0, mounthday);
    4064:	28 e0       	ldi	r18, 0x08	; 8
    4066:	38 e0       	ldi	r19, 0x08	; 8
    4068:	40 e0       	ldi	r20, 0x00	; 0
    406a:	65 e0       	ldi	r22, 0x05	; 5
    406c:	81 e3       	ldi	r24, 0x31	; 49
    406e:	90 e0       	ldi	r25, 0x00	; 0
    4070:	0e 94 6b 0b 	call	0x16d6	; 0x16d6 <LCD_12864_Decode_UTF8>
				LCD_12864_Decode_UTF8(70, 5, 0, Mounth);
    4074:	28 ef       	ldi	r18, 0xF8	; 248
    4076:	37 e0       	ldi	r19, 0x07	; 7
    4078:	40 e0       	ldi	r20, 0x00	; 0
    407a:	65 e0       	ldi	r22, 0x05	; 5
    407c:	86 e4       	ldi	r24, 0x46	; 70
    407e:	90 e0       	ldi	r25, 0x00	; 0
    4080:	0e 94 6b 0b 	call	0x16d6	; 0x16d6 <LCD_12864_Decode_UTF8>
				LCD_12864_Decode_UTF8(95, 5, 0, Year);
    4084:	24 e0       	ldi	r18, 0x04	; 4
    4086:	38 e0       	ldi	r19, 0x08	; 8
    4088:	40 e0       	ldi	r20, 0x00	; 0
    408a:	65 e0       	ldi	r22, 0x05	; 5
    408c:	8f e5       	ldi	r24, 0x5F	; 95
    408e:	90 e0       	ldi	r25, 0x00	; 0
    4090:	0e 94 6b 0b 	call	0x16d6	; 0x16d6 <LCD_12864_Decode_UTF8>
				LCD_12864_Decode_UTF8(25, 7, 0, "Назад в МЕНЮ");
    4094:	28 e5       	ldi	r18, 0x58	; 88
    4096:	32 e0       	ldi	r19, 0x02	; 2
    4098:	40 e0       	ldi	r20, 0x00	; 0
    409a:	67 e0       	ldi	r22, 0x07	; 7
    409c:	89 e1       	ldi	r24, 0x19	; 25
    409e:	90 e0       	ldi	r25, 0x00	; 0
    40a0:	0e 94 6b 0b 	call	0x16d6	; 0x16d6 <LCD_12864_Decode_UTF8>
				break;
    40a4:	fb c0       	rjmp	.+502    	; 0x429c <Print_Page_Clock_Settings+0x3e2>
		case 3: if(change_flag)
    40a6:	80 91 2a 03 	lds	r24, 0x032A	; 0x80032a <change_flag>
    40aa:	88 23       	and	r24, r24
    40ac:	21 f0       	breq	.+8      	; 0x40b6 <Print_Page_Clock_Settings+0x1fc>
				{
					date = add_cnt;
    40ae:	80 91 29 03 	lds	r24, 0x0329	; 0x800329 <add_cnt>
    40b2:	80 93 10 08 	sts	0x0810, r24	; 0x800810 <date>
				}
				LCD_12864_Print_11_16(32, 2, 0, hours);
    40b6:	26 e1       	ldi	r18, 0x16	; 22
    40b8:	38 e0       	ldi	r19, 0x08	; 8
    40ba:	40 e0       	ldi	r20, 0x00	; 0
    40bc:	62 e0       	ldi	r22, 0x02	; 2
    40be:	80 e2       	ldi	r24, 0x20	; 32
    40c0:	90 e0       	ldi	r25, 0x00	; 0
    40c2:	0e 94 30 0b 	call	0x1660	; 0x1660 <LCD_12864_Print_11_16>
				LCD_12864_Print_11_16(62, 2, 0, minutes);
    40c6:	22 e1       	ldi	r18, 0x12	; 18
    40c8:	38 e0       	ldi	r19, 0x08	; 8
    40ca:	40 e0       	ldi	r20, 0x00	; 0
    40cc:	62 e0       	ldi	r22, 0x02	; 2
    40ce:	8e e3       	ldi	r24, 0x3E	; 62
    40d0:	90 e0       	ldi	r25, 0x00	; 0
    40d2:	0e 94 30 0b 	call	0x1660	; 0x1660 <LCD_12864_Print_11_16>
				LCD_12864_Decode_UTF8(28, 5, 0, weakday);
    40d6:	2f ee       	ldi	r18, 0xEF	; 239
    40d8:	37 e0       	ldi	r19, 0x07	; 7
    40da:	40 e0       	ldi	r20, 0x00	; 0
    40dc:	65 e0       	ldi	r22, 0x05	; 5
    40de:	8c e1       	ldi	r24, 0x1C	; 28
    40e0:	90 e0       	ldi	r25, 0x00	; 0
    40e2:	0e 94 6b 0b 	call	0x16d6	; 0x16d6 <LCD_12864_Decode_UTF8>
				LCD_12864_Decode_UTF8(49, 5, 1, mounthday);
    40e6:	28 e0       	ldi	r18, 0x08	; 8
    40e8:	38 e0       	ldi	r19, 0x08	; 8
    40ea:	41 e0       	ldi	r20, 0x01	; 1
    40ec:	65 e0       	ldi	r22, 0x05	; 5
    40ee:	81 e3       	ldi	r24, 0x31	; 49
    40f0:	90 e0       	ldi	r25, 0x00	; 0
    40f2:	0e 94 6b 0b 	call	0x16d6	; 0x16d6 <LCD_12864_Decode_UTF8>
				LCD_12864_Decode_UTF8(70, 5, 0, Mounth);
    40f6:	28 ef       	ldi	r18, 0xF8	; 248
    40f8:	37 e0       	ldi	r19, 0x07	; 7
    40fa:	40 e0       	ldi	r20, 0x00	; 0
    40fc:	65 e0       	ldi	r22, 0x05	; 5
    40fe:	86 e4       	ldi	r24, 0x46	; 70
    4100:	90 e0       	ldi	r25, 0x00	; 0
    4102:	0e 94 6b 0b 	call	0x16d6	; 0x16d6 <LCD_12864_Decode_UTF8>
				LCD_12864_Decode_UTF8(95, 5, 0, Year);
    4106:	24 e0       	ldi	r18, 0x04	; 4
    4108:	38 e0       	ldi	r19, 0x08	; 8
    410a:	40 e0       	ldi	r20, 0x00	; 0
    410c:	65 e0       	ldi	r22, 0x05	; 5
    410e:	8f e5       	ldi	r24, 0x5F	; 95
    4110:	90 e0       	ldi	r25, 0x00	; 0
    4112:	0e 94 6b 0b 	call	0x16d6	; 0x16d6 <LCD_12864_Decode_UTF8>
				LCD_12864_Decode_UTF8(25, 7, 0, "Назад в МЕНЮ");
    4116:	28 e5       	ldi	r18, 0x58	; 88
    4118:	32 e0       	ldi	r19, 0x02	; 2
    411a:	40 e0       	ldi	r20, 0x00	; 0
    411c:	67 e0       	ldi	r22, 0x07	; 7
    411e:	89 e1       	ldi	r24, 0x19	; 25
    4120:	90 e0       	ldi	r25, 0x00	; 0
    4122:	0e 94 6b 0b 	call	0x16d6	; 0x16d6 <LCD_12864_Decode_UTF8>
				break;
    4126:	ba c0       	rjmp	.+372    	; 0x429c <Print_Page_Clock_Settings+0x3e2>
		case 4: if(change_flag)
    4128:	80 91 2a 03 	lds	r24, 0x032A	; 0x80032a <change_flag>
    412c:	88 23       	and	r24, r24
    412e:	21 f0       	breq	.+8      	; 0x4138 <Print_Page_Clock_Settings+0x27e>
				{
					month = add_cnt;
    4130:	80 91 29 03 	lds	r24, 0x0329	; 0x800329 <add_cnt>
    4134:	80 93 f3 07 	sts	0x07F3, r24	; 0x8007f3 <month>
				}
				LCD_12864_Print_11_16(32, 2, 0, hours);
    4138:	26 e1       	ldi	r18, 0x16	; 22
    413a:	38 e0       	ldi	r19, 0x08	; 8
    413c:	40 e0       	ldi	r20, 0x00	; 0
    413e:	62 e0       	ldi	r22, 0x02	; 2
    4140:	80 e2       	ldi	r24, 0x20	; 32
    4142:	90 e0       	ldi	r25, 0x00	; 0
    4144:	0e 94 30 0b 	call	0x1660	; 0x1660 <LCD_12864_Print_11_16>
				LCD_12864_Print_11_16(62, 2, 0, minutes);
    4148:	22 e1       	ldi	r18, 0x12	; 18
    414a:	38 e0       	ldi	r19, 0x08	; 8
    414c:	40 e0       	ldi	r20, 0x00	; 0
    414e:	62 e0       	ldi	r22, 0x02	; 2
    4150:	8e e3       	ldi	r24, 0x3E	; 62
    4152:	90 e0       	ldi	r25, 0x00	; 0
    4154:	0e 94 30 0b 	call	0x1660	; 0x1660 <LCD_12864_Print_11_16>
				LCD_12864_Decode_UTF8(28, 5, 0, weakday);
    4158:	2f ee       	ldi	r18, 0xEF	; 239
    415a:	37 e0       	ldi	r19, 0x07	; 7
    415c:	40 e0       	ldi	r20, 0x00	; 0
    415e:	65 e0       	ldi	r22, 0x05	; 5
    4160:	8c e1       	ldi	r24, 0x1C	; 28
    4162:	90 e0       	ldi	r25, 0x00	; 0
    4164:	0e 94 6b 0b 	call	0x16d6	; 0x16d6 <LCD_12864_Decode_UTF8>
				LCD_12864_Decode_UTF8(49, 5, 0, mounthday);
    4168:	28 e0       	ldi	r18, 0x08	; 8
    416a:	38 e0       	ldi	r19, 0x08	; 8
    416c:	40 e0       	ldi	r20, 0x00	; 0
    416e:	65 e0       	ldi	r22, 0x05	; 5
    4170:	81 e3       	ldi	r24, 0x31	; 49
    4172:	90 e0       	ldi	r25, 0x00	; 0
    4174:	0e 94 6b 0b 	call	0x16d6	; 0x16d6 <LCD_12864_Decode_UTF8>
				LCD_12864_Decode_UTF8(70, 5, 1, Mounth);
    4178:	28 ef       	ldi	r18, 0xF8	; 248
    417a:	37 e0       	ldi	r19, 0x07	; 7
    417c:	41 e0       	ldi	r20, 0x01	; 1
    417e:	65 e0       	ldi	r22, 0x05	; 5
    4180:	86 e4       	ldi	r24, 0x46	; 70
    4182:	90 e0       	ldi	r25, 0x00	; 0
    4184:	0e 94 6b 0b 	call	0x16d6	; 0x16d6 <LCD_12864_Decode_UTF8>
				LCD_12864_Decode_UTF8(95, 5, 0, Year);
    4188:	24 e0       	ldi	r18, 0x04	; 4
    418a:	38 e0       	ldi	r19, 0x08	; 8
    418c:	40 e0       	ldi	r20, 0x00	; 0
    418e:	65 e0       	ldi	r22, 0x05	; 5
    4190:	8f e5       	ldi	r24, 0x5F	; 95
    4192:	90 e0       	ldi	r25, 0x00	; 0
    4194:	0e 94 6b 0b 	call	0x16d6	; 0x16d6 <LCD_12864_Decode_UTF8>
				LCD_12864_Decode_UTF8(25, 7, 0, "Назад в МЕНЮ");
    4198:	28 e5       	ldi	r18, 0x58	; 88
    419a:	32 e0       	ldi	r19, 0x02	; 2
    419c:	40 e0       	ldi	r20, 0x00	; 0
    419e:	67 e0       	ldi	r22, 0x07	; 7
    41a0:	89 e1       	ldi	r24, 0x19	; 25
    41a2:	90 e0       	ldi	r25, 0x00	; 0
    41a4:	0e 94 6b 0b 	call	0x16d6	; 0x16d6 <LCD_12864_Decode_UTF8>
				break;
    41a8:	79 c0       	rjmp	.+242    	; 0x429c <Print_Page_Clock_Settings+0x3e2>
		case 5: if(change_flag)
    41aa:	80 91 2a 03 	lds	r24, 0x032A	; 0x80032a <change_flag>
    41ae:	88 23       	and	r24, r24
    41b0:	21 f0       	breq	.+8      	; 0x41ba <Print_Page_Clock_Settings+0x300>
				{
					year = add_cnt;
    41b2:	80 91 29 03 	lds	r24, 0x0329	; 0x800329 <add_cnt>
    41b6:	80 93 0c 08 	sts	0x080C, r24	; 0x80080c <year>
				}
				LCD_12864_Print_11_16(32, 2, 0, hours);
    41ba:	26 e1       	ldi	r18, 0x16	; 22
    41bc:	38 e0       	ldi	r19, 0x08	; 8
    41be:	40 e0       	ldi	r20, 0x00	; 0
    41c0:	62 e0       	ldi	r22, 0x02	; 2
    41c2:	80 e2       	ldi	r24, 0x20	; 32
    41c4:	90 e0       	ldi	r25, 0x00	; 0
    41c6:	0e 94 30 0b 	call	0x1660	; 0x1660 <LCD_12864_Print_11_16>
				LCD_12864_Print_11_16(62, 2, 0, minutes);
    41ca:	22 e1       	ldi	r18, 0x12	; 18
    41cc:	38 e0       	ldi	r19, 0x08	; 8
    41ce:	40 e0       	ldi	r20, 0x00	; 0
    41d0:	62 e0       	ldi	r22, 0x02	; 2
    41d2:	8e e3       	ldi	r24, 0x3E	; 62
    41d4:	90 e0       	ldi	r25, 0x00	; 0
    41d6:	0e 94 30 0b 	call	0x1660	; 0x1660 <LCD_12864_Print_11_16>
				LCD_12864_Decode_UTF8(28, 5, 0, weakday);
    41da:	2f ee       	ldi	r18, 0xEF	; 239
    41dc:	37 e0       	ldi	r19, 0x07	; 7
    41de:	40 e0       	ldi	r20, 0x00	; 0
    41e0:	65 e0       	ldi	r22, 0x05	; 5
    41e2:	8c e1       	ldi	r24, 0x1C	; 28
    41e4:	90 e0       	ldi	r25, 0x00	; 0
    41e6:	0e 94 6b 0b 	call	0x16d6	; 0x16d6 <LCD_12864_Decode_UTF8>
				LCD_12864_Decode_UTF8(49, 5, 0, mounthday);
    41ea:	28 e0       	ldi	r18, 0x08	; 8
    41ec:	38 e0       	ldi	r19, 0x08	; 8
    41ee:	40 e0       	ldi	r20, 0x00	; 0
    41f0:	65 e0       	ldi	r22, 0x05	; 5
    41f2:	81 e3       	ldi	r24, 0x31	; 49
    41f4:	90 e0       	ldi	r25, 0x00	; 0
    41f6:	0e 94 6b 0b 	call	0x16d6	; 0x16d6 <LCD_12864_Decode_UTF8>
				LCD_12864_Decode_UTF8(70, 5, 0, Mounth);
    41fa:	28 ef       	ldi	r18, 0xF8	; 248
    41fc:	37 e0       	ldi	r19, 0x07	; 7
    41fe:	40 e0       	ldi	r20, 0x00	; 0
    4200:	65 e0       	ldi	r22, 0x05	; 5
    4202:	86 e4       	ldi	r24, 0x46	; 70
    4204:	90 e0       	ldi	r25, 0x00	; 0
    4206:	0e 94 6b 0b 	call	0x16d6	; 0x16d6 <LCD_12864_Decode_UTF8>
				LCD_12864_Decode_UTF8(95, 5, 1, Year);
    420a:	24 e0       	ldi	r18, 0x04	; 4
    420c:	38 e0       	ldi	r19, 0x08	; 8
    420e:	41 e0       	ldi	r20, 0x01	; 1
    4210:	65 e0       	ldi	r22, 0x05	; 5
    4212:	8f e5       	ldi	r24, 0x5F	; 95
    4214:	90 e0       	ldi	r25, 0x00	; 0
    4216:	0e 94 6b 0b 	call	0x16d6	; 0x16d6 <LCD_12864_Decode_UTF8>
				LCD_12864_Decode_UTF8(25, 7, 0, "Назад в МЕНЮ");
    421a:	28 e5       	ldi	r18, 0x58	; 88
    421c:	32 e0       	ldi	r19, 0x02	; 2
    421e:	40 e0       	ldi	r20, 0x00	; 0
    4220:	67 e0       	ldi	r22, 0x07	; 7
    4222:	89 e1       	ldi	r24, 0x19	; 25
    4224:	90 e0       	ldi	r25, 0x00	; 0
    4226:	0e 94 6b 0b 	call	0x16d6	; 0x16d6 <LCD_12864_Decode_UTF8>
				break;
    422a:	38 c0       	rjmp	.+112    	; 0x429c <Print_Page_Clock_Settings+0x3e2>
		case 6:
				LCD_12864_Print_11_16(32, 2, 0, hours);
    422c:	26 e1       	ldi	r18, 0x16	; 22
    422e:	38 e0       	ldi	r19, 0x08	; 8
    4230:	40 e0       	ldi	r20, 0x00	; 0
    4232:	62 e0       	ldi	r22, 0x02	; 2
    4234:	80 e2       	ldi	r24, 0x20	; 32
    4236:	90 e0       	ldi	r25, 0x00	; 0
    4238:	0e 94 30 0b 	call	0x1660	; 0x1660 <LCD_12864_Print_11_16>
				LCD_12864_Print_11_16(62, 2, 0, minutes);
    423c:	22 e1       	ldi	r18, 0x12	; 18
    423e:	38 e0       	ldi	r19, 0x08	; 8
    4240:	40 e0       	ldi	r20, 0x00	; 0
    4242:	62 e0       	ldi	r22, 0x02	; 2
    4244:	8e e3       	ldi	r24, 0x3E	; 62
    4246:	90 e0       	ldi	r25, 0x00	; 0
    4248:	0e 94 30 0b 	call	0x1660	; 0x1660 <LCD_12864_Print_11_16>
				LCD_12864_Decode_UTF8(28, 5, 0, weakday);
    424c:	2f ee       	ldi	r18, 0xEF	; 239
    424e:	37 e0       	ldi	r19, 0x07	; 7
    4250:	40 e0       	ldi	r20, 0x00	; 0
    4252:	65 e0       	ldi	r22, 0x05	; 5
    4254:	8c e1       	ldi	r24, 0x1C	; 28
    4256:	90 e0       	ldi	r25, 0x00	; 0
    4258:	0e 94 6b 0b 	call	0x16d6	; 0x16d6 <LCD_12864_Decode_UTF8>
				LCD_12864_Decode_UTF8(49, 5, 0, mounthday);
    425c:	28 e0       	ldi	r18, 0x08	; 8
    425e:	38 e0       	ldi	r19, 0x08	; 8
    4260:	40 e0       	ldi	r20, 0x00	; 0
    4262:	65 e0       	ldi	r22, 0x05	; 5
    4264:	81 e3       	ldi	r24, 0x31	; 49
    4266:	90 e0       	ldi	r25, 0x00	; 0
    4268:	0e 94 6b 0b 	call	0x16d6	; 0x16d6 <LCD_12864_Decode_UTF8>
				LCD_12864_Decode_UTF8(70, 5, 0, Mounth);
    426c:	28 ef       	ldi	r18, 0xF8	; 248
    426e:	37 e0       	ldi	r19, 0x07	; 7
    4270:	40 e0       	ldi	r20, 0x00	; 0
    4272:	65 e0       	ldi	r22, 0x05	; 5
    4274:	86 e4       	ldi	r24, 0x46	; 70
    4276:	90 e0       	ldi	r25, 0x00	; 0
    4278:	0e 94 6b 0b 	call	0x16d6	; 0x16d6 <LCD_12864_Decode_UTF8>
				LCD_12864_Decode_UTF8(95, 5, 0, Year);
    427c:	24 e0       	ldi	r18, 0x04	; 4
    427e:	38 e0       	ldi	r19, 0x08	; 8
    4280:	40 e0       	ldi	r20, 0x00	; 0
    4282:	65 e0       	ldi	r22, 0x05	; 5
    4284:	8f e5       	ldi	r24, 0x5F	; 95
    4286:	90 e0       	ldi	r25, 0x00	; 0
    4288:	0e 94 6b 0b 	call	0x16d6	; 0x16d6 <LCD_12864_Decode_UTF8>
				LCD_12864_Decode_UTF8(25, 7, 1, "Назад в МЕНЮ");
    428c:	28 e5       	ldi	r18, 0x58	; 88
    428e:	32 e0       	ldi	r19, 0x02	; 2
    4290:	41 e0       	ldi	r20, 0x01	; 1
    4292:	67 e0       	ldi	r22, 0x07	; 7
    4294:	89 e1       	ldi	r24, 0x19	; 25
    4296:	90 e0       	ldi	r25, 0x00	; 0
    4298:	0e 94 6b 0b 	call	0x16d6	; 0x16d6 <LCD_12864_Decode_UTF8>
				break;
	}
	LCD_12864_Decode_UTF8(55, 3, 0, "ч");
    429c:	2a ec       	ldi	r18, 0xCA	; 202
    429e:	32 e0       	ldi	r19, 0x02	; 2
    42a0:	40 e0       	ldi	r20, 0x00	; 0
    42a2:	63 e0       	ldi	r22, 0x03	; 3
    42a4:	87 e3       	ldi	r24, 0x37	; 55
    42a6:	90 e0       	ldi	r25, 0x00	; 0
    42a8:	0e 94 6b 0b 	call	0x16d6	; 0x16d6 <LCD_12864_Decode_UTF8>
	LCD_12864_Decode_UTF8(85, 3, 0, "мин");
    42ac:	2c ec       	ldi	r18, 0xCC	; 204
    42ae:	32 e0       	ldi	r19, 0x02	; 2
    42b0:	40 e0       	ldi	r20, 0x00	; 0
    42b2:	63 e0       	ldi	r22, 0x03	; 3
    42b4:	85 e5       	ldi	r24, 0x55	; 85
    42b6:	90 e0       	ldi	r25, 0x00	; 0
    42b8:	0e 94 6b 0b 	call	0x16d6	; 0x16d6 <LCD_12864_Decode_UTF8>
	LCD_12864_Decode_UTF8(42, 5, 0, ",");
    42bc:	20 ed       	ldi	r18, 0xD0	; 208
    42be:	32 e0       	ldi	r19, 0x02	; 2
    42c0:	40 e0       	ldi	r20, 0x00	; 0
    42c2:	65 e0       	ldi	r22, 0x05	; 5
    42c4:	8a e2       	ldi	r24, 0x2A	; 42
    42c6:	90 e0       	ldi	r25, 0x00	; 0
    42c8:	0e 94 6b 0b 	call	0x16d6	; 0x16d6 <LCD_12864_Decode_UTF8>
	LCD_12864_Decode_UTF8(63, 5, 0, "/");
    42cc:	22 ed       	ldi	r18, 0xD2	; 210
    42ce:	32 e0       	ldi	r19, 0x02	; 2
    42d0:	40 e0       	ldi	r20, 0x00	; 0
    42d2:	65 e0       	ldi	r22, 0x05	; 5
    42d4:	8f e3       	ldi	r24, 0x3F	; 63
    42d6:	90 e0       	ldi	r25, 0x00	; 0
    42d8:	0e 94 6b 0b 	call	0x16d6	; 0x16d6 <LCD_12864_Decode_UTF8>
	LCD_12864_Decode_UTF8(89, 5, 0, "/");
    42dc:	22 ed       	ldi	r18, 0xD2	; 210
    42de:	32 e0       	ldi	r19, 0x02	; 2
    42e0:	40 e0       	ldi	r20, 0x00	; 0
    42e2:	65 e0       	ldi	r22, 0x05	; 5
    42e4:	89 e5       	ldi	r24, 0x59	; 89
    42e6:	90 e0       	ldi	r25, 0x00	; 0
    42e8:	0e 94 6b 0b 	call	0x16d6	; 0x16d6 <LCD_12864_Decode_UTF8>

	
	LCD_12864_Draw_bitmap(Frame_buffer);
    42ec:	ce 01       	movw	r24, r28
    42ee:	0e 94 e8 07 	call	0xfd0	; 0xfd0 <LCD_12864_Draw_bitmap>
	LCD_12864_GrapnicMode(0);
    42f2:	80 e0       	ldi	r24, 0x00	; 0
    42f4:	0e 94 c9 07 	call	0xf92	; 0xf92 <LCD_12864_GrapnicMode>
}
    42f8:	df 91       	pop	r29
    42fa:	cf 91       	pop	r28
    42fc:	08 95       	ret

000042fe <Clock>:
	else {}
}
void Clock (void)
{		
	//Читаем время (для DS3231) - по сути функция RTC_read_time
	I2C_StartCondition();               // запуск i2c
    42fe:	0e 94 8b 14 	call	0x2916	; 0x2916 <I2C_StartCondition>
	I2C_SendByte(0b11010000);			// передача адреса устройства, режим записи
    4302:	80 ed       	ldi	r24, 0xD0	; 208
    4304:	0e 94 97 14 	call	0x292e	; 0x292e <I2C_SendByte>
	I2C_SendByte(0x00);				    // передача адреса памяти
    4308:	80 e0       	ldi	r24, 0x00	; 0
    430a:	0e 94 97 14 	call	0x292e	; 0x292e <I2C_SendByte>
	I2C_StopCondition();                // остановка i2c
    430e:	0e 94 93 14 	call	0x2926	; 0x2926 <I2C_StopCondition>
	
	I2C_StartCondition();               // запуск i2c
    4312:	0e 94 8b 14 	call	0x2916	; 0x2916 <I2C_StartCondition>
	I2C_SendByte(0b11010001);			// передача адреса устройства, режим чтения
    4316:	81 ed       	ldi	r24, 0xD1	; 209
    4318:	0e 94 97 14 	call	0x292e	; 0x292e <I2C_SendByte>
	sec = RTC_ConvertFromDec(I2C_ReadByte());     // чтение секунд, ACK
    431c:	0e 94 a1 14 	call	0x2942	; 0x2942 <I2C_ReadByte>
    4320:	0e 94 9b 13 	call	0x2736	; 0x2736 <RTC_ConvertFromDec>
    4324:	80 93 0d 08 	sts	0x080D, r24	; 0x80080d <sec>
	min = RTC_ConvertFromDec(I2C_ReadByte());     // чтение минут, ACK
    4328:	0e 94 a1 14 	call	0x2942	; 0x2942 <I2C_ReadByte>
    432c:	0e 94 9b 13 	call	0x2736	; 0x2736 <RTC_ConvertFromDec>
    4330:	80 93 03 08 	sts	0x0803, r24	; 0x800803 <min>
	hour = RTC_ConvertFromDec(I2C_ReadByte());    // чтение часов, ACK
    4334:	0e 94 a1 14 	call	0x2942	; 0x2942 <I2C_ReadByte>
    4338:	0e 94 9b 13 	call	0x2736	; 0x2736 <RTC_ConvertFromDec>
    433c:	80 93 f7 07 	sts	0x07F7, r24	; 0x8007f7 <hour>
	day = RTC_ConvertFromDec(I2C_ReadByte());     // чтение день недели, ACK
    4340:	0e 94 a1 14 	call	0x2942	; 0x2942 <I2C_ReadByte>
    4344:	0e 94 9b 13 	call	0x2736	; 0x2736 <RTC_ConvertFromDec>
    4348:	80 93 0e 08 	sts	0x080E, r24	; 0x80080e <day>
	date = RTC_ConvertFromDec(I2C_ReadByte());    // чтение число, ACK
    434c:	0e 94 a1 14 	call	0x2942	; 0x2942 <I2C_ReadByte>
    4350:	0e 94 9b 13 	call	0x2736	; 0x2736 <RTC_ConvertFromDec>
    4354:	80 93 10 08 	sts	0x0810, r24	; 0x800810 <date>
	month = RTC_ConvertFromDec(I2C_ReadByte());   // чтение месяц, ACK
    4358:	0e 94 a1 14 	call	0x2942	; 0x2942 <I2C_ReadByte>
    435c:	0e 94 9b 13 	call	0x2736	; 0x2736 <RTC_ConvertFromDec>
    4360:	80 93 f3 07 	sts	0x07F3, r24	; 0x8007f3 <month>
	year = RTC_ConvertFromDec(I2C_ReadLastByte());// чтение год, NACK
    4364:	0e 94 ab 14 	call	0x2956	; 0x2956 <I2C_ReadLastByte>
    4368:	0e 94 9b 13 	call	0x2736	; 0x2736 <RTC_ConvertFromDec>
    436c:	80 93 0c 08 	sts	0x080C, r24	; 0x80080c <year>
	I2C_StopCondition();                // остановка i2c
    4370:	0e 94 93 14 	call	0x2926	; 0x2926 <I2C_StopCondition>
	
	Convert_to_string_Clock();
    4374:	0e 94 ba 1d 	call	0x3b74	; 0x3b74 <Convert_to_string_Clock>
    4378:	08 95       	ret

0000437a <RAIN_AMOUNT>:
		break;
	}
}
//Вычисление кол-ва осадков
float RAIN_AMOUNT(char *adc_value)
{
    437a:	cf 93       	push	r28
    437c:	df 93       	push	r29
    437e:	00 d0       	rcall	.+0      	; 0x4380 <RAIN_AMOUNT+0x6>
    4380:	cd b7       	in	r28, 0x3d	; 61
    4382:	de b7       	in	r29, 0x3e	; 62
	float RAIN;
	int R;
	if (strlen(adc_value) != 0)
    4384:	fc 01       	movw	r30, r24
    4386:	20 81       	ld	r18, Z
    4388:	22 23       	and	r18, r18
    438a:	a1 f0       	breq	.+40     	; 0x43b4 <RAIN_AMOUNT+0x3a>
	{
		sscanf(adc_value, "%d", &R);
    438c:	9e 01       	movw	r18, r28
    438e:	2f 5f       	subi	r18, 0xFF	; 255
    4390:	3f 4f       	sbci	r19, 0xFF	; 255
    4392:	3f 93       	push	r19
    4394:	2f 93       	push	r18
    4396:	25 eb       	ldi	r18, 0xB5	; 181
    4398:	32 e0       	ldi	r19, 0x02	; 2
    439a:	3f 93       	push	r19
    439c:	2f 93       	push	r18
    439e:	9f 93       	push	r25
    43a0:	8f 93       	push	r24
    43a2:	0e 94 50 2f 	call	0x5ea0	; 0x5ea0 <sscanf>
    43a6:	0f 90       	pop	r0
    43a8:	0f 90       	pop	r0
    43aa:	0f 90       	pop	r0
    43ac:	0f 90       	pop	r0
    43ae:	0f 90       	pop	r0
    43b0:	0f 90       	pop	r0
    43b2:	02 c0       	rjmp	.+4      	; 0x43b8 <RAIN_AMOUNT+0x3e>
	}
	else
	{
		R = 0;
    43b4:	1a 82       	std	Y+2, r1	; 0x02
    43b6:	19 82       	std	Y+1, r1	; 0x01
	}
	RAIN = 3*R*2.45/5120;
    43b8:	69 81       	ldd	r22, Y+1	; 0x01
    43ba:	7a 81       	ldd	r23, Y+2	; 0x02
    43bc:	cb 01       	movw	r24, r22
    43be:	88 0f       	add	r24, r24
    43c0:	99 1f       	adc	r25, r25
    43c2:	68 0f       	add	r22, r24
    43c4:	79 1f       	adc	r23, r25
    43c6:	07 2e       	mov	r0, r23
    43c8:	00 0c       	add	r0, r0
    43ca:	88 0b       	sbc	r24, r24
    43cc:	99 0b       	sbc	r25, r25
    43ce:	0e 94 a5 28 	call	0x514a	; 0x514a <__floatsisf>
    43d2:	2d ec       	ldi	r18, 0xCD	; 205
    43d4:	3c ec       	ldi	r19, 0xCC	; 204
    43d6:	4c e1       	ldi	r20, 0x1C	; 28
    43d8:	50 e4       	ldi	r21, 0x40	; 64
    43da:	0e 94 5a 29 	call	0x52b4	; 0x52b4 <__mulsf3>
    43de:	20 e0       	ldi	r18, 0x00	; 0
    43e0:	30 e0       	ldi	r19, 0x00	; 0
    43e2:	40 ea       	ldi	r20, 0xA0	; 160
    43e4:	55 e4       	ldi	r21, 0x45	; 69
    43e6:	0e 94 fb 27 	call	0x4ff6	; 0x4ff6 <__divsf3>
	
	return RAIN;
}
    43ea:	0f 90       	pop	r0
    43ec:	0f 90       	pop	r0
    43ee:	df 91       	pop	r29
    43f0:	cf 91       	pop	r28
    43f2:	08 95       	ret

000043f4 <V_BAT>:
//Вычисление уровня заряда АКБ
float V_BAT (char *adc_value)
{
    43f4:	cf 93       	push	r28
    43f6:	df 93       	push	r29
    43f8:	00 d0       	rcall	.+0      	; 0x43fa <V_BAT+0x6>
    43fa:	cd b7       	in	r28, 0x3d	; 61
    43fc:	de b7       	in	r29, 0x3e	; 62
	float VBAT;
	int V;
	if (strlen(adc_value) != 0)
    43fe:	fc 01       	movw	r30, r24
    4400:	20 81       	ld	r18, Z
    4402:	22 23       	and	r18, r18
    4404:	a1 f0       	breq	.+40     	; 0x442e <V_BAT+0x3a>
	{
		sscanf(adc_value, "%d", &V);
    4406:	9e 01       	movw	r18, r28
    4408:	2f 5f       	subi	r18, 0xFF	; 255
    440a:	3f 4f       	sbci	r19, 0xFF	; 255
    440c:	3f 93       	push	r19
    440e:	2f 93       	push	r18
    4410:	25 eb       	ldi	r18, 0xB5	; 181
    4412:	32 e0       	ldi	r19, 0x02	; 2
    4414:	3f 93       	push	r19
    4416:	2f 93       	push	r18
    4418:	9f 93       	push	r25
    441a:	8f 93       	push	r24
    441c:	0e 94 50 2f 	call	0x5ea0	; 0x5ea0 <sscanf>
    4420:	0f 90       	pop	r0
    4422:	0f 90       	pop	r0
    4424:	0f 90       	pop	r0
    4426:	0f 90       	pop	r0
    4428:	0f 90       	pop	r0
    442a:	0f 90       	pop	r0
    442c:	02 c0       	rjmp	.+4      	; 0x4432 <V_BAT+0x3e>
	}
	else
	{
		V = 0;
    442e:	1a 82       	std	Y+2, r1	; 0x02
    4430:	19 82       	std	Y+1, r1	; 0x01
	}
	VBAT = V*2.45*3/1024;
    4432:	69 81       	ldd	r22, Y+1	; 0x01
    4434:	7a 81       	ldd	r23, Y+2	; 0x02
    4436:	07 2e       	mov	r0, r23
    4438:	00 0c       	add	r0, r0
    443a:	88 0b       	sbc	r24, r24
    443c:	99 0b       	sbc	r25, r25
    443e:	0e 94 a5 28 	call	0x514a	; 0x514a <__floatsisf>
    4442:	2d ec       	ldi	r18, 0xCD	; 205
    4444:	3c ec       	ldi	r19, 0xCC	; 204
    4446:	4c e1       	ldi	r20, 0x1C	; 28
    4448:	50 e4       	ldi	r21, 0x40	; 64
    444a:	0e 94 5a 29 	call	0x52b4	; 0x52b4 <__mulsf3>
    444e:	20 e0       	ldi	r18, 0x00	; 0
    4450:	30 e0       	ldi	r19, 0x00	; 0
    4452:	40 e4       	ldi	r20, 0x40	; 64
    4454:	50 e4       	ldi	r21, 0x40	; 64
    4456:	0e 94 5a 29 	call	0x52b4	; 0x52b4 <__mulsf3>
    445a:	20 e0       	ldi	r18, 0x00	; 0
    445c:	30 e0       	ldi	r19, 0x00	; 0
    445e:	40 e8       	ldi	r20, 0x80	; 128
    4460:	5a e3       	ldi	r21, 0x3A	; 58
    4462:	0e 94 5a 29 	call	0x52b4	; 0x52b4 <__mulsf3>
	
	return VBAT;
}
    4466:	0f 90       	pop	r0
    4468:	0f 90       	pop	r0
    446a:	df 91       	pop	r29
    446c:	cf 91       	pop	r28
    446e:	08 95       	ret

00004470 <DrawBattery>:
	}
	else {}
}
void DrawBattery(void)
{
	LCD_12864_Draw_line(34, 28, 40, 28);
    4470:	2c e1       	ldi	r18, 0x1C	; 28
    4472:	48 e2       	ldi	r20, 0x28	; 40
    4474:	6c e1       	ldi	r22, 0x1C	; 28
    4476:	82 e2       	ldi	r24, 0x22	; 34
    4478:	0e 94 18 0c 	call	0x1830	; 0x1830 <LCD_12864_Draw_line>
	LCD_12864_Draw_line(34, 19, 34, 27);
    447c:	2b e1       	ldi	r18, 0x1B	; 27
    447e:	42 e2       	ldi	r20, 0x22	; 34
    4480:	63 e1       	ldi	r22, 0x13	; 19
    4482:	82 e2       	ldi	r24, 0x22	; 34
    4484:	0e 94 18 0c 	call	0x1830	; 0x1830 <LCD_12864_Draw_line>
	LCD_12864_Draw_line(40, 19, 40, 27);
    4488:	2b e1       	ldi	r18, 0x1B	; 27
    448a:	48 e2       	ldi	r20, 0x28	; 40
    448c:	63 e1       	ldi	r22, 0x13	; 19
    448e:	88 e2       	ldi	r24, 0x28	; 40
    4490:	0e 94 18 0c 	call	0x1830	; 0x1830 <LCD_12864_Draw_line>
	LCD_12864_Draw_line(34, 19, 36, 19);
    4494:	23 e1       	ldi	r18, 0x13	; 19
    4496:	44 e2       	ldi	r20, 0x24	; 36
    4498:	63 e1       	ldi	r22, 0x13	; 19
    449a:	82 e2       	ldi	r24, 0x22	; 34
    449c:	0e 94 18 0c 	call	0x1830	; 0x1830 <LCD_12864_Draw_line>
	LCD_12864_Draw_line(38, 19, 40, 19);
    44a0:	23 e1       	ldi	r18, 0x13	; 19
    44a2:	48 e2       	ldi	r20, 0x28	; 40
    44a4:	63 e1       	ldi	r22, 0x13	; 19
    44a6:	86 e2       	ldi	r24, 0x26	; 38
    44a8:	0e 94 18 0c 	call	0x1830	; 0x1830 <LCD_12864_Draw_line>
	LCD_12864_Draw_line(36, 18, 36, 19);
    44ac:	23 e1       	ldi	r18, 0x13	; 19
    44ae:	44 e2       	ldi	r20, 0x24	; 36
    44b0:	62 e1       	ldi	r22, 0x12	; 18
    44b2:	84 e2       	ldi	r24, 0x24	; 36
    44b4:	0e 94 18 0c 	call	0x1830	; 0x1830 <LCD_12864_Draw_line>
	LCD_12864_Draw_line(38, 18, 38, 19);
    44b8:	23 e1       	ldi	r18, 0x13	; 19
    44ba:	46 e2       	ldi	r20, 0x26	; 38
    44bc:	62 e1       	ldi	r22, 0x12	; 18
    44be:	86 e2       	ldi	r24, 0x26	; 38
    44c0:	0e 94 18 0c 	call	0x1830	; 0x1830 <LCD_12864_Draw_line>
	LCD_12864_Draw_line(36, 18, 38, 18);
    44c4:	22 e1       	ldi	r18, 0x12	; 18
    44c6:	46 e2       	ldi	r20, 0x26	; 38
    44c8:	62 e1       	ldi	r22, 0x12	; 18
    44ca:	84 e2       	ldi	r24, 0x24	; 36
    44cc:	0e 94 18 0c 	call	0x1830	; 0x1830 <LCD_12864_Draw_line>
	if (V_BAT(adc_value1) >= 4.0f) {
    44d0:	84 e8       	ldi	r24, 0x84	; 132
    44d2:	93 e0       	ldi	r25, 0x03	; 3
    44d4:	0e 94 fa 21 	call	0x43f4	; 0x43f4 <V_BAT>
    44d8:	20 e0       	ldi	r18, 0x00	; 0
    44da:	30 e0       	ldi	r19, 0x00	; 0
    44dc:	40 e8       	ldi	r20, 0x80	; 128
    44de:	50 e4       	ldi	r21, 0x40	; 64
    44e0:	0e 94 55 29 	call	0x52aa	; 0x52aa <__gesf2>
    44e4:	88 23       	and	r24, r24
    44e6:	2c f1       	brlt	.+74     	; 0x4532 <DrawBattery+0xc2>
		LCD_12864_Draw_line(36, 26, 38, 26);
    44e8:	2a e1       	ldi	r18, 0x1A	; 26
    44ea:	46 e2       	ldi	r20, 0x26	; 38
    44ec:	6a e1       	ldi	r22, 0x1A	; 26
    44ee:	84 e2       	ldi	r24, 0x24	; 36
    44f0:	0e 94 18 0c 	call	0x1830	; 0x1830 <LCD_12864_Draw_line>
		LCD_12864_Draw_line(36, 25, 38, 25);
    44f4:	29 e1       	ldi	r18, 0x19	; 25
    44f6:	46 e2       	ldi	r20, 0x26	; 38
    44f8:	69 e1       	ldi	r22, 0x19	; 25
    44fa:	84 e2       	ldi	r24, 0x24	; 36
    44fc:	0e 94 18 0c 	call	0x1830	; 0x1830 <LCD_12864_Draw_line>
		LCD_12864_Draw_line(36, 24, 38, 24);
    4500:	28 e1       	ldi	r18, 0x18	; 24
    4502:	46 e2       	ldi	r20, 0x26	; 38
    4504:	68 e1       	ldi	r22, 0x18	; 24
    4506:	84 e2       	ldi	r24, 0x24	; 36
    4508:	0e 94 18 0c 	call	0x1830	; 0x1830 <LCD_12864_Draw_line>
		LCD_12864_Draw_line(36, 23, 38, 23);
    450c:	27 e1       	ldi	r18, 0x17	; 23
    450e:	46 e2       	ldi	r20, 0x26	; 38
    4510:	67 e1       	ldi	r22, 0x17	; 23
    4512:	84 e2       	ldi	r24, 0x24	; 36
    4514:	0e 94 18 0c 	call	0x1830	; 0x1830 <LCD_12864_Draw_line>
		LCD_12864_Draw_line(36, 22, 38, 22);
    4518:	26 e1       	ldi	r18, 0x16	; 22
    451a:	46 e2       	ldi	r20, 0x26	; 38
    451c:	66 e1       	ldi	r22, 0x16	; 22
    451e:	84 e2       	ldi	r24, 0x24	; 36
    4520:	0e 94 18 0c 	call	0x1830	; 0x1830 <LCD_12864_Draw_line>
		LCD_12864_Draw_line(36, 21, 38, 21);
    4524:	25 e1       	ldi	r18, 0x15	; 21
    4526:	46 e2       	ldi	r20, 0x26	; 38
    4528:	65 e1       	ldi	r22, 0x15	; 21
    452a:	84 e2       	ldi	r24, 0x24	; 36
    452c:	0e 94 18 0c 	call	0x1830	; 0x1830 <LCD_12864_Draw_line>
    4530:	08 95       	ret
	}
	else if ((V_BAT(adc_value1) >= 3.9f) && (V_BAT(adc_value1) < 4.0f)) {
    4532:	84 e8       	ldi	r24, 0x84	; 132
    4534:	93 e0       	ldi	r25, 0x03	; 3
    4536:	0e 94 fa 21 	call	0x43f4	; 0x43f4 <V_BAT>
    453a:	2a e9       	ldi	r18, 0x9A	; 154
    453c:	39 e9       	ldi	r19, 0x99	; 153
    453e:	49 e7       	ldi	r20, 0x79	; 121
    4540:	50 e4       	ldi	r21, 0x40	; 64
    4542:	0e 94 55 29 	call	0x52aa	; 0x52aa <__gesf2>
    4546:	88 23       	and	r24, r24
    4548:	5c f1       	brlt	.+86     	; 0x45a0 <DrawBattery+0x130>
    454a:	84 e8       	ldi	r24, 0x84	; 132
    454c:	93 e0       	ldi	r25, 0x03	; 3
    454e:	0e 94 fa 21 	call	0x43f4	; 0x43f4 <V_BAT>
    4552:	20 e0       	ldi	r18, 0x00	; 0
    4554:	30 e0       	ldi	r19, 0x00	; 0
    4556:	40 e8       	ldi	r20, 0x80	; 128
    4558:	50 e4       	ldi	r21, 0x40	; 64
    455a:	0e 94 f6 27 	call	0x4fec	; 0x4fec <__cmpsf2>
    455e:	88 23       	and	r24, r24
    4560:	fc f4       	brge	.+62     	; 0x45a0 <DrawBattery+0x130>
		LCD_12864_Draw_line(36, 26, 38, 26);
    4562:	2a e1       	ldi	r18, 0x1A	; 26
    4564:	46 e2       	ldi	r20, 0x26	; 38
    4566:	6a e1       	ldi	r22, 0x1A	; 26
    4568:	84 e2       	ldi	r24, 0x24	; 36
    456a:	0e 94 18 0c 	call	0x1830	; 0x1830 <LCD_12864_Draw_line>
		LCD_12864_Draw_line(36, 25, 38, 25);
    456e:	29 e1       	ldi	r18, 0x19	; 25
    4570:	46 e2       	ldi	r20, 0x26	; 38
    4572:	69 e1       	ldi	r22, 0x19	; 25
    4574:	84 e2       	ldi	r24, 0x24	; 36
    4576:	0e 94 18 0c 	call	0x1830	; 0x1830 <LCD_12864_Draw_line>
		LCD_12864_Draw_line(36, 24, 38, 24);
    457a:	28 e1       	ldi	r18, 0x18	; 24
    457c:	46 e2       	ldi	r20, 0x26	; 38
    457e:	68 e1       	ldi	r22, 0x18	; 24
    4580:	84 e2       	ldi	r24, 0x24	; 36
    4582:	0e 94 18 0c 	call	0x1830	; 0x1830 <LCD_12864_Draw_line>
		LCD_12864_Draw_line(36, 23, 38, 23);
    4586:	27 e1       	ldi	r18, 0x17	; 23
    4588:	46 e2       	ldi	r20, 0x26	; 38
    458a:	67 e1       	ldi	r22, 0x17	; 23
    458c:	84 e2       	ldi	r24, 0x24	; 36
    458e:	0e 94 18 0c 	call	0x1830	; 0x1830 <LCD_12864_Draw_line>
		LCD_12864_Draw_line(36, 22, 38, 22);
    4592:	26 e1       	ldi	r18, 0x16	; 22
    4594:	46 e2       	ldi	r20, 0x26	; 38
    4596:	66 e1       	ldi	r22, 0x16	; 22
    4598:	84 e2       	ldi	r24, 0x24	; 36
    459a:	0e 94 18 0c 	call	0x1830	; 0x1830 <LCD_12864_Draw_line>
    459e:	08 95       	ret
	}
	else if ((V_BAT(adc_value1) >= 3.8f) && (V_BAT(adc_value1) < 3.9f)) {
    45a0:	84 e8       	ldi	r24, 0x84	; 132
    45a2:	93 e0       	ldi	r25, 0x03	; 3
    45a4:	0e 94 fa 21 	call	0x43f4	; 0x43f4 <V_BAT>
    45a8:	23 e3       	ldi	r18, 0x33	; 51
    45aa:	33 e3       	ldi	r19, 0x33	; 51
    45ac:	43 e7       	ldi	r20, 0x73	; 115
    45ae:	50 e4       	ldi	r21, 0x40	; 64
    45b0:	0e 94 55 29 	call	0x52aa	; 0x52aa <__gesf2>
    45b4:	88 23       	and	r24, r24
    45b6:	2c f1       	brlt	.+74     	; 0x4602 <DrawBattery+0x192>
    45b8:	84 e8       	ldi	r24, 0x84	; 132
    45ba:	93 e0       	ldi	r25, 0x03	; 3
    45bc:	0e 94 fa 21 	call	0x43f4	; 0x43f4 <V_BAT>
    45c0:	2a e9       	ldi	r18, 0x9A	; 154
    45c2:	39 e9       	ldi	r19, 0x99	; 153
    45c4:	49 e7       	ldi	r20, 0x79	; 121
    45c6:	50 e4       	ldi	r21, 0x40	; 64
    45c8:	0e 94 f6 27 	call	0x4fec	; 0x4fec <__cmpsf2>
    45cc:	88 23       	and	r24, r24
    45ce:	cc f4       	brge	.+50     	; 0x4602 <DrawBattery+0x192>
		LCD_12864_Draw_line(36, 26, 38, 26);
    45d0:	2a e1       	ldi	r18, 0x1A	; 26
    45d2:	46 e2       	ldi	r20, 0x26	; 38
    45d4:	6a e1       	ldi	r22, 0x1A	; 26
    45d6:	84 e2       	ldi	r24, 0x24	; 36
    45d8:	0e 94 18 0c 	call	0x1830	; 0x1830 <LCD_12864_Draw_line>
		LCD_12864_Draw_line(36, 25, 38, 25);
    45dc:	29 e1       	ldi	r18, 0x19	; 25
    45de:	46 e2       	ldi	r20, 0x26	; 38
    45e0:	69 e1       	ldi	r22, 0x19	; 25
    45e2:	84 e2       	ldi	r24, 0x24	; 36
    45e4:	0e 94 18 0c 	call	0x1830	; 0x1830 <LCD_12864_Draw_line>
		LCD_12864_Draw_line(36, 24, 38, 24);
    45e8:	28 e1       	ldi	r18, 0x18	; 24
    45ea:	46 e2       	ldi	r20, 0x26	; 38
    45ec:	68 e1       	ldi	r22, 0x18	; 24
    45ee:	84 e2       	ldi	r24, 0x24	; 36
    45f0:	0e 94 18 0c 	call	0x1830	; 0x1830 <LCD_12864_Draw_line>
		LCD_12864_Draw_line(36, 23, 38, 23);
    45f4:	27 e1       	ldi	r18, 0x17	; 23
    45f6:	46 e2       	ldi	r20, 0x26	; 38
    45f8:	67 e1       	ldi	r22, 0x17	; 23
    45fa:	84 e2       	ldi	r24, 0x24	; 36
    45fc:	0e 94 18 0c 	call	0x1830	; 0x1830 <LCD_12864_Draw_line>
    4600:	08 95       	ret
	}
	else if ((V_BAT(adc_value1) >= 3.7f) && (V_BAT(adc_value1) < 3.8f)) {
    4602:	84 e8       	ldi	r24, 0x84	; 132
    4604:	93 e0       	ldi	r25, 0x03	; 3
    4606:	0e 94 fa 21 	call	0x43f4	; 0x43f4 <V_BAT>
    460a:	2d ec       	ldi	r18, 0xCD	; 205
    460c:	3c ec       	ldi	r19, 0xCC	; 204
    460e:	4c e6       	ldi	r20, 0x6C	; 108
    4610:	50 e4       	ldi	r21, 0x40	; 64
    4612:	0e 94 55 29 	call	0x52aa	; 0x52aa <__gesf2>
    4616:	88 23       	and	r24, r24
    4618:	fc f0       	brlt	.+62     	; 0x4658 <DrawBattery+0x1e8>
    461a:	84 e8       	ldi	r24, 0x84	; 132
    461c:	93 e0       	ldi	r25, 0x03	; 3
    461e:	0e 94 fa 21 	call	0x43f4	; 0x43f4 <V_BAT>
    4622:	23 e3       	ldi	r18, 0x33	; 51
    4624:	33 e3       	ldi	r19, 0x33	; 51
    4626:	43 e7       	ldi	r20, 0x73	; 115
    4628:	50 e4       	ldi	r21, 0x40	; 64
    462a:	0e 94 f6 27 	call	0x4fec	; 0x4fec <__cmpsf2>
    462e:	88 23       	and	r24, r24
    4630:	9c f4       	brge	.+38     	; 0x4658 <DrawBattery+0x1e8>
		LCD_12864_Draw_line(36, 26, 38, 26);
    4632:	2a e1       	ldi	r18, 0x1A	; 26
    4634:	46 e2       	ldi	r20, 0x26	; 38
    4636:	6a e1       	ldi	r22, 0x1A	; 26
    4638:	84 e2       	ldi	r24, 0x24	; 36
    463a:	0e 94 18 0c 	call	0x1830	; 0x1830 <LCD_12864_Draw_line>
		LCD_12864_Draw_line(36, 25, 38, 25);
    463e:	29 e1       	ldi	r18, 0x19	; 25
    4640:	46 e2       	ldi	r20, 0x26	; 38
    4642:	69 e1       	ldi	r22, 0x19	; 25
    4644:	84 e2       	ldi	r24, 0x24	; 36
    4646:	0e 94 18 0c 	call	0x1830	; 0x1830 <LCD_12864_Draw_line>
		LCD_12864_Draw_line(36, 24, 38, 24);
    464a:	28 e1       	ldi	r18, 0x18	; 24
    464c:	46 e2       	ldi	r20, 0x26	; 38
    464e:	68 e1       	ldi	r22, 0x18	; 24
    4650:	84 e2       	ldi	r24, 0x24	; 36
    4652:	0e 94 18 0c 	call	0x1830	; 0x1830 <LCD_12864_Draw_line>
    4656:	08 95       	ret
	}
	else if ((V_BAT(adc_value1) >= 3.6f) && (V_BAT(adc_value1) < 3.7f)) {
    4658:	84 e8       	ldi	r24, 0x84	; 132
    465a:	93 e0       	ldi	r25, 0x03	; 3
    465c:	0e 94 fa 21 	call	0x43f4	; 0x43f4 <V_BAT>
    4660:	26 e6       	ldi	r18, 0x66	; 102
    4662:	36 e6       	ldi	r19, 0x66	; 102
    4664:	46 e6       	ldi	r20, 0x66	; 102
    4666:	50 e4       	ldi	r21, 0x40	; 64
    4668:	0e 94 55 29 	call	0x52aa	; 0x52aa <__gesf2>
    466c:	88 23       	and	r24, r24
    466e:	cc f0       	brlt	.+50     	; 0x46a2 <DrawBattery+0x232>
    4670:	84 e8       	ldi	r24, 0x84	; 132
    4672:	93 e0       	ldi	r25, 0x03	; 3
    4674:	0e 94 fa 21 	call	0x43f4	; 0x43f4 <V_BAT>
    4678:	2d ec       	ldi	r18, 0xCD	; 205
    467a:	3c ec       	ldi	r19, 0xCC	; 204
    467c:	4c e6       	ldi	r20, 0x6C	; 108
    467e:	50 e4       	ldi	r21, 0x40	; 64
    4680:	0e 94 f6 27 	call	0x4fec	; 0x4fec <__cmpsf2>
    4684:	88 23       	and	r24, r24
    4686:	6c f4       	brge	.+26     	; 0x46a2 <DrawBattery+0x232>
		LCD_12864_Draw_line(36, 26, 38, 26);
    4688:	2a e1       	ldi	r18, 0x1A	; 26
    468a:	46 e2       	ldi	r20, 0x26	; 38
    468c:	6a e1       	ldi	r22, 0x1A	; 26
    468e:	84 e2       	ldi	r24, 0x24	; 36
    4690:	0e 94 18 0c 	call	0x1830	; 0x1830 <LCD_12864_Draw_line>
		LCD_12864_Draw_line(36, 25, 38, 25);
    4694:	29 e1       	ldi	r18, 0x19	; 25
    4696:	46 e2       	ldi	r20, 0x26	; 38
    4698:	69 e1       	ldi	r22, 0x19	; 25
    469a:	84 e2       	ldi	r24, 0x24	; 36
    469c:	0e 94 18 0c 	call	0x1830	; 0x1830 <LCD_12864_Draw_line>
    46a0:	08 95       	ret
	}
	else if ((V_BAT(adc_value1) >= 3.5f) && (V_BAT(adc_value1) < 3.6f)) {
    46a2:	84 e8       	ldi	r24, 0x84	; 132
    46a4:	93 e0       	ldi	r25, 0x03	; 3
    46a6:	0e 94 fa 21 	call	0x43f4	; 0x43f4 <V_BAT>
    46aa:	20 e0       	ldi	r18, 0x00	; 0
    46ac:	30 e0       	ldi	r19, 0x00	; 0
    46ae:	40 e6       	ldi	r20, 0x60	; 96
    46b0:	50 e4       	ldi	r21, 0x40	; 64
    46b2:	0e 94 55 29 	call	0x52aa	; 0x52aa <__gesf2>
    46b6:	88 23       	and	r24, r24
    46b8:	94 f0       	brlt	.+36     	; 0x46de <DrawBattery+0x26e>
    46ba:	84 e8       	ldi	r24, 0x84	; 132
    46bc:	93 e0       	ldi	r25, 0x03	; 3
    46be:	0e 94 fa 21 	call	0x43f4	; 0x43f4 <V_BAT>
    46c2:	26 e6       	ldi	r18, 0x66	; 102
    46c4:	36 e6       	ldi	r19, 0x66	; 102
    46c6:	46 e6       	ldi	r20, 0x66	; 102
    46c8:	50 e4       	ldi	r21, 0x40	; 64
    46ca:	0e 94 f6 27 	call	0x4fec	; 0x4fec <__cmpsf2>
    46ce:	88 23       	and	r24, r24
    46d0:	34 f4       	brge	.+12     	; 0x46de <DrawBattery+0x26e>
		LCD_12864_Draw_line(36, 26, 38, 26);
    46d2:	2a e1       	ldi	r18, 0x1A	; 26
    46d4:	46 e2       	ldi	r20, 0x26	; 38
    46d6:	6a e1       	ldi	r22, 0x1A	; 26
    46d8:	84 e2       	ldi	r24, 0x24	; 36
    46da:	0e 94 18 0c 	call	0x1830	; 0x1830 <LCD_12864_Draw_line>
    46de:	08 95       	ret

000046e0 <wind_speed>:
	
	return VBAT;
}
//Вычисление скорости ветра
float wind_speed (char *counter)
{
    46e0:	cf 93       	push	r28
    46e2:	df 93       	push	r29
    46e4:	00 d0       	rcall	.+0      	; 0x46e6 <wind_speed+0x6>
    46e6:	cd b7       	in	r28, 0x3d	; 61
    46e8:	de b7       	in	r29, 0x3e	; 62
	float RADIUS = 0.09;
	float speed = 0;
	int n;
	if (strlen(counter) != 0)
    46ea:	fc 01       	movw	r30, r24
    46ec:	20 81       	ld	r18, Z
    46ee:	22 23       	and	r18, r18
    46f0:	a1 f0       	breq	.+40     	; 0x471a <wind_speed+0x3a>
	{
		sscanf(counter, "%d", &n);
    46f2:	9e 01       	movw	r18, r28
    46f4:	2f 5f       	subi	r18, 0xFF	; 255
    46f6:	3f 4f       	sbci	r19, 0xFF	; 255
    46f8:	3f 93       	push	r19
    46fa:	2f 93       	push	r18
    46fc:	25 eb       	ldi	r18, 0xB5	; 181
    46fe:	32 e0       	ldi	r19, 0x02	; 2
    4700:	3f 93       	push	r19
    4702:	2f 93       	push	r18
    4704:	9f 93       	push	r25
    4706:	8f 93       	push	r24
    4708:	0e 94 50 2f 	call	0x5ea0	; 0x5ea0 <sscanf>
    470c:	0f 90       	pop	r0
    470e:	0f 90       	pop	r0
    4710:	0f 90       	pop	r0
    4712:	0f 90       	pop	r0
    4714:	0f 90       	pop	r0
    4716:	0f 90       	pop	r0
    4718:	02 c0       	rjmp	.+4      	; 0x471e <wind_speed+0x3e>
	}
	else
	{
		n = 0;
    471a:	1a 82       	std	Y+2, r1	; 0x02
    471c:	19 82       	std	Y+1, r1	; 0x01
	}
	speed = 2*3.14*RADIUS*n/4; //период 2 сек+2 магнита
    471e:	69 81       	ldd	r22, Y+1	; 0x01
    4720:	7a 81       	ldd	r23, Y+2	; 0x02
    4722:	07 2e       	mov	r0, r23
    4724:	00 0c       	add	r0, r0
    4726:	88 0b       	sbc	r24, r24
    4728:	99 0b       	sbc	r25, r25
    472a:	0e 94 a5 28 	call	0x514a	; 0x514a <__floatsisf>
    472e:	23 ef       	ldi	r18, 0xF3	; 243
    4730:	30 eb       	ldi	r19, 0xB0	; 176
    4732:	40 e1       	ldi	r20, 0x10	; 16
    4734:	5f e3       	ldi	r21, 0x3F	; 63
    4736:	0e 94 5a 29 	call	0x52b4	; 0x52b4 <__mulsf3>
    473a:	20 e0       	ldi	r18, 0x00	; 0
    473c:	30 e0       	ldi	r19, 0x00	; 0
    473e:	40 e8       	ldi	r20, 0x80	; 128
    4740:	5e e3       	ldi	r21, 0x3E	; 62
    4742:	0e 94 5a 29 	call	0x52b4	; 0x52b4 <__mulsf3>
	
	return speed;
    4746:	0f 90       	pop	r0
    4748:	0f 90       	pop	r0
    474a:	df 91       	pop	r29
    474c:	cf 91       	pop	r28
    474e:	08 95       	ret

00004750 <Print_Home_Page>:
	}	
	LCD_12864_GrapnicMode(0);
}
//Главное окно
void Print_Home_Page(uint8_t *Frame_buffer)
{
    4750:	0f 93       	push	r16
    4752:	1f 93       	push	r17
    4754:	cf 93       	push	r28
    4756:	df 93       	push	r29
    4758:	8c 01       	movw	r16, r24
	LCD_12864_GrapnicMode(1);
    475a:	81 e0       	ldi	r24, 0x01	; 1
    475c:	0e 94 c9 07 	call	0xf92	; 0xf92 <LCD_12864_GrapnicMode>
	LCD_12864_Clean_Frame_buffer();
    4760:	0e 94 0d 0c 	call	0x181a	; 0x181a <LCD_12864_Clean_Frame_buffer>
	//-----------Вывод времени/даты-------------------------------//
	Clock();
    4764:	0e 94 7f 21 	call	0x42fe	; 0x42fe <Clock>
	sprintf(TIME,"%s:%s",hours, minutes);
    4768:	82 e1       	ldi	r24, 0x12	; 18
    476a:	98 e0       	ldi	r25, 0x08	; 8
    476c:	9f 93       	push	r25
    476e:	8f 93       	push	r24
    4770:	86 e1       	ldi	r24, 0x16	; 22
    4772:	98 e0       	ldi	r25, 0x08	; 8
    4774:	9f 93       	push	r25
    4776:	8f 93       	push	r24
    4778:	84 ed       	ldi	r24, 0xD4	; 212
    477a:	92 e0       	ldi	r25, 0x02	; 2
    477c:	9f 93       	push	r25
    477e:	8f 93       	push	r24
    4780:	85 ee       	ldi	r24, 0xE5	; 229
    4782:	97 e0       	ldi	r25, 0x07	; 7
    4784:	9f 93       	push	r25
    4786:	8f 93       	push	r24
    4788:	0e 94 2e 2f 	call	0x5e5c	; 0x5e5c <sprintf>
	LCD_12864_Print_11_16(2, 0, 0, TIME);
    478c:	25 ee       	ldi	r18, 0xE5	; 229
    478e:	37 e0       	ldi	r19, 0x07	; 7
    4790:	40 e0       	ldi	r20, 0x00	; 0
    4792:	60 e0       	ldi	r22, 0x00	; 0
    4794:	82 e0       	ldi	r24, 0x02	; 2
    4796:	90 e0       	ldi	r25, 0x00	; 0
    4798:	0e 94 30 0b 	call	0x1660	; 0x1660 <LCD_12864_Print_11_16>
	LCD_12864_Decode_UTF8(63, 0, 0, seconds);
    479c:	2f ef       	ldi	r18, 0xFF	; 255
    479e:	37 e0       	ldi	r19, 0x07	; 7
    47a0:	40 e0       	ldi	r20, 0x00	; 0
    47a2:	60 e0       	ldi	r22, 0x00	; 0
    47a4:	8f e3       	ldi	r24, 0x3F	; 63
    47a6:	90 e0       	ldi	r25, 0x00	; 0
    47a8:	0e 94 6b 0b 	call	0x16d6	; 0x16d6 <LCD_12864_Decode_UTF8>
	LCD_12864_Decode_UTF8(61, 1, 0, weakday);
    47ac:	2f ee       	ldi	r18, 0xEF	; 239
    47ae:	37 e0       	ldi	r19, 0x07	; 7
    47b0:	40 e0       	ldi	r20, 0x00	; 0
    47b2:	61 e0       	ldi	r22, 0x01	; 1
    47b4:	8d e3       	ldi	r24, 0x3D	; 61
    47b6:	90 e0       	ldi	r25, 0x00	; 0
    47b8:	0e 94 6b 0b 	call	0x16d6	; 0x16d6 <LCD_12864_Decode_UTF8>
	LCD_12864_Decode_UTF8(73, 1, 0, ",");
    47bc:	20 ed       	ldi	r18, 0xD0	; 208
    47be:	32 e0       	ldi	r19, 0x02	; 2
    47c0:	40 e0       	ldi	r20, 0x00	; 0
    47c2:	61 e0       	ldi	r22, 0x01	; 1
    47c4:	89 e4       	ldi	r24, 0x49	; 73
    47c6:	90 e0       	ldi	r25, 0x00	; 0
    47c8:	0e 94 6b 0b 	call	0x16d6	; 0x16d6 <LCD_12864_Decode_UTF8>
	LCD_12864_Decode_UTF8(76, 1, 0, mounthday);
    47cc:	28 e0       	ldi	r18, 0x08	; 8
    47ce:	38 e0       	ldi	r19, 0x08	; 8
    47d0:	40 e0       	ldi	r20, 0x00	; 0
    47d2:	61 e0       	ldi	r22, 0x01	; 1
    47d4:	8c e4       	ldi	r24, 0x4C	; 76
    47d6:	90 e0       	ldi	r25, 0x00	; 0
    47d8:	0e 94 6b 0b 	call	0x16d6	; 0x16d6 <LCD_12864_Decode_UTF8>
	LCD_12864_Decode_UTF8(88, 1, 0, "/");
    47dc:	22 ed       	ldi	r18, 0xD2	; 210
    47de:	32 e0       	ldi	r19, 0x02	; 2
    47e0:	40 e0       	ldi	r20, 0x00	; 0
    47e2:	61 e0       	ldi	r22, 0x01	; 1
    47e4:	88 e5       	ldi	r24, 0x58	; 88
    47e6:	90 e0       	ldi	r25, 0x00	; 0
    47e8:	0e 94 6b 0b 	call	0x16d6	; 0x16d6 <LCD_12864_Decode_UTF8>
	LCD_12864_Decode_UTF8(93, 1, 0, Mounth);
    47ec:	28 ef       	ldi	r18, 0xF8	; 248
    47ee:	37 e0       	ldi	r19, 0x07	; 7
    47f0:	40 e0       	ldi	r20, 0x00	; 0
    47f2:	61 e0       	ldi	r22, 0x01	; 1
    47f4:	8d e5       	ldi	r24, 0x5D	; 93
    47f6:	90 e0       	ldi	r25, 0x00	; 0
    47f8:	0e 94 6b 0b 	call	0x16d6	; 0x16d6 <LCD_12864_Decode_UTF8>
	LCD_12864_Decode_UTF8(111, 1, 0, "/");
    47fc:	22 ed       	ldi	r18, 0xD2	; 210
    47fe:	32 e0       	ldi	r19, 0x02	; 2
    4800:	40 e0       	ldi	r20, 0x00	; 0
    4802:	61 e0       	ldi	r22, 0x01	; 1
    4804:	8f e6       	ldi	r24, 0x6F	; 111
    4806:	90 e0       	ldi	r25, 0x00	; 0
    4808:	0e 94 6b 0b 	call	0x16d6	; 0x16d6 <LCD_12864_Decode_UTF8>
	LCD_12864_Decode_UTF8(116, 1, 0, Year);
    480c:	24 e0       	ldi	r18, 0x04	; 4
    480e:	38 e0       	ldi	r19, 0x08	; 8
    4810:	40 e0       	ldi	r20, 0x00	; 0
    4812:	61 e0       	ldi	r22, 0x01	; 1
    4814:	84 e7       	ldi	r24, 0x74	; 116
    4816:	90 e0       	ldi	r25, 0x00	; 0
    4818:	0e 94 6b 0b 	call	0x16d6	; 0x16d6 <LCD_12864_Decode_UTF8>
	//-----------Вывод уровня приема сигнала----------------------//
	LCD_12864_Draw_pixel(82, 6);
    481c:	66 e0       	ldi	r22, 0x06	; 6
    481e:	82 e5       	ldi	r24, 0x52	; 82
    4820:	0e 94 c6 06 	call	0xd8c	; 0xd8c <LCD_12864_Draw_pixel>
	LCD_12864_Draw_pixel(82, 5);
    4824:	65 e0       	ldi	r22, 0x05	; 5
    4826:	82 e5       	ldi	r24, 0x52	; 82
    4828:	0e 94 c6 06 	call	0xd8c	; 0xd8c <LCD_12864_Draw_pixel>
	LCD_12864_Draw_pixel(82, 4);
    482c:	64 e0       	ldi	r22, 0x04	; 4
    482e:	82 e5       	ldi	r24, 0x52	; 82
    4830:	0e 94 c6 06 	call	0xd8c	; 0xd8c <LCD_12864_Draw_pixel>
	LCD_12864_Draw_pixel(82, 3);
    4834:	63 e0       	ldi	r22, 0x03	; 3
    4836:	82 e5       	ldi	r24, 0x52	; 82
    4838:	0e 94 c6 06 	call	0xd8c	; 0xd8c <LCD_12864_Draw_pixel>
	LCD_12864_Draw_pixel(82, 2);
    483c:	62 e0       	ldi	r22, 0x02	; 2
    483e:	82 e5       	ldi	r24, 0x52	; 82
    4840:	0e 94 c6 06 	call	0xd8c	; 0xd8c <LCD_12864_Draw_pixel>
	LCD_12864_Draw_pixel(82, 1);
    4844:	61 e0       	ldi	r22, 0x01	; 1
    4846:	82 e5       	ldi	r24, 0x52	; 82
    4848:	0e 94 c6 06 	call	0xd8c	; 0xd8c <LCD_12864_Draw_pixel>
	LCD_12864_Draw_pixel(82, 0);
    484c:	60 e0       	ldi	r22, 0x00	; 0
    484e:	82 e5       	ldi	r24, 0x52	; 82
    4850:	0e 94 c6 06 	call	0xd8c	; 0xd8c <LCD_12864_Draw_pixel>
	LCD_12864_Draw_pixel(83, 0);
    4854:	60 e0       	ldi	r22, 0x00	; 0
    4856:	83 e5       	ldi	r24, 0x53	; 83
    4858:	0e 94 c6 06 	call	0xd8c	; 0xd8c <LCD_12864_Draw_pixel>
	LCD_12864_Draw_pixel(84, 0);
    485c:	60 e0       	ldi	r22, 0x00	; 0
    485e:	84 e5       	ldi	r24, 0x54	; 84
    4860:	0e 94 c6 06 	call	0xd8c	; 0xd8c <LCD_12864_Draw_pixel>
	LCD_12864_Draw_pixel(85, 0);
    4864:	60 e0       	ldi	r22, 0x00	; 0
    4866:	85 e5       	ldi	r24, 0x55	; 85
    4868:	0e 94 c6 06 	call	0xd8c	; 0xd8c <LCD_12864_Draw_pixel>
	LCD_12864_Draw_pixel(81, 0);
    486c:	60 e0       	ldi	r22, 0x00	; 0
    486e:	81 e5       	ldi	r24, 0x51	; 81
    4870:	0e 94 c6 06 	call	0xd8c	; 0xd8c <LCD_12864_Draw_pixel>
	LCD_12864_Draw_pixel(80, 0);
    4874:	60 e0       	ldi	r22, 0x00	; 0
    4876:	80 e5       	ldi	r24, 0x50	; 80
    4878:	0e 94 c6 06 	call	0xd8c	; 0xd8c <LCD_12864_Draw_pixel>
	LCD_12864_Draw_pixel(79, 0);
    487c:	60 e0       	ldi	r22, 0x00	; 0
    487e:	8f e4       	ldi	r24, 0x4F	; 79
    4880:	0e 94 c6 06 	call	0xd8c	; 0xd8c <LCD_12864_Draw_pixel>
	LCD_12864_Draw_pixel(80, 1);
    4884:	61 e0       	ldi	r22, 0x01	; 1
    4886:	80 e5       	ldi	r24, 0x50	; 80
    4888:	0e 94 c6 06 	call	0xd8c	; 0xd8c <LCD_12864_Draw_pixel>
	LCD_12864_Draw_pixel(81, 2);
    488c:	62 e0       	ldi	r22, 0x02	; 2
    488e:	81 e5       	ldi	r24, 0x51	; 81
    4890:	0e 94 c6 06 	call	0xd8c	; 0xd8c <LCD_12864_Draw_pixel>
	LCD_12864_Draw_pixel(82, 3);
    4894:	63 e0       	ldi	r22, 0x03	; 3
    4896:	82 e5       	ldi	r24, 0x52	; 82
    4898:	0e 94 c6 06 	call	0xd8c	; 0xd8c <LCD_12864_Draw_pixel>
	LCD_12864_Draw_pixel(84, 1);
    489c:	61 e0       	ldi	r22, 0x01	; 1
    489e:	84 e5       	ldi	r24, 0x54	; 84
    48a0:	0e 94 c6 06 	call	0xd8c	; 0xd8c <LCD_12864_Draw_pixel>
	LCD_12864_Draw_pixel(83, 2);
    48a4:	62 e0       	ldi	r22, 0x02	; 2
    48a6:	83 e5       	ldi	r24, 0x53	; 83
    48a8:	0e 94 c6 06 	call	0xd8c	; 0xd8c <LCD_12864_Draw_pixel>
	switch (receive_counter)
    48ac:	2d b7       	in	r18, 0x3d	; 61
    48ae:	3e b7       	in	r19, 0x3e	; 62
    48b0:	28 5f       	subi	r18, 0xF8	; 248
    48b2:	3f 4f       	sbci	r19, 0xFF	; 255
    48b4:	0f b6       	in	r0, 0x3f	; 63
    48b6:	f8 94       	cli
    48b8:	3e bf       	out	0x3e, r19	; 62
    48ba:	0f be       	out	0x3f, r0	; 63
    48bc:	2d bf       	out	0x3d, r18	; 61
    48be:	80 91 ac 07 	lds	r24, 0x07AC	; 0x8007ac <receive_counter>
    48c2:	83 30       	cpi	r24, 0x03	; 3
    48c4:	11 f1       	breq	.+68     	; 0x490a <Print_Home_Page+0x1ba>
    48c6:	28 f4       	brcc	.+10     	; 0x48d2 <Print_Home_Page+0x182>
    48c8:	81 30       	cpi	r24, 0x01	; 1
    48ca:	59 f0       	breq	.+22     	; 0x48e2 <Print_Home_Page+0x192>
    48cc:	82 30       	cpi	r24, 0x02	; 2
    48ce:	81 f0       	breq	.+32     	; 0x48f0 <Print_Home_Page+0x1a0>
    48d0:	8b c0       	rjmp	.+278    	; 0x49e8 <Print_Home_Page+0x298>
    48d2:	85 30       	cpi	r24, 0x05	; 5
    48d4:	09 f4       	brne	.+2      	; 0x48d8 <Print_Home_Page+0x188>
    48d6:	45 c0       	rjmp	.+138    	; 0x4962 <Print_Home_Page+0x212>
    48d8:	58 f1       	brcs	.+86     	; 0x4930 <Print_Home_Page+0x1e0>
    48da:	86 30       	cpi	r24, 0x06	; 6
    48dc:	09 f4       	brne	.+2      	; 0x48e0 <Print_Home_Page+0x190>
    48de:	60 c0       	rjmp	.+192    	; 0x49a0 <Print_Home_Page+0x250>
    48e0:	83 c0       	rjmp	.+262    	; 0x49e8 <Print_Home_Page+0x298>
	{
		case 1: LCD_12864_Draw_line(84, 6, 84, 6);
    48e2:	26 e0       	ldi	r18, 0x06	; 6
    48e4:	44 e5       	ldi	r20, 0x54	; 84
    48e6:	66 e0       	ldi	r22, 0x06	; 6
    48e8:	84 e5       	ldi	r24, 0x54	; 84
    48ea:	0e 94 18 0c 	call	0x1830	; 0x1830 <LCD_12864_Draw_line>
				break;
    48ee:	7c c0       	rjmp	.+248    	; 0x49e8 <Print_Home_Page+0x298>
		case 2: LCD_12864_Draw_line(84, 6, 84, 6);
    48f0:	26 e0       	ldi	r18, 0x06	; 6
    48f2:	44 e5       	ldi	r20, 0x54	; 84
    48f4:	66 e0       	ldi	r22, 0x06	; 6
    48f6:	84 e5       	ldi	r24, 0x54	; 84
    48f8:	0e 94 18 0c 	call	0x1830	; 0x1830 <LCD_12864_Draw_line>
				LCD_12864_Draw_line(86, 6, 86, 5);
    48fc:	25 e0       	ldi	r18, 0x05	; 5
    48fe:	46 e5       	ldi	r20, 0x56	; 86
    4900:	66 e0       	ldi	r22, 0x06	; 6
    4902:	86 e5       	ldi	r24, 0x56	; 86
    4904:	0e 94 18 0c 	call	0x1830	; 0x1830 <LCD_12864_Draw_line>
				break;
    4908:	6f c0       	rjmp	.+222    	; 0x49e8 <Print_Home_Page+0x298>
		case 3: LCD_12864_Draw_line(84, 6, 84, 6);
    490a:	26 e0       	ldi	r18, 0x06	; 6
    490c:	44 e5       	ldi	r20, 0x54	; 84
    490e:	66 e0       	ldi	r22, 0x06	; 6
    4910:	84 e5       	ldi	r24, 0x54	; 84
    4912:	0e 94 18 0c 	call	0x1830	; 0x1830 <LCD_12864_Draw_line>
		        LCD_12864_Draw_line(86, 6, 86, 5);
    4916:	25 e0       	ldi	r18, 0x05	; 5
    4918:	46 e5       	ldi	r20, 0x56	; 86
    491a:	66 e0       	ldi	r22, 0x06	; 6
    491c:	86 e5       	ldi	r24, 0x56	; 86
    491e:	0e 94 18 0c 	call	0x1830	; 0x1830 <LCD_12864_Draw_line>
				LCD_12864_Draw_line(88, 6, 88, 4);
    4922:	24 e0       	ldi	r18, 0x04	; 4
    4924:	48 e5       	ldi	r20, 0x58	; 88
    4926:	66 e0       	ldi	r22, 0x06	; 6
    4928:	88 e5       	ldi	r24, 0x58	; 88
    492a:	0e 94 18 0c 	call	0x1830	; 0x1830 <LCD_12864_Draw_line>
				break;
    492e:	5c c0       	rjmp	.+184    	; 0x49e8 <Print_Home_Page+0x298>
		case 4: LCD_12864_Draw_line(84, 6, 84, 6);
    4930:	26 e0       	ldi	r18, 0x06	; 6
    4932:	44 e5       	ldi	r20, 0x54	; 84
    4934:	66 e0       	ldi	r22, 0x06	; 6
    4936:	84 e5       	ldi	r24, 0x54	; 84
    4938:	0e 94 18 0c 	call	0x1830	; 0x1830 <LCD_12864_Draw_line>
				LCD_12864_Draw_line(86, 6, 86, 5);
    493c:	25 e0       	ldi	r18, 0x05	; 5
    493e:	46 e5       	ldi	r20, 0x56	; 86
    4940:	66 e0       	ldi	r22, 0x06	; 6
    4942:	86 e5       	ldi	r24, 0x56	; 86
    4944:	0e 94 18 0c 	call	0x1830	; 0x1830 <LCD_12864_Draw_line>
				LCD_12864_Draw_line(88, 6, 88, 4);
    4948:	24 e0       	ldi	r18, 0x04	; 4
    494a:	48 e5       	ldi	r20, 0x58	; 88
    494c:	66 e0       	ldi	r22, 0x06	; 6
    494e:	88 e5       	ldi	r24, 0x58	; 88
    4950:	0e 94 18 0c 	call	0x1830	; 0x1830 <LCD_12864_Draw_line>
				LCD_12864_Draw_line(90, 6, 90, 3);
    4954:	23 e0       	ldi	r18, 0x03	; 3
    4956:	4a e5       	ldi	r20, 0x5A	; 90
    4958:	66 e0       	ldi	r22, 0x06	; 6
    495a:	8a e5       	ldi	r24, 0x5A	; 90
    495c:	0e 94 18 0c 	call	0x1830	; 0x1830 <LCD_12864_Draw_line>
				break;
    4960:	43 c0       	rjmp	.+134    	; 0x49e8 <Print_Home_Page+0x298>
		case 5: LCD_12864_Draw_line(84, 6, 84, 6);
    4962:	26 e0       	ldi	r18, 0x06	; 6
    4964:	44 e5       	ldi	r20, 0x54	; 84
    4966:	66 e0       	ldi	r22, 0x06	; 6
    4968:	84 e5       	ldi	r24, 0x54	; 84
    496a:	0e 94 18 0c 	call	0x1830	; 0x1830 <LCD_12864_Draw_line>
				LCD_12864_Draw_line(86, 6, 86, 5);
    496e:	25 e0       	ldi	r18, 0x05	; 5
    4970:	46 e5       	ldi	r20, 0x56	; 86
    4972:	66 e0       	ldi	r22, 0x06	; 6
    4974:	86 e5       	ldi	r24, 0x56	; 86
    4976:	0e 94 18 0c 	call	0x1830	; 0x1830 <LCD_12864_Draw_line>
				LCD_12864_Draw_line(88, 6, 88, 4);
    497a:	24 e0       	ldi	r18, 0x04	; 4
    497c:	48 e5       	ldi	r20, 0x58	; 88
    497e:	66 e0       	ldi	r22, 0x06	; 6
    4980:	88 e5       	ldi	r24, 0x58	; 88
    4982:	0e 94 18 0c 	call	0x1830	; 0x1830 <LCD_12864_Draw_line>
				LCD_12864_Draw_line(90, 6, 90, 3);
    4986:	23 e0       	ldi	r18, 0x03	; 3
    4988:	4a e5       	ldi	r20, 0x5A	; 90
    498a:	66 e0       	ldi	r22, 0x06	; 6
    498c:	8a e5       	ldi	r24, 0x5A	; 90
    498e:	0e 94 18 0c 	call	0x1830	; 0x1830 <LCD_12864_Draw_line>
				LCD_12864_Draw_line(92, 6, 92, 2);
    4992:	22 e0       	ldi	r18, 0x02	; 2
    4994:	4c e5       	ldi	r20, 0x5C	; 92
    4996:	66 e0       	ldi	r22, 0x06	; 6
    4998:	8c e5       	ldi	r24, 0x5C	; 92
    499a:	0e 94 18 0c 	call	0x1830	; 0x1830 <LCD_12864_Draw_line>
				break;
    499e:	24 c0       	rjmp	.+72     	; 0x49e8 <Print_Home_Page+0x298>
		case 6: LCD_12864_Draw_line(84, 6, 84, 6);
    49a0:	26 e0       	ldi	r18, 0x06	; 6
    49a2:	44 e5       	ldi	r20, 0x54	; 84
    49a4:	66 e0       	ldi	r22, 0x06	; 6
    49a6:	84 e5       	ldi	r24, 0x54	; 84
    49a8:	0e 94 18 0c 	call	0x1830	; 0x1830 <LCD_12864_Draw_line>
				LCD_12864_Draw_line(86, 6, 86, 5);
    49ac:	25 e0       	ldi	r18, 0x05	; 5
    49ae:	46 e5       	ldi	r20, 0x56	; 86
    49b0:	66 e0       	ldi	r22, 0x06	; 6
    49b2:	86 e5       	ldi	r24, 0x56	; 86
    49b4:	0e 94 18 0c 	call	0x1830	; 0x1830 <LCD_12864_Draw_line>
				LCD_12864_Draw_line(88, 6, 88, 4);
    49b8:	24 e0       	ldi	r18, 0x04	; 4
    49ba:	48 e5       	ldi	r20, 0x58	; 88
    49bc:	66 e0       	ldi	r22, 0x06	; 6
    49be:	88 e5       	ldi	r24, 0x58	; 88
    49c0:	0e 94 18 0c 	call	0x1830	; 0x1830 <LCD_12864_Draw_line>
				LCD_12864_Draw_line(90, 6, 90, 3);
    49c4:	23 e0       	ldi	r18, 0x03	; 3
    49c6:	4a e5       	ldi	r20, 0x5A	; 90
    49c8:	66 e0       	ldi	r22, 0x06	; 6
    49ca:	8a e5       	ldi	r24, 0x5A	; 90
    49cc:	0e 94 18 0c 	call	0x1830	; 0x1830 <LCD_12864_Draw_line>
				LCD_12864_Draw_line(92, 6, 92, 2);
    49d0:	22 e0       	ldi	r18, 0x02	; 2
    49d2:	4c e5       	ldi	r20, 0x5C	; 92
    49d4:	66 e0       	ldi	r22, 0x06	; 6
    49d6:	8c e5       	ldi	r24, 0x5C	; 92
    49d8:	0e 94 18 0c 	call	0x1830	; 0x1830 <LCD_12864_Draw_line>
				LCD_12864_Draw_line(94, 6, 94, 1);
    49dc:	21 e0       	ldi	r18, 0x01	; 1
    49de:	4e e5       	ldi	r20, 0x5E	; 94
    49e0:	66 e0       	ldi	r22, 0x06	; 6
    49e2:	8e e5       	ldi	r24, 0x5E	; 94
    49e4:	0e 94 18 0c 	call	0x1830	; 0x1830 <LCD_12864_Draw_line>
				break;
	}
	//-----------Вывод уличных показателей-----------------------//
	sprintf(Rain,"%.2f",RAIN_AMOUNT(adc_value2));
    49e8:	8f e7       	ldi	r24, 0x7F	; 127
    49ea:	93 e0       	ldi	r25, 0x03	; 3
    49ec:	0e 94 bd 21 	call	0x437a	; 0x437a <RAIN_AMOUNT>
    49f0:	9f 93       	push	r25
    49f2:	8f 93       	push	r24
    49f4:	7f 93       	push	r23
    49f6:	6f 93       	push	r22
    49f8:	ca ed       	ldi	r28, 0xDA	; 218
    49fa:	d2 e0       	ldi	r29, 0x02	; 2
    49fc:	df 93       	push	r29
    49fe:	cf 93       	push	r28
    4a00:	85 e7       	ldi	r24, 0x75	; 117
    4a02:	93 e0       	ldi	r25, 0x03	; 3
    4a04:	9f 93       	push	r25
    4a06:	8f 93       	push	r24
    4a08:	0e 94 2e 2f 	call	0x5e5c	; 0x5e5c <sprintf>
	LCD_12864_Decode_UTF8(30, 4, 0, "°C");
    4a0c:	2f ed       	ldi	r18, 0xDF	; 223
    4a0e:	32 e0       	ldi	r19, 0x02	; 2
    4a10:	40 e0       	ldi	r20, 0x00	; 0
    4a12:	64 e0       	ldi	r22, 0x04	; 4
    4a14:	8e e1       	ldi	r24, 0x1E	; 30
    4a16:	90 e0       	ldi	r25, 0x00	; 0
    4a18:	0e 94 6b 0b 	call	0x16d6	; 0x16d6 <LCD_12864_Decode_UTF8>
	LCD_12864_Decode_UTF8(58, 4, 0, "%");
    4a1c:	22 ee       	ldi	r18, 0xE2	; 226
    4a1e:	32 e0       	ldi	r19, 0x02	; 2
    4a20:	40 e0       	ldi	r20, 0x00	; 0
    4a22:	64 e0       	ldi	r22, 0x04	; 4
    4a24:	8a e3       	ldi	r24, 0x3A	; 58
    4a26:	90 e0       	ldi	r25, 0x00	; 0
    4a28:	0e 94 6b 0b 	call	0x16d6	; 0x16d6 <LCD_12864_Decode_UTF8>
	LCD_12864_Print_7_11(1, 3, 0, temp_street);
    4a2c:	27 ea       	ldi	r18, 0xA7	; 167
    4a2e:	33 e0       	ldi	r19, 0x03	; 3
    4a30:	40 e0       	ldi	r20, 0x00	; 0
    4a32:	63 e0       	ldi	r22, 0x03	; 3
    4a34:	81 e0       	ldi	r24, 0x01	; 1
    4a36:	90 e0       	ldi	r25, 0x00	; 0
    4a38:	0e 94 92 0a 	call	0x1524	; 0x1524 <LCD_12864_Print_7_11>
	LCD_12864_Print_7_11(43, 3, 0, hum_street);
    4a3c:	22 ea       	ldi	r18, 0xA2	; 162
    4a3e:	33 e0       	ldi	r19, 0x03	; 3
    4a40:	40 e0       	ldi	r20, 0x00	; 0
    4a42:	63 e0       	ldi	r22, 0x03	; 3
    4a44:	8b e2       	ldi	r24, 0x2B	; 43
    4a46:	90 e0       	ldi	r25, 0x00	; 0
    4a48:	0e 94 92 0a 	call	0x1524	; 0x1524 <LCD_12864_Print_7_11>
	sprintf(Vbat,"%.2f",V_BAT(adc_value1));
    4a4c:	84 e8       	ldi	r24, 0x84	; 132
    4a4e:	93 e0       	ldi	r25, 0x03	; 3
    4a50:	0e 94 fa 21 	call	0x43f4	; 0x43f4 <V_BAT>
    4a54:	9f 93       	push	r25
    4a56:	8f 93       	push	r24
    4a58:	7f 93       	push	r23
    4a5a:	6f 93       	push	r22
    4a5c:	df 93       	push	r29
    4a5e:	cf 93       	push	r28
    4a60:	8a e7       	ldi	r24, 0x7A	; 122
    4a62:	93 e0       	ldi	r25, 0x03	; 3
    4a64:	9f 93       	push	r25
    4a66:	8f 93       	push	r24
    4a68:	0e 94 2e 2f 	call	0x5e5c	; 0x5e5c <sprintf>
	LCD_12864_Print_4_6(44, 2, 0, Vbat);
    4a6c:	2a e7       	ldi	r18, 0x7A	; 122
    4a6e:	33 e0       	ldi	r19, 0x03	; 3
    4a70:	40 e0       	ldi	r20, 0x00	; 0
    4a72:	62 e0       	ldi	r22, 0x02	; 2
    4a74:	8c e2       	ldi	r24, 0x2C	; 44
    4a76:	90 e0       	ldi	r25, 0x00	; 0
    4a78:	0e 94 e1 0a 	call	0x15c2	; 0x15c2 <LCD_12864_Print_4_6>
	sprintf(WIND_speed,"%.2f", wind_speed (HALL_counter));
    4a7c:	83 e9       	ldi	r24, 0x93	; 147
    4a7e:	93 e0       	ldi	r25, 0x03	; 3
    4a80:	0e 94 70 23 	call	0x46e0	; 0x46e0 <wind_speed>
    4a84:	9f 93       	push	r25
    4a86:	8f 93       	push	r24
    4a88:	7f 93       	push	r23
    4a8a:	6f 93       	push	r22
    4a8c:	df 93       	push	r29
    4a8e:	cf 93       	push	r28
    4a90:	8e e8       	ldi	r24, 0x8E	; 142
    4a92:	93 e0       	ldi	r25, 0x03	; 3
    4a94:	9f 93       	push	r25
    4a96:	8f 93       	push	r24
    4a98:	0e 94 2e 2f 	call	0x5e5c	; 0x5e5c <sprintf>
	LCD_12864_Print_4_6(26, 5, 0, WIND_speed);
    4a9c:	2e e8       	ldi	r18, 0x8E	; 142
    4a9e:	33 e0       	ldi	r19, 0x03	; 3
    4aa0:	40 e0       	ldi	r20, 0x00	; 0
    4aa2:	65 e0       	ldi	r22, 0x05	; 5
    4aa4:	8a e1       	ldi	r24, 0x1A	; 26
    4aa6:	90 e0       	ldi	r25, 0x00	; 0
    4aa8:	0e 94 e1 0a 	call	0x15c2	; 0x15c2 <LCD_12864_Print_4_6>
	LCD_12864_Decode_UTF8(45, 5, 0, "м/с");
    4aac:	24 ee       	ldi	r18, 0xE4	; 228
    4aae:	32 e0       	ldi	r19, 0x02	; 2
    4ab0:	40 e0       	ldi	r20, 0x00	; 0
    4ab2:	65 e0       	ldi	r22, 0x05	; 5
    4ab4:	8d e2       	ldi	r24, 0x2D	; 45
    4ab6:	90 e0       	ldi	r25, 0x00	; 0
    4ab8:	0e 94 6b 0b 	call	0x16d6	; 0x16d6 <LCD_12864_Decode_UTF8>
	LCD_12864_Decode_UTF8(30, 6, 0, "осадки");
    4abc:	28 ee       	ldi	r18, 0xE8	; 232
    4abe:	32 e0       	ldi	r19, 0x02	; 2
    4ac0:	40 e0       	ldi	r20, 0x00	; 0
    4ac2:	66 e0       	ldi	r22, 0x06	; 6
    4ac4:	8e e1       	ldi	r24, 0x1E	; 30
    4ac6:	90 e0       	ldi	r25, 0x00	; 0
    4ac8:	0e 94 6b 0b 	call	0x16d6	; 0x16d6 <LCD_12864_Decode_UTF8>
	LCD_12864_Draw_line(27, 52, 24, 52);
    4acc:	24 e3       	ldi	r18, 0x34	; 52
    4ace:	48 e1       	ldi	r20, 0x18	; 24
    4ad0:	64 e3       	ldi	r22, 0x34	; 52
    4ad2:	8b e1       	ldi	r24, 0x1B	; 27
    4ad4:	0e 94 18 0c 	call	0x1830	; 0x1830 <LCD_12864_Draw_line>
	LCD_12864_Draw_line(24, 52, 24, 59);
    4ad8:	2b e3       	ldi	r18, 0x3B	; 59
    4ada:	48 e1       	ldi	r20, 0x18	; 24
    4adc:	64 e3       	ldi	r22, 0x34	; 52
    4ade:	88 e1       	ldi	r24, 0x18	; 24
    4ae0:	0e 94 18 0c 	call	0x1830	; 0x1830 <LCD_12864_Draw_line>
	LCD_12864_Draw_line(24, 59, 28, 59);
    4ae4:	2b e3       	ldi	r18, 0x3B	; 59
    4ae6:	4c e1       	ldi	r20, 0x1C	; 28
    4ae8:	6b e3       	ldi	r22, 0x3B	; 59
    4aea:	88 e1       	ldi	r24, 0x18	; 24
    4aec:	0e 94 18 0c 	call	0x1830	; 0x1830 <LCD_12864_Draw_line>
	LCD_12864_Draw_pixel(27, 58);
    4af0:	6a e3       	ldi	r22, 0x3A	; 58
    4af2:	8b e1       	ldi	r24, 0x1B	; 27
    4af4:	0e 94 c6 06 	call	0xd8c	; 0xd8c <LCD_12864_Draw_pixel>
	LCD_12864_Draw_pixel(27, 60);
    4af8:	6c e3       	ldi	r22, 0x3C	; 60
    4afa:	8b e1       	ldi	r24, 0x1B	; 27
    4afc:	0e 94 c6 06 	call	0xd8c	; 0xd8c <LCD_12864_Draw_pixel>
	LCD_12864_Draw_pixel(26, 57);
    4b00:	69 e3       	ldi	r22, 0x39	; 57
    4b02:	8a e1       	ldi	r24, 0x1A	; 26
    4b04:	0e 94 c6 06 	call	0xd8c	; 0xd8c <LCD_12864_Draw_pixel>
	LCD_12864_Draw_pixel(26, 61);
    4b08:	6d e3       	ldi	r22, 0x3D	; 61
    4b0a:	8a e1       	ldi	r24, 0x1A	; 26
    4b0c:	0e 94 c6 06 	call	0xd8c	; 0xd8c <LCD_12864_Draw_pixel>
	if (RAIN_AMOUNT(adc_value2) >= 0.9f)  LCD_12864_Decode_UTF8(30, 7, 0, "отсутств.");
    4b10:	8f e7       	ldi	r24, 0x7F	; 127
    4b12:	93 e0       	ldi	r25, 0x03	; 3
    4b14:	0e 94 bd 21 	call	0x437a	; 0x437a <RAIN_AMOUNT>
    4b18:	2d b7       	in	r18, 0x3d	; 61
    4b1a:	3e b7       	in	r19, 0x3e	; 62
    4b1c:	28 5e       	subi	r18, 0xE8	; 232
    4b1e:	3f 4f       	sbci	r19, 0xFF	; 255
    4b20:	0f b6       	in	r0, 0x3f	; 63
    4b22:	f8 94       	cli
    4b24:	3e bf       	out	0x3e, r19	; 62
    4b26:	0f be       	out	0x3f, r0	; 63
    4b28:	2d bf       	out	0x3d, r18	; 61
    4b2a:	26 e6       	ldi	r18, 0x66	; 102
    4b2c:	36 e6       	ldi	r19, 0x66	; 102
    4b2e:	46 e6       	ldi	r20, 0x66	; 102
    4b30:	5f e3       	ldi	r21, 0x3F	; 63
    4b32:	0e 94 55 29 	call	0x52aa	; 0x52aa <__gesf2>
    4b36:	88 23       	and	r24, r24
    4b38:	4c f0       	brlt	.+18     	; 0x4b4c <Print_Home_Page+0x3fc>
    4b3a:	2f ee       	ldi	r18, 0xEF	; 239
    4b3c:	32 e0       	ldi	r19, 0x02	; 2
    4b3e:	40 e0       	ldi	r20, 0x00	; 0
    4b40:	67 e0       	ldi	r22, 0x07	; 7
    4b42:	8e e1       	ldi	r24, 0x1E	; 30
    4b44:	90 e0       	ldi	r25, 0x00	; 0
    4b46:	0e 94 6b 0b 	call	0x16d6	; 0x16d6 <LCD_12864_Decode_UTF8>
    4b4a:	61 c0       	rjmp	.+194    	; 0x4c0e <Print_Home_Page+0x4be>
	else if ((RAIN_AMOUNT(adc_value2) < 0.9f) && (RAIN_AMOUNT(adc_value2) >= 0.5f))  LCD_12864_Decode_UTF8(30, 7, 0, "слабые");
    4b4c:	8f e7       	ldi	r24, 0x7F	; 127
    4b4e:	93 e0       	ldi	r25, 0x03	; 3
    4b50:	0e 94 bd 21 	call	0x437a	; 0x437a <RAIN_AMOUNT>
    4b54:	26 e6       	ldi	r18, 0x66	; 102
    4b56:	36 e6       	ldi	r19, 0x66	; 102
    4b58:	46 e6       	ldi	r20, 0x66	; 102
    4b5a:	5f e3       	ldi	r21, 0x3F	; 63
    4b5c:	0e 94 f6 27 	call	0x4fec	; 0x4fec <__cmpsf2>
    4b60:	88 23       	and	r24, r24
    4b62:	ac f4       	brge	.+42     	; 0x4b8e <Print_Home_Page+0x43e>
    4b64:	8f e7       	ldi	r24, 0x7F	; 127
    4b66:	93 e0       	ldi	r25, 0x03	; 3
    4b68:	0e 94 bd 21 	call	0x437a	; 0x437a <RAIN_AMOUNT>
    4b6c:	20 e0       	ldi	r18, 0x00	; 0
    4b6e:	30 e0       	ldi	r19, 0x00	; 0
    4b70:	40 e0       	ldi	r20, 0x00	; 0
    4b72:	5f e3       	ldi	r21, 0x3F	; 63
    4b74:	0e 94 55 29 	call	0x52aa	; 0x52aa <__gesf2>
    4b78:	88 23       	and	r24, r24
    4b7a:	4c f0       	brlt	.+18     	; 0x4b8e <Print_Home_Page+0x43e>
    4b7c:	29 ef       	ldi	r18, 0xF9	; 249
    4b7e:	32 e0       	ldi	r19, 0x02	; 2
    4b80:	40 e0       	ldi	r20, 0x00	; 0
    4b82:	67 e0       	ldi	r22, 0x07	; 7
    4b84:	8e e1       	ldi	r24, 0x1E	; 30
    4b86:	90 e0       	ldi	r25, 0x00	; 0
    4b88:	0e 94 6b 0b 	call	0x16d6	; 0x16d6 <LCD_12864_Decode_UTF8>
    4b8c:	40 c0       	rjmp	.+128    	; 0x4c0e <Print_Home_Page+0x4be>
    else if ((RAIN_AMOUNT(adc_value2) < 0.5f) && (RAIN_AMOUNT(adc_value2) >= 0.25f))  LCD_12864_Decode_UTF8(30, 7, 0, "умеренные");
    4b8e:	8f e7       	ldi	r24, 0x7F	; 127
    4b90:	93 e0       	ldi	r25, 0x03	; 3
    4b92:	0e 94 bd 21 	call	0x437a	; 0x437a <RAIN_AMOUNT>
    4b96:	20 e0       	ldi	r18, 0x00	; 0
    4b98:	30 e0       	ldi	r19, 0x00	; 0
    4b9a:	40 e0       	ldi	r20, 0x00	; 0
    4b9c:	5f e3       	ldi	r21, 0x3F	; 63
    4b9e:	0e 94 f6 27 	call	0x4fec	; 0x4fec <__cmpsf2>
    4ba2:	88 23       	and	r24, r24
    4ba4:	ac f4       	brge	.+42     	; 0x4bd0 <Print_Home_Page+0x480>
    4ba6:	8f e7       	ldi	r24, 0x7F	; 127
    4ba8:	93 e0       	ldi	r25, 0x03	; 3
    4baa:	0e 94 bd 21 	call	0x437a	; 0x437a <RAIN_AMOUNT>
    4bae:	20 e0       	ldi	r18, 0x00	; 0
    4bb0:	30 e0       	ldi	r19, 0x00	; 0
    4bb2:	40 e8       	ldi	r20, 0x80	; 128
    4bb4:	5e e3       	ldi	r21, 0x3E	; 62
    4bb6:	0e 94 55 29 	call	0x52aa	; 0x52aa <__gesf2>
    4bba:	88 23       	and	r24, r24
    4bbc:	4c f0       	brlt	.+18     	; 0x4bd0 <Print_Home_Page+0x480>
    4bbe:	20 e0       	ldi	r18, 0x00	; 0
    4bc0:	33 e0       	ldi	r19, 0x03	; 3
    4bc2:	40 e0       	ldi	r20, 0x00	; 0
    4bc4:	67 e0       	ldi	r22, 0x07	; 7
    4bc6:	8e e1       	ldi	r24, 0x1E	; 30
    4bc8:	90 e0       	ldi	r25, 0x00	; 0
    4bca:	0e 94 6b 0b 	call	0x16d6	; 0x16d6 <LCD_12864_Decode_UTF8>
    4bce:	1f c0       	rjmp	.+62     	; 0x4c0e <Print_Home_Page+0x4be>
	else if ((RAIN_AMOUNT(adc_value2) < 0.25f) && (RAIN_AMOUNT(adc_value2) > 0.0f))  LCD_12864_Decode_UTF8(30, 7, 0, "сильные");
    4bd0:	8f e7       	ldi	r24, 0x7F	; 127
    4bd2:	93 e0       	ldi	r25, 0x03	; 3
    4bd4:	0e 94 bd 21 	call	0x437a	; 0x437a <RAIN_AMOUNT>
    4bd8:	20 e0       	ldi	r18, 0x00	; 0
    4bda:	30 e0       	ldi	r19, 0x00	; 0
    4bdc:	40 e8       	ldi	r20, 0x80	; 128
    4bde:	5e e3       	ldi	r21, 0x3E	; 62
    4be0:	0e 94 f6 27 	call	0x4fec	; 0x4fec <__cmpsf2>
    4be4:	88 23       	and	r24, r24
    4be6:	9c f4       	brge	.+38     	; 0x4c0e <Print_Home_Page+0x4be>
    4be8:	8f e7       	ldi	r24, 0x7F	; 127
    4bea:	93 e0       	ldi	r25, 0x03	; 3
    4bec:	0e 94 bd 21 	call	0x437a	; 0x437a <RAIN_AMOUNT>
    4bf0:	20 e0       	ldi	r18, 0x00	; 0
    4bf2:	30 e0       	ldi	r19, 0x00	; 0
    4bf4:	a9 01       	movw	r20, r18
    4bf6:	0e 94 55 29 	call	0x52aa	; 0x52aa <__gesf2>
    4bfa:	18 16       	cp	r1, r24
    4bfc:	44 f4       	brge	.+16     	; 0x4c0e <Print_Home_Page+0x4be>
    4bfe:	2a e0       	ldi	r18, 0x0A	; 10
    4c00:	33 e0       	ldi	r19, 0x03	; 3
    4c02:	40 e0       	ldi	r20, 0x00	; 0
    4c04:	67 e0       	ldi	r22, 0x07	; 7
    4c06:	8e e1       	ldi	r24, 0x1E	; 30
    4c08:	90 e0       	ldi	r25, 0x00	; 0
    4c0a:	0e 94 6b 0b 	call	0x16d6	; 0x16d6 <LCD_12864_Decode_UTF8>
	//-----------Вывод показателей в доме-----------------------//
	if (dht22_GetData(data))
    4c0e:	8c e2       	ldi	r24, 0x2C	; 44
    4c10:	93 e0       	ldi	r25, 0x03	; 3
    4c12:	0e 94 65 06 	call	0xcca	; 0xcca <dht22_GetData>
    4c16:	88 23       	and	r24, r24
    4c18:	09 f4       	brne	.+2      	; 0x4c1c <Print_Home_Page+0x4cc>
    4c1a:	46 c0       	rjmp	.+140    	; 0x4ca8 <Print_Home_Page+0x558>
	{
		 //data[1]-младший бит температуры
		 //data[2]-старший бит температуры
		 //data[3]-младший бит влажности
		 //data[4]-старший бит влажности
		 home_temp = (float)(((data[2]<<8)|data[1]) / 10.0);
    4c1c:	ec e2       	ldi	r30, 0x2C	; 44
    4c1e:	f3 e0       	ldi	r31, 0x03	; 3
    4c20:	c2 81       	ldd	r28, Z+2	; 0x02
    4c22:	d0 e0       	ldi	r29, 0x00	; 0
    4c24:	dc 2f       	mov	r29, r28
    4c26:	cc 27       	eor	r28, r28
    4c28:	81 81       	ldd	r24, Z+1	; 0x01
    4c2a:	c8 2b       	or	r28, r24
    4c2c:	be 01       	movw	r22, r28
    4c2e:	0d 2e       	mov	r0, r29
    4c30:	00 0c       	add	r0, r0
    4c32:	88 0b       	sbc	r24, r24
    4c34:	99 0b       	sbc	r25, r25
    4c36:	0e 94 a5 28 	call	0x514a	; 0x514a <__floatsisf>
    4c3a:	20 e0       	ldi	r18, 0x00	; 0
    4c3c:	30 e0       	ldi	r19, 0x00	; 0
    4c3e:	40 e2       	ldi	r20, 0x20	; 32
    4c40:	51 e4       	ldi	r21, 0x41	; 65
    4c42:	0e 94 fb 27 	call	0x4ff6	; 0x4ff6 <__divsf3>
    4c46:	60 93 bf 07 	sts	0x07BF, r22	; 0x8007bf <home_temp>
    4c4a:	70 93 c0 07 	sts	0x07C0, r23	; 0x8007c0 <home_temp+0x1>
    4c4e:	80 93 c1 07 	sts	0x07C1, r24	; 0x8007c1 <home_temp+0x2>
    4c52:	90 93 c2 07 	sts	0x07C2, r25	; 0x8007c2 <home_temp+0x3>
		 if (((data[2]<<8)|data[1]) & 0x8000) home_temp *= -1.0;
    4c56:	dd 23       	and	r29, r29
    4c58:	5c f4       	brge	.+22     	; 0x4c70 <Print_Home_Page+0x520>
    4c5a:	dc 01       	movw	r26, r24
    4c5c:	cb 01       	movw	r24, r22
    4c5e:	b0 58       	subi	r27, 0x80	; 128
    4c60:	80 93 bf 07 	sts	0x07BF, r24	; 0x8007bf <home_temp>
    4c64:	90 93 c0 07 	sts	0x07C0, r25	; 0x8007c0 <home_temp+0x1>
    4c68:	a0 93 c1 07 	sts	0x07C1, r26	; 0x8007c1 <home_temp+0x2>
    4c6c:	b0 93 c2 07 	sts	0x07C2, r27	; 0x8007c2 <home_temp+0x3>
		 home_hum = (float)(((data[4]<<8)|data[3]) / 10.0);
    4c70:	ec e2       	ldi	r30, 0x2C	; 44
    4c72:	f3 e0       	ldi	r31, 0x03	; 3
    4c74:	64 81       	ldd	r22, Z+4	; 0x04
    4c76:	70 e0       	ldi	r23, 0x00	; 0
    4c78:	76 2f       	mov	r23, r22
    4c7a:	66 27       	eor	r22, r22
    4c7c:	83 81       	ldd	r24, Z+3	; 0x03
    4c7e:	68 2b       	or	r22, r24
    4c80:	07 2e       	mov	r0, r23
    4c82:	00 0c       	add	r0, r0
    4c84:	88 0b       	sbc	r24, r24
    4c86:	99 0b       	sbc	r25, r25
    4c88:	0e 94 a5 28 	call	0x514a	; 0x514a <__floatsisf>
    4c8c:	20 e0       	ldi	r18, 0x00	; 0
    4c8e:	30 e0       	ldi	r19, 0x00	; 0
    4c90:	40 e2       	ldi	r20, 0x20	; 32
    4c92:	51 e4       	ldi	r21, 0x41	; 65
    4c94:	0e 94 fb 27 	call	0x4ff6	; 0x4ff6 <__divsf3>
    4c98:	60 93 bb 07 	sts	0x07BB, r22	; 0x8007bb <home_hum>
    4c9c:	70 93 bc 07 	sts	0x07BC, r23	; 0x8007bc <home_hum+0x1>
    4ca0:	80 93 bd 07 	sts	0x07BD, r24	; 0x8007bd <home_hum+0x2>
    4ca4:	90 93 be 07 	sts	0x07BE, r25	; 0x8007be <home_hum+0x3>
	}
	sprintf(temp_home,"%.1f",home_temp);
    4ca8:	80 91 c2 07 	lds	r24, 0x07C2	; 0x8007c2 <home_temp+0x3>
    4cac:	8f 93       	push	r24
    4cae:	80 91 c1 07 	lds	r24, 0x07C1	; 0x8007c1 <home_temp+0x2>
    4cb2:	8f 93       	push	r24
    4cb4:	80 91 c0 07 	lds	r24, 0x07C0	; 0x8007c0 <home_temp+0x1>
    4cb8:	8f 93       	push	r24
    4cba:	80 91 bf 07 	lds	r24, 0x07BF	; 0x8007bf <home_temp>
    4cbe:	8f 93       	push	r24
    4cc0:	85 e3       	ldi	r24, 0x35	; 53
    4cc2:	91 e0       	ldi	r25, 0x01	; 1
    4cc4:	9f 93       	push	r25
    4cc6:	8f 93       	push	r24
    4cc8:	8d e9       	ldi	r24, 0x9D	; 157
    4cca:	93 e0       	ldi	r25, 0x03	; 3
    4ccc:	9f 93       	push	r25
    4cce:	8f 93       	push	r24
    4cd0:	0e 94 2e 2f 	call	0x5e5c	; 0x5e5c <sprintf>
	sprintf(hum_home,"%d",(int)home_hum);
    4cd4:	60 91 bb 07 	lds	r22, 0x07BB	; 0x8007bb <home_hum>
    4cd8:	70 91 bc 07 	lds	r23, 0x07BC	; 0x8007bc <home_hum+0x1>
    4cdc:	80 91 bd 07 	lds	r24, 0x07BD	; 0x8007bd <home_hum+0x2>
    4ce0:	90 91 be 07 	lds	r25, 0x07BE	; 0x8007be <home_hum+0x3>
    4ce4:	0e 94 6d 28 	call	0x50da	; 0x50da <__fixsfsi>
    4ce8:	7f 93       	push	r23
    4cea:	6f 93       	push	r22
    4cec:	c5 eb       	ldi	r28, 0xB5	; 181
    4cee:	d2 e0       	ldi	r29, 0x02	; 2
    4cf0:	df 93       	push	r29
    4cf2:	cf 93       	push	r28
    4cf4:	88 e9       	ldi	r24, 0x98	; 152
    4cf6:	93 e0       	ldi	r25, 0x03	; 3
    4cf8:	9f 93       	push	r25
    4cfa:	8f 93       	push	r24
    4cfc:	0e 94 2e 2f 	call	0x5e5c	; 0x5e5c <sprintf>
	pressure_home = BMP180_calculation()*0.0075;
    4d00:	0e 94 c9 04 	call	0x992	; 0x992 <BMP180_calculation>
    4d04:	0e 94 a5 28 	call	0x514a	; 0x514a <__floatsisf>
    4d08:	2f e8       	ldi	r18, 0x8F	; 143
    4d0a:	32 ec       	ldi	r19, 0xC2	; 194
    4d0c:	45 ef       	ldi	r20, 0xF5	; 245
    4d0e:	5b e3       	ldi	r21, 0x3B	; 59
    4d10:	0e 94 5a 29 	call	0x52b4	; 0x52b4 <__mulsf3>
    4d14:	0e 94 6d 28 	call	0x50da	; 0x50da <__fixsfsi>
    4d18:	60 93 31 03 	sts	0x0331, r22	; 0x800331 <pressure_home>
    4d1c:	70 93 32 03 	sts	0x0332, r23	; 0x800332 <pressure_home+0x1>
	sprintf(Press_home,"%d",pressure_home);
    4d20:	7f 93       	push	r23
    4d22:	6f 93       	push	r22
    4d24:	df 93       	push	r29
    4d26:	cf 93       	push	r28
    4d28:	83 e3       	ldi	r24, 0x33	; 51
    4d2a:	93 e0       	ldi	r25, 0x03	; 3
    4d2c:	9f 93       	push	r25
    4d2e:	8f 93       	push	r24
    4d30:	0e 94 2e 2f 	call	0x5e5c	; 0x5e5c <sprintf>
	LCD_12864_Decode_UTF8(95, 4, 0, "°C");
    4d34:	2f ed       	ldi	r18, 0xDF	; 223
    4d36:	32 e0       	ldi	r19, 0x02	; 2
    4d38:	40 e0       	ldi	r20, 0x00	; 0
    4d3a:	64 e0       	ldi	r22, 0x04	; 4
    4d3c:	8f e5       	ldi	r24, 0x5F	; 95
    4d3e:	90 e0       	ldi	r25, 0x00	; 0
    4d40:	0e 94 6b 0b 	call	0x16d6	; 0x16d6 <LCD_12864_Decode_UTF8>
	LCD_12864_Print_7_11(66, 3, 0, temp_home);
    4d44:	2d e9       	ldi	r18, 0x9D	; 157
    4d46:	33 e0       	ldi	r19, 0x03	; 3
    4d48:	40 e0       	ldi	r20, 0x00	; 0
    4d4a:	63 e0       	ldi	r22, 0x03	; 3
    4d4c:	82 e4       	ldi	r24, 0x42	; 66
    4d4e:	90 e0       	ldi	r25, 0x00	; 0
    4d50:	0e 94 92 0a 	call	0x1524	; 0x1524 <LCD_12864_Print_7_11>
	LCD_12864_Decode_UTF8(123, 4, 0, "%");
    4d54:	22 ee       	ldi	r18, 0xE2	; 226
    4d56:	32 e0       	ldi	r19, 0x02	; 2
    4d58:	40 e0       	ldi	r20, 0x00	; 0
    4d5a:	64 e0       	ldi	r22, 0x04	; 4
    4d5c:	8b e7       	ldi	r24, 0x7B	; 123
    4d5e:	90 e0       	ldi	r25, 0x00	; 0
    4d60:	0e 94 6b 0b 	call	0x16d6	; 0x16d6 <LCD_12864_Decode_UTF8>
	LCD_12864_Print_7_11(108, 3, 0, hum_home);
    4d64:	28 e9       	ldi	r18, 0x98	; 152
    4d66:	33 e0       	ldi	r19, 0x03	; 3
    4d68:	40 e0       	ldi	r20, 0x00	; 0
    4d6a:	63 e0       	ldi	r22, 0x03	; 3
    4d6c:	8c e6       	ldi	r24, 0x6C	; 108
    4d6e:	90 e0       	ldi	r25, 0x00	; 0
    4d70:	0e 94 92 0a 	call	0x1524	; 0x1524 <LCD_12864_Print_7_11>
	LCD_12864_Print_4_6(86, 2, 0, Press_home);
    4d74:	23 e3       	ldi	r18, 0x33	; 51
    4d76:	33 e0       	ldi	r19, 0x03	; 3
    4d78:	40 e0       	ldi	r20, 0x00	; 0
    4d7a:	62 e0       	ldi	r22, 0x02	; 2
    4d7c:	86 e5       	ldi	r24, 0x56	; 86
    4d7e:	90 e0       	ldi	r25, 0x00	; 0
    4d80:	0e 94 e1 0a 	call	0x15c2	; 0x15c2 <LCD_12864_Print_4_6>
	LCD_12864_Decode_UTF8(101, 2, 0, "мм");
    4d84:	22 e1       	ldi	r18, 0x12	; 18
    4d86:	33 e0       	ldi	r19, 0x03	; 3
    4d88:	40 e0       	ldi	r20, 0x00	; 0
    4d8a:	62 e0       	ldi	r22, 0x02	; 2
    4d8c:	85 e6       	ldi	r24, 0x65	; 101
    4d8e:	90 e0       	ldi	r25, 0x00	; 0
    4d90:	0e 94 6b 0b 	call	0x16d6	; 0x16d6 <LCD_12864_Decode_UTF8>
	LCD_12864_Decode_UTF8(114, 2, 0, "Hg");
    4d94:	25 e1       	ldi	r18, 0x15	; 21
    4d96:	33 e0       	ldi	r19, 0x03	; 3
    4d98:	40 e0       	ldi	r20, 0x00	; 0
    4d9a:	62 e0       	ldi	r22, 0x02	; 2
    4d9c:	82 e7       	ldi	r24, 0x72	; 114
    4d9e:	90 e0       	ldi	r25, 0x00	; 0
    4da0:	0e 94 6b 0b 	call	0x16d6	; 0x16d6 <LCD_12864_Decode_UTF8>
	
	//-----------Вывод разделительных линий-----------------------//
	LCD_12864_Decode_UTF8(2, 2, 0, "улица");
    4da4:	28 e1       	ldi	r18, 0x18	; 24
    4da6:	33 e0       	ldi	r19, 0x03	; 3
    4da8:	40 e0       	ldi	r20, 0x00	; 0
    4daa:	62 e0       	ldi	r22, 0x02	; 2
    4dac:	82 e0       	ldi	r24, 0x02	; 2
    4dae:	90 e0       	ldi	r25, 0x00	; 0
    4db0:	0e 94 6b 0b 	call	0x16d6	; 0x16d6 <LCD_12864_Decode_UTF8>
	LCD_12864_Decode_UTF8(65, 2, 0, "дом");
    4db4:	2e e1       	ldi	r18, 0x1E	; 30
    4db6:	33 e0       	ldi	r19, 0x03	; 3
    4db8:	40 e0       	ldi	r20, 0x00	; 0
    4dba:	62 e0       	ldi	r22, 0x02	; 2
    4dbc:	81 e4       	ldi	r24, 0x41	; 65
    4dbe:	90 e0       	ldi	r25, 0x00	; 0
    4dc0:	0e 94 6b 0b 	call	0x16d6	; 0x16d6 <LCD_12864_Decode_UTF8>
	LCD_12864_Draw_line(0, 16, 128, 16);
    4dc4:	20 e1       	ldi	r18, 0x10	; 16
    4dc6:	40 e8       	ldi	r20, 0x80	; 128
    4dc8:	60 e1       	ldi	r22, 0x10	; 16
    4dca:	80 e0       	ldi	r24, 0x00	; 0
    4dcc:	0e 94 18 0c 	call	0x1830	; 0x1830 <LCD_12864_Draw_line>
	LCD_12864_Draw_line(0, 24, 32, 24);
    4dd0:	28 e1       	ldi	r18, 0x18	; 24
    4dd2:	40 e2       	ldi	r20, 0x20	; 32
    4dd4:	68 e1       	ldi	r22, 0x18	; 24
    4dd6:	80 e0       	ldi	r24, 0x00	; 0
    4dd8:	0e 94 18 0c 	call	0x1830	; 0x1830 <LCD_12864_Draw_line>
	LCD_12864_Draw_line(32, 17, 32, 24);
    4ddc:	28 e1       	ldi	r18, 0x18	; 24
    4dde:	40 e2       	ldi	r20, 0x20	; 32
    4de0:	61 e1       	ldi	r22, 0x11	; 17
    4de2:	80 e2       	ldi	r24, 0x20	; 32
    4de4:	0e 94 18 0c 	call	0x1830	; 0x1830 <LCD_12864_Draw_line>
	LCD_12864_Draw_line(0, 17, 0, 24);
    4de8:	28 e1       	ldi	r18, 0x18	; 24
    4dea:	40 e0       	ldi	r20, 0x00	; 0
    4dec:	61 e1       	ldi	r22, 0x11	; 17
    4dee:	80 e0       	ldi	r24, 0x00	; 0
    4df0:	0e 94 18 0c 	call	0x1830	; 0x1830 <LCD_12864_Draw_line>
	LCD_12864_Draw_line(64, 24, 83, 24);
    4df4:	28 e1       	ldi	r18, 0x18	; 24
    4df6:	43 e5       	ldi	r20, 0x53	; 83
    4df8:	68 e1       	ldi	r22, 0x18	; 24
    4dfa:	80 e4       	ldi	r24, 0x40	; 64
    4dfc:	0e 94 18 0c 	call	0x1830	; 0x1830 <LCD_12864_Draw_line>
	LCD_12864_Draw_line(83, 17, 83, 24);
    4e00:	28 e1       	ldi	r18, 0x18	; 24
    4e02:	43 e5       	ldi	r20, 0x53	; 83
    4e04:	61 e1       	ldi	r22, 0x11	; 17
    4e06:	83 e5       	ldi	r24, 0x53	; 83
    4e08:	0e 94 18 0c 	call	0x1830	; 0x1830 <LCD_12864_Draw_line>
	LCD_12864_Draw_line(63, 17, 63, 41);
    4e0c:	29 e2       	ldi	r18, 0x29	; 41
    4e0e:	4f e3       	ldi	r20, 0x3F	; 63
    4e10:	61 e1       	ldi	r22, 0x11	; 17
    4e12:	8f e3       	ldi	r24, 0x3F	; 63
    4e14:	0e 94 18 0c 	call	0x1830	; 0x1830 <LCD_12864_Draw_line>
	LCD_12864_Draw_line(63, 41, 128, 41);
    4e18:	29 e2       	ldi	r18, 0x29	; 41
    4e1a:	40 e8       	ldi	r20, 0x80	; 128
    4e1c:	69 e2       	ldi	r22, 0x29	; 41
    4e1e:	8f e3       	ldi	r24, 0x3F	; 63
    4e20:	0e 94 18 0c 	call	0x1830	; 0x1830 <LCD_12864_Draw_line>
	//-----------Вывод индикатора АКБ-----------------------//
	DrawBattery();
    4e24:	0e 94 38 22 	call	0x4470	; 0x4470 <DrawBattery>
	//-----------Вывод индикатора флюгера-----------------------//
	DrawWeatherVane();
    4e28:	0e 94 41 1a 	call	0x3482	; 0x3482 <DrawWeatherVane>
	//-----------Вывод прогноза погоды-----------------------//
	if ((wind_speed (HALL_counter) == 0.0f) && (RAIN_AMOUNT(adc_value2) >= 0.9f))
    4e2c:	83 e9       	ldi	r24, 0x93	; 147
    4e2e:	93 e0       	ldi	r25, 0x03	; 3
    4e30:	0e 94 70 23 	call	0x46e0	; 0x46e0 <wind_speed>
    4e34:	2d b7       	in	r18, 0x3d	; 61
    4e36:	3e b7       	in	r19, 0x3e	; 62
    4e38:	2c 5e       	subi	r18, 0xEC	; 236
    4e3a:	3f 4f       	sbci	r19, 0xFF	; 255
    4e3c:	0f b6       	in	r0, 0x3f	; 63
    4e3e:	f8 94       	cli
    4e40:	3e bf       	out	0x3e, r19	; 62
    4e42:	0f be       	out	0x3f, r0	; 63
    4e44:	2d bf       	out	0x3d, r18	; 61
    4e46:	20 e0       	ldi	r18, 0x00	; 0
    4e48:	30 e0       	ldi	r19, 0x00	; 0
    4e4a:	a9 01       	movw	r20, r18
    4e4c:	0e 94 f6 27 	call	0x4fec	; 0x4fec <__cmpsf2>
    4e50:	81 11       	cpse	r24, r1
    4e52:	0f c0       	rjmp	.+30     	; 0x4e72 <Print_Home_Page+0x722>
    4e54:	8f e7       	ldi	r24, 0x7F	; 127
    4e56:	93 e0       	ldi	r25, 0x03	; 3
    4e58:	0e 94 bd 21 	call	0x437a	; 0x437a <RAIN_AMOUNT>
    4e5c:	26 e6       	ldi	r18, 0x66	; 102
    4e5e:	36 e6       	ldi	r19, 0x66	; 102
    4e60:	46 e6       	ldi	r20, 0x66	; 102
    4e62:	5f e3       	ldi	r21, 0x3F	; 63
    4e64:	0e 94 55 29 	call	0x52aa	; 0x52aa <__gesf2>
    4e68:	88 23       	and	r24, r24
    4e6a:	1c f0       	brlt	.+6      	; 0x4e72 <Print_Home_Page+0x722>
	{
		DrawSun();
    4e6c:	0e 94 20 16 	call	0x2c40	; 0x2c40 <DrawSun>
    4e70:	45 c0       	rjmp	.+138    	; 0x4efc <Print_Home_Page+0x7ac>
	}
	else if ((wind_speed (HALL_counter) > 10.0f))
    4e72:	83 e9       	ldi	r24, 0x93	; 147
    4e74:	93 e0       	ldi	r25, 0x03	; 3
    4e76:	0e 94 70 23 	call	0x46e0	; 0x46e0 <wind_speed>
    4e7a:	20 e0       	ldi	r18, 0x00	; 0
    4e7c:	30 e0       	ldi	r19, 0x00	; 0
    4e7e:	40 e2       	ldi	r20, 0x20	; 32
    4e80:	51 e4       	ldi	r21, 0x41	; 65
    4e82:	0e 94 55 29 	call	0x52aa	; 0x52aa <__gesf2>
    4e86:	18 16       	cp	r1, r24
    4e88:	1c f4       	brge	.+6      	; 0x4e90 <Print_Home_Page+0x740>
	{
		DrawClouds();
    4e8a:	0e 94 eb 17 	call	0x2fd6	; 0x2fd6 <DrawClouds>
    4e8e:	36 c0       	rjmp	.+108    	; 0x4efc <Print_Home_Page+0x7ac>
	}
	else if ((wind_speed (HALL_counter) > 0.0f) && (RAIN_AMOUNT(adc_value2) >= 0.9f))
    4e90:	83 e9       	ldi	r24, 0x93	; 147
    4e92:	93 e0       	ldi	r25, 0x03	; 3
    4e94:	0e 94 70 23 	call	0x46e0	; 0x46e0 <wind_speed>
    4e98:	20 e0       	ldi	r18, 0x00	; 0
    4e9a:	30 e0       	ldi	r19, 0x00	; 0
    4e9c:	a9 01       	movw	r20, r18
    4e9e:	0e 94 55 29 	call	0x52aa	; 0x52aa <__gesf2>
    4ea2:	18 16       	cp	r1, r24
    4ea4:	7c f4       	brge	.+30     	; 0x4ec4 <Print_Home_Page+0x774>
    4ea6:	8f e7       	ldi	r24, 0x7F	; 127
    4ea8:	93 e0       	ldi	r25, 0x03	; 3
    4eaa:	0e 94 bd 21 	call	0x437a	; 0x437a <RAIN_AMOUNT>
    4eae:	26 e6       	ldi	r18, 0x66	; 102
    4eb0:	36 e6       	ldi	r19, 0x66	; 102
    4eb2:	46 e6       	ldi	r20, 0x66	; 102
    4eb4:	5f e3       	ldi	r21, 0x3F	; 63
    4eb6:	0e 94 55 29 	call	0x52aa	; 0x52aa <__gesf2>
    4eba:	88 23       	and	r24, r24
    4ebc:	1c f0       	brlt	.+6      	; 0x4ec4 <Print_Home_Page+0x774>
	{
		DrawSunWithClouds();
    4ebe:	0e 94 59 16 	call	0x2cb2	; 0x2cb2 <DrawSunWithClouds>
    4ec2:	1c c0       	rjmp	.+56     	; 0x4efc <Print_Home_Page+0x7ac>
	}
	else if ((RAIN_AMOUNT(adc_value2) < 0.85f) && (RAIN_AMOUNT(adc_value2) > 0.0f))
    4ec4:	8f e7       	ldi	r24, 0x7F	; 127
    4ec6:	93 e0       	ldi	r25, 0x03	; 3
    4ec8:	0e 94 bd 21 	call	0x437a	; 0x437a <RAIN_AMOUNT>
    4ecc:	2a e9       	ldi	r18, 0x9A	; 154
    4ece:	39 e9       	ldi	r19, 0x99	; 153
    4ed0:	49 e5       	ldi	r20, 0x59	; 89
    4ed2:	5f e3       	ldi	r21, 0x3F	; 63
    4ed4:	0e 94 f6 27 	call	0x4fec	; 0x4fec <__cmpsf2>
    4ed8:	88 23       	and	r24, r24
    4eda:	74 f4       	brge	.+28     	; 0x4ef8 <Print_Home_Page+0x7a8>
    4edc:	8f e7       	ldi	r24, 0x7F	; 127
    4ede:	93 e0       	ldi	r25, 0x03	; 3
    4ee0:	0e 94 bd 21 	call	0x437a	; 0x437a <RAIN_AMOUNT>
    4ee4:	20 e0       	ldi	r18, 0x00	; 0
    4ee6:	30 e0       	ldi	r19, 0x00	; 0
    4ee8:	a9 01       	movw	r20, r18
    4eea:	0e 94 55 29 	call	0x52aa	; 0x52aa <__gesf2>
    4eee:	18 16       	cp	r1, r24
    4ef0:	1c f4       	brge	.+6      	; 0x4ef8 <Print_Home_Page+0x7a8>
	{
		DrawCloudsWithRain();
    4ef2:	0e 94 f8 18 	call	0x31f0	; 0x31f0 <DrawCloudsWithRain>
    4ef6:	02 c0       	rjmp	.+4      	; 0x4efc <Print_Home_Page+0x7ac>
	}
	else
	{
		DrawSun();
    4ef8:	0e 94 20 16 	call	0x2c40	; 0x2c40 <DrawSun>
	}
	
	LCD_12864_Draw_bitmap(Frame_buffer);
    4efc:	c8 01       	movw	r24, r16
    4efe:	0e 94 e8 07 	call	0xfd0	; 0xfd0 <LCD_12864_Draw_bitmap>
	LCD_12864_GrapnicMode(0);
    4f02:	80 e0       	ldi	r24, 0x00	; 0
    4f04:	0e 94 c9 07 	call	0xf92	; 0xf92 <LCD_12864_GrapnicMode>
}
    4f08:	df 91       	pop	r29
    4f0a:	cf 91       	pop	r28
    4f0c:	1f 91       	pop	r17
    4f0e:	0f 91       	pop	r16
    4f10:	08 95       	ret

00004f12 <__subsf3>:
    4f12:	50 58       	subi	r21, 0x80	; 128

00004f14 <__addsf3>:
    4f14:	bb 27       	eor	r27, r27
    4f16:	aa 27       	eor	r26, r26
    4f18:	0e 94 a1 27 	call	0x4f42	; 0x4f42 <__addsf3x>
    4f1c:	0c 94 1b 29 	jmp	0x5236	; 0x5236 <__fp_round>
    4f20:	0e 94 0d 29 	call	0x521a	; 0x521a <__fp_pscA>
    4f24:	38 f0       	brcs	.+14     	; 0x4f34 <__addsf3+0x20>
    4f26:	0e 94 14 29 	call	0x5228	; 0x5228 <__fp_pscB>
    4f2a:	20 f0       	brcs	.+8      	; 0x4f34 <__addsf3+0x20>
    4f2c:	39 f4       	brne	.+14     	; 0x4f3c <__addsf3+0x28>
    4f2e:	9f 3f       	cpi	r25, 0xFF	; 255
    4f30:	19 f4       	brne	.+6      	; 0x4f38 <__addsf3+0x24>
    4f32:	26 f4       	brtc	.+8      	; 0x4f3c <__addsf3+0x28>
    4f34:	0c 94 0a 29 	jmp	0x5214	; 0x5214 <__fp_nan>
    4f38:	0e f4       	brtc	.+2      	; 0x4f3c <__addsf3+0x28>
    4f3a:	e0 95       	com	r30
    4f3c:	e7 fb       	bst	r30, 7
    4f3e:	0c 94 04 29 	jmp	0x5208	; 0x5208 <__fp_inf>

00004f42 <__addsf3x>:
    4f42:	e9 2f       	mov	r30, r25
    4f44:	0e 94 2c 29 	call	0x5258	; 0x5258 <__fp_split3>
    4f48:	58 f3       	brcs	.-42     	; 0x4f20 <__addsf3+0xc>
    4f4a:	ba 17       	cp	r27, r26
    4f4c:	62 07       	cpc	r22, r18
    4f4e:	73 07       	cpc	r23, r19
    4f50:	84 07       	cpc	r24, r20
    4f52:	95 07       	cpc	r25, r21
    4f54:	20 f0       	brcs	.+8      	; 0x4f5e <__addsf3x+0x1c>
    4f56:	79 f4       	brne	.+30     	; 0x4f76 <__addsf3x+0x34>
    4f58:	a6 f5       	brtc	.+104    	; 0x4fc2 <__addsf3x+0x80>
    4f5a:	0c 94 4e 29 	jmp	0x529c	; 0x529c <__fp_zero>
    4f5e:	0e f4       	brtc	.+2      	; 0x4f62 <__addsf3x+0x20>
    4f60:	e0 95       	com	r30
    4f62:	0b 2e       	mov	r0, r27
    4f64:	ba 2f       	mov	r27, r26
    4f66:	a0 2d       	mov	r26, r0
    4f68:	0b 01       	movw	r0, r22
    4f6a:	b9 01       	movw	r22, r18
    4f6c:	90 01       	movw	r18, r0
    4f6e:	0c 01       	movw	r0, r24
    4f70:	ca 01       	movw	r24, r20
    4f72:	a0 01       	movw	r20, r0
    4f74:	11 24       	eor	r1, r1
    4f76:	ff 27       	eor	r31, r31
    4f78:	59 1b       	sub	r21, r25
    4f7a:	99 f0       	breq	.+38     	; 0x4fa2 <__addsf3x+0x60>
    4f7c:	59 3f       	cpi	r21, 0xF9	; 249
    4f7e:	50 f4       	brcc	.+20     	; 0x4f94 <__addsf3x+0x52>
    4f80:	50 3e       	cpi	r21, 0xE0	; 224
    4f82:	68 f1       	brcs	.+90     	; 0x4fde <__addsf3x+0x9c>
    4f84:	1a 16       	cp	r1, r26
    4f86:	f0 40       	sbci	r31, 0x00	; 0
    4f88:	a2 2f       	mov	r26, r18
    4f8a:	23 2f       	mov	r18, r19
    4f8c:	34 2f       	mov	r19, r20
    4f8e:	44 27       	eor	r20, r20
    4f90:	58 5f       	subi	r21, 0xF8	; 248
    4f92:	f3 cf       	rjmp	.-26     	; 0x4f7a <__addsf3x+0x38>
    4f94:	46 95       	lsr	r20
    4f96:	37 95       	ror	r19
    4f98:	27 95       	ror	r18
    4f9a:	a7 95       	ror	r26
    4f9c:	f0 40       	sbci	r31, 0x00	; 0
    4f9e:	53 95       	inc	r21
    4fa0:	c9 f7       	brne	.-14     	; 0x4f94 <__addsf3x+0x52>
    4fa2:	7e f4       	brtc	.+30     	; 0x4fc2 <__addsf3x+0x80>
    4fa4:	1f 16       	cp	r1, r31
    4fa6:	ba 0b       	sbc	r27, r26
    4fa8:	62 0b       	sbc	r22, r18
    4faa:	73 0b       	sbc	r23, r19
    4fac:	84 0b       	sbc	r24, r20
    4fae:	ba f0       	brmi	.+46     	; 0x4fde <__addsf3x+0x9c>
    4fb0:	91 50       	subi	r25, 0x01	; 1
    4fb2:	a1 f0       	breq	.+40     	; 0x4fdc <__addsf3x+0x9a>
    4fb4:	ff 0f       	add	r31, r31
    4fb6:	bb 1f       	adc	r27, r27
    4fb8:	66 1f       	adc	r22, r22
    4fba:	77 1f       	adc	r23, r23
    4fbc:	88 1f       	adc	r24, r24
    4fbe:	c2 f7       	brpl	.-16     	; 0x4fb0 <__addsf3x+0x6e>
    4fc0:	0e c0       	rjmp	.+28     	; 0x4fde <__addsf3x+0x9c>
    4fc2:	ba 0f       	add	r27, r26
    4fc4:	62 1f       	adc	r22, r18
    4fc6:	73 1f       	adc	r23, r19
    4fc8:	84 1f       	adc	r24, r20
    4fca:	48 f4       	brcc	.+18     	; 0x4fde <__addsf3x+0x9c>
    4fcc:	87 95       	ror	r24
    4fce:	77 95       	ror	r23
    4fd0:	67 95       	ror	r22
    4fd2:	b7 95       	ror	r27
    4fd4:	f7 95       	ror	r31
    4fd6:	9e 3f       	cpi	r25, 0xFE	; 254
    4fd8:	08 f0       	brcs	.+2      	; 0x4fdc <__addsf3x+0x9a>
    4fda:	b0 cf       	rjmp	.-160    	; 0x4f3c <__addsf3+0x28>
    4fdc:	93 95       	inc	r25
    4fde:	88 0f       	add	r24, r24
    4fe0:	08 f0       	brcs	.+2      	; 0x4fe4 <__addsf3x+0xa2>
    4fe2:	99 27       	eor	r25, r25
    4fe4:	ee 0f       	add	r30, r30
    4fe6:	97 95       	ror	r25
    4fe8:	87 95       	ror	r24
    4fea:	08 95       	ret

00004fec <__cmpsf2>:
    4fec:	0e 94 e0 28 	call	0x51c0	; 0x51c0 <__fp_cmp>
    4ff0:	08 f4       	brcc	.+2      	; 0x4ff4 <__cmpsf2+0x8>
    4ff2:	81 e0       	ldi	r24, 0x01	; 1
    4ff4:	08 95       	ret

00004ff6 <__divsf3>:
    4ff6:	0e 94 0f 28 	call	0x501e	; 0x501e <__divsf3x>
    4ffa:	0c 94 1b 29 	jmp	0x5236	; 0x5236 <__fp_round>
    4ffe:	0e 94 14 29 	call	0x5228	; 0x5228 <__fp_pscB>
    5002:	58 f0       	brcs	.+22     	; 0x501a <__divsf3+0x24>
    5004:	0e 94 0d 29 	call	0x521a	; 0x521a <__fp_pscA>
    5008:	40 f0       	brcs	.+16     	; 0x501a <__divsf3+0x24>
    500a:	29 f4       	brne	.+10     	; 0x5016 <__divsf3+0x20>
    500c:	5f 3f       	cpi	r21, 0xFF	; 255
    500e:	29 f0       	breq	.+10     	; 0x501a <__divsf3+0x24>
    5010:	0c 94 04 29 	jmp	0x5208	; 0x5208 <__fp_inf>
    5014:	51 11       	cpse	r21, r1
    5016:	0c 94 4f 29 	jmp	0x529e	; 0x529e <__fp_szero>
    501a:	0c 94 0a 29 	jmp	0x5214	; 0x5214 <__fp_nan>

0000501e <__divsf3x>:
    501e:	0e 94 2c 29 	call	0x5258	; 0x5258 <__fp_split3>
    5022:	68 f3       	brcs	.-38     	; 0x4ffe <__divsf3+0x8>

00005024 <__divsf3_pse>:
    5024:	99 23       	and	r25, r25
    5026:	b1 f3       	breq	.-20     	; 0x5014 <__divsf3+0x1e>
    5028:	55 23       	and	r21, r21
    502a:	91 f3       	breq	.-28     	; 0x5010 <__divsf3+0x1a>
    502c:	95 1b       	sub	r25, r21
    502e:	55 0b       	sbc	r21, r21
    5030:	bb 27       	eor	r27, r27
    5032:	aa 27       	eor	r26, r26
    5034:	62 17       	cp	r22, r18
    5036:	73 07       	cpc	r23, r19
    5038:	84 07       	cpc	r24, r20
    503a:	38 f0       	brcs	.+14     	; 0x504a <__divsf3_pse+0x26>
    503c:	9f 5f       	subi	r25, 0xFF	; 255
    503e:	5f 4f       	sbci	r21, 0xFF	; 255
    5040:	22 0f       	add	r18, r18
    5042:	33 1f       	adc	r19, r19
    5044:	44 1f       	adc	r20, r20
    5046:	aa 1f       	adc	r26, r26
    5048:	a9 f3       	breq	.-22     	; 0x5034 <__divsf3_pse+0x10>
    504a:	35 d0       	rcall	.+106    	; 0x50b6 <__divsf3_pse+0x92>
    504c:	0e 2e       	mov	r0, r30
    504e:	3a f0       	brmi	.+14     	; 0x505e <__divsf3_pse+0x3a>
    5050:	e0 e8       	ldi	r30, 0x80	; 128
    5052:	32 d0       	rcall	.+100    	; 0x50b8 <__divsf3_pse+0x94>
    5054:	91 50       	subi	r25, 0x01	; 1
    5056:	50 40       	sbci	r21, 0x00	; 0
    5058:	e6 95       	lsr	r30
    505a:	00 1c       	adc	r0, r0
    505c:	ca f7       	brpl	.-14     	; 0x5050 <__divsf3_pse+0x2c>
    505e:	2b d0       	rcall	.+86     	; 0x50b6 <__divsf3_pse+0x92>
    5060:	fe 2f       	mov	r31, r30
    5062:	29 d0       	rcall	.+82     	; 0x50b6 <__divsf3_pse+0x92>
    5064:	66 0f       	add	r22, r22
    5066:	77 1f       	adc	r23, r23
    5068:	88 1f       	adc	r24, r24
    506a:	bb 1f       	adc	r27, r27
    506c:	26 17       	cp	r18, r22
    506e:	37 07       	cpc	r19, r23
    5070:	48 07       	cpc	r20, r24
    5072:	ab 07       	cpc	r26, r27
    5074:	b0 e8       	ldi	r27, 0x80	; 128
    5076:	09 f0       	breq	.+2      	; 0x507a <__divsf3_pse+0x56>
    5078:	bb 0b       	sbc	r27, r27
    507a:	80 2d       	mov	r24, r0
    507c:	bf 01       	movw	r22, r30
    507e:	ff 27       	eor	r31, r31
    5080:	93 58       	subi	r25, 0x83	; 131
    5082:	5f 4f       	sbci	r21, 0xFF	; 255
    5084:	3a f0       	brmi	.+14     	; 0x5094 <__divsf3_pse+0x70>
    5086:	9e 3f       	cpi	r25, 0xFE	; 254
    5088:	51 05       	cpc	r21, r1
    508a:	78 f0       	brcs	.+30     	; 0x50aa <__divsf3_pse+0x86>
    508c:	0c 94 04 29 	jmp	0x5208	; 0x5208 <__fp_inf>
    5090:	0c 94 4f 29 	jmp	0x529e	; 0x529e <__fp_szero>
    5094:	5f 3f       	cpi	r21, 0xFF	; 255
    5096:	e4 f3       	brlt	.-8      	; 0x5090 <__divsf3_pse+0x6c>
    5098:	98 3e       	cpi	r25, 0xE8	; 232
    509a:	d4 f3       	brlt	.-12     	; 0x5090 <__divsf3_pse+0x6c>
    509c:	86 95       	lsr	r24
    509e:	77 95       	ror	r23
    50a0:	67 95       	ror	r22
    50a2:	b7 95       	ror	r27
    50a4:	f7 95       	ror	r31
    50a6:	9f 5f       	subi	r25, 0xFF	; 255
    50a8:	c9 f7       	brne	.-14     	; 0x509c <__divsf3_pse+0x78>
    50aa:	88 0f       	add	r24, r24
    50ac:	91 1d       	adc	r25, r1
    50ae:	96 95       	lsr	r25
    50b0:	87 95       	ror	r24
    50b2:	97 f9       	bld	r25, 7
    50b4:	08 95       	ret
    50b6:	e1 e0       	ldi	r30, 0x01	; 1
    50b8:	66 0f       	add	r22, r22
    50ba:	77 1f       	adc	r23, r23
    50bc:	88 1f       	adc	r24, r24
    50be:	bb 1f       	adc	r27, r27
    50c0:	62 17       	cp	r22, r18
    50c2:	73 07       	cpc	r23, r19
    50c4:	84 07       	cpc	r24, r20
    50c6:	ba 07       	cpc	r27, r26
    50c8:	20 f0       	brcs	.+8      	; 0x50d2 <__divsf3_pse+0xae>
    50ca:	62 1b       	sub	r22, r18
    50cc:	73 0b       	sbc	r23, r19
    50ce:	84 0b       	sbc	r24, r20
    50d0:	ba 0b       	sbc	r27, r26
    50d2:	ee 1f       	adc	r30, r30
    50d4:	88 f7       	brcc	.-30     	; 0x50b8 <__divsf3_pse+0x94>
    50d6:	e0 95       	com	r30
    50d8:	08 95       	ret

000050da <__fixsfsi>:
    50da:	0e 94 74 28 	call	0x50e8	; 0x50e8 <__fixunssfsi>
    50de:	68 94       	set
    50e0:	b1 11       	cpse	r27, r1
    50e2:	0c 94 4f 29 	jmp	0x529e	; 0x529e <__fp_szero>
    50e6:	08 95       	ret

000050e8 <__fixunssfsi>:
    50e8:	0e 94 34 29 	call	0x5268	; 0x5268 <__fp_splitA>
    50ec:	88 f0       	brcs	.+34     	; 0x5110 <__fixunssfsi+0x28>
    50ee:	9f 57       	subi	r25, 0x7F	; 127
    50f0:	98 f0       	brcs	.+38     	; 0x5118 <__fixunssfsi+0x30>
    50f2:	b9 2f       	mov	r27, r25
    50f4:	99 27       	eor	r25, r25
    50f6:	b7 51       	subi	r27, 0x17	; 23
    50f8:	b0 f0       	brcs	.+44     	; 0x5126 <__fixunssfsi+0x3e>
    50fa:	e1 f0       	breq	.+56     	; 0x5134 <__fixunssfsi+0x4c>
    50fc:	66 0f       	add	r22, r22
    50fe:	77 1f       	adc	r23, r23
    5100:	88 1f       	adc	r24, r24
    5102:	99 1f       	adc	r25, r25
    5104:	1a f0       	brmi	.+6      	; 0x510c <__fixunssfsi+0x24>
    5106:	ba 95       	dec	r27
    5108:	c9 f7       	brne	.-14     	; 0x50fc <__fixunssfsi+0x14>
    510a:	14 c0       	rjmp	.+40     	; 0x5134 <__fixunssfsi+0x4c>
    510c:	b1 30       	cpi	r27, 0x01	; 1
    510e:	91 f0       	breq	.+36     	; 0x5134 <__fixunssfsi+0x4c>
    5110:	0e 94 4e 29 	call	0x529c	; 0x529c <__fp_zero>
    5114:	b1 e0       	ldi	r27, 0x01	; 1
    5116:	08 95       	ret
    5118:	0c 94 4e 29 	jmp	0x529c	; 0x529c <__fp_zero>
    511c:	67 2f       	mov	r22, r23
    511e:	78 2f       	mov	r23, r24
    5120:	88 27       	eor	r24, r24
    5122:	b8 5f       	subi	r27, 0xF8	; 248
    5124:	39 f0       	breq	.+14     	; 0x5134 <__fixunssfsi+0x4c>
    5126:	b9 3f       	cpi	r27, 0xF9	; 249
    5128:	cc f3       	brlt	.-14     	; 0x511c <__fixunssfsi+0x34>
    512a:	86 95       	lsr	r24
    512c:	77 95       	ror	r23
    512e:	67 95       	ror	r22
    5130:	b3 95       	inc	r27
    5132:	d9 f7       	brne	.-10     	; 0x512a <__fixunssfsi+0x42>
    5134:	3e f4       	brtc	.+14     	; 0x5144 <__fixunssfsi+0x5c>
    5136:	90 95       	com	r25
    5138:	80 95       	com	r24
    513a:	70 95       	com	r23
    513c:	61 95       	neg	r22
    513e:	7f 4f       	sbci	r23, 0xFF	; 255
    5140:	8f 4f       	sbci	r24, 0xFF	; 255
    5142:	9f 4f       	sbci	r25, 0xFF	; 255
    5144:	08 95       	ret

00005146 <__floatunsisf>:
    5146:	e8 94       	clt
    5148:	09 c0       	rjmp	.+18     	; 0x515c <__floatsisf+0x12>

0000514a <__floatsisf>:
    514a:	97 fb       	bst	r25, 7
    514c:	3e f4       	brtc	.+14     	; 0x515c <__floatsisf+0x12>
    514e:	90 95       	com	r25
    5150:	80 95       	com	r24
    5152:	70 95       	com	r23
    5154:	61 95       	neg	r22
    5156:	7f 4f       	sbci	r23, 0xFF	; 255
    5158:	8f 4f       	sbci	r24, 0xFF	; 255
    515a:	9f 4f       	sbci	r25, 0xFF	; 255
    515c:	99 23       	and	r25, r25
    515e:	a9 f0       	breq	.+42     	; 0x518a <__floatsisf+0x40>
    5160:	f9 2f       	mov	r31, r25
    5162:	96 e9       	ldi	r25, 0x96	; 150
    5164:	bb 27       	eor	r27, r27
    5166:	93 95       	inc	r25
    5168:	f6 95       	lsr	r31
    516a:	87 95       	ror	r24
    516c:	77 95       	ror	r23
    516e:	67 95       	ror	r22
    5170:	b7 95       	ror	r27
    5172:	f1 11       	cpse	r31, r1
    5174:	f8 cf       	rjmp	.-16     	; 0x5166 <__floatsisf+0x1c>
    5176:	fa f4       	brpl	.+62     	; 0x51b6 <__floatsisf+0x6c>
    5178:	bb 0f       	add	r27, r27
    517a:	11 f4       	brne	.+4      	; 0x5180 <__floatsisf+0x36>
    517c:	60 ff       	sbrs	r22, 0
    517e:	1b c0       	rjmp	.+54     	; 0x51b6 <__floatsisf+0x6c>
    5180:	6f 5f       	subi	r22, 0xFF	; 255
    5182:	7f 4f       	sbci	r23, 0xFF	; 255
    5184:	8f 4f       	sbci	r24, 0xFF	; 255
    5186:	9f 4f       	sbci	r25, 0xFF	; 255
    5188:	16 c0       	rjmp	.+44     	; 0x51b6 <__floatsisf+0x6c>
    518a:	88 23       	and	r24, r24
    518c:	11 f0       	breq	.+4      	; 0x5192 <__floatsisf+0x48>
    518e:	96 e9       	ldi	r25, 0x96	; 150
    5190:	11 c0       	rjmp	.+34     	; 0x51b4 <__floatsisf+0x6a>
    5192:	77 23       	and	r23, r23
    5194:	21 f0       	breq	.+8      	; 0x519e <__floatsisf+0x54>
    5196:	9e e8       	ldi	r25, 0x8E	; 142
    5198:	87 2f       	mov	r24, r23
    519a:	76 2f       	mov	r23, r22
    519c:	05 c0       	rjmp	.+10     	; 0x51a8 <__floatsisf+0x5e>
    519e:	66 23       	and	r22, r22
    51a0:	71 f0       	breq	.+28     	; 0x51be <__floatsisf+0x74>
    51a2:	96 e8       	ldi	r25, 0x86	; 134
    51a4:	86 2f       	mov	r24, r22
    51a6:	70 e0       	ldi	r23, 0x00	; 0
    51a8:	60 e0       	ldi	r22, 0x00	; 0
    51aa:	2a f0       	brmi	.+10     	; 0x51b6 <__floatsisf+0x6c>
    51ac:	9a 95       	dec	r25
    51ae:	66 0f       	add	r22, r22
    51b0:	77 1f       	adc	r23, r23
    51b2:	88 1f       	adc	r24, r24
    51b4:	da f7       	brpl	.-10     	; 0x51ac <__floatsisf+0x62>
    51b6:	88 0f       	add	r24, r24
    51b8:	96 95       	lsr	r25
    51ba:	87 95       	ror	r24
    51bc:	97 f9       	bld	r25, 7
    51be:	08 95       	ret

000051c0 <__fp_cmp>:
    51c0:	99 0f       	add	r25, r25
    51c2:	00 08       	sbc	r0, r0
    51c4:	55 0f       	add	r21, r21
    51c6:	aa 0b       	sbc	r26, r26
    51c8:	e0 e8       	ldi	r30, 0x80	; 128
    51ca:	fe ef       	ldi	r31, 0xFE	; 254
    51cc:	16 16       	cp	r1, r22
    51ce:	17 06       	cpc	r1, r23
    51d0:	e8 07       	cpc	r30, r24
    51d2:	f9 07       	cpc	r31, r25
    51d4:	c0 f0       	brcs	.+48     	; 0x5206 <__fp_cmp+0x46>
    51d6:	12 16       	cp	r1, r18
    51d8:	13 06       	cpc	r1, r19
    51da:	e4 07       	cpc	r30, r20
    51dc:	f5 07       	cpc	r31, r21
    51de:	98 f0       	brcs	.+38     	; 0x5206 <__fp_cmp+0x46>
    51e0:	62 1b       	sub	r22, r18
    51e2:	73 0b       	sbc	r23, r19
    51e4:	84 0b       	sbc	r24, r20
    51e6:	95 0b       	sbc	r25, r21
    51e8:	39 f4       	brne	.+14     	; 0x51f8 <__fp_cmp+0x38>
    51ea:	0a 26       	eor	r0, r26
    51ec:	61 f0       	breq	.+24     	; 0x5206 <__fp_cmp+0x46>
    51ee:	23 2b       	or	r18, r19
    51f0:	24 2b       	or	r18, r20
    51f2:	25 2b       	or	r18, r21
    51f4:	21 f4       	brne	.+8      	; 0x51fe <__fp_cmp+0x3e>
    51f6:	08 95       	ret
    51f8:	0a 26       	eor	r0, r26
    51fa:	09 f4       	brne	.+2      	; 0x51fe <__fp_cmp+0x3e>
    51fc:	a1 40       	sbci	r26, 0x01	; 1
    51fe:	a6 95       	lsr	r26
    5200:	8f ef       	ldi	r24, 0xFF	; 255
    5202:	81 1d       	adc	r24, r1
    5204:	81 1d       	adc	r24, r1
    5206:	08 95       	ret

00005208 <__fp_inf>:
    5208:	97 f9       	bld	r25, 7
    520a:	9f 67       	ori	r25, 0x7F	; 127
    520c:	80 e8       	ldi	r24, 0x80	; 128
    520e:	70 e0       	ldi	r23, 0x00	; 0
    5210:	60 e0       	ldi	r22, 0x00	; 0
    5212:	08 95       	ret

00005214 <__fp_nan>:
    5214:	9f ef       	ldi	r25, 0xFF	; 255
    5216:	80 ec       	ldi	r24, 0xC0	; 192
    5218:	08 95       	ret

0000521a <__fp_pscA>:
    521a:	00 24       	eor	r0, r0
    521c:	0a 94       	dec	r0
    521e:	16 16       	cp	r1, r22
    5220:	17 06       	cpc	r1, r23
    5222:	18 06       	cpc	r1, r24
    5224:	09 06       	cpc	r0, r25
    5226:	08 95       	ret

00005228 <__fp_pscB>:
    5228:	00 24       	eor	r0, r0
    522a:	0a 94       	dec	r0
    522c:	12 16       	cp	r1, r18
    522e:	13 06       	cpc	r1, r19
    5230:	14 06       	cpc	r1, r20
    5232:	05 06       	cpc	r0, r21
    5234:	08 95       	ret

00005236 <__fp_round>:
    5236:	09 2e       	mov	r0, r25
    5238:	03 94       	inc	r0
    523a:	00 0c       	add	r0, r0
    523c:	11 f4       	brne	.+4      	; 0x5242 <__fp_round+0xc>
    523e:	88 23       	and	r24, r24
    5240:	52 f0       	brmi	.+20     	; 0x5256 <__fp_round+0x20>
    5242:	bb 0f       	add	r27, r27
    5244:	40 f4       	brcc	.+16     	; 0x5256 <__fp_round+0x20>
    5246:	bf 2b       	or	r27, r31
    5248:	11 f4       	brne	.+4      	; 0x524e <__fp_round+0x18>
    524a:	60 ff       	sbrs	r22, 0
    524c:	04 c0       	rjmp	.+8      	; 0x5256 <__fp_round+0x20>
    524e:	6f 5f       	subi	r22, 0xFF	; 255
    5250:	7f 4f       	sbci	r23, 0xFF	; 255
    5252:	8f 4f       	sbci	r24, 0xFF	; 255
    5254:	9f 4f       	sbci	r25, 0xFF	; 255
    5256:	08 95       	ret

00005258 <__fp_split3>:
    5258:	57 fd       	sbrc	r21, 7
    525a:	90 58       	subi	r25, 0x80	; 128
    525c:	44 0f       	add	r20, r20
    525e:	55 1f       	adc	r21, r21
    5260:	59 f0       	breq	.+22     	; 0x5278 <__fp_splitA+0x10>
    5262:	5f 3f       	cpi	r21, 0xFF	; 255
    5264:	71 f0       	breq	.+28     	; 0x5282 <__fp_splitA+0x1a>
    5266:	47 95       	ror	r20

00005268 <__fp_splitA>:
    5268:	88 0f       	add	r24, r24
    526a:	97 fb       	bst	r25, 7
    526c:	99 1f       	adc	r25, r25
    526e:	61 f0       	breq	.+24     	; 0x5288 <__fp_splitA+0x20>
    5270:	9f 3f       	cpi	r25, 0xFF	; 255
    5272:	79 f0       	breq	.+30     	; 0x5292 <__fp_splitA+0x2a>
    5274:	87 95       	ror	r24
    5276:	08 95       	ret
    5278:	12 16       	cp	r1, r18
    527a:	13 06       	cpc	r1, r19
    527c:	14 06       	cpc	r1, r20
    527e:	55 1f       	adc	r21, r21
    5280:	f2 cf       	rjmp	.-28     	; 0x5266 <__fp_split3+0xe>
    5282:	46 95       	lsr	r20
    5284:	f1 df       	rcall	.-30     	; 0x5268 <__fp_splitA>
    5286:	08 c0       	rjmp	.+16     	; 0x5298 <__fp_splitA+0x30>
    5288:	16 16       	cp	r1, r22
    528a:	17 06       	cpc	r1, r23
    528c:	18 06       	cpc	r1, r24
    528e:	99 1f       	adc	r25, r25
    5290:	f1 cf       	rjmp	.-30     	; 0x5274 <__fp_splitA+0xc>
    5292:	86 95       	lsr	r24
    5294:	71 05       	cpc	r23, r1
    5296:	61 05       	cpc	r22, r1
    5298:	08 94       	sec
    529a:	08 95       	ret

0000529c <__fp_zero>:
    529c:	e8 94       	clt

0000529e <__fp_szero>:
    529e:	bb 27       	eor	r27, r27
    52a0:	66 27       	eor	r22, r22
    52a2:	77 27       	eor	r23, r23
    52a4:	cb 01       	movw	r24, r22
    52a6:	97 f9       	bld	r25, 7
    52a8:	08 95       	ret

000052aa <__gesf2>:
    52aa:	0e 94 e0 28 	call	0x51c0	; 0x51c0 <__fp_cmp>
    52ae:	08 f4       	brcc	.+2      	; 0x52b2 <__gesf2+0x8>
    52b0:	8f ef       	ldi	r24, 0xFF	; 255
    52b2:	08 95       	ret

000052b4 <__mulsf3>:
    52b4:	0e 94 6d 29 	call	0x52da	; 0x52da <__mulsf3x>
    52b8:	0c 94 1b 29 	jmp	0x5236	; 0x5236 <__fp_round>
    52bc:	0e 94 0d 29 	call	0x521a	; 0x521a <__fp_pscA>
    52c0:	38 f0       	brcs	.+14     	; 0x52d0 <__mulsf3+0x1c>
    52c2:	0e 94 14 29 	call	0x5228	; 0x5228 <__fp_pscB>
    52c6:	20 f0       	brcs	.+8      	; 0x52d0 <__mulsf3+0x1c>
    52c8:	95 23       	and	r25, r21
    52ca:	11 f0       	breq	.+4      	; 0x52d0 <__mulsf3+0x1c>
    52cc:	0c 94 04 29 	jmp	0x5208	; 0x5208 <__fp_inf>
    52d0:	0c 94 0a 29 	jmp	0x5214	; 0x5214 <__fp_nan>
    52d4:	11 24       	eor	r1, r1
    52d6:	0c 94 4f 29 	jmp	0x529e	; 0x529e <__fp_szero>

000052da <__mulsf3x>:
    52da:	0e 94 2c 29 	call	0x5258	; 0x5258 <__fp_split3>
    52de:	70 f3       	brcs	.-36     	; 0x52bc <__mulsf3+0x8>

000052e0 <__mulsf3_pse>:
    52e0:	95 9f       	mul	r25, r21
    52e2:	c1 f3       	breq	.-16     	; 0x52d4 <__mulsf3+0x20>
    52e4:	95 0f       	add	r25, r21
    52e6:	50 e0       	ldi	r21, 0x00	; 0
    52e8:	55 1f       	adc	r21, r21
    52ea:	62 9f       	mul	r22, r18
    52ec:	f0 01       	movw	r30, r0
    52ee:	72 9f       	mul	r23, r18
    52f0:	bb 27       	eor	r27, r27
    52f2:	f0 0d       	add	r31, r0
    52f4:	b1 1d       	adc	r27, r1
    52f6:	63 9f       	mul	r22, r19
    52f8:	aa 27       	eor	r26, r26
    52fa:	f0 0d       	add	r31, r0
    52fc:	b1 1d       	adc	r27, r1
    52fe:	aa 1f       	adc	r26, r26
    5300:	64 9f       	mul	r22, r20
    5302:	66 27       	eor	r22, r22
    5304:	b0 0d       	add	r27, r0
    5306:	a1 1d       	adc	r26, r1
    5308:	66 1f       	adc	r22, r22
    530a:	82 9f       	mul	r24, r18
    530c:	22 27       	eor	r18, r18
    530e:	b0 0d       	add	r27, r0
    5310:	a1 1d       	adc	r26, r1
    5312:	62 1f       	adc	r22, r18
    5314:	73 9f       	mul	r23, r19
    5316:	b0 0d       	add	r27, r0
    5318:	a1 1d       	adc	r26, r1
    531a:	62 1f       	adc	r22, r18
    531c:	83 9f       	mul	r24, r19
    531e:	a0 0d       	add	r26, r0
    5320:	61 1d       	adc	r22, r1
    5322:	22 1f       	adc	r18, r18
    5324:	74 9f       	mul	r23, r20
    5326:	33 27       	eor	r19, r19
    5328:	a0 0d       	add	r26, r0
    532a:	61 1d       	adc	r22, r1
    532c:	23 1f       	adc	r18, r19
    532e:	84 9f       	mul	r24, r20
    5330:	60 0d       	add	r22, r0
    5332:	21 1d       	adc	r18, r1
    5334:	82 2f       	mov	r24, r18
    5336:	76 2f       	mov	r23, r22
    5338:	6a 2f       	mov	r22, r26
    533a:	11 24       	eor	r1, r1
    533c:	9f 57       	subi	r25, 0x7F	; 127
    533e:	50 40       	sbci	r21, 0x00	; 0
    5340:	9a f0       	brmi	.+38     	; 0x5368 <__mulsf3_pse+0x88>
    5342:	f1 f0       	breq	.+60     	; 0x5380 <__mulsf3_pse+0xa0>
    5344:	88 23       	and	r24, r24
    5346:	4a f0       	brmi	.+18     	; 0x535a <__mulsf3_pse+0x7a>
    5348:	ee 0f       	add	r30, r30
    534a:	ff 1f       	adc	r31, r31
    534c:	bb 1f       	adc	r27, r27
    534e:	66 1f       	adc	r22, r22
    5350:	77 1f       	adc	r23, r23
    5352:	88 1f       	adc	r24, r24
    5354:	91 50       	subi	r25, 0x01	; 1
    5356:	50 40       	sbci	r21, 0x00	; 0
    5358:	a9 f7       	brne	.-22     	; 0x5344 <__mulsf3_pse+0x64>
    535a:	9e 3f       	cpi	r25, 0xFE	; 254
    535c:	51 05       	cpc	r21, r1
    535e:	80 f0       	brcs	.+32     	; 0x5380 <__mulsf3_pse+0xa0>
    5360:	0c 94 04 29 	jmp	0x5208	; 0x5208 <__fp_inf>
    5364:	0c 94 4f 29 	jmp	0x529e	; 0x529e <__fp_szero>
    5368:	5f 3f       	cpi	r21, 0xFF	; 255
    536a:	e4 f3       	brlt	.-8      	; 0x5364 <__mulsf3_pse+0x84>
    536c:	98 3e       	cpi	r25, 0xE8	; 232
    536e:	d4 f3       	brlt	.-12     	; 0x5364 <__mulsf3_pse+0x84>
    5370:	86 95       	lsr	r24
    5372:	77 95       	ror	r23
    5374:	67 95       	ror	r22
    5376:	b7 95       	ror	r27
    5378:	f7 95       	ror	r31
    537a:	e7 95       	ror	r30
    537c:	9f 5f       	subi	r25, 0xFF	; 255
    537e:	c1 f7       	brne	.-16     	; 0x5370 <__mulsf3_pse+0x90>
    5380:	fe 2b       	or	r31, r30
    5382:	88 0f       	add	r24, r24
    5384:	91 1d       	adc	r25, r1
    5386:	96 95       	lsr	r25
    5388:	87 95       	ror	r24
    538a:	97 f9       	bld	r25, 7
    538c:	08 95       	ret

0000538e <vfprintf>:
    538e:	a0 e1       	ldi	r26, 0x10	; 16
    5390:	b0 e0       	ldi	r27, 0x00	; 0
    5392:	ed ec       	ldi	r30, 0xCD	; 205
    5394:	f9 e2       	ldi	r31, 0x29	; 41
    5396:	0c 94 ae 2d 	jmp	0x5b5c	; 0x5b5c <__prologue_saves__>
    539a:	7c 01       	movw	r14, r24
    539c:	1b 01       	movw	r2, r22
    539e:	6a 01       	movw	r12, r20
    53a0:	fc 01       	movw	r30, r24
    53a2:	17 82       	std	Z+7, r1	; 0x07
    53a4:	16 82       	std	Z+6, r1	; 0x06
    53a6:	83 81       	ldd	r24, Z+3	; 0x03
    53a8:	81 ff       	sbrs	r24, 1
    53aa:	44 c3       	rjmp	.+1672   	; 0x5a34 <vfprintf+0x6a6>
    53ac:	9e 01       	movw	r18, r28
    53ae:	2f 5f       	subi	r18, 0xFF	; 255
    53b0:	3f 4f       	sbci	r19, 0xFF	; 255
    53b2:	39 01       	movw	r6, r18
    53b4:	f7 01       	movw	r30, r14
    53b6:	93 81       	ldd	r25, Z+3	; 0x03
    53b8:	f1 01       	movw	r30, r2
    53ba:	93 fd       	sbrc	r25, 3
    53bc:	85 91       	lpm	r24, Z+
    53be:	93 ff       	sbrs	r25, 3
    53c0:	81 91       	ld	r24, Z+
    53c2:	1f 01       	movw	r2, r30
    53c4:	88 23       	and	r24, r24
    53c6:	09 f4       	brne	.+2      	; 0x53ca <vfprintf+0x3c>
    53c8:	31 c3       	rjmp	.+1634   	; 0x5a2c <vfprintf+0x69e>
    53ca:	85 32       	cpi	r24, 0x25	; 37
    53cc:	39 f4       	brne	.+14     	; 0x53dc <vfprintf+0x4e>
    53ce:	93 fd       	sbrc	r25, 3
    53d0:	85 91       	lpm	r24, Z+
    53d2:	93 ff       	sbrs	r25, 3
    53d4:	81 91       	ld	r24, Z+
    53d6:	1f 01       	movw	r2, r30
    53d8:	85 32       	cpi	r24, 0x25	; 37
    53da:	39 f4       	brne	.+14     	; 0x53ea <vfprintf+0x5c>
    53dc:	b7 01       	movw	r22, r14
    53de:	90 e0       	ldi	r25, 0x00	; 0
    53e0:	0e 94 f2 2e 	call	0x5de4	; 0x5de4 <fputc>
    53e4:	56 01       	movw	r10, r12
    53e6:	65 01       	movw	r12, r10
    53e8:	e5 cf       	rjmp	.-54     	; 0x53b4 <vfprintf+0x26>
    53ea:	10 e0       	ldi	r17, 0x00	; 0
    53ec:	51 2c       	mov	r5, r1
    53ee:	91 2c       	mov	r9, r1
    53f0:	ff e1       	ldi	r31, 0x1F	; 31
    53f2:	f9 15       	cp	r31, r9
    53f4:	d8 f0       	brcs	.+54     	; 0x542c <vfprintf+0x9e>
    53f6:	8b 32       	cpi	r24, 0x2B	; 43
    53f8:	79 f0       	breq	.+30     	; 0x5418 <vfprintf+0x8a>
    53fa:	38 f4       	brcc	.+14     	; 0x540a <vfprintf+0x7c>
    53fc:	80 32       	cpi	r24, 0x20	; 32
    53fe:	79 f0       	breq	.+30     	; 0x541e <vfprintf+0x90>
    5400:	83 32       	cpi	r24, 0x23	; 35
    5402:	a1 f4       	brne	.+40     	; 0x542c <vfprintf+0x9e>
    5404:	f9 2d       	mov	r31, r9
    5406:	f0 61       	ori	r31, 0x10	; 16
    5408:	2e c0       	rjmp	.+92     	; 0x5466 <vfprintf+0xd8>
    540a:	8d 32       	cpi	r24, 0x2D	; 45
    540c:	61 f0       	breq	.+24     	; 0x5426 <vfprintf+0x98>
    540e:	80 33       	cpi	r24, 0x30	; 48
    5410:	69 f4       	brne	.+26     	; 0x542c <vfprintf+0x9e>
    5412:	29 2d       	mov	r18, r9
    5414:	21 60       	ori	r18, 0x01	; 1
    5416:	2d c0       	rjmp	.+90     	; 0x5472 <vfprintf+0xe4>
    5418:	39 2d       	mov	r19, r9
    541a:	32 60       	ori	r19, 0x02	; 2
    541c:	93 2e       	mov	r9, r19
    541e:	89 2d       	mov	r24, r9
    5420:	84 60       	ori	r24, 0x04	; 4
    5422:	98 2e       	mov	r9, r24
    5424:	2a c0       	rjmp	.+84     	; 0x547a <vfprintf+0xec>
    5426:	e9 2d       	mov	r30, r9
    5428:	e8 60       	ori	r30, 0x08	; 8
    542a:	15 c0       	rjmp	.+42     	; 0x5456 <vfprintf+0xc8>
    542c:	97 fc       	sbrc	r9, 7
    542e:	2d c0       	rjmp	.+90     	; 0x548a <vfprintf+0xfc>
    5430:	20 ed       	ldi	r18, 0xD0	; 208
    5432:	28 0f       	add	r18, r24
    5434:	2a 30       	cpi	r18, 0x0A	; 10
    5436:	88 f4       	brcc	.+34     	; 0x545a <vfprintf+0xcc>
    5438:	96 fe       	sbrs	r9, 6
    543a:	06 c0       	rjmp	.+12     	; 0x5448 <vfprintf+0xba>
    543c:	3a e0       	ldi	r19, 0x0A	; 10
    543e:	13 9f       	mul	r17, r19
    5440:	20 0d       	add	r18, r0
    5442:	11 24       	eor	r1, r1
    5444:	12 2f       	mov	r17, r18
    5446:	19 c0       	rjmp	.+50     	; 0x547a <vfprintf+0xec>
    5448:	8a e0       	ldi	r24, 0x0A	; 10
    544a:	58 9e       	mul	r5, r24
    544c:	20 0d       	add	r18, r0
    544e:	11 24       	eor	r1, r1
    5450:	52 2e       	mov	r5, r18
    5452:	e9 2d       	mov	r30, r9
    5454:	e0 62       	ori	r30, 0x20	; 32
    5456:	9e 2e       	mov	r9, r30
    5458:	10 c0       	rjmp	.+32     	; 0x547a <vfprintf+0xec>
    545a:	8e 32       	cpi	r24, 0x2E	; 46
    545c:	31 f4       	brne	.+12     	; 0x546a <vfprintf+0xdc>
    545e:	96 fc       	sbrc	r9, 6
    5460:	e5 c2       	rjmp	.+1482   	; 0x5a2c <vfprintf+0x69e>
    5462:	f9 2d       	mov	r31, r9
    5464:	f0 64       	ori	r31, 0x40	; 64
    5466:	9f 2e       	mov	r9, r31
    5468:	08 c0       	rjmp	.+16     	; 0x547a <vfprintf+0xec>
    546a:	8c 36       	cpi	r24, 0x6C	; 108
    546c:	21 f4       	brne	.+8      	; 0x5476 <vfprintf+0xe8>
    546e:	29 2d       	mov	r18, r9
    5470:	20 68       	ori	r18, 0x80	; 128
    5472:	92 2e       	mov	r9, r18
    5474:	02 c0       	rjmp	.+4      	; 0x547a <vfprintf+0xec>
    5476:	88 36       	cpi	r24, 0x68	; 104
    5478:	41 f4       	brne	.+16     	; 0x548a <vfprintf+0xfc>
    547a:	f1 01       	movw	r30, r2
    547c:	93 fd       	sbrc	r25, 3
    547e:	85 91       	lpm	r24, Z+
    5480:	93 ff       	sbrs	r25, 3
    5482:	81 91       	ld	r24, Z+
    5484:	1f 01       	movw	r2, r30
    5486:	81 11       	cpse	r24, r1
    5488:	b3 cf       	rjmp	.-154    	; 0x53f0 <vfprintf+0x62>
    548a:	9b eb       	ldi	r25, 0xBB	; 187
    548c:	98 0f       	add	r25, r24
    548e:	93 30       	cpi	r25, 0x03	; 3
    5490:	20 f4       	brcc	.+8      	; 0x549a <vfprintf+0x10c>
    5492:	99 2d       	mov	r25, r9
    5494:	90 61       	ori	r25, 0x10	; 16
    5496:	80 5e       	subi	r24, 0xE0	; 224
    5498:	07 c0       	rjmp	.+14     	; 0x54a8 <vfprintf+0x11a>
    549a:	9b e9       	ldi	r25, 0x9B	; 155
    549c:	98 0f       	add	r25, r24
    549e:	93 30       	cpi	r25, 0x03	; 3
    54a0:	08 f0       	brcs	.+2      	; 0x54a4 <vfprintf+0x116>
    54a2:	66 c1       	rjmp	.+716    	; 0x5770 <vfprintf+0x3e2>
    54a4:	99 2d       	mov	r25, r9
    54a6:	9f 7e       	andi	r25, 0xEF	; 239
    54a8:	96 ff       	sbrs	r25, 6
    54aa:	16 e0       	ldi	r17, 0x06	; 6
    54ac:	9f 73       	andi	r25, 0x3F	; 63
    54ae:	99 2e       	mov	r9, r25
    54b0:	85 36       	cpi	r24, 0x65	; 101
    54b2:	19 f4       	brne	.+6      	; 0x54ba <vfprintf+0x12c>
    54b4:	90 64       	ori	r25, 0x40	; 64
    54b6:	99 2e       	mov	r9, r25
    54b8:	08 c0       	rjmp	.+16     	; 0x54ca <vfprintf+0x13c>
    54ba:	86 36       	cpi	r24, 0x66	; 102
    54bc:	21 f4       	brne	.+8      	; 0x54c6 <vfprintf+0x138>
    54be:	39 2f       	mov	r19, r25
    54c0:	30 68       	ori	r19, 0x80	; 128
    54c2:	93 2e       	mov	r9, r19
    54c4:	02 c0       	rjmp	.+4      	; 0x54ca <vfprintf+0x13c>
    54c6:	11 11       	cpse	r17, r1
    54c8:	11 50       	subi	r17, 0x01	; 1
    54ca:	97 fe       	sbrs	r9, 7
    54cc:	07 c0       	rjmp	.+14     	; 0x54dc <vfprintf+0x14e>
    54ce:	1c 33       	cpi	r17, 0x3C	; 60
    54d0:	50 f4       	brcc	.+20     	; 0x54e6 <vfprintf+0x158>
    54d2:	44 24       	eor	r4, r4
    54d4:	43 94       	inc	r4
    54d6:	41 0e       	add	r4, r17
    54d8:	27 e0       	ldi	r18, 0x07	; 7
    54da:	0b c0       	rjmp	.+22     	; 0x54f2 <vfprintf+0x164>
    54dc:	18 30       	cpi	r17, 0x08	; 8
    54de:	38 f0       	brcs	.+14     	; 0x54ee <vfprintf+0x160>
    54e0:	27 e0       	ldi	r18, 0x07	; 7
    54e2:	17 e0       	ldi	r17, 0x07	; 7
    54e4:	05 c0       	rjmp	.+10     	; 0x54f0 <vfprintf+0x162>
    54e6:	27 e0       	ldi	r18, 0x07	; 7
    54e8:	9c e3       	ldi	r25, 0x3C	; 60
    54ea:	49 2e       	mov	r4, r25
    54ec:	02 c0       	rjmp	.+4      	; 0x54f2 <vfprintf+0x164>
    54ee:	21 2f       	mov	r18, r17
    54f0:	41 2c       	mov	r4, r1
    54f2:	56 01       	movw	r10, r12
    54f4:	84 e0       	ldi	r24, 0x04	; 4
    54f6:	a8 0e       	add	r10, r24
    54f8:	b1 1c       	adc	r11, r1
    54fa:	f6 01       	movw	r30, r12
    54fc:	60 81       	ld	r22, Z
    54fe:	71 81       	ldd	r23, Z+1	; 0x01
    5500:	82 81       	ldd	r24, Z+2	; 0x02
    5502:	93 81       	ldd	r25, Z+3	; 0x03
    5504:	04 2d       	mov	r16, r4
    5506:	a3 01       	movw	r20, r6
    5508:	0e 94 f4 2d 	call	0x5be8	; 0x5be8 <__ftoa_engine>
    550c:	6c 01       	movw	r12, r24
    550e:	f9 81       	ldd	r31, Y+1	; 0x01
    5510:	fc 87       	std	Y+12, r31	; 0x0c
    5512:	f0 ff       	sbrs	r31, 0
    5514:	02 c0       	rjmp	.+4      	; 0x551a <vfprintf+0x18c>
    5516:	f3 ff       	sbrs	r31, 3
    5518:	06 c0       	rjmp	.+12     	; 0x5526 <vfprintf+0x198>
    551a:	91 fc       	sbrc	r9, 1
    551c:	06 c0       	rjmp	.+12     	; 0x552a <vfprintf+0x19c>
    551e:	92 fe       	sbrs	r9, 2
    5520:	06 c0       	rjmp	.+12     	; 0x552e <vfprintf+0x1a0>
    5522:	00 e2       	ldi	r16, 0x20	; 32
    5524:	05 c0       	rjmp	.+10     	; 0x5530 <vfprintf+0x1a2>
    5526:	0d e2       	ldi	r16, 0x2D	; 45
    5528:	03 c0       	rjmp	.+6      	; 0x5530 <vfprintf+0x1a2>
    552a:	0b e2       	ldi	r16, 0x2B	; 43
    552c:	01 c0       	rjmp	.+2      	; 0x5530 <vfprintf+0x1a2>
    552e:	00 e0       	ldi	r16, 0x00	; 0
    5530:	8c 85       	ldd	r24, Y+12	; 0x0c
    5532:	8c 70       	andi	r24, 0x0C	; 12
    5534:	19 f0       	breq	.+6      	; 0x553c <vfprintf+0x1ae>
    5536:	01 11       	cpse	r16, r1
    5538:	5a c2       	rjmp	.+1204   	; 0x59ee <vfprintf+0x660>
    553a:	9b c2       	rjmp	.+1334   	; 0x5a72 <vfprintf+0x6e4>
    553c:	97 fe       	sbrs	r9, 7
    553e:	10 c0       	rjmp	.+32     	; 0x5560 <vfprintf+0x1d2>
    5540:	4c 0c       	add	r4, r12
    5542:	fc 85       	ldd	r31, Y+12	; 0x0c
    5544:	f4 ff       	sbrs	r31, 4
    5546:	04 c0       	rjmp	.+8      	; 0x5550 <vfprintf+0x1c2>
    5548:	8a 81       	ldd	r24, Y+2	; 0x02
    554a:	81 33       	cpi	r24, 0x31	; 49
    554c:	09 f4       	brne	.+2      	; 0x5550 <vfprintf+0x1c2>
    554e:	4a 94       	dec	r4
    5550:	14 14       	cp	r1, r4
    5552:	74 f5       	brge	.+92     	; 0x55b0 <vfprintf+0x222>
    5554:	28 e0       	ldi	r18, 0x08	; 8
    5556:	24 15       	cp	r18, r4
    5558:	78 f5       	brcc	.+94     	; 0x55b8 <vfprintf+0x22a>
    555a:	88 e0       	ldi	r24, 0x08	; 8
    555c:	48 2e       	mov	r4, r24
    555e:	2c c0       	rjmp	.+88     	; 0x55b8 <vfprintf+0x22a>
    5560:	96 fc       	sbrc	r9, 6
    5562:	2a c0       	rjmp	.+84     	; 0x55b8 <vfprintf+0x22a>
    5564:	81 2f       	mov	r24, r17
    5566:	90 e0       	ldi	r25, 0x00	; 0
    5568:	8c 15       	cp	r24, r12
    556a:	9d 05       	cpc	r25, r13
    556c:	9c f0       	brlt	.+38     	; 0x5594 <vfprintf+0x206>
    556e:	3c ef       	ldi	r19, 0xFC	; 252
    5570:	c3 16       	cp	r12, r19
    5572:	3f ef       	ldi	r19, 0xFF	; 255
    5574:	d3 06       	cpc	r13, r19
    5576:	74 f0       	brlt	.+28     	; 0x5594 <vfprintf+0x206>
    5578:	89 2d       	mov	r24, r9
    557a:	80 68       	ori	r24, 0x80	; 128
    557c:	98 2e       	mov	r9, r24
    557e:	0a c0       	rjmp	.+20     	; 0x5594 <vfprintf+0x206>
    5580:	e2 e0       	ldi	r30, 0x02	; 2
    5582:	f0 e0       	ldi	r31, 0x00	; 0
    5584:	ec 0f       	add	r30, r28
    5586:	fd 1f       	adc	r31, r29
    5588:	e1 0f       	add	r30, r17
    558a:	f1 1d       	adc	r31, r1
    558c:	80 81       	ld	r24, Z
    558e:	80 33       	cpi	r24, 0x30	; 48
    5590:	19 f4       	brne	.+6      	; 0x5598 <vfprintf+0x20a>
    5592:	11 50       	subi	r17, 0x01	; 1
    5594:	11 11       	cpse	r17, r1
    5596:	f4 cf       	rjmp	.-24     	; 0x5580 <vfprintf+0x1f2>
    5598:	97 fe       	sbrs	r9, 7
    559a:	0e c0       	rjmp	.+28     	; 0x55b8 <vfprintf+0x22a>
    559c:	44 24       	eor	r4, r4
    559e:	43 94       	inc	r4
    55a0:	41 0e       	add	r4, r17
    55a2:	81 2f       	mov	r24, r17
    55a4:	90 e0       	ldi	r25, 0x00	; 0
    55a6:	c8 16       	cp	r12, r24
    55a8:	d9 06       	cpc	r13, r25
    55aa:	2c f4       	brge	.+10     	; 0x55b6 <vfprintf+0x228>
    55ac:	1c 19       	sub	r17, r12
    55ae:	04 c0       	rjmp	.+8      	; 0x55b8 <vfprintf+0x22a>
    55b0:	44 24       	eor	r4, r4
    55b2:	43 94       	inc	r4
    55b4:	01 c0       	rjmp	.+2      	; 0x55b8 <vfprintf+0x22a>
    55b6:	10 e0       	ldi	r17, 0x00	; 0
    55b8:	97 fe       	sbrs	r9, 7
    55ba:	06 c0       	rjmp	.+12     	; 0x55c8 <vfprintf+0x23a>
    55bc:	1c 14       	cp	r1, r12
    55be:	1d 04       	cpc	r1, r13
    55c0:	34 f4       	brge	.+12     	; 0x55ce <vfprintf+0x240>
    55c2:	c6 01       	movw	r24, r12
    55c4:	01 96       	adiw	r24, 0x01	; 1
    55c6:	05 c0       	rjmp	.+10     	; 0x55d2 <vfprintf+0x244>
    55c8:	85 e0       	ldi	r24, 0x05	; 5
    55ca:	90 e0       	ldi	r25, 0x00	; 0
    55cc:	02 c0       	rjmp	.+4      	; 0x55d2 <vfprintf+0x244>
    55ce:	81 e0       	ldi	r24, 0x01	; 1
    55d0:	90 e0       	ldi	r25, 0x00	; 0
    55d2:	01 11       	cpse	r16, r1
    55d4:	01 96       	adiw	r24, 0x01	; 1
    55d6:	11 23       	and	r17, r17
    55d8:	31 f0       	breq	.+12     	; 0x55e6 <vfprintf+0x258>
    55da:	21 2f       	mov	r18, r17
    55dc:	30 e0       	ldi	r19, 0x00	; 0
    55de:	2f 5f       	subi	r18, 0xFF	; 255
    55e0:	3f 4f       	sbci	r19, 0xFF	; 255
    55e2:	82 0f       	add	r24, r18
    55e4:	93 1f       	adc	r25, r19
    55e6:	25 2d       	mov	r18, r5
    55e8:	30 e0       	ldi	r19, 0x00	; 0
    55ea:	82 17       	cp	r24, r18
    55ec:	93 07       	cpc	r25, r19
    55ee:	14 f4       	brge	.+4      	; 0x55f4 <vfprintf+0x266>
    55f0:	58 1a       	sub	r5, r24
    55f2:	01 c0       	rjmp	.+2      	; 0x55f6 <vfprintf+0x268>
    55f4:	51 2c       	mov	r5, r1
    55f6:	89 2d       	mov	r24, r9
    55f8:	89 70       	andi	r24, 0x09	; 9
    55fa:	49 f4       	brne	.+18     	; 0x560e <vfprintf+0x280>
    55fc:	55 20       	and	r5, r5
    55fe:	39 f0       	breq	.+14     	; 0x560e <vfprintf+0x280>
    5600:	b7 01       	movw	r22, r14
    5602:	80 e2       	ldi	r24, 0x20	; 32
    5604:	90 e0       	ldi	r25, 0x00	; 0
    5606:	0e 94 f2 2e 	call	0x5de4	; 0x5de4 <fputc>
    560a:	5a 94       	dec	r5
    560c:	f7 cf       	rjmp	.-18     	; 0x55fc <vfprintf+0x26e>
    560e:	00 23       	and	r16, r16
    5610:	29 f0       	breq	.+10     	; 0x561c <vfprintf+0x28e>
    5612:	b7 01       	movw	r22, r14
    5614:	80 2f       	mov	r24, r16
    5616:	90 e0       	ldi	r25, 0x00	; 0
    5618:	0e 94 f2 2e 	call	0x5de4	; 0x5de4 <fputc>
    561c:	93 fc       	sbrc	r9, 3
    561e:	09 c0       	rjmp	.+18     	; 0x5632 <vfprintf+0x2a4>
    5620:	55 20       	and	r5, r5
    5622:	39 f0       	breq	.+14     	; 0x5632 <vfprintf+0x2a4>
    5624:	b7 01       	movw	r22, r14
    5626:	80 e3       	ldi	r24, 0x30	; 48
    5628:	90 e0       	ldi	r25, 0x00	; 0
    562a:	0e 94 f2 2e 	call	0x5de4	; 0x5de4 <fputc>
    562e:	5a 94       	dec	r5
    5630:	f7 cf       	rjmp	.-18     	; 0x5620 <vfprintf+0x292>
    5632:	97 fe       	sbrs	r9, 7
    5634:	4c c0       	rjmp	.+152    	; 0x56ce <vfprintf+0x340>
    5636:	46 01       	movw	r8, r12
    5638:	d7 fe       	sbrs	r13, 7
    563a:	02 c0       	rjmp	.+4      	; 0x5640 <vfprintf+0x2b2>
    563c:	81 2c       	mov	r8, r1
    563e:	91 2c       	mov	r9, r1
    5640:	c6 01       	movw	r24, r12
    5642:	88 19       	sub	r24, r8
    5644:	99 09       	sbc	r25, r9
    5646:	f3 01       	movw	r30, r6
    5648:	e8 0f       	add	r30, r24
    564a:	f9 1f       	adc	r31, r25
    564c:	fe 87       	std	Y+14, r31	; 0x0e
    564e:	ed 87       	std	Y+13, r30	; 0x0d
    5650:	96 01       	movw	r18, r12
    5652:	24 19       	sub	r18, r4
    5654:	31 09       	sbc	r19, r1
    5656:	38 8b       	std	Y+16, r19	; 0x10
    5658:	2f 87       	std	Y+15, r18	; 0x0f
    565a:	01 2f       	mov	r16, r17
    565c:	10 e0       	ldi	r17, 0x00	; 0
    565e:	11 95       	neg	r17
    5660:	01 95       	neg	r16
    5662:	11 09       	sbc	r17, r1
    5664:	3f ef       	ldi	r19, 0xFF	; 255
    5666:	83 16       	cp	r8, r19
    5668:	93 06       	cpc	r9, r19
    566a:	29 f4       	brne	.+10     	; 0x5676 <vfprintf+0x2e8>
    566c:	b7 01       	movw	r22, r14
    566e:	8e e2       	ldi	r24, 0x2E	; 46
    5670:	90 e0       	ldi	r25, 0x00	; 0
    5672:	0e 94 f2 2e 	call	0x5de4	; 0x5de4 <fputc>
    5676:	c8 14       	cp	r12, r8
    5678:	d9 04       	cpc	r13, r9
    567a:	4c f0       	brlt	.+18     	; 0x568e <vfprintf+0x300>
    567c:	8f 85       	ldd	r24, Y+15	; 0x0f
    567e:	98 89       	ldd	r25, Y+16	; 0x10
    5680:	88 15       	cp	r24, r8
    5682:	99 05       	cpc	r25, r9
    5684:	24 f4       	brge	.+8      	; 0x568e <vfprintf+0x300>
    5686:	ed 85       	ldd	r30, Y+13	; 0x0d
    5688:	fe 85       	ldd	r31, Y+14	; 0x0e
    568a:	81 81       	ldd	r24, Z+1	; 0x01
    568c:	01 c0       	rjmp	.+2      	; 0x5690 <vfprintf+0x302>
    568e:	80 e3       	ldi	r24, 0x30	; 48
    5690:	f1 e0       	ldi	r31, 0x01	; 1
    5692:	8f 1a       	sub	r8, r31
    5694:	91 08       	sbc	r9, r1
    5696:	2d 85       	ldd	r18, Y+13	; 0x0d
    5698:	3e 85       	ldd	r19, Y+14	; 0x0e
    569a:	2f 5f       	subi	r18, 0xFF	; 255
    569c:	3f 4f       	sbci	r19, 0xFF	; 255
    569e:	3e 87       	std	Y+14, r19	; 0x0e
    56a0:	2d 87       	std	Y+13, r18	; 0x0d
    56a2:	80 16       	cp	r8, r16
    56a4:	91 06       	cpc	r9, r17
    56a6:	2c f0       	brlt	.+10     	; 0x56b2 <vfprintf+0x324>
    56a8:	b7 01       	movw	r22, r14
    56aa:	90 e0       	ldi	r25, 0x00	; 0
    56ac:	0e 94 f2 2e 	call	0x5de4	; 0x5de4 <fputc>
    56b0:	d9 cf       	rjmp	.-78     	; 0x5664 <vfprintf+0x2d6>
    56b2:	c8 14       	cp	r12, r8
    56b4:	d9 04       	cpc	r13, r9
    56b6:	41 f4       	brne	.+16     	; 0x56c8 <vfprintf+0x33a>
    56b8:	9a 81       	ldd	r25, Y+2	; 0x02
    56ba:	96 33       	cpi	r25, 0x36	; 54
    56bc:	20 f4       	brcc	.+8      	; 0x56c6 <vfprintf+0x338>
    56be:	95 33       	cpi	r25, 0x35	; 53
    56c0:	19 f4       	brne	.+6      	; 0x56c8 <vfprintf+0x33a>
    56c2:	3c 85       	ldd	r19, Y+12	; 0x0c
    56c4:	34 ff       	sbrs	r19, 4
    56c6:	81 e3       	ldi	r24, 0x31	; 49
    56c8:	b7 01       	movw	r22, r14
    56ca:	90 e0       	ldi	r25, 0x00	; 0
    56cc:	4e c0       	rjmp	.+156    	; 0x576a <vfprintf+0x3dc>
    56ce:	8a 81       	ldd	r24, Y+2	; 0x02
    56d0:	81 33       	cpi	r24, 0x31	; 49
    56d2:	19 f0       	breq	.+6      	; 0x56da <vfprintf+0x34c>
    56d4:	9c 85       	ldd	r25, Y+12	; 0x0c
    56d6:	9f 7e       	andi	r25, 0xEF	; 239
    56d8:	9c 87       	std	Y+12, r25	; 0x0c
    56da:	b7 01       	movw	r22, r14
    56dc:	90 e0       	ldi	r25, 0x00	; 0
    56de:	0e 94 f2 2e 	call	0x5de4	; 0x5de4 <fputc>
    56e2:	11 11       	cpse	r17, r1
    56e4:	05 c0       	rjmp	.+10     	; 0x56f0 <vfprintf+0x362>
    56e6:	94 fc       	sbrc	r9, 4
    56e8:	18 c0       	rjmp	.+48     	; 0x571a <vfprintf+0x38c>
    56ea:	85 e6       	ldi	r24, 0x65	; 101
    56ec:	90 e0       	ldi	r25, 0x00	; 0
    56ee:	17 c0       	rjmp	.+46     	; 0x571e <vfprintf+0x390>
    56f0:	b7 01       	movw	r22, r14
    56f2:	8e e2       	ldi	r24, 0x2E	; 46
    56f4:	90 e0       	ldi	r25, 0x00	; 0
    56f6:	0e 94 f2 2e 	call	0x5de4	; 0x5de4 <fputc>
    56fa:	1e 5f       	subi	r17, 0xFE	; 254
    56fc:	82 e0       	ldi	r24, 0x02	; 2
    56fe:	01 e0       	ldi	r16, 0x01	; 1
    5700:	08 0f       	add	r16, r24
    5702:	f3 01       	movw	r30, r6
    5704:	e8 0f       	add	r30, r24
    5706:	f1 1d       	adc	r31, r1
    5708:	80 81       	ld	r24, Z
    570a:	b7 01       	movw	r22, r14
    570c:	90 e0       	ldi	r25, 0x00	; 0
    570e:	0e 94 f2 2e 	call	0x5de4	; 0x5de4 <fputc>
    5712:	80 2f       	mov	r24, r16
    5714:	01 13       	cpse	r16, r17
    5716:	f3 cf       	rjmp	.-26     	; 0x56fe <vfprintf+0x370>
    5718:	e6 cf       	rjmp	.-52     	; 0x56e6 <vfprintf+0x358>
    571a:	85 e4       	ldi	r24, 0x45	; 69
    571c:	90 e0       	ldi	r25, 0x00	; 0
    571e:	b7 01       	movw	r22, r14
    5720:	0e 94 f2 2e 	call	0x5de4	; 0x5de4 <fputc>
    5724:	d7 fc       	sbrc	r13, 7
    5726:	06 c0       	rjmp	.+12     	; 0x5734 <vfprintf+0x3a6>
    5728:	c1 14       	cp	r12, r1
    572a:	d1 04       	cpc	r13, r1
    572c:	41 f4       	brne	.+16     	; 0x573e <vfprintf+0x3b0>
    572e:	ec 85       	ldd	r30, Y+12	; 0x0c
    5730:	e4 ff       	sbrs	r30, 4
    5732:	05 c0       	rjmp	.+10     	; 0x573e <vfprintf+0x3b0>
    5734:	d1 94       	neg	r13
    5736:	c1 94       	neg	r12
    5738:	d1 08       	sbc	r13, r1
    573a:	8d e2       	ldi	r24, 0x2D	; 45
    573c:	01 c0       	rjmp	.+2      	; 0x5740 <vfprintf+0x3b2>
    573e:	8b e2       	ldi	r24, 0x2B	; 43
    5740:	b7 01       	movw	r22, r14
    5742:	90 e0       	ldi	r25, 0x00	; 0
    5744:	0e 94 f2 2e 	call	0x5de4	; 0x5de4 <fputc>
    5748:	80 e3       	ldi	r24, 0x30	; 48
    574a:	2a e0       	ldi	r18, 0x0A	; 10
    574c:	c2 16       	cp	r12, r18
    574e:	d1 04       	cpc	r13, r1
    5750:	2c f0       	brlt	.+10     	; 0x575c <vfprintf+0x3ce>
    5752:	8f 5f       	subi	r24, 0xFF	; 255
    5754:	fa e0       	ldi	r31, 0x0A	; 10
    5756:	cf 1a       	sub	r12, r31
    5758:	d1 08       	sbc	r13, r1
    575a:	f7 cf       	rjmp	.-18     	; 0x574a <vfprintf+0x3bc>
    575c:	b7 01       	movw	r22, r14
    575e:	90 e0       	ldi	r25, 0x00	; 0
    5760:	0e 94 f2 2e 	call	0x5de4	; 0x5de4 <fputc>
    5764:	b7 01       	movw	r22, r14
    5766:	c6 01       	movw	r24, r12
    5768:	c0 96       	adiw	r24, 0x30	; 48
    576a:	0e 94 f2 2e 	call	0x5de4	; 0x5de4 <fputc>
    576e:	54 c1       	rjmp	.+680    	; 0x5a18 <vfprintf+0x68a>
    5770:	83 36       	cpi	r24, 0x63	; 99
    5772:	31 f0       	breq	.+12     	; 0x5780 <vfprintf+0x3f2>
    5774:	83 37       	cpi	r24, 0x73	; 115
    5776:	79 f0       	breq	.+30     	; 0x5796 <vfprintf+0x408>
    5778:	83 35       	cpi	r24, 0x53	; 83
    577a:	09 f0       	breq	.+2      	; 0x577e <vfprintf+0x3f0>
    577c:	56 c0       	rjmp	.+172    	; 0x582a <vfprintf+0x49c>
    577e:	20 c0       	rjmp	.+64     	; 0x57c0 <vfprintf+0x432>
    5780:	56 01       	movw	r10, r12
    5782:	32 e0       	ldi	r19, 0x02	; 2
    5784:	a3 0e       	add	r10, r19
    5786:	b1 1c       	adc	r11, r1
    5788:	f6 01       	movw	r30, r12
    578a:	80 81       	ld	r24, Z
    578c:	89 83       	std	Y+1, r24	; 0x01
    578e:	01 e0       	ldi	r16, 0x01	; 1
    5790:	10 e0       	ldi	r17, 0x00	; 0
    5792:	63 01       	movw	r12, r6
    5794:	12 c0       	rjmp	.+36     	; 0x57ba <vfprintf+0x42c>
    5796:	56 01       	movw	r10, r12
    5798:	f2 e0       	ldi	r31, 0x02	; 2
    579a:	af 0e       	add	r10, r31
    579c:	b1 1c       	adc	r11, r1
    579e:	f6 01       	movw	r30, r12
    57a0:	c0 80       	ld	r12, Z
    57a2:	d1 80       	ldd	r13, Z+1	; 0x01
    57a4:	96 fe       	sbrs	r9, 6
    57a6:	03 c0       	rjmp	.+6      	; 0x57ae <vfprintf+0x420>
    57a8:	61 2f       	mov	r22, r17
    57aa:	70 e0       	ldi	r23, 0x00	; 0
    57ac:	02 c0       	rjmp	.+4      	; 0x57b2 <vfprintf+0x424>
    57ae:	6f ef       	ldi	r22, 0xFF	; 255
    57b0:	7f ef       	ldi	r23, 0xFF	; 255
    57b2:	c6 01       	movw	r24, r12
    57b4:	0e 94 e7 2e 	call	0x5dce	; 0x5dce <strnlen>
    57b8:	8c 01       	movw	r16, r24
    57ba:	f9 2d       	mov	r31, r9
    57bc:	ff 77       	andi	r31, 0x7F	; 127
    57be:	14 c0       	rjmp	.+40     	; 0x57e8 <vfprintf+0x45a>
    57c0:	56 01       	movw	r10, r12
    57c2:	22 e0       	ldi	r18, 0x02	; 2
    57c4:	a2 0e       	add	r10, r18
    57c6:	b1 1c       	adc	r11, r1
    57c8:	f6 01       	movw	r30, r12
    57ca:	c0 80       	ld	r12, Z
    57cc:	d1 80       	ldd	r13, Z+1	; 0x01
    57ce:	96 fe       	sbrs	r9, 6
    57d0:	03 c0       	rjmp	.+6      	; 0x57d8 <vfprintf+0x44a>
    57d2:	61 2f       	mov	r22, r17
    57d4:	70 e0       	ldi	r23, 0x00	; 0
    57d6:	02 c0       	rjmp	.+4      	; 0x57dc <vfprintf+0x44e>
    57d8:	6f ef       	ldi	r22, 0xFF	; 255
    57da:	7f ef       	ldi	r23, 0xFF	; 255
    57dc:	c6 01       	movw	r24, r12
    57de:	0e 94 cc 2e 	call	0x5d98	; 0x5d98 <strnlen_P>
    57e2:	8c 01       	movw	r16, r24
    57e4:	f9 2d       	mov	r31, r9
    57e6:	f0 68       	ori	r31, 0x80	; 128
    57e8:	9f 2e       	mov	r9, r31
    57ea:	f3 fd       	sbrc	r31, 3
    57ec:	1a c0       	rjmp	.+52     	; 0x5822 <vfprintf+0x494>
    57ee:	85 2d       	mov	r24, r5
    57f0:	90 e0       	ldi	r25, 0x00	; 0
    57f2:	08 17       	cp	r16, r24
    57f4:	19 07       	cpc	r17, r25
    57f6:	a8 f4       	brcc	.+42     	; 0x5822 <vfprintf+0x494>
    57f8:	b7 01       	movw	r22, r14
    57fa:	80 e2       	ldi	r24, 0x20	; 32
    57fc:	90 e0       	ldi	r25, 0x00	; 0
    57fe:	0e 94 f2 2e 	call	0x5de4	; 0x5de4 <fputc>
    5802:	5a 94       	dec	r5
    5804:	f4 cf       	rjmp	.-24     	; 0x57ee <vfprintf+0x460>
    5806:	f6 01       	movw	r30, r12
    5808:	97 fc       	sbrc	r9, 7
    580a:	85 91       	lpm	r24, Z+
    580c:	97 fe       	sbrs	r9, 7
    580e:	81 91       	ld	r24, Z+
    5810:	6f 01       	movw	r12, r30
    5812:	b7 01       	movw	r22, r14
    5814:	90 e0       	ldi	r25, 0x00	; 0
    5816:	0e 94 f2 2e 	call	0x5de4	; 0x5de4 <fputc>
    581a:	51 10       	cpse	r5, r1
    581c:	5a 94       	dec	r5
    581e:	01 50       	subi	r16, 0x01	; 1
    5820:	11 09       	sbc	r17, r1
    5822:	01 15       	cp	r16, r1
    5824:	11 05       	cpc	r17, r1
    5826:	79 f7       	brne	.-34     	; 0x5806 <vfprintf+0x478>
    5828:	f7 c0       	rjmp	.+494    	; 0x5a18 <vfprintf+0x68a>
    582a:	84 36       	cpi	r24, 0x64	; 100
    582c:	11 f0       	breq	.+4      	; 0x5832 <vfprintf+0x4a4>
    582e:	89 36       	cpi	r24, 0x69	; 105
    5830:	61 f5       	brne	.+88     	; 0x588a <vfprintf+0x4fc>
    5832:	56 01       	movw	r10, r12
    5834:	97 fe       	sbrs	r9, 7
    5836:	09 c0       	rjmp	.+18     	; 0x584a <vfprintf+0x4bc>
    5838:	24 e0       	ldi	r18, 0x04	; 4
    583a:	a2 0e       	add	r10, r18
    583c:	b1 1c       	adc	r11, r1
    583e:	f6 01       	movw	r30, r12
    5840:	60 81       	ld	r22, Z
    5842:	71 81       	ldd	r23, Z+1	; 0x01
    5844:	82 81       	ldd	r24, Z+2	; 0x02
    5846:	93 81       	ldd	r25, Z+3	; 0x03
    5848:	0a c0       	rjmp	.+20     	; 0x585e <vfprintf+0x4d0>
    584a:	f2 e0       	ldi	r31, 0x02	; 2
    584c:	af 0e       	add	r10, r31
    584e:	b1 1c       	adc	r11, r1
    5850:	f6 01       	movw	r30, r12
    5852:	60 81       	ld	r22, Z
    5854:	71 81       	ldd	r23, Z+1	; 0x01
    5856:	07 2e       	mov	r0, r23
    5858:	00 0c       	add	r0, r0
    585a:	88 0b       	sbc	r24, r24
    585c:	99 0b       	sbc	r25, r25
    585e:	f9 2d       	mov	r31, r9
    5860:	ff 76       	andi	r31, 0x6F	; 111
    5862:	9f 2e       	mov	r9, r31
    5864:	97 ff       	sbrs	r25, 7
    5866:	09 c0       	rjmp	.+18     	; 0x587a <vfprintf+0x4ec>
    5868:	90 95       	com	r25
    586a:	80 95       	com	r24
    586c:	70 95       	com	r23
    586e:	61 95       	neg	r22
    5870:	7f 4f       	sbci	r23, 0xFF	; 255
    5872:	8f 4f       	sbci	r24, 0xFF	; 255
    5874:	9f 4f       	sbci	r25, 0xFF	; 255
    5876:	f0 68       	ori	r31, 0x80	; 128
    5878:	9f 2e       	mov	r9, r31
    587a:	2a e0       	ldi	r18, 0x0A	; 10
    587c:	30 e0       	ldi	r19, 0x00	; 0
    587e:	a3 01       	movw	r20, r6
    5880:	0e 94 69 2f 	call	0x5ed2	; 0x5ed2 <__ultoa_invert>
    5884:	c8 2e       	mov	r12, r24
    5886:	c6 18       	sub	r12, r6
    5888:	3f c0       	rjmp	.+126    	; 0x5908 <vfprintf+0x57a>
    588a:	09 2d       	mov	r16, r9
    588c:	85 37       	cpi	r24, 0x75	; 117
    588e:	21 f4       	brne	.+8      	; 0x5898 <vfprintf+0x50a>
    5890:	0f 7e       	andi	r16, 0xEF	; 239
    5892:	2a e0       	ldi	r18, 0x0A	; 10
    5894:	30 e0       	ldi	r19, 0x00	; 0
    5896:	1d c0       	rjmp	.+58     	; 0x58d2 <vfprintf+0x544>
    5898:	09 7f       	andi	r16, 0xF9	; 249
    589a:	8f 36       	cpi	r24, 0x6F	; 111
    589c:	91 f0       	breq	.+36     	; 0x58c2 <vfprintf+0x534>
    589e:	18 f4       	brcc	.+6      	; 0x58a6 <vfprintf+0x518>
    58a0:	88 35       	cpi	r24, 0x58	; 88
    58a2:	59 f0       	breq	.+22     	; 0x58ba <vfprintf+0x52c>
    58a4:	c3 c0       	rjmp	.+390    	; 0x5a2c <vfprintf+0x69e>
    58a6:	80 37       	cpi	r24, 0x70	; 112
    58a8:	19 f0       	breq	.+6      	; 0x58b0 <vfprintf+0x522>
    58aa:	88 37       	cpi	r24, 0x78	; 120
    58ac:	11 f0       	breq	.+4      	; 0x58b2 <vfprintf+0x524>
    58ae:	be c0       	rjmp	.+380    	; 0x5a2c <vfprintf+0x69e>
    58b0:	00 61       	ori	r16, 0x10	; 16
    58b2:	04 ff       	sbrs	r16, 4
    58b4:	09 c0       	rjmp	.+18     	; 0x58c8 <vfprintf+0x53a>
    58b6:	04 60       	ori	r16, 0x04	; 4
    58b8:	07 c0       	rjmp	.+14     	; 0x58c8 <vfprintf+0x53a>
    58ba:	94 fe       	sbrs	r9, 4
    58bc:	08 c0       	rjmp	.+16     	; 0x58ce <vfprintf+0x540>
    58be:	06 60       	ori	r16, 0x06	; 6
    58c0:	06 c0       	rjmp	.+12     	; 0x58ce <vfprintf+0x540>
    58c2:	28 e0       	ldi	r18, 0x08	; 8
    58c4:	30 e0       	ldi	r19, 0x00	; 0
    58c6:	05 c0       	rjmp	.+10     	; 0x58d2 <vfprintf+0x544>
    58c8:	20 e1       	ldi	r18, 0x10	; 16
    58ca:	30 e0       	ldi	r19, 0x00	; 0
    58cc:	02 c0       	rjmp	.+4      	; 0x58d2 <vfprintf+0x544>
    58ce:	20 e1       	ldi	r18, 0x10	; 16
    58d0:	32 e0       	ldi	r19, 0x02	; 2
    58d2:	56 01       	movw	r10, r12
    58d4:	07 ff       	sbrs	r16, 7
    58d6:	09 c0       	rjmp	.+18     	; 0x58ea <vfprintf+0x55c>
    58d8:	84 e0       	ldi	r24, 0x04	; 4
    58da:	a8 0e       	add	r10, r24
    58dc:	b1 1c       	adc	r11, r1
    58de:	f6 01       	movw	r30, r12
    58e0:	60 81       	ld	r22, Z
    58e2:	71 81       	ldd	r23, Z+1	; 0x01
    58e4:	82 81       	ldd	r24, Z+2	; 0x02
    58e6:	93 81       	ldd	r25, Z+3	; 0x03
    58e8:	08 c0       	rjmp	.+16     	; 0x58fa <vfprintf+0x56c>
    58ea:	f2 e0       	ldi	r31, 0x02	; 2
    58ec:	af 0e       	add	r10, r31
    58ee:	b1 1c       	adc	r11, r1
    58f0:	f6 01       	movw	r30, r12
    58f2:	60 81       	ld	r22, Z
    58f4:	71 81       	ldd	r23, Z+1	; 0x01
    58f6:	80 e0       	ldi	r24, 0x00	; 0
    58f8:	90 e0       	ldi	r25, 0x00	; 0
    58fa:	a3 01       	movw	r20, r6
    58fc:	0e 94 69 2f 	call	0x5ed2	; 0x5ed2 <__ultoa_invert>
    5900:	c8 2e       	mov	r12, r24
    5902:	c6 18       	sub	r12, r6
    5904:	0f 77       	andi	r16, 0x7F	; 127
    5906:	90 2e       	mov	r9, r16
    5908:	96 fe       	sbrs	r9, 6
    590a:	0b c0       	rjmp	.+22     	; 0x5922 <vfprintf+0x594>
    590c:	09 2d       	mov	r16, r9
    590e:	0e 7f       	andi	r16, 0xFE	; 254
    5910:	c1 16       	cp	r12, r17
    5912:	50 f4       	brcc	.+20     	; 0x5928 <vfprintf+0x59a>
    5914:	94 fe       	sbrs	r9, 4
    5916:	0a c0       	rjmp	.+20     	; 0x592c <vfprintf+0x59e>
    5918:	92 fc       	sbrc	r9, 2
    591a:	08 c0       	rjmp	.+16     	; 0x592c <vfprintf+0x59e>
    591c:	09 2d       	mov	r16, r9
    591e:	0e 7e       	andi	r16, 0xEE	; 238
    5920:	05 c0       	rjmp	.+10     	; 0x592c <vfprintf+0x59e>
    5922:	dc 2c       	mov	r13, r12
    5924:	09 2d       	mov	r16, r9
    5926:	03 c0       	rjmp	.+6      	; 0x592e <vfprintf+0x5a0>
    5928:	dc 2c       	mov	r13, r12
    592a:	01 c0       	rjmp	.+2      	; 0x592e <vfprintf+0x5a0>
    592c:	d1 2e       	mov	r13, r17
    592e:	04 ff       	sbrs	r16, 4
    5930:	0d c0       	rjmp	.+26     	; 0x594c <vfprintf+0x5be>
    5932:	fe 01       	movw	r30, r28
    5934:	ec 0d       	add	r30, r12
    5936:	f1 1d       	adc	r31, r1
    5938:	80 81       	ld	r24, Z
    593a:	80 33       	cpi	r24, 0x30	; 48
    593c:	11 f4       	brne	.+4      	; 0x5942 <vfprintf+0x5b4>
    593e:	09 7e       	andi	r16, 0xE9	; 233
    5940:	09 c0       	rjmp	.+18     	; 0x5954 <vfprintf+0x5c6>
    5942:	02 ff       	sbrs	r16, 2
    5944:	06 c0       	rjmp	.+12     	; 0x5952 <vfprintf+0x5c4>
    5946:	d3 94       	inc	r13
    5948:	d3 94       	inc	r13
    594a:	04 c0       	rjmp	.+8      	; 0x5954 <vfprintf+0x5c6>
    594c:	80 2f       	mov	r24, r16
    594e:	86 78       	andi	r24, 0x86	; 134
    5950:	09 f0       	breq	.+2      	; 0x5954 <vfprintf+0x5c6>
    5952:	d3 94       	inc	r13
    5954:	03 fd       	sbrc	r16, 3
    5956:	11 c0       	rjmp	.+34     	; 0x597a <vfprintf+0x5ec>
    5958:	00 ff       	sbrs	r16, 0
    595a:	06 c0       	rjmp	.+12     	; 0x5968 <vfprintf+0x5da>
    595c:	1c 2d       	mov	r17, r12
    595e:	d5 14       	cp	r13, r5
    5960:	80 f4       	brcc	.+32     	; 0x5982 <vfprintf+0x5f4>
    5962:	15 0d       	add	r17, r5
    5964:	1d 19       	sub	r17, r13
    5966:	0d c0       	rjmp	.+26     	; 0x5982 <vfprintf+0x5f4>
    5968:	d5 14       	cp	r13, r5
    596a:	58 f4       	brcc	.+22     	; 0x5982 <vfprintf+0x5f4>
    596c:	b7 01       	movw	r22, r14
    596e:	80 e2       	ldi	r24, 0x20	; 32
    5970:	90 e0       	ldi	r25, 0x00	; 0
    5972:	0e 94 f2 2e 	call	0x5de4	; 0x5de4 <fputc>
    5976:	d3 94       	inc	r13
    5978:	f7 cf       	rjmp	.-18     	; 0x5968 <vfprintf+0x5da>
    597a:	d5 14       	cp	r13, r5
    597c:	10 f4       	brcc	.+4      	; 0x5982 <vfprintf+0x5f4>
    597e:	5d 18       	sub	r5, r13
    5980:	01 c0       	rjmp	.+2      	; 0x5984 <vfprintf+0x5f6>
    5982:	51 2c       	mov	r5, r1
    5984:	04 ff       	sbrs	r16, 4
    5986:	10 c0       	rjmp	.+32     	; 0x59a8 <vfprintf+0x61a>
    5988:	b7 01       	movw	r22, r14
    598a:	80 e3       	ldi	r24, 0x30	; 48
    598c:	90 e0       	ldi	r25, 0x00	; 0
    598e:	0e 94 f2 2e 	call	0x5de4	; 0x5de4 <fputc>
    5992:	02 ff       	sbrs	r16, 2
    5994:	17 c0       	rjmp	.+46     	; 0x59c4 <vfprintf+0x636>
    5996:	01 fd       	sbrc	r16, 1
    5998:	03 c0       	rjmp	.+6      	; 0x59a0 <vfprintf+0x612>
    599a:	88 e7       	ldi	r24, 0x78	; 120
    599c:	90 e0       	ldi	r25, 0x00	; 0
    599e:	02 c0       	rjmp	.+4      	; 0x59a4 <vfprintf+0x616>
    59a0:	88 e5       	ldi	r24, 0x58	; 88
    59a2:	90 e0       	ldi	r25, 0x00	; 0
    59a4:	b7 01       	movw	r22, r14
    59a6:	0c c0       	rjmp	.+24     	; 0x59c0 <vfprintf+0x632>
    59a8:	80 2f       	mov	r24, r16
    59aa:	86 78       	andi	r24, 0x86	; 134
    59ac:	59 f0       	breq	.+22     	; 0x59c4 <vfprintf+0x636>
    59ae:	01 ff       	sbrs	r16, 1
    59b0:	02 c0       	rjmp	.+4      	; 0x59b6 <vfprintf+0x628>
    59b2:	8b e2       	ldi	r24, 0x2B	; 43
    59b4:	01 c0       	rjmp	.+2      	; 0x59b8 <vfprintf+0x62a>
    59b6:	80 e2       	ldi	r24, 0x20	; 32
    59b8:	07 fd       	sbrc	r16, 7
    59ba:	8d e2       	ldi	r24, 0x2D	; 45
    59bc:	b7 01       	movw	r22, r14
    59be:	90 e0       	ldi	r25, 0x00	; 0
    59c0:	0e 94 f2 2e 	call	0x5de4	; 0x5de4 <fputc>
    59c4:	c1 16       	cp	r12, r17
    59c6:	38 f4       	brcc	.+14     	; 0x59d6 <vfprintf+0x648>
    59c8:	b7 01       	movw	r22, r14
    59ca:	80 e3       	ldi	r24, 0x30	; 48
    59cc:	90 e0       	ldi	r25, 0x00	; 0
    59ce:	0e 94 f2 2e 	call	0x5de4	; 0x5de4 <fputc>
    59d2:	11 50       	subi	r17, 0x01	; 1
    59d4:	f7 cf       	rjmp	.-18     	; 0x59c4 <vfprintf+0x636>
    59d6:	ca 94       	dec	r12
    59d8:	f3 01       	movw	r30, r6
    59da:	ec 0d       	add	r30, r12
    59dc:	f1 1d       	adc	r31, r1
    59de:	80 81       	ld	r24, Z
    59e0:	b7 01       	movw	r22, r14
    59e2:	90 e0       	ldi	r25, 0x00	; 0
    59e4:	0e 94 f2 2e 	call	0x5de4	; 0x5de4 <fputc>
    59e8:	c1 10       	cpse	r12, r1
    59ea:	f5 cf       	rjmp	.-22     	; 0x59d6 <vfprintf+0x648>
    59ec:	15 c0       	rjmp	.+42     	; 0x5a18 <vfprintf+0x68a>
    59ee:	f4 e0       	ldi	r31, 0x04	; 4
    59f0:	f5 15       	cp	r31, r5
    59f2:	60 f5       	brcc	.+88     	; 0x5a4c <vfprintf+0x6be>
    59f4:	84 e0       	ldi	r24, 0x04	; 4
    59f6:	58 1a       	sub	r5, r24
    59f8:	93 fe       	sbrs	r9, 3
    59fa:	1f c0       	rjmp	.+62     	; 0x5a3a <vfprintf+0x6ac>
    59fc:	01 11       	cpse	r16, r1
    59fe:	27 c0       	rjmp	.+78     	; 0x5a4e <vfprintf+0x6c0>
    5a00:	2c 85       	ldd	r18, Y+12	; 0x0c
    5a02:	23 ff       	sbrs	r18, 3
    5a04:	2a c0       	rjmp	.+84     	; 0x5a5a <vfprintf+0x6cc>
    5a06:	0a ea       	ldi	r16, 0xAA	; 170
    5a08:	10 e0       	ldi	r17, 0x00	; 0
    5a0a:	39 2d       	mov	r19, r9
    5a0c:	30 71       	andi	r19, 0x10	; 16
    5a0e:	93 2e       	mov	r9, r19
    5a10:	f8 01       	movw	r30, r16
    5a12:	84 91       	lpm	r24, Z
    5a14:	81 11       	cpse	r24, r1
    5a16:	24 c0       	rjmp	.+72     	; 0x5a60 <vfprintf+0x6d2>
    5a18:	55 20       	and	r5, r5
    5a1a:	09 f4       	brne	.+2      	; 0x5a1e <vfprintf+0x690>
    5a1c:	e4 cc       	rjmp	.-1592   	; 0x53e6 <vfprintf+0x58>
    5a1e:	b7 01       	movw	r22, r14
    5a20:	80 e2       	ldi	r24, 0x20	; 32
    5a22:	90 e0       	ldi	r25, 0x00	; 0
    5a24:	0e 94 f2 2e 	call	0x5de4	; 0x5de4 <fputc>
    5a28:	5a 94       	dec	r5
    5a2a:	f6 cf       	rjmp	.-20     	; 0x5a18 <vfprintf+0x68a>
    5a2c:	f7 01       	movw	r30, r14
    5a2e:	86 81       	ldd	r24, Z+6	; 0x06
    5a30:	97 81       	ldd	r25, Z+7	; 0x07
    5a32:	26 c0       	rjmp	.+76     	; 0x5a80 <vfprintf+0x6f2>
    5a34:	8f ef       	ldi	r24, 0xFF	; 255
    5a36:	9f ef       	ldi	r25, 0xFF	; 255
    5a38:	23 c0       	rjmp	.+70     	; 0x5a80 <vfprintf+0x6f2>
    5a3a:	b7 01       	movw	r22, r14
    5a3c:	80 e2       	ldi	r24, 0x20	; 32
    5a3e:	90 e0       	ldi	r25, 0x00	; 0
    5a40:	0e 94 f2 2e 	call	0x5de4	; 0x5de4 <fputc>
    5a44:	5a 94       	dec	r5
    5a46:	51 10       	cpse	r5, r1
    5a48:	f8 cf       	rjmp	.-16     	; 0x5a3a <vfprintf+0x6ac>
    5a4a:	d8 cf       	rjmp	.-80     	; 0x59fc <vfprintf+0x66e>
    5a4c:	51 2c       	mov	r5, r1
    5a4e:	b7 01       	movw	r22, r14
    5a50:	80 2f       	mov	r24, r16
    5a52:	90 e0       	ldi	r25, 0x00	; 0
    5a54:	0e 94 f2 2e 	call	0x5de4	; 0x5de4 <fputc>
    5a58:	d3 cf       	rjmp	.-90     	; 0x5a00 <vfprintf+0x672>
    5a5a:	0e ea       	ldi	r16, 0xAE	; 174
    5a5c:	10 e0       	ldi	r17, 0x00	; 0
    5a5e:	d5 cf       	rjmp	.-86     	; 0x5a0a <vfprintf+0x67c>
    5a60:	91 10       	cpse	r9, r1
    5a62:	80 52       	subi	r24, 0x20	; 32
    5a64:	b7 01       	movw	r22, r14
    5a66:	90 e0       	ldi	r25, 0x00	; 0
    5a68:	0e 94 f2 2e 	call	0x5de4	; 0x5de4 <fputc>
    5a6c:	0f 5f       	subi	r16, 0xFF	; 255
    5a6e:	1f 4f       	sbci	r17, 0xFF	; 255
    5a70:	cf cf       	rjmp	.-98     	; 0x5a10 <vfprintf+0x682>
    5a72:	23 e0       	ldi	r18, 0x03	; 3
    5a74:	25 15       	cp	r18, r5
    5a76:	10 f4       	brcc	.+4      	; 0x5a7c <vfprintf+0x6ee>
    5a78:	83 e0       	ldi	r24, 0x03	; 3
    5a7a:	bd cf       	rjmp	.-134    	; 0x59f6 <vfprintf+0x668>
    5a7c:	51 2c       	mov	r5, r1
    5a7e:	c0 cf       	rjmp	.-128    	; 0x5a00 <vfprintf+0x672>
    5a80:	60 96       	adiw	r28, 0x10	; 16
    5a82:	e2 e1       	ldi	r30, 0x12	; 18
    5a84:	0c 94 ca 2d 	jmp	0x5b94	; 0x5b94 <__epilogue_restores__>

00005a88 <__mulsi3>:
    5a88:	db 01       	movw	r26, r22
    5a8a:	8f 93       	push	r24
    5a8c:	9f 93       	push	r25
    5a8e:	0e 94 9b 2d 	call	0x5b36	; 0x5b36 <__muluhisi3>
    5a92:	bf 91       	pop	r27
    5a94:	af 91       	pop	r26
    5a96:	a2 9f       	mul	r26, r18
    5a98:	80 0d       	add	r24, r0
    5a9a:	91 1d       	adc	r25, r1
    5a9c:	a3 9f       	mul	r26, r19
    5a9e:	90 0d       	add	r25, r0
    5aa0:	b2 9f       	mul	r27, r18
    5aa2:	90 0d       	add	r25, r0
    5aa4:	11 24       	eor	r1, r1
    5aa6:	08 95       	ret

00005aa8 <__udivmodsi4>:
    5aa8:	a1 e2       	ldi	r26, 0x21	; 33
    5aaa:	1a 2e       	mov	r1, r26
    5aac:	aa 1b       	sub	r26, r26
    5aae:	bb 1b       	sub	r27, r27
    5ab0:	fd 01       	movw	r30, r26
    5ab2:	0d c0       	rjmp	.+26     	; 0x5ace <__udivmodsi4_ep>

00005ab4 <__udivmodsi4_loop>:
    5ab4:	aa 1f       	adc	r26, r26
    5ab6:	bb 1f       	adc	r27, r27
    5ab8:	ee 1f       	adc	r30, r30
    5aba:	ff 1f       	adc	r31, r31
    5abc:	a2 17       	cp	r26, r18
    5abe:	b3 07       	cpc	r27, r19
    5ac0:	e4 07       	cpc	r30, r20
    5ac2:	f5 07       	cpc	r31, r21
    5ac4:	20 f0       	brcs	.+8      	; 0x5ace <__udivmodsi4_ep>
    5ac6:	a2 1b       	sub	r26, r18
    5ac8:	b3 0b       	sbc	r27, r19
    5aca:	e4 0b       	sbc	r30, r20
    5acc:	f5 0b       	sbc	r31, r21

00005ace <__udivmodsi4_ep>:
    5ace:	66 1f       	adc	r22, r22
    5ad0:	77 1f       	adc	r23, r23
    5ad2:	88 1f       	adc	r24, r24
    5ad4:	99 1f       	adc	r25, r25
    5ad6:	1a 94       	dec	r1
    5ad8:	69 f7       	brne	.-38     	; 0x5ab4 <__udivmodsi4_loop>
    5ada:	60 95       	com	r22
    5adc:	70 95       	com	r23
    5ade:	80 95       	com	r24
    5ae0:	90 95       	com	r25
    5ae2:	9b 01       	movw	r18, r22
    5ae4:	ac 01       	movw	r20, r24
    5ae6:	bd 01       	movw	r22, r26
    5ae8:	cf 01       	movw	r24, r30
    5aea:	08 95       	ret

00005aec <__divmodsi4>:
    5aec:	05 2e       	mov	r0, r21
    5aee:	97 fb       	bst	r25, 7
    5af0:	1e f4       	brtc	.+6      	; 0x5af8 <__divmodsi4+0xc>
    5af2:	00 94       	com	r0
    5af4:	0e 94 8d 2d 	call	0x5b1a	; 0x5b1a <__negsi2>
    5af8:	57 fd       	sbrc	r21, 7
    5afa:	07 d0       	rcall	.+14     	; 0x5b0a <__divmodsi4_neg2>
    5afc:	0e 94 54 2d 	call	0x5aa8	; 0x5aa8 <__udivmodsi4>
    5b00:	07 fc       	sbrc	r0, 7
    5b02:	03 d0       	rcall	.+6      	; 0x5b0a <__divmodsi4_neg2>
    5b04:	4e f4       	brtc	.+18     	; 0x5b18 <__divmodsi4_exit>
    5b06:	0c 94 8d 2d 	jmp	0x5b1a	; 0x5b1a <__negsi2>

00005b0a <__divmodsi4_neg2>:
    5b0a:	50 95       	com	r21
    5b0c:	40 95       	com	r20
    5b0e:	30 95       	com	r19
    5b10:	21 95       	neg	r18
    5b12:	3f 4f       	sbci	r19, 0xFF	; 255
    5b14:	4f 4f       	sbci	r20, 0xFF	; 255
    5b16:	5f 4f       	sbci	r21, 0xFF	; 255

00005b18 <__divmodsi4_exit>:
    5b18:	08 95       	ret

00005b1a <__negsi2>:
    5b1a:	90 95       	com	r25
    5b1c:	80 95       	com	r24
    5b1e:	70 95       	com	r23
    5b20:	61 95       	neg	r22
    5b22:	7f 4f       	sbci	r23, 0xFF	; 255
    5b24:	8f 4f       	sbci	r24, 0xFF	; 255
    5b26:	9f 4f       	sbci	r25, 0xFF	; 255
    5b28:	08 95       	ret

00005b2a <__tablejump2__>:
    5b2a:	ee 0f       	add	r30, r30
    5b2c:	ff 1f       	adc	r31, r31
    5b2e:	05 90       	lpm	r0, Z+
    5b30:	f4 91       	lpm	r31, Z
    5b32:	e0 2d       	mov	r30, r0
    5b34:	09 94       	ijmp

00005b36 <__muluhisi3>:
    5b36:	0e 94 e5 2d 	call	0x5bca	; 0x5bca <__umulhisi3>
    5b3a:	a5 9f       	mul	r26, r21
    5b3c:	90 0d       	add	r25, r0
    5b3e:	b4 9f       	mul	r27, r20
    5b40:	90 0d       	add	r25, r0
    5b42:	a4 9f       	mul	r26, r20
    5b44:	80 0d       	add	r24, r0
    5b46:	91 1d       	adc	r25, r1
    5b48:	11 24       	eor	r1, r1
    5b4a:	08 95       	ret

00005b4c <__mulshisi3>:
    5b4c:	b7 ff       	sbrs	r27, 7
    5b4e:	0c 94 9b 2d 	jmp	0x5b36	; 0x5b36 <__muluhisi3>

00005b52 <__mulohisi3>:
    5b52:	0e 94 9b 2d 	call	0x5b36	; 0x5b36 <__muluhisi3>
    5b56:	82 1b       	sub	r24, r18
    5b58:	93 0b       	sbc	r25, r19
    5b5a:	08 95       	ret

00005b5c <__prologue_saves__>:
    5b5c:	2f 92       	push	r2
    5b5e:	3f 92       	push	r3
    5b60:	4f 92       	push	r4
    5b62:	5f 92       	push	r5
    5b64:	6f 92       	push	r6
    5b66:	7f 92       	push	r7
    5b68:	8f 92       	push	r8
    5b6a:	9f 92       	push	r9
    5b6c:	af 92       	push	r10
    5b6e:	bf 92       	push	r11
    5b70:	cf 92       	push	r12
    5b72:	df 92       	push	r13
    5b74:	ef 92       	push	r14
    5b76:	ff 92       	push	r15
    5b78:	0f 93       	push	r16
    5b7a:	1f 93       	push	r17
    5b7c:	cf 93       	push	r28
    5b7e:	df 93       	push	r29
    5b80:	cd b7       	in	r28, 0x3d	; 61
    5b82:	de b7       	in	r29, 0x3e	; 62
    5b84:	ca 1b       	sub	r28, r26
    5b86:	db 0b       	sbc	r29, r27
    5b88:	0f b6       	in	r0, 0x3f	; 63
    5b8a:	f8 94       	cli
    5b8c:	de bf       	out	0x3e, r29	; 62
    5b8e:	0f be       	out	0x3f, r0	; 63
    5b90:	cd bf       	out	0x3d, r28	; 61
    5b92:	09 94       	ijmp

00005b94 <__epilogue_restores__>:
    5b94:	2a 88       	ldd	r2, Y+18	; 0x12
    5b96:	39 88       	ldd	r3, Y+17	; 0x11
    5b98:	48 88       	ldd	r4, Y+16	; 0x10
    5b9a:	5f 84       	ldd	r5, Y+15	; 0x0f
    5b9c:	6e 84       	ldd	r6, Y+14	; 0x0e
    5b9e:	7d 84       	ldd	r7, Y+13	; 0x0d
    5ba0:	8c 84       	ldd	r8, Y+12	; 0x0c
    5ba2:	9b 84       	ldd	r9, Y+11	; 0x0b
    5ba4:	aa 84       	ldd	r10, Y+10	; 0x0a
    5ba6:	b9 84       	ldd	r11, Y+9	; 0x09
    5ba8:	c8 84       	ldd	r12, Y+8	; 0x08
    5baa:	df 80       	ldd	r13, Y+7	; 0x07
    5bac:	ee 80       	ldd	r14, Y+6	; 0x06
    5bae:	fd 80       	ldd	r15, Y+5	; 0x05
    5bb0:	0c 81       	ldd	r16, Y+4	; 0x04
    5bb2:	1b 81       	ldd	r17, Y+3	; 0x03
    5bb4:	aa 81       	ldd	r26, Y+2	; 0x02
    5bb6:	b9 81       	ldd	r27, Y+1	; 0x01
    5bb8:	ce 0f       	add	r28, r30
    5bba:	d1 1d       	adc	r29, r1
    5bbc:	0f b6       	in	r0, 0x3f	; 63
    5bbe:	f8 94       	cli
    5bc0:	de bf       	out	0x3e, r29	; 62
    5bc2:	0f be       	out	0x3f, r0	; 63
    5bc4:	cd bf       	out	0x3d, r28	; 61
    5bc6:	ed 01       	movw	r28, r26
    5bc8:	08 95       	ret

00005bca <__umulhisi3>:
    5bca:	a2 9f       	mul	r26, r18
    5bcc:	b0 01       	movw	r22, r0
    5bce:	b3 9f       	mul	r27, r19
    5bd0:	c0 01       	movw	r24, r0
    5bd2:	a3 9f       	mul	r26, r19
    5bd4:	70 0d       	add	r23, r0
    5bd6:	81 1d       	adc	r24, r1
    5bd8:	11 24       	eor	r1, r1
    5bda:	91 1d       	adc	r25, r1
    5bdc:	b2 9f       	mul	r27, r18
    5bde:	70 0d       	add	r23, r0
    5be0:	81 1d       	adc	r24, r1
    5be2:	11 24       	eor	r1, r1
    5be4:	91 1d       	adc	r25, r1
    5be6:	08 95       	ret

00005be8 <__ftoa_engine>:
    5be8:	28 30       	cpi	r18, 0x08	; 8
    5bea:	08 f0       	brcs	.+2      	; 0x5bee <__ftoa_engine+0x6>
    5bec:	27 e0       	ldi	r18, 0x07	; 7
    5bee:	33 27       	eor	r19, r19
    5bf0:	da 01       	movw	r26, r20
    5bf2:	99 0f       	add	r25, r25
    5bf4:	31 1d       	adc	r19, r1
    5bf6:	87 fd       	sbrc	r24, 7
    5bf8:	91 60       	ori	r25, 0x01	; 1
    5bfa:	00 96       	adiw	r24, 0x00	; 0
    5bfc:	61 05       	cpc	r22, r1
    5bfe:	71 05       	cpc	r23, r1
    5c00:	39 f4       	brne	.+14     	; 0x5c10 <__ftoa_engine+0x28>
    5c02:	32 60       	ori	r19, 0x02	; 2
    5c04:	2e 5f       	subi	r18, 0xFE	; 254
    5c06:	3d 93       	st	X+, r19
    5c08:	30 e3       	ldi	r19, 0x30	; 48
    5c0a:	2a 95       	dec	r18
    5c0c:	e1 f7       	brne	.-8      	; 0x5c06 <__ftoa_engine+0x1e>
    5c0e:	08 95       	ret
    5c10:	9f 3f       	cpi	r25, 0xFF	; 255
    5c12:	30 f0       	brcs	.+12     	; 0x5c20 <__ftoa_engine+0x38>
    5c14:	80 38       	cpi	r24, 0x80	; 128
    5c16:	71 05       	cpc	r23, r1
    5c18:	61 05       	cpc	r22, r1
    5c1a:	09 f0       	breq	.+2      	; 0x5c1e <__ftoa_engine+0x36>
    5c1c:	3c 5f       	subi	r19, 0xFC	; 252
    5c1e:	3c 5f       	subi	r19, 0xFC	; 252
    5c20:	3d 93       	st	X+, r19
    5c22:	91 30       	cpi	r25, 0x01	; 1
    5c24:	08 f0       	brcs	.+2      	; 0x5c28 <__ftoa_engine+0x40>
    5c26:	80 68       	ori	r24, 0x80	; 128
    5c28:	91 1d       	adc	r25, r1
    5c2a:	df 93       	push	r29
    5c2c:	cf 93       	push	r28
    5c2e:	1f 93       	push	r17
    5c30:	0f 93       	push	r16
    5c32:	ff 92       	push	r15
    5c34:	ef 92       	push	r14
    5c36:	19 2f       	mov	r17, r25
    5c38:	98 7f       	andi	r25, 0xF8	; 248
    5c3a:	96 95       	lsr	r25
    5c3c:	e9 2f       	mov	r30, r25
    5c3e:	96 95       	lsr	r25
    5c40:	96 95       	lsr	r25
    5c42:	e9 0f       	add	r30, r25
    5c44:	ff 27       	eor	r31, r31
    5c46:	e4 5f       	subi	r30, 0xF4	; 244
    5c48:	fe 4f       	sbci	r31, 0xFE	; 254
    5c4a:	99 27       	eor	r25, r25
    5c4c:	33 27       	eor	r19, r19
    5c4e:	ee 24       	eor	r14, r14
    5c50:	ff 24       	eor	r15, r15
    5c52:	a7 01       	movw	r20, r14
    5c54:	e7 01       	movw	r28, r14
    5c56:	05 90       	lpm	r0, Z+
    5c58:	08 94       	sec
    5c5a:	07 94       	ror	r0
    5c5c:	28 f4       	brcc	.+10     	; 0x5c68 <__ftoa_engine+0x80>
    5c5e:	36 0f       	add	r19, r22
    5c60:	e7 1e       	adc	r14, r23
    5c62:	f8 1e       	adc	r15, r24
    5c64:	49 1f       	adc	r20, r25
    5c66:	51 1d       	adc	r21, r1
    5c68:	66 0f       	add	r22, r22
    5c6a:	77 1f       	adc	r23, r23
    5c6c:	88 1f       	adc	r24, r24
    5c6e:	99 1f       	adc	r25, r25
    5c70:	06 94       	lsr	r0
    5c72:	a1 f7       	brne	.-24     	; 0x5c5c <__ftoa_engine+0x74>
    5c74:	05 90       	lpm	r0, Z+
    5c76:	07 94       	ror	r0
    5c78:	28 f4       	brcc	.+10     	; 0x5c84 <__ftoa_engine+0x9c>
    5c7a:	e7 0e       	add	r14, r23
    5c7c:	f8 1e       	adc	r15, r24
    5c7e:	49 1f       	adc	r20, r25
    5c80:	56 1f       	adc	r21, r22
    5c82:	c1 1d       	adc	r28, r1
    5c84:	77 0f       	add	r23, r23
    5c86:	88 1f       	adc	r24, r24
    5c88:	99 1f       	adc	r25, r25
    5c8a:	66 1f       	adc	r22, r22
    5c8c:	06 94       	lsr	r0
    5c8e:	a1 f7       	brne	.-24     	; 0x5c78 <__ftoa_engine+0x90>
    5c90:	05 90       	lpm	r0, Z+
    5c92:	07 94       	ror	r0
    5c94:	28 f4       	brcc	.+10     	; 0x5ca0 <__ftoa_engine+0xb8>
    5c96:	f8 0e       	add	r15, r24
    5c98:	49 1f       	adc	r20, r25
    5c9a:	56 1f       	adc	r21, r22
    5c9c:	c7 1f       	adc	r28, r23
    5c9e:	d1 1d       	adc	r29, r1
    5ca0:	88 0f       	add	r24, r24
    5ca2:	99 1f       	adc	r25, r25
    5ca4:	66 1f       	adc	r22, r22
    5ca6:	77 1f       	adc	r23, r23
    5ca8:	06 94       	lsr	r0
    5caa:	a1 f7       	brne	.-24     	; 0x5c94 <__ftoa_engine+0xac>
    5cac:	05 90       	lpm	r0, Z+
    5cae:	07 94       	ror	r0
    5cb0:	20 f4       	brcc	.+8      	; 0x5cba <__ftoa_engine+0xd2>
    5cb2:	49 0f       	add	r20, r25
    5cb4:	56 1f       	adc	r21, r22
    5cb6:	c7 1f       	adc	r28, r23
    5cb8:	d8 1f       	adc	r29, r24
    5cba:	99 0f       	add	r25, r25
    5cbc:	66 1f       	adc	r22, r22
    5cbe:	77 1f       	adc	r23, r23
    5cc0:	88 1f       	adc	r24, r24
    5cc2:	06 94       	lsr	r0
    5cc4:	a9 f7       	brne	.-22     	; 0x5cb0 <__ftoa_engine+0xc8>
    5cc6:	84 91       	lpm	r24, Z
    5cc8:	10 95       	com	r17
    5cca:	17 70       	andi	r17, 0x07	; 7
    5ccc:	41 f0       	breq	.+16     	; 0x5cde <__ftoa_engine+0xf6>
    5cce:	d6 95       	lsr	r29
    5cd0:	c7 95       	ror	r28
    5cd2:	57 95       	ror	r21
    5cd4:	47 95       	ror	r20
    5cd6:	f7 94       	ror	r15
    5cd8:	e7 94       	ror	r14
    5cda:	1a 95       	dec	r17
    5cdc:	c1 f7       	brne	.-16     	; 0x5cce <__ftoa_engine+0xe6>
    5cde:	e2 eb       	ldi	r30, 0xB2	; 178
    5ce0:	f0 e0       	ldi	r31, 0x00	; 0
    5ce2:	68 94       	set
    5ce4:	15 90       	lpm	r1, Z+
    5ce6:	15 91       	lpm	r17, Z+
    5ce8:	35 91       	lpm	r19, Z+
    5cea:	65 91       	lpm	r22, Z+
    5cec:	95 91       	lpm	r25, Z+
    5cee:	05 90       	lpm	r0, Z+
    5cf0:	7f e2       	ldi	r23, 0x2F	; 47
    5cf2:	73 95       	inc	r23
    5cf4:	e1 18       	sub	r14, r1
    5cf6:	f1 0a       	sbc	r15, r17
    5cf8:	43 0b       	sbc	r20, r19
    5cfa:	56 0b       	sbc	r21, r22
    5cfc:	c9 0b       	sbc	r28, r25
    5cfe:	d0 09       	sbc	r29, r0
    5d00:	c0 f7       	brcc	.-16     	; 0x5cf2 <__ftoa_engine+0x10a>
    5d02:	e1 0c       	add	r14, r1
    5d04:	f1 1e       	adc	r15, r17
    5d06:	43 1f       	adc	r20, r19
    5d08:	56 1f       	adc	r21, r22
    5d0a:	c9 1f       	adc	r28, r25
    5d0c:	d0 1d       	adc	r29, r0
    5d0e:	7e f4       	brtc	.+30     	; 0x5d2e <__ftoa_engine+0x146>
    5d10:	70 33       	cpi	r23, 0x30	; 48
    5d12:	11 f4       	brne	.+4      	; 0x5d18 <__ftoa_engine+0x130>
    5d14:	8a 95       	dec	r24
    5d16:	e6 cf       	rjmp	.-52     	; 0x5ce4 <__ftoa_engine+0xfc>
    5d18:	e8 94       	clt
    5d1a:	01 50       	subi	r16, 0x01	; 1
    5d1c:	30 f0       	brcs	.+12     	; 0x5d2a <__ftoa_engine+0x142>
    5d1e:	08 0f       	add	r16, r24
    5d20:	0a f4       	brpl	.+2      	; 0x5d24 <__ftoa_engine+0x13c>
    5d22:	00 27       	eor	r16, r16
    5d24:	02 17       	cp	r16, r18
    5d26:	08 f4       	brcc	.+2      	; 0x5d2a <__ftoa_engine+0x142>
    5d28:	20 2f       	mov	r18, r16
    5d2a:	23 95       	inc	r18
    5d2c:	02 2f       	mov	r16, r18
    5d2e:	7a 33       	cpi	r23, 0x3A	; 58
    5d30:	28 f0       	brcs	.+10     	; 0x5d3c <__ftoa_engine+0x154>
    5d32:	79 e3       	ldi	r23, 0x39	; 57
    5d34:	7d 93       	st	X+, r23
    5d36:	2a 95       	dec	r18
    5d38:	e9 f7       	brne	.-6      	; 0x5d34 <__ftoa_engine+0x14c>
    5d3a:	10 c0       	rjmp	.+32     	; 0x5d5c <__ftoa_engine+0x174>
    5d3c:	7d 93       	st	X+, r23
    5d3e:	2a 95       	dec	r18
    5d40:	89 f6       	brne	.-94     	; 0x5ce4 <__ftoa_engine+0xfc>
    5d42:	06 94       	lsr	r0
    5d44:	97 95       	ror	r25
    5d46:	67 95       	ror	r22
    5d48:	37 95       	ror	r19
    5d4a:	17 95       	ror	r17
    5d4c:	17 94       	ror	r1
    5d4e:	e1 18       	sub	r14, r1
    5d50:	f1 0a       	sbc	r15, r17
    5d52:	43 0b       	sbc	r20, r19
    5d54:	56 0b       	sbc	r21, r22
    5d56:	c9 0b       	sbc	r28, r25
    5d58:	d0 09       	sbc	r29, r0
    5d5a:	98 f0       	brcs	.+38     	; 0x5d82 <__ftoa_engine+0x19a>
    5d5c:	23 95       	inc	r18
    5d5e:	7e 91       	ld	r23, -X
    5d60:	73 95       	inc	r23
    5d62:	7a 33       	cpi	r23, 0x3A	; 58
    5d64:	08 f0       	brcs	.+2      	; 0x5d68 <__ftoa_engine+0x180>
    5d66:	70 e3       	ldi	r23, 0x30	; 48
    5d68:	7c 93       	st	X, r23
    5d6a:	20 13       	cpse	r18, r16
    5d6c:	b8 f7       	brcc	.-18     	; 0x5d5c <__ftoa_engine+0x174>
    5d6e:	7e 91       	ld	r23, -X
    5d70:	70 61       	ori	r23, 0x10	; 16
    5d72:	7d 93       	st	X+, r23
    5d74:	30 f0       	brcs	.+12     	; 0x5d82 <__ftoa_engine+0x19a>
    5d76:	83 95       	inc	r24
    5d78:	71 e3       	ldi	r23, 0x31	; 49
    5d7a:	7d 93       	st	X+, r23
    5d7c:	70 e3       	ldi	r23, 0x30	; 48
    5d7e:	2a 95       	dec	r18
    5d80:	e1 f7       	brne	.-8      	; 0x5d7a <__ftoa_engine+0x192>
    5d82:	11 24       	eor	r1, r1
    5d84:	ef 90       	pop	r14
    5d86:	ff 90       	pop	r15
    5d88:	0f 91       	pop	r16
    5d8a:	1f 91       	pop	r17
    5d8c:	cf 91       	pop	r28
    5d8e:	df 91       	pop	r29
    5d90:	99 27       	eor	r25, r25
    5d92:	87 fd       	sbrc	r24, 7
    5d94:	90 95       	com	r25
    5d96:	08 95       	ret

00005d98 <strnlen_P>:
    5d98:	fc 01       	movw	r30, r24
    5d9a:	05 90       	lpm	r0, Z+
    5d9c:	61 50       	subi	r22, 0x01	; 1
    5d9e:	70 40       	sbci	r23, 0x00	; 0
    5da0:	01 10       	cpse	r0, r1
    5da2:	d8 f7       	brcc	.-10     	; 0x5d9a <strnlen_P+0x2>
    5da4:	80 95       	com	r24
    5da6:	90 95       	com	r25
    5da8:	8e 0f       	add	r24, r30
    5daa:	9f 1f       	adc	r25, r31
    5dac:	08 95       	ret

00005dae <memset>:
    5dae:	dc 01       	movw	r26, r24
    5db0:	01 c0       	rjmp	.+2      	; 0x5db4 <memset+0x6>
    5db2:	6d 93       	st	X+, r22
    5db4:	41 50       	subi	r20, 0x01	; 1
    5db6:	50 40       	sbci	r21, 0x00	; 0
    5db8:	e0 f7       	brcc	.-8      	; 0x5db2 <memset+0x4>
    5dba:	08 95       	ret

00005dbc <strcmp>:
    5dbc:	fb 01       	movw	r30, r22
    5dbe:	dc 01       	movw	r26, r24
    5dc0:	8d 91       	ld	r24, X+
    5dc2:	01 90       	ld	r0, Z+
    5dc4:	80 19       	sub	r24, r0
    5dc6:	01 10       	cpse	r0, r1
    5dc8:	d9 f3       	breq	.-10     	; 0x5dc0 <strcmp+0x4>
    5dca:	99 0b       	sbc	r25, r25
    5dcc:	08 95       	ret

00005dce <strnlen>:
    5dce:	fc 01       	movw	r30, r24
    5dd0:	61 50       	subi	r22, 0x01	; 1
    5dd2:	70 40       	sbci	r23, 0x00	; 0
    5dd4:	01 90       	ld	r0, Z+
    5dd6:	01 10       	cpse	r0, r1
    5dd8:	d8 f7       	brcc	.-10     	; 0x5dd0 <strnlen+0x2>
    5dda:	80 95       	com	r24
    5ddc:	90 95       	com	r25
    5dde:	8e 0f       	add	r24, r30
    5de0:	9f 1f       	adc	r25, r31
    5de2:	08 95       	ret

00005de4 <fputc>:
    5de4:	0f 93       	push	r16
    5de6:	1f 93       	push	r17
    5de8:	cf 93       	push	r28
    5dea:	df 93       	push	r29
    5dec:	fb 01       	movw	r30, r22
    5dee:	23 81       	ldd	r18, Z+3	; 0x03
    5df0:	21 fd       	sbrc	r18, 1
    5df2:	03 c0       	rjmp	.+6      	; 0x5dfa <fputc+0x16>
    5df4:	8f ef       	ldi	r24, 0xFF	; 255
    5df6:	9f ef       	ldi	r25, 0xFF	; 255
    5df8:	2c c0       	rjmp	.+88     	; 0x5e52 <fputc+0x6e>
    5dfa:	22 ff       	sbrs	r18, 2
    5dfc:	16 c0       	rjmp	.+44     	; 0x5e2a <fputc+0x46>
    5dfe:	46 81       	ldd	r20, Z+6	; 0x06
    5e00:	57 81       	ldd	r21, Z+7	; 0x07
    5e02:	24 81       	ldd	r18, Z+4	; 0x04
    5e04:	35 81       	ldd	r19, Z+5	; 0x05
    5e06:	42 17       	cp	r20, r18
    5e08:	53 07       	cpc	r21, r19
    5e0a:	44 f4       	brge	.+16     	; 0x5e1c <fputc+0x38>
    5e0c:	a0 81       	ld	r26, Z
    5e0e:	b1 81       	ldd	r27, Z+1	; 0x01
    5e10:	9d 01       	movw	r18, r26
    5e12:	2f 5f       	subi	r18, 0xFF	; 255
    5e14:	3f 4f       	sbci	r19, 0xFF	; 255
    5e16:	31 83       	std	Z+1, r19	; 0x01
    5e18:	20 83       	st	Z, r18
    5e1a:	8c 93       	st	X, r24
    5e1c:	26 81       	ldd	r18, Z+6	; 0x06
    5e1e:	37 81       	ldd	r19, Z+7	; 0x07
    5e20:	2f 5f       	subi	r18, 0xFF	; 255
    5e22:	3f 4f       	sbci	r19, 0xFF	; 255
    5e24:	37 83       	std	Z+7, r19	; 0x07
    5e26:	26 83       	std	Z+6, r18	; 0x06
    5e28:	14 c0       	rjmp	.+40     	; 0x5e52 <fputc+0x6e>
    5e2a:	8b 01       	movw	r16, r22
    5e2c:	ec 01       	movw	r28, r24
    5e2e:	fb 01       	movw	r30, r22
    5e30:	00 84       	ldd	r0, Z+8	; 0x08
    5e32:	f1 85       	ldd	r31, Z+9	; 0x09
    5e34:	e0 2d       	mov	r30, r0
    5e36:	09 95       	icall
    5e38:	89 2b       	or	r24, r25
    5e3a:	e1 f6       	brne	.-72     	; 0x5df4 <fputc+0x10>
    5e3c:	d8 01       	movw	r26, r16
    5e3e:	16 96       	adiw	r26, 0x06	; 6
    5e40:	8d 91       	ld	r24, X+
    5e42:	9c 91       	ld	r25, X
    5e44:	17 97       	sbiw	r26, 0x07	; 7
    5e46:	01 96       	adiw	r24, 0x01	; 1
    5e48:	17 96       	adiw	r26, 0x07	; 7
    5e4a:	9c 93       	st	X, r25
    5e4c:	8e 93       	st	-X, r24
    5e4e:	16 97       	sbiw	r26, 0x06	; 6
    5e50:	ce 01       	movw	r24, r28
    5e52:	df 91       	pop	r29
    5e54:	cf 91       	pop	r28
    5e56:	1f 91       	pop	r17
    5e58:	0f 91       	pop	r16
    5e5a:	08 95       	ret

00005e5c <sprintf>:
    5e5c:	ae e0       	ldi	r26, 0x0E	; 14
    5e5e:	b0 e0       	ldi	r27, 0x00	; 0
    5e60:	e4 e3       	ldi	r30, 0x34	; 52
    5e62:	ff e2       	ldi	r31, 0x2F	; 47
    5e64:	0c 94 bc 2d 	jmp	0x5b78	; 0x5b78 <__prologue_saves__+0x1c>
    5e68:	0d 89       	ldd	r16, Y+21	; 0x15
    5e6a:	1e 89       	ldd	r17, Y+22	; 0x16
    5e6c:	86 e0       	ldi	r24, 0x06	; 6
    5e6e:	8c 83       	std	Y+4, r24	; 0x04
    5e70:	1a 83       	std	Y+2, r17	; 0x02
    5e72:	09 83       	std	Y+1, r16	; 0x01
    5e74:	8f ef       	ldi	r24, 0xFF	; 255
    5e76:	9f e7       	ldi	r25, 0x7F	; 127
    5e78:	9e 83       	std	Y+6, r25	; 0x06
    5e7a:	8d 83       	std	Y+5, r24	; 0x05
    5e7c:	ae 01       	movw	r20, r28
    5e7e:	47 5e       	subi	r20, 0xE7	; 231
    5e80:	5f 4f       	sbci	r21, 0xFF	; 255
    5e82:	6f 89       	ldd	r22, Y+23	; 0x17
    5e84:	78 8d       	ldd	r23, Y+24	; 0x18
    5e86:	ce 01       	movw	r24, r28
    5e88:	01 96       	adiw	r24, 0x01	; 1
    5e8a:	0e 94 c7 29 	call	0x538e	; 0x538e <vfprintf>
    5e8e:	ef 81       	ldd	r30, Y+7	; 0x07
    5e90:	f8 85       	ldd	r31, Y+8	; 0x08
    5e92:	e0 0f       	add	r30, r16
    5e94:	f1 1f       	adc	r31, r17
    5e96:	10 82       	st	Z, r1
    5e98:	2e 96       	adiw	r28, 0x0e	; 14
    5e9a:	e4 e0       	ldi	r30, 0x04	; 4
    5e9c:	0c 94 d8 2d 	jmp	0x5bb0	; 0x5bb0 <__epilogue_restores__+0x1c>

00005ea0 <sscanf>:
    5ea0:	ae e0       	ldi	r26, 0x0E	; 14
    5ea2:	b0 e0       	ldi	r27, 0x00	; 0
    5ea4:	e6 e5       	ldi	r30, 0x56	; 86
    5ea6:	ff e2       	ldi	r31, 0x2F	; 47
    5ea8:	0c 94 be 2d 	jmp	0x5b7c	; 0x5b7c <__prologue_saves__+0x20>
    5eac:	85 e0       	ldi	r24, 0x05	; 5
    5eae:	8c 83       	std	Y+4, r24	; 0x04
    5eb0:	8b 89       	ldd	r24, Y+19	; 0x13
    5eb2:	9c 89       	ldd	r25, Y+20	; 0x14
    5eb4:	9a 83       	std	Y+2, r25	; 0x02
    5eb6:	89 83       	std	Y+1, r24	; 0x01
    5eb8:	ae 01       	movw	r20, r28
    5eba:	49 5e       	subi	r20, 0xE9	; 233
    5ebc:	5f 4f       	sbci	r21, 0xFF	; 255
    5ebe:	6d 89       	ldd	r22, Y+21	; 0x15
    5ec0:	7e 89       	ldd	r23, Y+22	; 0x16
    5ec2:	ce 01       	movw	r24, r28
    5ec4:	01 96       	adiw	r24, 0x01	; 1
    5ec6:	0e 94 63 31 	call	0x62c6	; 0x62c6 <vfscanf>
    5eca:	2e 96       	adiw	r28, 0x0e	; 14
    5ecc:	e2 e0       	ldi	r30, 0x02	; 2
    5ece:	0c 94 da 2d 	jmp	0x5bb4	; 0x5bb4 <__epilogue_restores__+0x20>

00005ed2 <__ultoa_invert>:
    5ed2:	fa 01       	movw	r30, r20
    5ed4:	aa 27       	eor	r26, r26
    5ed6:	28 30       	cpi	r18, 0x08	; 8
    5ed8:	51 f1       	breq	.+84     	; 0x5f2e <__ultoa_invert+0x5c>
    5eda:	20 31       	cpi	r18, 0x10	; 16
    5edc:	81 f1       	breq	.+96     	; 0x5f3e <__ultoa_invert+0x6c>
    5ede:	e8 94       	clt
    5ee0:	6f 93       	push	r22
    5ee2:	6e 7f       	andi	r22, 0xFE	; 254
    5ee4:	6e 5f       	subi	r22, 0xFE	; 254
    5ee6:	7f 4f       	sbci	r23, 0xFF	; 255
    5ee8:	8f 4f       	sbci	r24, 0xFF	; 255
    5eea:	9f 4f       	sbci	r25, 0xFF	; 255
    5eec:	af 4f       	sbci	r26, 0xFF	; 255
    5eee:	b1 e0       	ldi	r27, 0x01	; 1
    5ef0:	3e d0       	rcall	.+124    	; 0x5f6e <__ultoa_invert+0x9c>
    5ef2:	b4 e0       	ldi	r27, 0x04	; 4
    5ef4:	3c d0       	rcall	.+120    	; 0x5f6e <__ultoa_invert+0x9c>
    5ef6:	67 0f       	add	r22, r23
    5ef8:	78 1f       	adc	r23, r24
    5efa:	89 1f       	adc	r24, r25
    5efc:	9a 1f       	adc	r25, r26
    5efe:	a1 1d       	adc	r26, r1
    5f00:	68 0f       	add	r22, r24
    5f02:	79 1f       	adc	r23, r25
    5f04:	8a 1f       	adc	r24, r26
    5f06:	91 1d       	adc	r25, r1
    5f08:	a1 1d       	adc	r26, r1
    5f0a:	6a 0f       	add	r22, r26
    5f0c:	71 1d       	adc	r23, r1
    5f0e:	81 1d       	adc	r24, r1
    5f10:	91 1d       	adc	r25, r1
    5f12:	a1 1d       	adc	r26, r1
    5f14:	20 d0       	rcall	.+64     	; 0x5f56 <__ultoa_invert+0x84>
    5f16:	09 f4       	brne	.+2      	; 0x5f1a <__ultoa_invert+0x48>
    5f18:	68 94       	set
    5f1a:	3f 91       	pop	r19
    5f1c:	2a e0       	ldi	r18, 0x0A	; 10
    5f1e:	26 9f       	mul	r18, r22
    5f20:	11 24       	eor	r1, r1
    5f22:	30 19       	sub	r19, r0
    5f24:	30 5d       	subi	r19, 0xD0	; 208
    5f26:	31 93       	st	Z+, r19
    5f28:	de f6       	brtc	.-74     	; 0x5ee0 <__ultoa_invert+0xe>
    5f2a:	cf 01       	movw	r24, r30
    5f2c:	08 95       	ret
    5f2e:	46 2f       	mov	r20, r22
    5f30:	47 70       	andi	r20, 0x07	; 7
    5f32:	40 5d       	subi	r20, 0xD0	; 208
    5f34:	41 93       	st	Z+, r20
    5f36:	b3 e0       	ldi	r27, 0x03	; 3
    5f38:	0f d0       	rcall	.+30     	; 0x5f58 <__ultoa_invert+0x86>
    5f3a:	c9 f7       	brne	.-14     	; 0x5f2e <__ultoa_invert+0x5c>
    5f3c:	f6 cf       	rjmp	.-20     	; 0x5f2a <__ultoa_invert+0x58>
    5f3e:	46 2f       	mov	r20, r22
    5f40:	4f 70       	andi	r20, 0x0F	; 15
    5f42:	40 5d       	subi	r20, 0xD0	; 208
    5f44:	4a 33       	cpi	r20, 0x3A	; 58
    5f46:	18 f0       	brcs	.+6      	; 0x5f4e <__ultoa_invert+0x7c>
    5f48:	49 5d       	subi	r20, 0xD9	; 217
    5f4a:	31 fd       	sbrc	r19, 1
    5f4c:	40 52       	subi	r20, 0x20	; 32
    5f4e:	41 93       	st	Z+, r20
    5f50:	02 d0       	rcall	.+4      	; 0x5f56 <__ultoa_invert+0x84>
    5f52:	a9 f7       	brne	.-22     	; 0x5f3e <__ultoa_invert+0x6c>
    5f54:	ea cf       	rjmp	.-44     	; 0x5f2a <__ultoa_invert+0x58>
    5f56:	b4 e0       	ldi	r27, 0x04	; 4
    5f58:	a6 95       	lsr	r26
    5f5a:	97 95       	ror	r25
    5f5c:	87 95       	ror	r24
    5f5e:	77 95       	ror	r23
    5f60:	67 95       	ror	r22
    5f62:	ba 95       	dec	r27
    5f64:	c9 f7       	brne	.-14     	; 0x5f58 <__ultoa_invert+0x86>
    5f66:	00 97       	sbiw	r24, 0x00	; 0
    5f68:	61 05       	cpc	r22, r1
    5f6a:	71 05       	cpc	r23, r1
    5f6c:	08 95       	ret
    5f6e:	9b 01       	movw	r18, r22
    5f70:	ac 01       	movw	r20, r24
    5f72:	0a 2e       	mov	r0, r26
    5f74:	06 94       	lsr	r0
    5f76:	57 95       	ror	r21
    5f78:	47 95       	ror	r20
    5f7a:	37 95       	ror	r19
    5f7c:	27 95       	ror	r18
    5f7e:	ba 95       	dec	r27
    5f80:	c9 f7       	brne	.-14     	; 0x5f74 <__ultoa_invert+0xa2>
    5f82:	62 0f       	add	r22, r18
    5f84:	73 1f       	adc	r23, r19
    5f86:	84 1f       	adc	r24, r20
    5f88:	95 1f       	adc	r25, r21
    5f8a:	a0 1d       	adc	r26, r0
    5f8c:	08 95       	ret

00005f8e <putval>:
    5f8e:	20 fd       	sbrc	r18, 0
    5f90:	09 c0       	rjmp	.+18     	; 0x5fa4 <putval+0x16>
    5f92:	fc 01       	movw	r30, r24
    5f94:	23 fd       	sbrc	r18, 3
    5f96:	05 c0       	rjmp	.+10     	; 0x5fa2 <putval+0x14>
    5f98:	22 ff       	sbrs	r18, 2
    5f9a:	02 c0       	rjmp	.+4      	; 0x5fa0 <putval+0x12>
    5f9c:	73 83       	std	Z+3, r23	; 0x03
    5f9e:	62 83       	std	Z+2, r22	; 0x02
    5fa0:	51 83       	std	Z+1, r21	; 0x01
    5fa2:	40 83       	st	Z, r20
    5fa4:	08 95       	ret

00005fa6 <mulacc>:
    5fa6:	44 fd       	sbrc	r20, 4
    5fa8:	17 c0       	rjmp	.+46     	; 0x5fd8 <mulacc+0x32>
    5faa:	46 fd       	sbrc	r20, 6
    5fac:	17 c0       	rjmp	.+46     	; 0x5fdc <mulacc+0x36>
    5fae:	ab 01       	movw	r20, r22
    5fb0:	bc 01       	movw	r22, r24
    5fb2:	da 01       	movw	r26, r20
    5fb4:	fb 01       	movw	r30, r22
    5fb6:	aa 0f       	add	r26, r26
    5fb8:	bb 1f       	adc	r27, r27
    5fba:	ee 1f       	adc	r30, r30
    5fbc:	ff 1f       	adc	r31, r31
    5fbe:	10 94       	com	r1
    5fc0:	d1 f7       	brne	.-12     	; 0x5fb6 <mulacc+0x10>
    5fc2:	4a 0f       	add	r20, r26
    5fc4:	5b 1f       	adc	r21, r27
    5fc6:	6e 1f       	adc	r22, r30
    5fc8:	7f 1f       	adc	r23, r31
    5fca:	cb 01       	movw	r24, r22
    5fcc:	ba 01       	movw	r22, r20
    5fce:	66 0f       	add	r22, r22
    5fd0:	77 1f       	adc	r23, r23
    5fd2:	88 1f       	adc	r24, r24
    5fd4:	99 1f       	adc	r25, r25
    5fd6:	09 c0       	rjmp	.+18     	; 0x5fea <mulacc+0x44>
    5fd8:	33 e0       	ldi	r19, 0x03	; 3
    5fda:	01 c0       	rjmp	.+2      	; 0x5fde <mulacc+0x38>
    5fdc:	34 e0       	ldi	r19, 0x04	; 4
    5fde:	66 0f       	add	r22, r22
    5fe0:	77 1f       	adc	r23, r23
    5fe2:	88 1f       	adc	r24, r24
    5fe4:	99 1f       	adc	r25, r25
    5fe6:	31 50       	subi	r19, 0x01	; 1
    5fe8:	d1 f7       	brne	.-12     	; 0x5fde <mulacc+0x38>
    5fea:	62 0f       	add	r22, r18
    5fec:	71 1d       	adc	r23, r1
    5fee:	81 1d       	adc	r24, r1
    5ff0:	91 1d       	adc	r25, r1
    5ff2:	08 95       	ret

00005ff4 <skip_spaces>:
    5ff4:	0f 93       	push	r16
    5ff6:	1f 93       	push	r17
    5ff8:	cf 93       	push	r28
    5ffa:	df 93       	push	r29
    5ffc:	8c 01       	movw	r16, r24
    5ffe:	c8 01       	movw	r24, r16
    6000:	0e 94 88 32 	call	0x6510	; 0x6510 <fgetc>
    6004:	ec 01       	movw	r28, r24
    6006:	97 fd       	sbrc	r25, 7
    6008:	08 c0       	rjmp	.+16     	; 0x601a <skip_spaces+0x26>
    600a:	0e 94 74 32 	call	0x64e8	; 0x64e8 <isspace>
    600e:	89 2b       	or	r24, r25
    6010:	b1 f7       	brne	.-20     	; 0x5ffe <skip_spaces+0xa>
    6012:	b8 01       	movw	r22, r16
    6014:	ce 01       	movw	r24, r28
    6016:	0e 94 c6 32 	call	0x658c	; 0x658c <ungetc>
    601a:	ce 01       	movw	r24, r28
    601c:	df 91       	pop	r29
    601e:	cf 91       	pop	r28
    6020:	1f 91       	pop	r17
    6022:	0f 91       	pop	r16
    6024:	08 95       	ret

00006026 <conv_int>:
    6026:	8f 92       	push	r8
    6028:	9f 92       	push	r9
    602a:	af 92       	push	r10
    602c:	bf 92       	push	r11
    602e:	ef 92       	push	r14
    6030:	ff 92       	push	r15
    6032:	0f 93       	push	r16
    6034:	1f 93       	push	r17
    6036:	cf 93       	push	r28
    6038:	df 93       	push	r29
    603a:	8c 01       	movw	r16, r24
    603c:	d6 2f       	mov	r29, r22
    603e:	7a 01       	movw	r14, r20
    6040:	b2 2e       	mov	r11, r18
    6042:	0e 94 88 32 	call	0x6510	; 0x6510 <fgetc>
    6046:	9c 01       	movw	r18, r24
    6048:	33 27       	eor	r19, r19
    604a:	2b 32       	cpi	r18, 0x2B	; 43
    604c:	31 05       	cpc	r19, r1
    604e:	31 f0       	breq	.+12     	; 0x605c <conv_int+0x36>
    6050:	2d 32       	cpi	r18, 0x2D	; 45
    6052:	31 05       	cpc	r19, r1
    6054:	61 f4       	brne	.+24     	; 0x606e <conv_int+0x48>
    6056:	8b 2d       	mov	r24, r11
    6058:	80 68       	ori	r24, 0x80	; 128
    605a:	b8 2e       	mov	r11, r24
    605c:	d1 50       	subi	r29, 0x01	; 1
    605e:	11 f4       	brne	.+4      	; 0x6064 <conv_int+0x3e>
    6060:	80 e0       	ldi	r24, 0x00	; 0
    6062:	68 c0       	rjmp	.+208    	; 0x6134 <conv_int+0x10e>
    6064:	c8 01       	movw	r24, r16
    6066:	0e 94 88 32 	call	0x6510	; 0x6510 <fgetc>
    606a:	97 fd       	sbrc	r25, 7
    606c:	f9 cf       	rjmp	.-14     	; 0x6060 <conv_int+0x3a>
    606e:	cb 2d       	mov	r28, r11
    6070:	cd 7f       	andi	r28, 0xFD	; 253
    6072:	2b 2d       	mov	r18, r11
    6074:	20 73       	andi	r18, 0x30	; 48
    6076:	09 f5       	brne	.+66     	; 0x60ba <conv_int+0x94>
    6078:	80 33       	cpi	r24, 0x30	; 48
    607a:	f9 f4       	brne	.+62     	; 0x60ba <conv_int+0x94>
    607c:	aa 24       	eor	r10, r10
    607e:	aa 94       	dec	r10
    6080:	ad 0e       	add	r10, r29
    6082:	09 f4       	brne	.+2      	; 0x6086 <conv_int+0x60>
    6084:	43 c0       	rjmp	.+134    	; 0x610c <conv_int+0xe6>
    6086:	c8 01       	movw	r24, r16
    6088:	0e 94 88 32 	call	0x6510	; 0x6510 <fgetc>
    608c:	97 fd       	sbrc	r25, 7
    608e:	3e c0       	rjmp	.+124    	; 0x610c <conv_int+0xe6>
    6090:	9c 01       	movw	r18, r24
    6092:	2f 7d       	andi	r18, 0xDF	; 223
    6094:	33 27       	eor	r19, r19
    6096:	28 35       	cpi	r18, 0x58	; 88
    6098:	31 05       	cpc	r19, r1
    609a:	49 f4       	brne	.+18     	; 0x60ae <conv_int+0x88>
    609c:	c2 64       	ori	r28, 0x42	; 66
    609e:	d2 50       	subi	r29, 0x02	; 2
    60a0:	a9 f1       	breq	.+106    	; 0x610c <conv_int+0xe6>
    60a2:	c8 01       	movw	r24, r16
    60a4:	0e 94 88 32 	call	0x6510	; 0x6510 <fgetc>
    60a8:	97 ff       	sbrs	r25, 7
    60aa:	07 c0       	rjmp	.+14     	; 0x60ba <conv_int+0x94>
    60ac:	2f c0       	rjmp	.+94     	; 0x610c <conv_int+0xe6>
    60ae:	b6 fe       	sbrs	r11, 6
    60b0:	02 c0       	rjmp	.+4      	; 0x60b6 <conv_int+0x90>
    60b2:	c2 60       	ori	r28, 0x02	; 2
    60b4:	01 c0       	rjmp	.+2      	; 0x60b8 <conv_int+0x92>
    60b6:	c2 61       	ori	r28, 0x12	; 18
    60b8:	da 2d       	mov	r29, r10
    60ba:	81 2c       	mov	r8, r1
    60bc:	91 2c       	mov	r9, r1
    60be:	54 01       	movw	r10, r8
    60c0:	20 ed       	ldi	r18, 0xD0	; 208
    60c2:	28 0f       	add	r18, r24
    60c4:	28 30       	cpi	r18, 0x08	; 8
    60c6:	80 f0       	brcs	.+32     	; 0x60e8 <conv_int+0xc2>
    60c8:	c4 ff       	sbrs	r28, 4
    60ca:	04 c0       	rjmp	.+8      	; 0x60d4 <conv_int+0xae>
    60cc:	b8 01       	movw	r22, r16
    60ce:	0e 94 c6 32 	call	0x658c	; 0x658c <ungetc>
    60d2:	19 c0       	rjmp	.+50     	; 0x6106 <conv_int+0xe0>
    60d4:	2a 30       	cpi	r18, 0x0A	; 10
    60d6:	40 f0       	brcs	.+16     	; 0x60e8 <conv_int+0xc2>
    60d8:	c6 ff       	sbrs	r28, 6
    60da:	f8 cf       	rjmp	.-16     	; 0x60cc <conv_int+0xa6>
    60dc:	2f 7d       	andi	r18, 0xDF	; 223
    60de:	3f ee       	ldi	r19, 0xEF	; 239
    60e0:	32 0f       	add	r19, r18
    60e2:	36 30       	cpi	r19, 0x06	; 6
    60e4:	98 f7       	brcc	.-26     	; 0x60cc <conv_int+0xa6>
    60e6:	27 50       	subi	r18, 0x07	; 7
    60e8:	4c 2f       	mov	r20, r28
    60ea:	c5 01       	movw	r24, r10
    60ec:	b4 01       	movw	r22, r8
    60ee:	0e 94 d3 2f 	call	0x5fa6	; 0x5fa6 <mulacc>
    60f2:	4b 01       	movw	r8, r22
    60f4:	5c 01       	movw	r10, r24
    60f6:	c2 60       	ori	r28, 0x02	; 2
    60f8:	d1 50       	subi	r29, 0x01	; 1
    60fa:	59 f0       	breq	.+22     	; 0x6112 <conv_int+0xec>
    60fc:	c8 01       	movw	r24, r16
    60fe:	0e 94 88 32 	call	0x6510	; 0x6510 <fgetc>
    6102:	97 ff       	sbrs	r25, 7
    6104:	dd cf       	rjmp	.-70     	; 0x60c0 <conv_int+0x9a>
    6106:	c1 fd       	sbrc	r28, 1
    6108:	04 c0       	rjmp	.+8      	; 0x6112 <conv_int+0xec>
    610a:	aa cf       	rjmp	.-172    	; 0x6060 <conv_int+0x3a>
    610c:	81 2c       	mov	r8, r1
    610e:	91 2c       	mov	r9, r1
    6110:	54 01       	movw	r10, r8
    6112:	c7 ff       	sbrs	r28, 7
    6114:	08 c0       	rjmp	.+16     	; 0x6126 <conv_int+0x100>
    6116:	b0 94       	com	r11
    6118:	a0 94       	com	r10
    611a:	90 94       	com	r9
    611c:	80 94       	com	r8
    611e:	81 1c       	adc	r8, r1
    6120:	91 1c       	adc	r9, r1
    6122:	a1 1c       	adc	r10, r1
    6124:	b1 1c       	adc	r11, r1
    6126:	2c 2f       	mov	r18, r28
    6128:	b5 01       	movw	r22, r10
    612a:	a4 01       	movw	r20, r8
    612c:	c7 01       	movw	r24, r14
    612e:	0e 94 c7 2f 	call	0x5f8e	; 0x5f8e <putval>
    6132:	81 e0       	ldi	r24, 0x01	; 1
    6134:	df 91       	pop	r29
    6136:	cf 91       	pop	r28
    6138:	1f 91       	pop	r17
    613a:	0f 91       	pop	r16
    613c:	ff 90       	pop	r15
    613e:	ef 90       	pop	r14
    6140:	bf 90       	pop	r11
    6142:	af 90       	pop	r10
    6144:	9f 90       	pop	r9
    6146:	8f 90       	pop	r8
    6148:	08 95       	ret

0000614a <conv_brk>:
    614a:	a0 e2       	ldi	r26, 0x20	; 32
    614c:	b0 e0       	ldi	r27, 0x00	; 0
    614e:	eb ea       	ldi	r30, 0xAB	; 171
    6150:	f0 e3       	ldi	r31, 0x30	; 48
    6152:	0c 94 b1 2d 	jmp	0x5b62	; 0x5b62 <__prologue_saves__+0x6>
    6156:	5c 01       	movw	r10, r24
    6158:	96 2e       	mov	r9, r22
    615a:	7a 01       	movw	r14, r20
    615c:	f9 01       	movw	r30, r18
    615e:	8e 01       	movw	r16, r28
    6160:	0f 5f       	subi	r16, 0xFF	; 255
    6162:	1f 4f       	sbci	r17, 0xFF	; 255
    6164:	68 01       	movw	r12, r16
    6166:	80 e2       	ldi	r24, 0x20	; 32
    6168:	d8 01       	movw	r26, r16
    616a:	1d 92       	st	X+, r1
    616c:	8a 95       	dec	r24
    616e:	e9 f7       	brne	.-6      	; 0x616a <conv_brk+0x20>
    6170:	d5 01       	movw	r26, r10
    6172:	13 96       	adiw	r26, 0x03	; 3
    6174:	8c 90       	ld	r8, X
    6176:	80 e0       	ldi	r24, 0x00	; 0
    6178:	90 e0       	ldi	r25, 0x00	; 0
    617a:	61 2c       	mov	r6, r1
    617c:	71 2c       	mov	r7, r1
    617e:	30 e0       	ldi	r19, 0x00	; 0
    6180:	61 e0       	ldi	r22, 0x01	; 1
    6182:	70 e0       	ldi	r23, 0x00	; 0
    6184:	83 fc       	sbrc	r8, 3
    6186:	25 91       	lpm	r18, Z+
    6188:	83 fe       	sbrs	r8, 3
    618a:	21 91       	ld	r18, Z+
    618c:	8f 01       	movw	r16, r30
    618e:	52 2e       	mov	r5, r18
    6190:	21 11       	cpse	r18, r1
    6192:	03 c0       	rjmp	.+6      	; 0x619a <conv_brk+0x50>
    6194:	80 e0       	ldi	r24, 0x00	; 0
    6196:	90 e0       	ldi	r25, 0x00	; 0
    6198:	92 c0       	rjmp	.+292    	; 0x62be <conv_brk+0x174>
    619a:	2e 35       	cpi	r18, 0x5E	; 94
    619c:	11 f4       	brne	.+4      	; 0x61a2 <conv_brk+0x58>
    619e:	00 97       	sbiw	r24, 0x00	; 0
    61a0:	51 f1       	breq	.+84     	; 0x61f6 <conv_brk+0xac>
    61a2:	43 2f       	mov	r20, r19
    61a4:	50 e0       	ldi	r21, 0x00	; 0
    61a6:	48 17       	cp	r20, r24
    61a8:	59 07       	cpc	r21, r25
    61aa:	3c f4       	brge	.+14     	; 0x61ba <conv_brk+0x70>
    61ac:	2d 35       	cpi	r18, 0x5D	; 93
    61ae:	59 f1       	breq	.+86     	; 0x6206 <conv_brk+0xbc>
    61b0:	2d 32       	cpi	r18, 0x2D	; 45
    61b2:	19 f4       	brne	.+6      	; 0x61ba <conv_brk+0x70>
    61b4:	77 20       	and	r7, r7
    61b6:	09 f1       	breq	.+66     	; 0x61fa <conv_brk+0xb0>
    61b8:	03 c0       	rjmp	.+6      	; 0x61c0 <conv_brk+0x76>
    61ba:	77 20       	and	r7, r7
    61bc:	09 f4       	brne	.+2      	; 0x61c0 <conv_brk+0x76>
    61be:	6a c0       	rjmp	.+212    	; 0x6294 <conv_brk+0x14a>
    61c0:	45 2d       	mov	r20, r5
    61c2:	46 95       	lsr	r20
    61c4:	46 95       	lsr	r20
    61c6:	46 95       	lsr	r20
    61c8:	d6 01       	movw	r26, r12
    61ca:	a4 0f       	add	r26, r20
    61cc:	b1 1d       	adc	r27, r1
    61ce:	45 2d       	mov	r20, r5
    61d0:	47 70       	andi	r20, 0x07	; 7
    61d2:	8b 01       	movw	r16, r22
    61d4:	02 c0       	rjmp	.+4      	; 0x61da <conv_brk+0x90>
    61d6:	00 0f       	add	r16, r16
    61d8:	11 1f       	adc	r17, r17
    61da:	4a 95       	dec	r20
    61dc:	e2 f7       	brpl	.-8      	; 0x61d6 <conv_brk+0x8c>
    61de:	a8 01       	movw	r20, r16
    61e0:	5c 91       	ld	r21, X
    61e2:	45 2b       	or	r20, r21
    61e4:	4c 93       	st	X, r20
    61e6:	65 14       	cp	r6, r5
    61e8:	59 f0       	breq	.+22     	; 0x6200 <conv_brk+0xb6>
    61ea:	56 14       	cp	r5, r6
    61ec:	10 f4       	brcc	.+4      	; 0x61f2 <conv_brk+0xa8>
    61ee:	53 94       	inc	r5
    61f0:	e7 cf       	rjmp	.-50     	; 0x61c0 <conv_brk+0x76>
    61f2:	5a 94       	dec	r5
    61f4:	e5 cf       	rjmp	.-54     	; 0x61c0 <conv_brk+0x76>
    61f6:	31 e0       	ldi	r19, 0x01	; 1
    61f8:	04 c0       	rjmp	.+8      	; 0x6202 <conv_brk+0xb8>
    61fa:	77 24       	eor	r7, r7
    61fc:	73 94       	inc	r7
    61fe:	01 c0       	rjmp	.+2      	; 0x6202 <conv_brk+0xb8>
    6200:	71 2c       	mov	r7, r1
    6202:	01 96       	adiw	r24, 0x01	; 1
    6204:	bf cf       	rjmp	.-130    	; 0x6184 <conv_brk+0x3a>
    6206:	77 20       	and	r7, r7
    6208:	19 f0       	breq	.+6      	; 0x6210 <conv_brk+0xc6>
    620a:	8e 81       	ldd	r24, Y+6	; 0x06
    620c:	80 62       	ori	r24, 0x20	; 32
    620e:	8e 83       	std	Y+6, r24	; 0x06
    6210:	31 11       	cpse	r19, r1
    6212:	03 c0       	rjmp	.+6      	; 0x621a <conv_brk+0xd0>
    6214:	88 24       	eor	r8, r8
    6216:	83 94       	inc	r8
    6218:	17 c0       	rjmp	.+46     	; 0x6248 <conv_brk+0xfe>
    621a:	f6 01       	movw	r30, r12
    621c:	9e 01       	movw	r18, r28
    621e:	2f 5d       	subi	r18, 0xDF	; 223
    6220:	3f 4f       	sbci	r19, 0xFF	; 255
    6222:	80 81       	ld	r24, Z
    6224:	80 95       	com	r24
    6226:	81 93       	st	Z+, r24
    6228:	2e 17       	cp	r18, r30
    622a:	3f 07       	cpc	r19, r31
    622c:	d1 f7       	brne	.-12     	; 0x6222 <conv_brk+0xd8>
    622e:	f2 cf       	rjmp	.-28     	; 0x6214 <conv_brk+0xca>
    6230:	e1 14       	cp	r14, r1
    6232:	f1 04       	cpc	r15, r1
    6234:	29 f0       	breq	.+10     	; 0x6240 <conv_brk+0xf6>
    6236:	d7 01       	movw	r26, r14
    6238:	8c 93       	st	X, r24
    623a:	f7 01       	movw	r30, r14
    623c:	31 96       	adiw	r30, 0x01	; 1
    623e:	7f 01       	movw	r14, r30
    6240:	9a 94       	dec	r9
    6242:	81 2c       	mov	r8, r1
    6244:	99 20       	and	r9, r9
    6246:	f9 f0       	breq	.+62     	; 0x6286 <conv_brk+0x13c>
    6248:	c5 01       	movw	r24, r10
    624a:	0e 94 88 32 	call	0x6510	; 0x6510 <fgetc>
    624e:	97 fd       	sbrc	r25, 7
    6250:	18 c0       	rjmp	.+48     	; 0x6282 <conv_brk+0x138>
    6252:	fc 01       	movw	r30, r24
    6254:	ff 27       	eor	r31, r31
    6256:	23 e0       	ldi	r18, 0x03	; 3
    6258:	f5 95       	asr	r31
    625a:	e7 95       	ror	r30
    625c:	2a 95       	dec	r18
    625e:	e1 f7       	brne	.-8      	; 0x6258 <conv_brk+0x10e>
    6260:	ec 0d       	add	r30, r12
    6262:	fd 1d       	adc	r31, r13
    6264:	20 81       	ld	r18, Z
    6266:	30 e0       	ldi	r19, 0x00	; 0
    6268:	ac 01       	movw	r20, r24
    626a:	47 70       	andi	r20, 0x07	; 7
    626c:	55 27       	eor	r21, r21
    626e:	02 c0       	rjmp	.+4      	; 0x6274 <conv_brk+0x12a>
    6270:	35 95       	asr	r19
    6272:	27 95       	ror	r18
    6274:	4a 95       	dec	r20
    6276:	e2 f7       	brpl	.-8      	; 0x6270 <conv_brk+0x126>
    6278:	20 fd       	sbrc	r18, 0
    627a:	da cf       	rjmp	.-76     	; 0x6230 <conv_brk+0xe6>
    627c:	b5 01       	movw	r22, r10
    627e:	0e 94 c6 32 	call	0x658c	; 0x658c <ungetc>
    6282:	81 10       	cpse	r8, r1
    6284:	87 cf       	rjmp	.-242    	; 0x6194 <conv_brk+0x4a>
    6286:	e1 14       	cp	r14, r1
    6288:	f1 04       	cpc	r15, r1
    628a:	11 f0       	breq	.+4      	; 0x6290 <conv_brk+0x146>
    628c:	d7 01       	movw	r26, r14
    628e:	1c 92       	st	X, r1
    6290:	c8 01       	movw	r24, r16
    6292:	15 c0       	rjmp	.+42     	; 0x62be <conv_brk+0x174>
    6294:	42 2f       	mov	r20, r18
    6296:	46 95       	lsr	r20
    6298:	46 95       	lsr	r20
    629a:	46 95       	lsr	r20
    629c:	d6 01       	movw	r26, r12
    629e:	a4 0f       	add	r26, r20
    62a0:	b1 1d       	adc	r27, r1
    62a2:	42 2f       	mov	r20, r18
    62a4:	47 70       	andi	r20, 0x07	; 7
    62a6:	8b 01       	movw	r16, r22
    62a8:	02 c0       	rjmp	.+4      	; 0x62ae <conv_brk+0x164>
    62aa:	00 0f       	add	r16, r16
    62ac:	11 1f       	adc	r17, r17
    62ae:	4a 95       	dec	r20
    62b0:	e2 f7       	brpl	.-8      	; 0x62aa <conv_brk+0x160>
    62b2:	a8 01       	movw	r20, r16
    62b4:	5c 91       	ld	r21, X
    62b6:	45 2b       	or	r20, r21
    62b8:	4c 93       	st	X, r20
    62ba:	62 2e       	mov	r6, r18
    62bc:	a2 cf       	rjmp	.-188    	; 0x6202 <conv_brk+0xb8>
    62be:	a0 96       	adiw	r28, 0x20	; 32
    62c0:	ef e0       	ldi	r30, 0x0F	; 15
    62c2:	0c 94 cd 2d 	jmp	0x5b9a	; 0x5b9a <__epilogue_restores__+0x6>

000062c6 <vfscanf>:
    62c6:	a0 e0       	ldi	r26, 0x00	; 0
    62c8:	b0 e0       	ldi	r27, 0x00	; 0
    62ca:	e9 e6       	ldi	r30, 0x69	; 105
    62cc:	f1 e3       	ldi	r31, 0x31	; 49
    62ce:	0c 94 b1 2d 	jmp	0x5b62	; 0x5b62 <__prologue_saves__+0x6>
    62d2:	6c 01       	movw	r12, r24
    62d4:	eb 01       	movw	r28, r22
    62d6:	5a 01       	movw	r10, r20
    62d8:	fc 01       	movw	r30, r24
    62da:	17 82       	std	Z+7, r1	; 0x07
    62dc:	16 82       	std	Z+6, r1	; 0x06
    62de:	51 2c       	mov	r5, r1
    62e0:	f6 01       	movw	r30, r12
    62e2:	e3 80       	ldd	r14, Z+3	; 0x03
    62e4:	fe 01       	movw	r30, r28
    62e6:	e3 fc       	sbrc	r14, 3
    62e8:	85 91       	lpm	r24, Z+
    62ea:	e3 fe       	sbrs	r14, 3
    62ec:	81 91       	ld	r24, Z+
    62ee:	18 2f       	mov	r17, r24
    62f0:	ef 01       	movw	r28, r30
    62f2:	88 23       	and	r24, r24
    62f4:	09 f4       	brne	.+2      	; 0x62f8 <vfscanf+0x32>
    62f6:	ee c0       	rjmp	.+476    	; 0x64d4 <vfscanf+0x20e>
    62f8:	90 e0       	ldi	r25, 0x00	; 0
    62fa:	0e 94 74 32 	call	0x64e8	; 0x64e8 <isspace>
    62fe:	89 2b       	or	r24, r25
    6300:	21 f0       	breq	.+8      	; 0x630a <vfscanf+0x44>
    6302:	c6 01       	movw	r24, r12
    6304:	0e 94 fa 2f 	call	0x5ff4	; 0x5ff4 <skip_spaces>
    6308:	eb cf       	rjmp	.-42     	; 0x62e0 <vfscanf+0x1a>
    630a:	15 32       	cpi	r17, 0x25	; 37
    630c:	41 f4       	brne	.+16     	; 0x631e <vfscanf+0x58>
    630e:	fe 01       	movw	r30, r28
    6310:	e3 fc       	sbrc	r14, 3
    6312:	15 91       	lpm	r17, Z+
    6314:	e3 fe       	sbrs	r14, 3
    6316:	11 91       	ld	r17, Z+
    6318:	ef 01       	movw	r28, r30
    631a:	15 32       	cpi	r17, 0x25	; 37
    631c:	81 f4       	brne	.+32     	; 0x633e <vfscanf+0x78>
    631e:	c6 01       	movw	r24, r12
    6320:	0e 94 88 32 	call	0x6510	; 0x6510 <fgetc>
    6324:	97 fd       	sbrc	r25, 7
    6326:	d4 c0       	rjmp	.+424    	; 0x64d0 <vfscanf+0x20a>
    6328:	41 2f       	mov	r20, r17
    632a:	50 e0       	ldi	r21, 0x00	; 0
    632c:	9c 01       	movw	r18, r24
    632e:	33 27       	eor	r19, r19
    6330:	24 17       	cp	r18, r20
    6332:	35 07       	cpc	r19, r21
    6334:	a9 f2       	breq	.-86     	; 0x62e0 <vfscanf+0x1a>
    6336:	b6 01       	movw	r22, r12
    6338:	0e 94 c6 32 	call	0x658c	; 0x658c <ungetc>
    633c:	cb c0       	rjmp	.+406    	; 0x64d4 <vfscanf+0x20e>
    633e:	1a 32       	cpi	r17, 0x2A	; 42
    6340:	39 f4       	brne	.+14     	; 0x6350 <vfscanf+0x8a>
    6342:	e3 fc       	sbrc	r14, 3
    6344:	15 91       	lpm	r17, Z+
    6346:	e3 fe       	sbrs	r14, 3
    6348:	11 91       	ld	r17, Z+
    634a:	ef 01       	movw	r28, r30
    634c:	01 e0       	ldi	r16, 0x01	; 1
    634e:	01 c0       	rjmp	.+2      	; 0x6352 <vfscanf+0x8c>
    6350:	00 e0       	ldi	r16, 0x00	; 0
    6352:	f1 2c       	mov	r15, r1
    6354:	20 ed       	ldi	r18, 0xD0	; 208
    6356:	21 0f       	add	r18, r17
    6358:	2a 30       	cpi	r18, 0x0A	; 10
    635a:	80 f4       	brcc	.+32     	; 0x637c <vfscanf+0xb6>
    635c:	02 60       	ori	r16, 0x02	; 2
    635e:	6f 2d       	mov	r22, r15
    6360:	70 e0       	ldi	r23, 0x00	; 0
    6362:	80 e0       	ldi	r24, 0x00	; 0
    6364:	90 e0       	ldi	r25, 0x00	; 0
    6366:	40 e2       	ldi	r20, 0x20	; 32
    6368:	0e 94 d3 2f 	call	0x5fa6	; 0x5fa6 <mulacc>
    636c:	f6 2e       	mov	r15, r22
    636e:	fe 01       	movw	r30, r28
    6370:	e3 fc       	sbrc	r14, 3
    6372:	15 91       	lpm	r17, Z+
    6374:	e3 fe       	sbrs	r14, 3
    6376:	11 91       	ld	r17, Z+
    6378:	ef 01       	movw	r28, r30
    637a:	ec cf       	rjmp	.-40     	; 0x6354 <vfscanf+0x8e>
    637c:	01 ff       	sbrs	r16, 1
    637e:	03 c0       	rjmp	.+6      	; 0x6386 <vfscanf+0xc0>
    6380:	f1 10       	cpse	r15, r1
    6382:	03 c0       	rjmp	.+6      	; 0x638a <vfscanf+0xc4>
    6384:	a7 c0       	rjmp	.+334    	; 0x64d4 <vfscanf+0x20e>
    6386:	ff 24       	eor	r15, r15
    6388:	fa 94       	dec	r15
    638a:	18 36       	cpi	r17, 0x68	; 104
    638c:	19 f0       	breq	.+6      	; 0x6394 <vfscanf+0xce>
    638e:	1c 36       	cpi	r17, 0x6C	; 108
    6390:	51 f0       	breq	.+20     	; 0x63a6 <vfscanf+0xe0>
    6392:	10 c0       	rjmp	.+32     	; 0x63b4 <vfscanf+0xee>
    6394:	fe 01       	movw	r30, r28
    6396:	e3 fc       	sbrc	r14, 3
    6398:	15 91       	lpm	r17, Z+
    639a:	e3 fe       	sbrs	r14, 3
    639c:	11 91       	ld	r17, Z+
    639e:	ef 01       	movw	r28, r30
    63a0:	18 36       	cpi	r17, 0x68	; 104
    63a2:	41 f4       	brne	.+16     	; 0x63b4 <vfscanf+0xee>
    63a4:	08 60       	ori	r16, 0x08	; 8
    63a6:	04 60       	ori	r16, 0x04	; 4
    63a8:	fe 01       	movw	r30, r28
    63aa:	e3 fc       	sbrc	r14, 3
    63ac:	15 91       	lpm	r17, Z+
    63ae:	e3 fe       	sbrs	r14, 3
    63b0:	11 91       	ld	r17, Z+
    63b2:	ef 01       	movw	r28, r30
    63b4:	11 23       	and	r17, r17
    63b6:	09 f4       	brne	.+2      	; 0x63ba <vfscanf+0xf4>
    63b8:	8d c0       	rjmp	.+282    	; 0x64d4 <vfscanf+0x20e>
    63ba:	61 2f       	mov	r22, r17
    63bc:	70 e0       	ldi	r23, 0x00	; 0
    63be:	8c ea       	ldi	r24, 0xAC	; 172
    63c0:	91 e0       	ldi	r25, 0x01	; 1
    63c2:	0e 94 7d 32 	call	0x64fa	; 0x64fa <strchr_P>
    63c6:	89 2b       	or	r24, r25
    63c8:	09 f4       	brne	.+2      	; 0x63cc <vfscanf+0x106>
    63ca:	84 c0       	rjmp	.+264    	; 0x64d4 <vfscanf+0x20e>
    63cc:	00 fd       	sbrc	r16, 0
    63ce:	07 c0       	rjmp	.+14     	; 0x63de <vfscanf+0x118>
    63d0:	f5 01       	movw	r30, r10
    63d2:	80 80       	ld	r8, Z
    63d4:	91 80       	ldd	r9, Z+1	; 0x01
    63d6:	c5 01       	movw	r24, r10
    63d8:	02 96       	adiw	r24, 0x02	; 2
    63da:	5c 01       	movw	r10, r24
    63dc:	02 c0       	rjmp	.+4      	; 0x63e2 <vfscanf+0x11c>
    63de:	81 2c       	mov	r8, r1
    63e0:	91 2c       	mov	r9, r1
    63e2:	1e 36       	cpi	r17, 0x6E	; 110
    63e4:	51 f4       	brne	.+20     	; 0x63fa <vfscanf+0x134>
    63e6:	f6 01       	movw	r30, r12
    63e8:	46 81       	ldd	r20, Z+6	; 0x06
    63ea:	57 81       	ldd	r21, Z+7	; 0x07
    63ec:	60 e0       	ldi	r22, 0x00	; 0
    63ee:	70 e0       	ldi	r23, 0x00	; 0
    63f0:	20 2f       	mov	r18, r16
    63f2:	c4 01       	movw	r24, r8
    63f4:	0e 94 c7 2f 	call	0x5f8e	; 0x5f8e <putval>
    63f8:	73 cf       	rjmp	.-282    	; 0x62e0 <vfscanf+0x1a>
    63fa:	13 36       	cpi	r17, 0x63	; 99
    63fc:	a9 f4       	brne	.+42     	; 0x6428 <vfscanf+0x162>
    63fe:	01 fd       	sbrc	r16, 1
    6400:	02 c0       	rjmp	.+4      	; 0x6406 <vfscanf+0x140>
    6402:	ff 24       	eor	r15, r15
    6404:	f3 94       	inc	r15
    6406:	c6 01       	movw	r24, r12
    6408:	0e 94 88 32 	call	0x6510	; 0x6510 <fgetc>
    640c:	97 fd       	sbrc	r25, 7
    640e:	60 c0       	rjmp	.+192    	; 0x64d0 <vfscanf+0x20a>
    6410:	81 14       	cp	r8, r1
    6412:	91 04       	cpc	r9, r1
    6414:	29 f0       	breq	.+10     	; 0x6420 <vfscanf+0x15a>
    6416:	f4 01       	movw	r30, r8
    6418:	80 83       	st	Z, r24
    641a:	c4 01       	movw	r24, r8
    641c:	01 96       	adiw	r24, 0x01	; 1
    641e:	4c 01       	movw	r8, r24
    6420:	fa 94       	dec	r15
    6422:	f1 10       	cpse	r15, r1
    6424:	f0 cf       	rjmp	.-32     	; 0x6406 <vfscanf+0x140>
    6426:	50 c0       	rjmp	.+160    	; 0x64c8 <vfscanf+0x202>
    6428:	1b 35       	cpi	r17, 0x5B	; 91
    642a:	59 f4       	brne	.+22     	; 0x6442 <vfscanf+0x17c>
    642c:	9e 01       	movw	r18, r28
    642e:	a4 01       	movw	r20, r8
    6430:	6f 2d       	mov	r22, r15
    6432:	c6 01       	movw	r24, r12
    6434:	0e 94 a5 30 	call	0x614a	; 0x614a <conv_brk>
    6438:	ec 01       	movw	r28, r24
    643a:	89 2b       	or	r24, r25
    643c:	09 f0       	breq	.+2      	; 0x6440 <vfscanf+0x17a>
    643e:	44 c0       	rjmp	.+136    	; 0x64c8 <vfscanf+0x202>
    6440:	3e c0       	rjmp	.+124    	; 0x64be <vfscanf+0x1f8>
    6442:	c6 01       	movw	r24, r12
    6444:	0e 94 fa 2f 	call	0x5ff4	; 0x5ff4 <skip_spaces>
    6448:	97 fd       	sbrc	r25, 7
    644a:	42 c0       	rjmp	.+132    	; 0x64d0 <vfscanf+0x20a>
    644c:	1f 36       	cpi	r17, 0x6F	; 111
    644e:	61 f1       	breq	.+88     	; 0x64a8 <vfscanf+0x1e2>
    6450:	28 f4       	brcc	.+10     	; 0x645c <vfscanf+0x196>
    6452:	14 36       	cpi	r17, 0x64	; 100
    6454:	39 f1       	breq	.+78     	; 0x64a4 <vfscanf+0x1de>
    6456:	19 36       	cpi	r17, 0x69	; 105
    6458:	51 f1       	breq	.+84     	; 0x64ae <vfscanf+0x1e8>
    645a:	28 c0       	rjmp	.+80     	; 0x64ac <vfscanf+0x1e6>
    645c:	13 37       	cpi	r17, 0x73	; 115
    645e:	71 f0       	breq	.+28     	; 0x647c <vfscanf+0x1b6>
    6460:	15 37       	cpi	r17, 0x75	; 117
    6462:	01 f1       	breq	.+64     	; 0x64a4 <vfscanf+0x1de>
    6464:	23 c0       	rjmp	.+70     	; 0x64ac <vfscanf+0x1e6>
    6466:	81 14       	cp	r8, r1
    6468:	91 04       	cpc	r9, r1
    646a:	29 f0       	breq	.+10     	; 0x6476 <vfscanf+0x1b0>
    646c:	f4 01       	movw	r30, r8
    646e:	60 82       	st	Z, r6
    6470:	c4 01       	movw	r24, r8
    6472:	01 96       	adiw	r24, 0x01	; 1
    6474:	4c 01       	movw	r8, r24
    6476:	fa 94       	dec	r15
    6478:	ff 20       	and	r15, r15
    647a:	71 f0       	breq	.+28     	; 0x6498 <vfscanf+0x1d2>
    647c:	c6 01       	movw	r24, r12
    647e:	0e 94 88 32 	call	0x6510	; 0x6510 <fgetc>
    6482:	3c 01       	movw	r6, r24
    6484:	97 fd       	sbrc	r25, 7
    6486:	08 c0       	rjmp	.+16     	; 0x6498 <vfscanf+0x1d2>
    6488:	0e 94 74 32 	call	0x64e8	; 0x64e8 <isspace>
    648c:	89 2b       	or	r24, r25
    648e:	59 f3       	breq	.-42     	; 0x6466 <vfscanf+0x1a0>
    6490:	b6 01       	movw	r22, r12
    6492:	c3 01       	movw	r24, r6
    6494:	0e 94 c6 32 	call	0x658c	; 0x658c <ungetc>
    6498:	81 14       	cp	r8, r1
    649a:	91 04       	cpc	r9, r1
    649c:	a9 f0       	breq	.+42     	; 0x64c8 <vfscanf+0x202>
    649e:	f4 01       	movw	r30, r8
    64a0:	10 82       	st	Z, r1
    64a2:	12 c0       	rjmp	.+36     	; 0x64c8 <vfscanf+0x202>
    64a4:	00 62       	ori	r16, 0x20	; 32
    64a6:	03 c0       	rjmp	.+6      	; 0x64ae <vfscanf+0x1e8>
    64a8:	00 61       	ori	r16, 0x10	; 16
    64aa:	01 c0       	rjmp	.+2      	; 0x64ae <vfscanf+0x1e8>
    64ac:	00 64       	ori	r16, 0x40	; 64
    64ae:	20 2f       	mov	r18, r16
    64b0:	a4 01       	movw	r20, r8
    64b2:	6f 2d       	mov	r22, r15
    64b4:	c6 01       	movw	r24, r12
    64b6:	0e 94 13 30 	call	0x6026	; 0x6026 <conv_int>
    64ba:	81 11       	cpse	r24, r1
    64bc:	05 c0       	rjmp	.+10     	; 0x64c8 <vfscanf+0x202>
    64be:	f6 01       	movw	r30, r12
    64c0:	83 81       	ldd	r24, Z+3	; 0x03
    64c2:	80 73       	andi	r24, 0x30	; 48
    64c4:	29 f4       	brne	.+10     	; 0x64d0 <vfscanf+0x20a>
    64c6:	06 c0       	rjmp	.+12     	; 0x64d4 <vfscanf+0x20e>
    64c8:	00 fd       	sbrc	r16, 0
    64ca:	0a cf       	rjmp	.-492    	; 0x62e0 <vfscanf+0x1a>
    64cc:	53 94       	inc	r5
    64ce:	08 cf       	rjmp	.-496    	; 0x62e0 <vfscanf+0x1a>
    64d0:	55 20       	and	r5, r5
    64d2:	19 f0       	breq	.+6      	; 0x64da <vfscanf+0x214>
    64d4:	85 2d       	mov	r24, r5
    64d6:	90 e0       	ldi	r25, 0x00	; 0
    64d8:	02 c0       	rjmp	.+4      	; 0x64de <vfscanf+0x218>
    64da:	8f ef       	ldi	r24, 0xFF	; 255
    64dc:	9f ef       	ldi	r25, 0xFF	; 255
    64de:	cd b7       	in	r28, 0x3d	; 61
    64e0:	de b7       	in	r29, 0x3e	; 62
    64e2:	ef e0       	ldi	r30, 0x0F	; 15
    64e4:	0c 94 cd 2d 	jmp	0x5b9a	; 0x5b9a <__epilogue_restores__+0x6>

000064e8 <isspace>:
    64e8:	91 11       	cpse	r25, r1
    64ea:	0c 94 df 32 	jmp	0x65be	; 0x65be <__ctype_isfalse>
    64ee:	80 32       	cpi	r24, 0x20	; 32
    64f0:	19 f0       	breq	.+6      	; 0x64f8 <isspace+0x10>
    64f2:	89 50       	subi	r24, 0x09	; 9
    64f4:	85 50       	subi	r24, 0x05	; 5
    64f6:	c8 f7       	brcc	.-14     	; 0x64ea <isspace+0x2>
    64f8:	08 95       	ret

000064fa <strchr_P>:
    64fa:	fc 01       	movw	r30, r24
    64fc:	05 90       	lpm	r0, Z+
    64fe:	06 16       	cp	r0, r22
    6500:	21 f0       	breq	.+8      	; 0x650a <strchr_P+0x10>
    6502:	00 20       	and	r0, r0
    6504:	d9 f7       	brne	.-10     	; 0x64fc <strchr_P+0x2>
    6506:	c0 01       	movw	r24, r0
    6508:	08 95       	ret
    650a:	31 97       	sbiw	r30, 0x01	; 1
    650c:	cf 01       	movw	r24, r30
    650e:	08 95       	ret

00006510 <fgetc>:
    6510:	cf 93       	push	r28
    6512:	df 93       	push	r29
    6514:	ec 01       	movw	r28, r24
    6516:	2b 81       	ldd	r18, Y+3	; 0x03
    6518:	20 ff       	sbrs	r18, 0
    651a:	33 c0       	rjmp	.+102    	; 0x6582 <fgetc+0x72>
    651c:	26 ff       	sbrs	r18, 6
    651e:	0a c0       	rjmp	.+20     	; 0x6534 <fgetc+0x24>
    6520:	2f 7b       	andi	r18, 0xBF	; 191
    6522:	2b 83       	std	Y+3, r18	; 0x03
    6524:	8e 81       	ldd	r24, Y+6	; 0x06
    6526:	9f 81       	ldd	r25, Y+7	; 0x07
    6528:	01 96       	adiw	r24, 0x01	; 1
    652a:	9f 83       	std	Y+7, r25	; 0x07
    652c:	8e 83       	std	Y+6, r24	; 0x06
    652e:	8a 81       	ldd	r24, Y+2	; 0x02
    6530:	90 e0       	ldi	r25, 0x00	; 0
    6532:	29 c0       	rjmp	.+82     	; 0x6586 <fgetc+0x76>
    6534:	22 ff       	sbrs	r18, 2
    6536:	0f c0       	rjmp	.+30     	; 0x6556 <fgetc+0x46>
    6538:	e8 81       	ld	r30, Y
    653a:	f9 81       	ldd	r31, Y+1	; 0x01
    653c:	80 81       	ld	r24, Z
    653e:	08 2e       	mov	r0, r24
    6540:	00 0c       	add	r0, r0
    6542:	99 0b       	sbc	r25, r25
    6544:	00 97       	sbiw	r24, 0x00	; 0
    6546:	19 f4       	brne	.+6      	; 0x654e <fgetc+0x3e>
    6548:	20 62       	ori	r18, 0x20	; 32
    654a:	2b 83       	std	Y+3, r18	; 0x03
    654c:	1a c0       	rjmp	.+52     	; 0x6582 <fgetc+0x72>
    654e:	31 96       	adiw	r30, 0x01	; 1
    6550:	f9 83       	std	Y+1, r31	; 0x01
    6552:	e8 83       	st	Y, r30
    6554:	0e c0       	rjmp	.+28     	; 0x6572 <fgetc+0x62>
    6556:	ea 85       	ldd	r30, Y+10	; 0x0a
    6558:	fb 85       	ldd	r31, Y+11	; 0x0b
    655a:	09 95       	icall
    655c:	97 ff       	sbrs	r25, 7
    655e:	09 c0       	rjmp	.+18     	; 0x6572 <fgetc+0x62>
    6560:	2b 81       	ldd	r18, Y+3	; 0x03
    6562:	01 96       	adiw	r24, 0x01	; 1
    6564:	11 f0       	breq	.+4      	; 0x656a <fgetc+0x5a>
    6566:	80 e2       	ldi	r24, 0x20	; 32
    6568:	01 c0       	rjmp	.+2      	; 0x656c <fgetc+0x5c>
    656a:	80 e1       	ldi	r24, 0x10	; 16
    656c:	82 2b       	or	r24, r18
    656e:	8b 83       	std	Y+3, r24	; 0x03
    6570:	08 c0       	rjmp	.+16     	; 0x6582 <fgetc+0x72>
    6572:	2e 81       	ldd	r18, Y+6	; 0x06
    6574:	3f 81       	ldd	r19, Y+7	; 0x07
    6576:	2f 5f       	subi	r18, 0xFF	; 255
    6578:	3f 4f       	sbci	r19, 0xFF	; 255
    657a:	3f 83       	std	Y+7, r19	; 0x07
    657c:	2e 83       	std	Y+6, r18	; 0x06
    657e:	99 27       	eor	r25, r25
    6580:	02 c0       	rjmp	.+4      	; 0x6586 <fgetc+0x76>
    6582:	8f ef       	ldi	r24, 0xFF	; 255
    6584:	9f ef       	ldi	r25, 0xFF	; 255
    6586:	df 91       	pop	r29
    6588:	cf 91       	pop	r28
    658a:	08 95       	ret

0000658c <ungetc>:
    658c:	fb 01       	movw	r30, r22
    658e:	23 81       	ldd	r18, Z+3	; 0x03
    6590:	20 ff       	sbrs	r18, 0
    6592:	12 c0       	rjmp	.+36     	; 0x65b8 <ungetc+0x2c>
    6594:	26 fd       	sbrc	r18, 6
    6596:	10 c0       	rjmp	.+32     	; 0x65b8 <ungetc+0x2c>
    6598:	8f 3f       	cpi	r24, 0xFF	; 255
    659a:	3f ef       	ldi	r19, 0xFF	; 255
    659c:	93 07       	cpc	r25, r19
    659e:	61 f0       	breq	.+24     	; 0x65b8 <ungetc+0x2c>
    65a0:	82 83       	std	Z+2, r24	; 0x02
    65a2:	2f 7d       	andi	r18, 0xDF	; 223
    65a4:	20 64       	ori	r18, 0x40	; 64
    65a6:	23 83       	std	Z+3, r18	; 0x03
    65a8:	26 81       	ldd	r18, Z+6	; 0x06
    65aa:	37 81       	ldd	r19, Z+7	; 0x07
    65ac:	21 50       	subi	r18, 0x01	; 1
    65ae:	31 09       	sbc	r19, r1
    65b0:	37 83       	std	Z+7, r19	; 0x07
    65b2:	26 83       	std	Z+6, r18	; 0x06
    65b4:	99 27       	eor	r25, r25
    65b6:	08 95       	ret
    65b8:	8f ef       	ldi	r24, 0xFF	; 255
    65ba:	9f ef       	ldi	r25, 0xFF	; 255
    65bc:	08 95       	ret

000065be <__ctype_isfalse>:
    65be:	99 27       	eor	r25, r25
    65c0:	88 27       	eor	r24, r24

000065c2 <__ctype_istrue>:
    65c2:	08 95       	ret

000065c4 <_exit>:
    65c4:	f8 94       	cli

000065c6 <__stop_program>:
    65c6:	ff cf       	rjmp	.-2      	; 0x65c6 <__stop_program>
