
NRF24_RX.elf:     file format elf32-avr

Sections:
Idx Name          Size      VMA       LMA       File off  Algn
  0 .data         0000026e  00800100  00006182  00006216  2**0
                  CONTENTS, ALLOC, LOAD, DATA
  1 .text         00006182  00000000  00000000  00000094  2**1
                  CONTENTS, ALLOC, LOAD, READONLY, CODE
  2 .bss          0000012b  0080036e  0080036e  00006484  2**0
                  ALLOC
  3 .comment      0000005c  00000000  00000000  00006484  2**0
                  CONTENTS, READONLY
  4 .note.gnu.avr.deviceinfo 00000040  00000000  00000000  000064e0  2**2
                  CONTENTS, READONLY
  5 .debug_aranges 000003e0  00000000  00000000  00006520  2**0
                  CONTENTS, READONLY, DEBUGGING
  6 .debug_info   00009b35  00000000  00000000  00006900  2**0
                  CONTENTS, READONLY, DEBUGGING
  7 .debug_abbrev 0000148f  00000000  00000000  00010435  2**0
                  CONTENTS, READONLY, DEBUGGING
  8 .debug_line   00003a30  00000000  00000000  000118c4  2**0
                  CONTENTS, READONLY, DEBUGGING
  9 .debug_frame  00001188  00000000  00000000  000152f4  2**2
                  CONTENTS, READONLY, DEBUGGING
 10 .debug_str    00000e72  00000000  00000000  0001647c  2**0
                  CONTENTS, READONLY, DEBUGGING
 11 .debug_loc    00005716  00000000  00000000  000172ee  2**0
                  CONTENTS, READONLY, DEBUGGING
 12 .debug_ranges 00000368  00000000  00000000  0001ca04  2**0
                  CONTENTS, READONLY, DEBUGGING

Disassembly of section .text:

00000000 <__vectors>:
       0:	0c 94 ee 03 	jmp	0x7dc	; 0x7dc <__ctors_end>
       4:	0c 94 cf 16 	jmp	0x2d9e	; 0x2d9e <__vector_1>
       8:	0c 94 d8 0f 	jmp	0x1fb0	; 0x1fb0 <__vector_2>
       c:	0c 94 0b 04 	jmp	0x816	; 0x816 <__bad_interrupt>
      10:	0c 94 0b 04 	jmp	0x816	; 0x816 <__bad_interrupt>
      14:	0c 94 0b 04 	jmp	0x816	; 0x816 <__bad_interrupt>
      18:	0c 94 0b 04 	jmp	0x816	; 0x816 <__bad_interrupt>
      1c:	0c 94 0b 04 	jmp	0x816	; 0x816 <__bad_interrupt>
      20:	0c 94 0b 04 	jmp	0x816	; 0x816 <__bad_interrupt>
      24:	0c 94 0b 04 	jmp	0x816	; 0x816 <__bad_interrupt>
      28:	0c 94 0b 04 	jmp	0x816	; 0x816 <__bad_interrupt>
      2c:	0c 94 de 0e 	jmp	0x1dbc	; 0x1dbc <__vector_11>
      30:	0c 94 0b 04 	jmp	0x816	; 0x816 <__bad_interrupt>
      34:	0c 94 0b 04 	jmp	0x816	; 0x816 <__bad_interrupt>
      38:	0c 94 03 0f 	jmp	0x1e06	; 0x1e06 <__vector_14>
      3c:	0c 94 0b 04 	jmp	0x816	; 0x816 <__bad_interrupt>
      40:	0c 94 0b 04 	jmp	0x816	; 0x816 <__bad_interrupt>
      44:	0c 94 0b 04 	jmp	0x816	; 0x816 <__bad_interrupt>
      48:	0c 94 0b 04 	jmp	0x816	; 0x816 <__bad_interrupt>
      4c:	0c 94 0b 04 	jmp	0x816	; 0x816 <__bad_interrupt>
      50:	0c 94 0b 04 	jmp	0x816	; 0x816 <__bad_interrupt>
      54:	0c 94 0b 04 	jmp	0x816	; 0x816 <__bad_interrupt>
      58:	0c 94 0b 04 	jmp	0x816	; 0x816 <__bad_interrupt>
      5c:	0c 94 0b 04 	jmp	0x816	; 0x816 <__bad_interrupt>
      60:	0c 94 0b 04 	jmp	0x816	; 0x816 <__bad_interrupt>
      64:	0c 94 0b 04 	jmp	0x816	; 0x816 <__bad_interrupt>
      68:	40 10       	cpse	r4, r0
      6a:	58 10       	cpse	r5, r8
      6c:	70 10       	cpse	r7, r0
      6e:	88 10       	cpse	r8, r8
      70:	a0 10       	cpse	r10, r0
      72:	b8 10       	cpse	r11, r8
      74:	d0 10       	cpse	r13, r0
      76:	d1 20       	and	r13, r1
      78:	d9 20       	and	r13, r9
      7a:	e1 20       	and	r14, r1
      7c:	e9 20       	and	r14, r9
      7e:	f1 20       	and	r15, r1
      80:	f9 20       	and	r15, r9
      82:	01 21       	and	r16, r1
      84:	16 21       	and	r17, r6
      86:	21 21       	and	r18, r1
      88:	2c 21       	and	r18, r12
      8a:	37 21       	and	r19, r7
      8c:	42 21       	and	r20, r2
      8e:	4d 21       	and	r20, r13
      90:	58 21       	and	r21, r8
      92:	63 21       	and	r22, r3
      94:	6e 21       	and	r22, r14
      96:	79 21       	and	r23, r9
      98:	84 21       	and	r24, r4
      9a:	8f 21       	and	r24, r15
      9c:	e2 21       	and	r30, r2
      9e:	26 22       	and	r2, r22
      a0:	6a 22       	and	r6, r26
      a2:	ae 22       	and	r10, r30
      a4:	f2 22       	and	r15, r18
      a6:	36 23       	and	r19, r22
      a8:	7a 23       	and	r23, r26

000000aa <__trampolines_end>:
      aa:	63 64       	ori	r22, 0x43	; 67
      ac:	69 6e       	ori	r22, 0xE9	; 233
      ae:	6f 70       	andi	r22, 0x0F	; 15
      b0:	73 75       	andi	r23, 0x53	; 83
      b2:	78 58       	subi	r23, 0x88	; 136
      b4:	5b 00       	.word	0x005b	; ????

000000b6 <JPEG>:
	...
     11e:	00 00 80 80 80 80 c0 c0 c0 c0 e0 e0 e0 e0 e0 e0     ................
	...
     13e:	00 02 06 07 07 07 07 07 06 02 02 02 02 02 02 02     ................
     14e:	02 02 02 02 02 ff ff ff 02 02 02 0e 1e 3e 7e ff     .............>~.
     15e:	ff ff ff ff ff ff ff ff ff ff ff ff ff ff ff ff     ................
     16e:	fe c0 00 00 00 00 00 00 00 00 00 00 00 00 00 00     ................
	...
     18e:	00 f8 fc fc ff ff ff ff ff fc fc f8 00 00 00 00     ................
     19e:	01 01 01 01 01 01 01 01 01 01 01 01 01 01 01 01     ................
     1ae:	01 00 00 00 00 00 00 00 00 00 00 00 00 00 00 00     ................
     1be:	80 c0 e0 e0 e0 e0 e0 e0 c0 c0 80 00 00 00 00 00     ................
     1ce:	00 1f 17 b7 f7 f7 f7 f7 f7 b7 17 1f 00 00 00 00     ................
     1de:	00 00 80 c0 c0 e0 e0 e0 e0 e0 e0 c0 80 00 00 00     ................
	...
     1fa:	00 00 18 7f ff ff ff ff ff ff ff ff ff ff ff 3e     ...............>
     20a:	18 18 18 18 18 18 18 3f bf bf bf bf bf 3f 18 18     .......?.....?..
     21a:	18 18 18 18 18 3e ff ff ff ff ff ff ff ff ff ff     .....>..........
     22a:	ff 7f 1c 00 00 00 00 00 00 00 00 00 00 00 00 00     ................
     23a:	00 00 00 00 01 01 03 03 03 07 03 03 03 01 00 00     ................
	...
     252:	01 03 07 03 01 00 00 00 00 00 00 00 00 00 00 01     ................
     262:	03 03 03 07 03 03 03 01 01 00 00 00 00 00 00 00     ................
	...

000002b6 <Font11_16>:
     2b6:	00 e0 f8 fc 3e 07 03 01 e1 fe fc 3f 7f 87 80 80     ....>......?....
     2c6:	e0 7c 3f 1f 07 00 00 00 00 00 02 e2 fe ff 1f 03     .|?.............
     2d6:	00 80 80 c0 f8 ff ff 87 80 00 00 00 00 00 00 0c     ................
     2e6:	06 03 03 87 ff 7e 1c 80 c0 e0 f0 e8 e4 e3 e1 f0     .....~..........
     2f6:	18 00 00 00 00 80 84 82 c3 c3 7f 3f 1e 60 e0 c0     ...........?.`..
     306:	c0 80 81 43 7f 3f 1e 00 00 00 00 00 80 40 20 f0     ...C.?.......@ .
     316:	f8 fc 1e 10 1c 1a 19 18 f8 fe ff 1f 19 08 00 00     ................
     326:	40 78 f6 e7 e7 c7 87 07 03 60 e0 c0 80 80 41 7f     @x.......`....A.
     336:	3f 0f 00 00 00 c0 e0 f8 78 5c 4e c6 c3 81 01 3f     ?.......x\N....?
     346:	7f ff 81 80 c0 f0 7f 3f 0f 00 08 0e 07 07 07 87     .......?........
     356:	67 1f 07 01 00 80 60 10 0c 03 00 00 00 00 00 00     g.....`.........
     366:	00 00 3c 7e ff e3 c1 c1 7f 3e 1c 3c 7e ff 83 80     ..<~.....>.<~...
     376:	81 c3 7f 7f 1e 00 00 f0 fc fe 0f 03 01 c1 ff fe     ................
     386:	fc 80 c1 c3 63 72 3a 1e 0f 07 03 00 00 00 00 00     ....cr:.........
     396:	00 38 38 38 00 00 00 00 00 00 38 38 38 00 00 00     .888......888...
	...

000003a8 <Font5_8>:
     3a8:	78 86 81 61 1e 00 04 e2 1f 00 c0 a2 91 89 06 40     x..a...........@
     3b8:	82 89 89 76 30 28 e4 3e 23 4c 8b 85 45 39 7c 92     ...v0(.>#L..E9|.
     3c8:	89 49 32 00 c1 31 0d 03 60 96 89 89 76 4c 92 91     .I2..1..`...vL..
     3d8:	49 3e 00 c0 c0 00 00 00 10 10 10 00                 I>..........

000003e4 <Font4_6>:
     3e4:	fc 84 84 fc 00 08 fc 00 88 c4 a4 9c 44 84 94 7c     ............D..|
     3f4:	60 50 fc 40 58 94 94 64 78 94 94 64 00 04 f4 0c     `P.@X..dx..d....
     404:	6c 94 94 6c 98 a4 a4 78 00 80 00 00                 l..l...x....

00000410 <Font5_7>:
	...
     418:	4f 00 00 00 00 07 00 07 00 00 00 14 7f 14 7f 14     O...............
     428:	00 24 2a 7f 2a 12 00 23 13 08 64 62 00 36 49 55     .$*.*..#..db.6IU
     438:	22 40 00 00 05 03 00 00 00 1c 22 41 00 00 00 41     "@........"A...A
     448:	22 1c 00 00 00 14 08 3e 08 14 00 08 08 3e 08 08     "......>.....>..
     458:	00 a0 60 00 00 00 00 08 08 08 08 08 00 60 60 00     ..`..........``.
     468:	00 00 00 20 10 08 04 02 00 3e 51 49 45 3e 00 00     ... .....>QIE>..
     478:	42 7f 40 00 00 42 61 51 49 46 00 21 41 45 4b 31     B.@..BaQIF.!AEK1
     488:	00 18 14 12 7f 10 00 27 45 45 45 39 00 3c 4a 49     .......'EEE9.<JI
     498:	49 30 00 01 71 09 05 03 00 36 49 49 49 36 00 06     I0..q....6III6..
     4a8:	49 49 29 1e 00 6c 6c 00 00 00 00 00 56 36 00 00     II)..ll.....V6..
     4b8:	00 08 14 22 41 00 00 24 24 24 24 24 00 00 41 22     ..."A..$$$$$..A"
     4c8:	14 08 00 02 01 51 09 06 00 32 49 79 41 3e 00 7e     .....Q...2IyA>.~
     4d8:	11 11 11 7e 00 7f 49 49 49 36 00 3e 41 41 41 22     ...~..III6.>AAA"
     4e8:	00 7f 41 41 22 1c 00 7f 49 49 49 41 00 7f 09 09     ..AA"...IIIA....
     4f8:	09 01 00 3e 41 49 49 3a 00 7f 08 08 08 7f 00 00     ...>AII:........
     508:	41 7f 41 00 00 20 40 41 3f 01 00 7f 08 14 22 41     A.A.. @A?....."A
     518:	00 7f 40 40 40 40 00 7f 02 0c 02 7f 00 7f 04 08     ..@@@@..........
     528:	10 7f 00 3e 41 41 41 3e 00 7f 09 09 09 06 00 3e     ...>AAA>.......>
     538:	41 51 21 5e 00 7f 09 19 29 46 00 46 49 49 49 31     AQ!^....)F.FIII1
     548:	00 01 01 7f 01 01 00 3f 40 40 40 3f 00 1f 20 40     .......?@@@?.. @
     558:	20 1f 00 3f 40 60 40 3f 00 63 14 08 14 63 00 07      ..?@`@?.c...c..
     568:	08 70 08 07 00 61 51 49 45 43 00 7f 41 41 00 00     .p...aQIEC..AA..
     578:	00 15 16 7c 16 15 00 41 41 7f 00 00 00 04 02 01     ...|...AA.......
     588:	02 04 00 40 40 40 40 40 00 01 02 04 00 00 00 20     ...@@@@@....... 
     598:	54 54 54 78 00 7f 44 44 44 38 00 38 44 44 44 00     TTTx..DDD8.8DDD.
     5a8:	00 38 44 44 48 7f 00 38 54 54 54 18 00 10 7e 11     .8DDH..8TTT...~.
     5b8:	01 02 00 0c 52 52 52 3e 00 7f 08 04 04 78 00 00     ....RRR>.....x..
     5c8:	44 7d 40 00 00 20 40 40 3d 00 00 7f 10 28 44 00     D}@.. @@=....(D.
     5d8:	00 00 41 7f 40 00 00 7c 04 18 04 78 00 7c 08 04     ..A.@..|...x.|..
     5e8:	04 78 00 38 44 44 44 38 00 7c 14 14 14 08 00 08     .x.8DDD8.|......
     5f8:	14 14 18 7c 00 7c 08 04 04 08 00 48 54 54 54 20     ...|.|.....HTTT 
     608:	00 04 3f 44 40 20 00 3c 40 40 20 7c 00 1c 20 40     ..?D@ .<@@ |.. @
     618:	20 1c 00 1e 20 10 20 1e 00 22 14 08 14 22 00 06      ... . .."..."..
     628:	48 48 48 3e 00 44 64 54 4c 44 00 08 36 41 00 00     HHH>.DdTLD..6A..
     638:	00 00 00 7f 00 00 00 41 36 08 00 00 00 08 08 2a     .......A6......*
     648:	1c 08 00 7e 11 11 11 7e 00 7f 49 49 49 33 00 7f     ...~...~..III3..
     658:	49 49 49 36 00 7f 01 01 01 03 00 e0 51 4f 41 ff     III6........QOA.
     668:	00 7f 49 49 49 41 00 77 08 7f 08 77 00 41 49 49     ..IIIA.w...w.AII
     678:	49 36 00 7f 10 08 04 7f 00 7c 21 12 09 7c 00 7f     I6.......|!..|..
     688:	08 14 22 41 00 20 41 3f 01 7f 00 7f 02 0c 02 7f     .."A. A?........
     698:	00 7f 08 08 08 7f 00 3e 41 41 41 3e 00 7f 01 01     .......>AAA>....
     6a8:	01 7f 00 7f 09 09 09 06 00 3e 41 41 41 22 00 01     .........>AAA"..
     6b8:	01 7f 01 01 00 47 28 10 08 07 00 1c 22 7f 22 1c     .....G(.....".".
     6c8:	00 63 14 08 14 63 00 7f 40 40 40 ff 00 07 08 08     .c...c..@@@.....
     6d8:	08 7f 00 7f 40 7f 40 7f 00 7f 40 7f 40 ff 00 01     ....@.@...@.@...
     6e8:	7f 48 48 30 00 7f 48 30 00 7f 00 00 7f 48 48 30     .HH0..H0.....HH0
     6f8:	00 22 41 49 49 3e 00 7f 08 3e 41 3e 00 46 29 19     ."AII>...>A>.F).
     708:	09 7f 00 20 54 54 54 78 00 3c 4a 4a 49 31 00 7c     ... TTTx.<JJI1.|
     718:	54 54 28 00 00 7c 04 04 04 0c 00 e0 54 4c 44 fc     TT(..|......TLD.
     728:	00 38 54 54 54 18 00 6c 10 7c 10 6c 00 44 44 54     .8TTT..l.|.l.DDT
     738:	54 28 00 7c 20 10 08 7c 00 7c 41 22 11 7c 00 7c     T(.| ..|.|A".|.|
     748:	10 28 44 00 00 20 44 3c 04 7c 00 7c 08 10 08 7c     .(D.. D<.|.|...|
     758:	00 7c 10 10 10 7c 00 38 44 44 44 38 00 7c 04 04     .|...|.8DDD8.|..
     768:	04 7c 00 7c 14 14 14 08 00 38 44 44 44 28 00 04     .|.|.....8DDD(..
     778:	04 7c 04 04 00 0c 50 50 50 3c 00 30 48 fc 48 30     .|....PPP<.0H.H0
     788:	00 44 28 10 28 44 00 7c 40 40 40 fc 00 0c 10 10     .D(.(D.|@@@.....
     798:	10 7c 00 7c 40 7c 40 7c 00 7c 40 7c 40 fc 00 04     .|.|@|@|.|@|@...
     7a8:	7c 50 50 20 00 7c 50 50 20 7c 00 7c 50 50 20 00     |PP .|PP |.|PP .
     7b8:	00 28 44 54 54 38 00 7c 10 38 44 38 00 08 54 34     .(DTT8.|.8D8..T4
     7c8:	14 7c 00 7e 4b 4a 4b 42 00 38 55 54 55 18 00 00     .|.~KJKB.8UTU...
     7d8:	06 09 09 06                                         ....

000007dc <__ctors_end>:
     7dc:	11 24       	eor	r1, r1
     7de:	1f be       	out	0x3f, r1	; 63
     7e0:	cf ef       	ldi	r28, 0xFF	; 255
     7e2:	d8 e0       	ldi	r29, 0x08	; 8
     7e4:	de bf       	out	0x3e, r29	; 62
     7e6:	cd bf       	out	0x3d, r28	; 61

000007e8 <__do_copy_data>:
     7e8:	13 e0       	ldi	r17, 0x03	; 3
     7ea:	a0 e0       	ldi	r26, 0x00	; 0
     7ec:	b1 e0       	ldi	r27, 0x01	; 1
     7ee:	e2 e8       	ldi	r30, 0x82	; 130
     7f0:	f1 e6       	ldi	r31, 0x61	; 97
     7f2:	02 c0       	rjmp	.+4      	; 0x7f8 <__do_copy_data+0x10>
     7f4:	05 90       	lpm	r0, Z+
     7f6:	0d 92       	st	X+, r0
     7f8:	ae 36       	cpi	r26, 0x6E	; 110
     7fa:	b1 07       	cpc	r27, r17
     7fc:	d9 f7       	brne	.-10     	; 0x7f4 <__do_copy_data+0xc>

000007fe <__do_clear_bss>:
     7fe:	24 e0       	ldi	r18, 0x04	; 4
     800:	ae e6       	ldi	r26, 0x6E	; 110
     802:	b3 e0       	ldi	r27, 0x03	; 3
     804:	01 c0       	rjmp	.+2      	; 0x808 <.do_clear_bss_start>

00000806 <.do_clear_bss_loop>:
     806:	1d 92       	st	X+, r1

00000808 <.do_clear_bss_start>:
     808:	a9 39       	cpi	r26, 0x99	; 153
     80a:	b2 07       	cpc	r27, r18
     80c:	e1 f7       	brne	.-8      	; 0x806 <.do_clear_bss_loop>
     80e:	0e 94 2b 11 	call	0x2256	; 0x2256 <main>
     812:	0c 94 bf 30 	jmp	0x617e	; 0x617e <_exit>

00000816 <__bad_interrupt>:
     816:	0c 94 00 00 	jmp	0	; 0x0 <__vectors>

0000081a <Read>:
#define BMP180_R 0xEF
#define BMP180_W 0xEE

// чтение регистра 16 бит
uint16_t Read(uint8_t address) 
{
     81a:	0f 93       	push	r16
     81c:	1f 93       	push	r17
     81e:	cf 93       	push	r28
     820:	df 93       	push	r29
     822:	c8 2f       	mov	r28, r24
	uint16_t msb=0;
	uint16_t lsb=0;
	uint16_t data;

	I2C_StartCondition();               // запуск i2c
     824:	0e 94 6e 18 	call	0x30dc	; 0x30dc <I2C_StartCondition>
	I2C_SendByte(BMP180_W);        // передача адреса устройства, режим записи
     828:	8e ee       	ldi	r24, 0xEE	; 238
     82a:	0e 94 7a 18 	call	0x30f4	; 0x30f4 <I2C_SendByte>
	I2C_SendByte(address);	        // передача адреса памяти
     82e:	8c 2f       	mov	r24, r28
     830:	0e 94 7a 18 	call	0x30f4	; 0x30f4 <I2C_SendByte>
	I2C_StopCondition();                // остановка i2c
     834:	0e 94 76 18 	call	0x30ec	; 0x30ec <I2C_StopCondition>

	I2C_StartCondition();               // запуск i2c
     838:	0e 94 6e 18 	call	0x30dc	; 0x30dc <I2C_StartCondition>
	I2C_SendByte(BMP180_R);        // передача адреса устройства, режим чтения
     83c:	8f ee       	ldi	r24, 0xEF	; 239
     83e:	0e 94 7a 18 	call	0x30f4	; 0x30f4 <I2C_SendByte>
	msb = I2C_ReadByte();
     842:	0e 94 84 18 	call	0x3108	; 0x3108 <I2C_ReadByte>
     846:	c8 2f       	mov	r28, r24
     848:	d0 e0       	ldi	r29, 0x00	; 0
	lsb = I2C_ReadLastByte();
     84a:	0e 94 8e 18 	call	0x311c	; 0x311c <I2C_ReadLastByte>
     84e:	08 2f       	mov	r16, r24
     850:	10 e0       	ldi	r17, 0x00	; 0
	I2C_StopCondition();                // остановка i2c
     852:	0e 94 76 18 	call	0x30ec	; 0x30ec <I2C_StopCondition>

	data = (uint16_t)((msb << 8) + lsb);
     856:	9c 2f       	mov	r25, r28
     858:	88 27       	eor	r24, r24
	return data;
}
     85a:	80 0f       	add	r24, r16
     85c:	91 1f       	adc	r25, r17
     85e:	df 91       	pop	r29
     860:	cf 91       	pop	r28
     862:	1f 91       	pop	r17
     864:	0f 91       	pop	r16
     866:	08 95       	ret

00000868 <BMP180_Calibration>:
// получить данные для калибровки
void BMP180_Calibration (void) 
{
	ac1 = Read(0xAA);
     868:	8a ea       	ldi	r24, 0xAA	; 170
     86a:	0e 94 0d 04 	call	0x81a	; 0x81a <Read>
     86e:	90 93 f9 03 	sts	0x03F9, r25	; 0x8003f9 <ac1+0x1>
     872:	80 93 f8 03 	sts	0x03F8, r24	; 0x8003f8 <ac1>
	ac2 = Read(0xAC);
     876:	8c ea       	ldi	r24, 0xAC	; 172
     878:	0e 94 0d 04 	call	0x81a	; 0x81a <Read>
     87c:	90 93 01 04 	sts	0x0401, r25	; 0x800401 <ac2+0x1>
     880:	80 93 00 04 	sts	0x0400, r24	; 0x800400 <ac2>
	ac3 = Read(0xAE);
     884:	8e ea       	ldi	r24, 0xAE	; 174
     886:	0e 94 0d 04 	call	0x81a	; 0x81a <Read>
     88a:	90 93 11 04 	sts	0x0411, r25	; 0x800411 <ac3+0x1>
     88e:	80 93 10 04 	sts	0x0410, r24	; 0x800410 <ac3>
	ac4 = Read(0xB0);
     892:	80 eb       	ldi	r24, 0xB0	; 176
     894:	0e 94 0d 04 	call	0x81a	; 0x81a <Read>
     898:	90 93 05 04 	sts	0x0405, r25	; 0x800405 <ac4+0x1>
     89c:	80 93 04 04 	sts	0x0404, r24	; 0x800404 <ac4>
	ac5 = Read(0xB2);
     8a0:	82 eb       	ldi	r24, 0xB2	; 178
     8a2:	0e 94 0d 04 	call	0x81a	; 0x81a <Read>
     8a6:	90 93 ff 03 	sts	0x03FF, r25	; 0x8003ff <ac5+0x1>
     8aa:	80 93 fe 03 	sts	0x03FE, r24	; 0x8003fe <ac5>
	ac6 = Read(0xB4);
     8ae:	84 eb       	ldi	r24, 0xB4	; 180
     8b0:	0e 94 0d 04 	call	0x81a	; 0x81a <Read>
     8b4:	90 93 fd 03 	sts	0x03FD, r25	; 0x8003fd <ac6+0x1>
     8b8:	80 93 fc 03 	sts	0x03FC, r24	; 0x8003fc <ac6>
	b1  = Read(0xB6);
     8bc:	86 eb       	ldi	r24, 0xB6	; 182
     8be:	0e 94 0d 04 	call	0x81a	; 0x81a <Read>
     8c2:	90 93 fb 03 	sts	0x03FB, r25	; 0x8003fb <b1+0x1>
     8c6:	80 93 fa 03 	sts	0x03FA, r24	; 0x8003fa <b1>
	b2  = Read(0xB8);
     8ca:	88 eb       	ldi	r24, 0xB8	; 184
     8cc:	0e 94 0d 04 	call	0x81a	; 0x81a <Read>
     8d0:	90 93 f5 03 	sts	0x03F5, r25	; 0x8003f5 <b2+0x1>
     8d4:	80 93 f4 03 	sts	0x03F4, r24	; 0x8003f4 <b2>
	mb  = Read(0xBA);
     8d8:	8a eb       	ldi	r24, 0xBA	; 186
     8da:	0e 94 0d 04 	call	0x81a	; 0x81a <Read>
     8de:	90 93 f7 03 	sts	0x03F7, r25	; 0x8003f7 <mb+0x1>
     8e2:	80 93 f6 03 	sts	0x03F6, r24	; 0x8003f6 <mb>
	mc  = Read(0xBC);
     8e6:	8c eb       	ldi	r24, 0xBC	; 188
     8e8:	0e 94 0d 04 	call	0x81a	; 0x81a <Read>
     8ec:	90 93 07 04 	sts	0x0407, r25	; 0x800407 <mc+0x1>
     8f0:	80 93 06 04 	sts	0x0406, r24	; 0x800406 <mc>
	md  = Read(0xBE);
     8f4:	8e eb       	ldi	r24, 0xBE	; 190
     8f6:	0e 94 0d 04 	call	0x81a	; 0x81a <Read>
     8fa:	90 93 03 04 	sts	0x0403, r25	; 0x800403 <md+0x1>
     8fe:	80 93 02 04 	sts	0x0402, r24	; 0x800402 <md>
     902:	08 95       	ret

00000904 <BMP180_get_temper>:
}

// прочитать значение температуры
int32_t BMP180_get_temper(void)
{
	I2C_StartCondition();               // запуск i2c
     904:	0e 94 6e 18 	call	0x30dc	; 0x30dc <I2C_StartCondition>
	I2C_SendByte(BMP180_W);        // передача адреса устройства, режим записи
     908:	8e ee       	ldi	r24, 0xEE	; 238
     90a:	0e 94 7a 18 	call	0x30f4	; 0x30f4 <I2C_SendByte>
	I2C_SendByte(0xF4);	        // передача адреса памяти
     90e:	84 ef       	ldi	r24, 0xF4	; 244
     910:	0e 94 7a 18 	call	0x30f4	; 0x30f4 <I2C_SendByte>
	I2C_SendByte(0x2E);	        // передача разрешения (oss) адреса памяти температуры (можно так же как для давления)
     914:	8e e2       	ldi	r24, 0x2E	; 46
     916:	0e 94 7a 18 	call	0x30f4	; 0x30f4 <I2C_SendByte>
	I2C_StopCondition();                // остановка i2c
     91a:	0e 94 76 18 	call	0x30ec	; 0x30ec <I2C_StopCondition>
	#else
		//round up by default
		__ticks_dc = (uint32_t)(ceil(fabs(__tmp)));
	#endif

	__builtin_avr_delay_cycles(__ticks_dc);
     91e:	8f e0       	ldi	r24, 0x0F	; 15
     920:	97 e2       	ldi	r25, 0x27	; 39
     922:	01 97       	sbiw	r24, 0x01	; 1
     924:	f1 f7       	brne	.-4      	; 0x922 <BMP180_get_temper+0x1e>
     926:	00 c0       	rjmp	.+0      	; 0x928 <BMP180_get_temper+0x24>
     928:	00 00       	nop

	_delay_ms(5);                   // время на замер (от 5 до 26 мс в зависимости от разрешения (oss))

	return Read(0xF6);     // вычислить температуру
     92a:	86 ef       	ldi	r24, 0xF6	; 246
     92c:	0e 94 0d 04 	call	0x81a	; 0x81a <Read>
     930:	bc 01       	movw	r22, r24
     932:	80 e0       	ldi	r24, 0x00	; 0
     934:	90 e0       	ldi	r25, 0x00	; 0
}
     936:	08 95       	ret

00000938 <BMP180_get_pressure>:
// прочитать значение атмосферного давления
int32_t BMP180_get_pressure()
{
	I2C_StartCondition();               // запуск i2c
     938:	0e 94 6e 18 	call	0x30dc	; 0x30dc <I2C_StartCondition>
	I2C_SendByte(BMP180_W);        // передача адреса устройства, режим записи
     93c:	8e ee       	ldi	r24, 0xEE	; 238
     93e:	0e 94 7a 18 	call	0x30f4	; 0x30f4 <I2C_SendByte>
	I2C_SendByte(0xF4);	        // передача адреса памяти
     942:	84 ef       	ldi	r24, 0xF4	; 244
     944:	0e 94 7a 18 	call	0x30f4	; 0x30f4 <I2C_SendByte>
	I2C_SendByte(0x34+(OSS<<6));	// передача разрешения (oss) адреса памяти температуры
     948:	84 ef       	ldi	r24, 0xF4	; 244
     94a:	0e 94 7a 18 	call	0x30f4	; 0x30f4 <I2C_SendByte>
	I2C_StopCondition();                // остановка i2c
     94e:	0e 94 76 18 	call	0x30ec	; 0x30ec <I2C_StopCondition>
     952:	8f e1       	ldi	r24, 0x1F	; 31
     954:	9b ec       	ldi	r25, 0xCB	; 203
     956:	01 97       	sbiw	r24, 0x01	; 1
     958:	f1 f7       	brne	.-4      	; 0x956 <BMP180_get_pressure+0x1e>
     95a:	00 c0       	rjmp	.+0      	; 0x95c <BMP180_get_pressure+0x24>
     95c:	00 00       	nop

	_delay_ms(26);                  // время на замер (от 5 до 26 мс в зависимости от разрешения (oss))
	
	I2C_StartCondition();               // запуск i2c
     95e:	0e 94 6e 18 	call	0x30dc	; 0x30dc <I2C_StartCondition>
	I2C_SendByte(BMP180_W);        // передача адреса устройства, режим записи
     962:	8e ee       	ldi	r24, 0xEE	; 238
     964:	0e 94 7a 18 	call	0x30f4	; 0x30f4 <I2C_SendByte>
	I2C_SendByte(0xF6);	        // передача адреса памяти
     968:	86 ef       	ldi	r24, 0xF6	; 246
     96a:	0e 94 7a 18 	call	0x30f4	; 0x30f4 <I2C_SendByte>
	I2C_StopCondition();                // остановка i2c
     96e:	0e 94 76 18 	call	0x30ec	; 0x30ec <I2C_StopCondition>

	I2C_StartCondition();               // запуск i2c
     972:	0e 94 6e 18 	call	0x30dc	; 0x30dc <I2C_StartCondition>
	I2C_SendByte(BMP180_R);        // передача адреса устройства, режим чтения
     976:	8f ee       	ldi	r24, 0xEF	; 239
     978:	0e 94 7a 18 	call	0x30f4	; 0x30f4 <I2C_SendByte>
	D1=I2C_ReadByte();             // MSB
     97c:	0e 94 84 18 	call	0x3108	; 0x3108 <I2C_ReadByte>
     980:	90 e0       	ldi	r25, 0x00	; 0
     982:	a0 e0       	ldi	r26, 0x00	; 0
     984:	b0 e0       	ldi	r27, 0x00	; 0
     986:	80 93 0c 04 	sts	0x040C, r24	; 0x80040c <D1>
     98a:	90 93 0d 04 	sts	0x040D, r25	; 0x80040d <D1+0x1>
     98e:	a0 93 0e 04 	sts	0x040E, r26	; 0x80040e <D1+0x2>
     992:	b0 93 0f 04 	sts	0x040F, r27	; 0x80040f <D1+0x3>
	D2=I2C_ReadByte();             // LSB
     996:	0e 94 84 18 	call	0x3108	; 0x3108 <I2C_ReadByte>
     99a:	90 e0       	ldi	r25, 0x00	; 0
     99c:	a0 e0       	ldi	r26, 0x00	; 0
     99e:	b0 e0       	ldi	r27, 0x00	; 0
     9a0:	80 93 08 04 	sts	0x0408, r24	; 0x800408 <D2>
     9a4:	90 93 09 04 	sts	0x0409, r25	; 0x800409 <D2+0x1>
     9a8:	a0 93 0a 04 	sts	0x040A, r26	; 0x80040a <D2+0x2>
     9ac:	b0 93 0b 04 	sts	0x040B, r27	; 0x80040b <D2+0x3>
	D3=I2C_ReadLastByte();             // XLSB
     9b0:	0e 94 8e 18 	call	0x311c	; 0x311c <I2C_ReadLastByte>
     9b4:	90 e0       	ldi	r25, 0x00	; 0
     9b6:	a0 e0       	ldi	r26, 0x00	; 0
     9b8:	b0 e0       	ldi	r27, 0x00	; 0
     9ba:	80 93 f0 03 	sts	0x03F0, r24	; 0x8003f0 <D3>
     9be:	90 93 f1 03 	sts	0x03F1, r25	; 0x8003f1 <D3+0x1>
     9c2:	a0 93 f2 03 	sts	0x03F2, r26	; 0x8003f2 <D3+0x2>
     9c6:	b0 93 f3 03 	sts	0x03F3, r27	; 0x8003f3 <D3+0x3>
	I2C_StopCondition();                // остановка i2c
     9ca:	0e 94 76 18 	call	0x30ec	; 0x30ec <I2C_StopCondition>
	

	return (int32_t)(((D1 << 16) + (D2 << 8) + D3) >> (8-OSS));  // вычислить давление (в Па ?)
     9ce:	40 91 0c 04 	lds	r20, 0x040C	; 0x80040c <D1>
     9d2:	50 91 0d 04 	lds	r21, 0x040D	; 0x80040d <D1+0x1>
     9d6:	60 91 0e 04 	lds	r22, 0x040E	; 0x80040e <D1+0x2>
     9da:	70 91 0f 04 	lds	r23, 0x040F	; 0x80040f <D1+0x3>
     9de:	ba 01       	movw	r22, r20
     9e0:	55 27       	eor	r21, r21
     9e2:	44 27       	eor	r20, r20
     9e4:	80 91 08 04 	lds	r24, 0x0408	; 0x800408 <D2>
     9e8:	90 91 09 04 	lds	r25, 0x0409	; 0x800409 <D2+0x1>
     9ec:	a0 91 0a 04 	lds	r26, 0x040A	; 0x80040a <D2+0x2>
     9f0:	b0 91 0b 04 	lds	r27, 0x040B	; 0x80040b <D2+0x3>
     9f4:	ba 2f       	mov	r27, r26
     9f6:	a9 2f       	mov	r26, r25
     9f8:	98 2f       	mov	r25, r24
     9fa:	88 27       	eor	r24, r24
     9fc:	48 0f       	add	r20, r24
     9fe:	59 1f       	adc	r21, r25
     a00:	6a 1f       	adc	r22, r26
     a02:	7b 1f       	adc	r23, r27
     a04:	80 91 f0 03 	lds	r24, 0x03F0	; 0x8003f0 <D3>
     a08:	90 91 f1 03 	lds	r25, 0x03F1	; 0x8003f1 <D3+0x1>
     a0c:	a0 91 f2 03 	lds	r26, 0x03F2	; 0x8003f2 <D3+0x2>
     a10:	b0 91 f3 03 	lds	r27, 0x03F3	; 0x8003f3 <D3+0x3>
     a14:	84 0f       	add	r24, r20
     a16:	95 1f       	adc	r25, r21
     a18:	a6 1f       	adc	r26, r22
     a1a:	b7 1f       	adc	r27, r23
     a1c:	bc 01       	movw	r22, r24
     a1e:	cd 01       	movw	r24, r26
     a20:	68 94       	set
     a22:	14 f8       	bld	r1, 4
     a24:	96 95       	lsr	r25
     a26:	87 95       	ror	r24
     a28:	77 95       	ror	r23
     a2a:	67 95       	ror	r22
     a2c:	16 94       	lsr	r1
     a2e:	d1 f7       	brne	.-12     	; 0xa24 <BMP180_get_pressure+0xec>
}
     a30:	08 95       	ret

00000a32 <BMP180_calculation>:
// получить значения температуры и атмосферного давления с учетом калибровочных коэффициентов
int32_t BMP180_calculation () 
{
     a32:	4f 92       	push	r4
     a34:	5f 92       	push	r5
     a36:	6f 92       	push	r6
     a38:	7f 92       	push	r7
     a3a:	8f 92       	push	r8
     a3c:	9f 92       	push	r9
     a3e:	af 92       	push	r10
     a40:	bf 92       	push	r11
     a42:	cf 92       	push	r12
     a44:	df 92       	push	r13
     a46:	ef 92       	push	r14
     a48:	ff 92       	push	r15
     a4a:	0f 93       	push	r16
     a4c:	1f 93       	push	r17
     a4e:	cf 93       	push	r28
     a50:	df 93       	push	r29
     a52:	00 d0       	rcall	.+0      	; 0xa54 <BMP180_calculation+0x22>
     a54:	00 d0       	rcall	.+0      	; 0xa56 <BMP180_calculation+0x24>
     a56:	cd b7       	in	r28, 0x3d	; 61
     a58:	de b7       	in	r29, 0x3e	; 62
	int32_t ut=0;
	int32_t up=0;
	int32_t x1, x2, b5, b6, x3, b3, p;
	uint32_t b4, b7;

	ut += BMP180_get_temper();
     a5a:	0e 94 82 04 	call	0x904	; 0x904 <BMP180_get_temper>
     a5e:	6b 01       	movw	r12, r22
     a60:	7c 01       	movw	r14, r24

	up = BMP180_get_pressure();
     a62:	0e 94 9c 04 	call	0x938	; 0x938 <BMP180_get_pressure>
     a66:	69 83       	std	Y+1, r22	; 0x01
     a68:	7a 83       	std	Y+2, r23	; 0x02
     a6a:	8b 83       	std	Y+3, r24	; 0x03
     a6c:	9c 83       	std	Y+4, r25	; 0x04

	x1 = ((int32_t)ut - (int32_t)ac6) * (int32_t)ac5 >> 15;
     a6e:	80 91 fc 03 	lds	r24, 0x03FC	; 0x8003fc <ac6>
     a72:	90 91 fd 03 	lds	r25, 0x03FD	; 0x8003fd <ac6+0x1>
     a76:	a7 01       	movw	r20, r14
     a78:	96 01       	movw	r18, r12
     a7a:	28 1b       	sub	r18, r24
     a7c:	39 0b       	sbc	r19, r25
     a7e:	41 09       	sbc	r20, r1
     a80:	51 09       	sbc	r21, r1
     a82:	a0 91 fe 03 	lds	r26, 0x03FE	; 0x8003fe <ac5>
     a86:	b0 91 ff 03 	lds	r27, 0x03FF	; 0x8003ff <ac5+0x1>
     a8a:	0e 94 50 2a 	call	0x54a0	; 0x54a0 <__muluhisi3>
     a8e:	2b 01       	movw	r4, r22
     a90:	3c 01       	movw	r6, r24
     a92:	03 2e       	mov	r0, r19
     a94:	3f e0       	ldi	r19, 0x0F	; 15
     a96:	75 94       	asr	r7
     a98:	67 94       	ror	r6
     a9a:	57 94       	ror	r5
     a9c:	47 94       	ror	r4
     a9e:	3a 95       	dec	r19
     aa0:	d1 f7       	brne	.-12     	; 0xa96 <BMP180_calculation+0x64>
     aa2:	30 2d       	mov	r19, r0
	x2 = ((int32_t)mc << 11) / (x1 + md);
     aa4:	60 91 06 04 	lds	r22, 0x0406	; 0x800406 <mc>
     aa8:	70 91 07 04 	lds	r23, 0x0407	; 0x800407 <mc+0x1>
     aac:	cb 01       	movw	r24, r22
     aae:	77 0f       	add	r23, r23
     ab0:	aa 0b       	sbc	r26, r26
     ab2:	bb 0b       	sbc	r27, r27
     ab4:	bc 01       	movw	r22, r24
     ab6:	cd 01       	movw	r24, r26
     ab8:	05 2e       	mov	r0, r21
     aba:	5b e0       	ldi	r21, 0x0B	; 11
     abc:	66 0f       	add	r22, r22
     abe:	77 1f       	adc	r23, r23
     ac0:	88 1f       	adc	r24, r24
     ac2:	99 1f       	adc	r25, r25
     ac4:	5a 95       	dec	r21
     ac6:	d1 f7       	brne	.-12     	; 0xabc <BMP180_calculation+0x8a>
     ac8:	50 2d       	mov	r21, r0
     aca:	20 91 02 04 	lds	r18, 0x0402	; 0x800402 <md>
     ace:	30 91 03 04 	lds	r19, 0x0403	; 0x800403 <md+0x1>
     ad2:	89 01       	movw	r16, r18
     ad4:	33 0f       	add	r19, r19
     ad6:	22 0b       	sbc	r18, r18
     ad8:	33 0b       	sbc	r19, r19
     ada:	a9 01       	movw	r20, r18
     adc:	98 01       	movw	r18, r16
     ade:	24 0d       	add	r18, r4
     ae0:	35 1d       	adc	r19, r5
     ae2:	46 1d       	adc	r20, r6
     ae4:	57 1d       	adc	r21, r7
     ae6:	0e 94 2b 2a 	call	0x5456	; 0x5456 <__divmodsi4>
	b5 = x1 + x2;
     aea:	42 0e       	add	r4, r18
     aec:	53 1e       	adc	r5, r19
     aee:	64 1e       	adc	r6, r20
     af0:	75 1e       	adc	r7, r21
	//*temperature = (b5 + 8) >> 4;
	
	b6 = b5 - 4000;
     af2:	80 ea       	ldi	r24, 0xA0	; 160
     af4:	48 1a       	sub	r4, r24
     af6:	8f e0       	ldi	r24, 0x0F	; 15
     af8:	58 0a       	sbc	r5, r24
     afa:	61 08       	sbc	r6, r1
     afc:	71 08       	sbc	r7, r1
	x1 = (b2 * ((b6 * b6) >> 12)) >> 11;
     afe:	a3 01       	movw	r20, r6
     b00:	92 01       	movw	r18, r4
     b02:	c3 01       	movw	r24, r6
     b04:	b2 01       	movw	r22, r4
     b06:	0e 94 e5 29 	call	0x53ca	; 0x53ca <__mulsi3>
     b0a:	4b 01       	movw	r8, r22
     b0c:	5c 01       	movw	r10, r24
     b0e:	07 2e       	mov	r0, r23
     b10:	7c e0       	ldi	r23, 0x0C	; 12
     b12:	b5 94       	asr	r11
     b14:	a7 94       	ror	r10
     b16:	97 94       	ror	r9
     b18:	87 94       	ror	r8
     b1a:	7a 95       	dec	r23
     b1c:	d1 f7       	brne	.-12     	; 0xb12 <BMP180_calculation+0xe0>
     b1e:	70 2d       	mov	r23, r0
     b20:	a0 91 f4 03 	lds	r26, 0x03F4	; 0x8003f4 <b2>
     b24:	b0 91 f5 03 	lds	r27, 0x03F5	; 0x8003f5 <b2+0x1>
     b28:	a5 01       	movw	r20, r10
     b2a:	94 01       	movw	r18, r8
     b2c:	0e 94 5b 2a 	call	0x54b6	; 0x54b6 <__mulshisi3>
     b30:	6b 01       	movw	r12, r22
     b32:	7c 01       	movw	r14, r24
     b34:	0b 2e       	mov	r0, r27
     b36:	bb e0       	ldi	r27, 0x0B	; 11
     b38:	f5 94       	asr	r15
     b3a:	e7 94       	ror	r14
     b3c:	d7 94       	ror	r13
     b3e:	c7 94       	ror	r12
     b40:	ba 95       	dec	r27
     b42:	d1 f7       	brne	.-12     	; 0xb38 <BMP180_calculation+0x106>
     b44:	b0 2d       	mov	r27, r0
	x2 = (ac2 * b6) >> 11;
     b46:	a0 91 00 04 	lds	r26, 0x0400	; 0x800400 <ac2>
     b4a:	b0 91 01 04 	lds	r27, 0x0401	; 0x800401 <ac2+0x1>
     b4e:	a3 01       	movw	r20, r6
     b50:	92 01       	movw	r18, r4
     b52:	0e 94 5b 2a 	call	0x54b6	; 0x54b6 <__mulshisi3>
     b56:	dc 01       	movw	r26, r24
     b58:	cb 01       	movw	r24, r22
     b5a:	07 2e       	mov	r0, r23
     b5c:	7b e0       	ldi	r23, 0x0B	; 11
     b5e:	b5 95       	asr	r27
     b60:	a7 95       	ror	r26
     b62:	97 95       	ror	r25
     b64:	87 95       	ror	r24
     b66:	7a 95       	dec	r23
     b68:	d1 f7       	brne	.-12     	; 0xb5e <BMP180_calculation+0x12c>
     b6a:	70 2d       	mov	r23, r0
	x3 = x1 + x2;
     b6c:	c8 0e       	add	r12, r24
     b6e:	d9 1e       	adc	r13, r25
     b70:	ea 1e       	adc	r14, r26
     b72:	fb 1e       	adc	r15, r27
	b3 = (((((int32_t) ac1) * 4 + x3)<<OSS) + 2)>> 2;
     b74:	80 91 f8 03 	lds	r24, 0x03F8	; 0x8003f8 <ac1>
     b78:	90 91 f9 03 	lds	r25, 0x03F9	; 0x8003f9 <ac1+0x1>
     b7c:	09 2e       	mov	r0, r25
     b7e:	00 0c       	add	r0, r0
     b80:	aa 0b       	sbc	r26, r26
     b82:	bb 0b       	sbc	r27, r27
     b84:	88 0f       	add	r24, r24
     b86:	99 1f       	adc	r25, r25
     b88:	aa 1f       	adc	r26, r26
     b8a:	bb 1f       	adc	r27, r27
     b8c:	88 0f       	add	r24, r24
     b8e:	99 1f       	adc	r25, r25
     b90:	aa 1f       	adc	r26, r26
     b92:	bb 1f       	adc	r27, r27
     b94:	c8 0e       	add	r12, r24
     b96:	d9 1e       	adc	r13, r25
     b98:	ea 1e       	adc	r14, r26
     b9a:	fb 1e       	adc	r15, r27
     b9c:	cc 0c       	add	r12, r12
     b9e:	dd 1c       	adc	r13, r13
     ba0:	ee 1c       	adc	r14, r14
     ba2:	ff 1c       	adc	r15, r15
	x1 = (ac3 * b6) >> 13;
     ba4:	a0 91 10 04 	lds	r26, 0x0410	; 0x800410 <ac3>
     ba8:	b0 91 11 04 	lds	r27, 0x0411	; 0x800411 <ac3+0x1>
     bac:	0e 94 5b 2a 	call	0x54b6	; 0x54b6 <__mulshisi3>
     bb0:	2b 01       	movw	r4, r22
     bb2:	3c 01       	movw	r6, r24
     bb4:	03 2e       	mov	r0, r19
     bb6:	3d e0       	ldi	r19, 0x0D	; 13
     bb8:	75 94       	asr	r7
     bba:	67 94       	ror	r6
     bbc:	57 94       	ror	r5
     bbe:	47 94       	ror	r4
     bc0:	3a 95       	dec	r19
     bc2:	d1 f7       	brne	.-12     	; 0xbb8 <BMP180_calculation+0x186>
     bc4:	30 2d       	mov	r19, r0
	x2 = (b1 * ((b6 * b6) >> 12)) >> 16;
     bc6:	a0 91 fa 03 	lds	r26, 0x03FA	; 0x8003fa <b1>
     bca:	b0 91 fb 03 	lds	r27, 0x03FB	; 0x8003fb <b1+0x1>
     bce:	a5 01       	movw	r20, r10
     bd0:	94 01       	movw	r18, r8
     bd2:	0e 94 5b 2a 	call	0x54b6	; 0x54b6 <__mulshisi3>
     bd6:	bb 27       	eor	r27, r27
     bd8:	97 fd       	sbrc	r25, 7
     bda:	b0 95       	com	r27
     bdc:	ab 2f       	mov	r26, r27
	x3 = ((x1 + x2) + 2) >> 2;
     bde:	84 0d       	add	r24, r4
     be0:	95 1d       	adc	r25, r5
     be2:	a6 1d       	adc	r26, r6
     be4:	b7 1d       	adc	r27, r7
     be6:	02 96       	adiw	r24, 0x02	; 2
     be8:	a1 1d       	adc	r26, r1
     bea:	b1 1d       	adc	r27, r1
     bec:	b5 95       	asr	r27
     bee:	a7 95       	ror	r26
     bf0:	97 95       	ror	r25
     bf2:	87 95       	ror	r24
     bf4:	b5 95       	asr	r27
     bf6:	a7 95       	ror	r26
     bf8:	97 95       	ror	r25
     bfa:	87 95       	ror	r24
	b4 = (ac4 * (uint32_t) (x3 + 32768)) >> 15;
     bfc:	9c 01       	movw	r18, r24
     bfe:	ad 01       	movw	r20, r26
     c00:	30 58       	subi	r19, 0x80	; 128
     c02:	4f 4f       	sbci	r20, 0xFF	; 255
     c04:	5f 4f       	sbci	r21, 0xFF	; 255
     c06:	a0 91 04 04 	lds	r26, 0x0404	; 0x800404 <ac4>
     c0a:	b0 91 05 04 	lds	r27, 0x0405	; 0x800405 <ac4+0x1>
     c0e:	0e 94 50 2a 	call	0x54a0	; 0x54a0 <__muluhisi3>
     c12:	2b 01       	movw	r4, r22
     c14:	3c 01       	movw	r6, r24
     c16:	03 2e       	mov	r0, r19
     c18:	3f e0       	ldi	r19, 0x0F	; 15
     c1a:	76 94       	lsr	r7
     c1c:	67 94       	ror	r6
     c1e:	57 94       	ror	r5
     c20:	47 94       	ror	r4
     c22:	3a 95       	dec	r19
     c24:	d1 f7       	brne	.-12     	; 0xc1a <BMP180_calculation+0x1e8>
     c26:	30 2d       	mov	r19, r0
	b7 = ((uint32_t) (up - b3) * (50000 >> OSS));
     c28:	29 81       	ldd	r18, Y+1	; 0x01
     c2a:	3a 81       	ldd	r19, Y+2	; 0x02
     c2c:	4b 81       	ldd	r20, Y+3	; 0x03
     c2e:	5c 81       	ldd	r21, Y+4	; 0x04
     c30:	2c 19       	sub	r18, r12
     c32:	3d 09       	sbc	r19, r13
     c34:	4e 09       	sbc	r20, r14
     c36:	5f 09       	sbc	r21, r15
     c38:	aa e6       	ldi	r26, 0x6A	; 106
     c3a:	b8 e1       	ldi	r27, 0x18	; 24
     c3c:	0e 94 50 2a 	call	0x54a0	; 0x54a0 <__muluhisi3>
	//p = b7 < 0x80000000 ? (b7 * 2) / b4 : (b7 / b4) * 2;
	
	if (b7 < 0x80000000)
     c40:	99 23       	and	r25, r25
     c42:	5c f0       	brlt	.+22     	; 0xc5a <BMP180_calculation+0x228>
	{
		p = (b7 << 1) / b4;
     c44:	66 0f       	add	r22, r22
     c46:	77 1f       	adc	r23, r23
     c48:	88 1f       	adc	r24, r24
     c4a:	99 1f       	adc	r25, r25
     c4c:	a3 01       	movw	r20, r6
     c4e:	92 01       	movw	r18, r4
     c50:	0e 94 09 2a 	call	0x5412	; 0x5412 <__udivmodsi4>
     c54:	69 01       	movw	r12, r18
     c56:	7a 01       	movw	r14, r20
     c58:	0a c0       	rjmp	.+20     	; 0xc6e <BMP180_calculation+0x23c>
	}
	else
	{
		p = (b7 / b4) << 1;
     c5a:	a3 01       	movw	r20, r6
     c5c:	92 01       	movw	r18, r4
     c5e:	0e 94 09 2a 	call	0x5412	; 0x5412 <__udivmodsi4>
     c62:	69 01       	movw	r12, r18
     c64:	7a 01       	movw	r14, r20
     c66:	cc 0c       	add	r12, r12
     c68:	dd 1c       	adc	r13, r13
     c6a:	ee 1c       	adc	r14, r14
     c6c:	ff 1c       	adc	r15, r15
	}

	x1 = (p >> 8) * (p >> 8);
     c6e:	99 27       	eor	r25, r25
     c70:	f7 fc       	sbrc	r15, 7
     c72:	9a 95       	dec	r25
     c74:	8f 2d       	mov	r24, r15
     c76:	7e 2d       	mov	r23, r14
     c78:	6d 2d       	mov	r22, r13
     c7a:	9b 01       	movw	r18, r22
     c7c:	ac 01       	movw	r20, r24
     c7e:	0e 94 e5 29 	call	0x53ca	; 0x53ca <__mulsi3>
     c82:	9b 01       	movw	r18, r22
     c84:	ac 01       	movw	r20, r24
	x1 = (x1 * 3038) >> 16;
     c86:	ae ed       	ldi	r26, 0xDE	; 222
     c88:	bb e0       	ldi	r27, 0x0B	; 11
     c8a:	0e 94 50 2a 	call	0x54a0	; 0x54a0 <__muluhisi3>
     c8e:	4c 01       	movw	r8, r24
     c90:	bb 24       	eor	r11, r11
     c92:	97 fc       	sbrc	r9, 7
     c94:	b0 94       	com	r11
     c96:	ab 2c       	mov	r10, r11
	x2 = (-7357 * p) >> 16;
     c98:	a3 e4       	ldi	r26, 0x43	; 67
     c9a:	b3 ee       	ldi	r27, 0xE3	; 227
     c9c:	a7 01       	movw	r20, r14
     c9e:	96 01       	movw	r18, r12
     ca0:	0e 94 5e 2a 	call	0x54bc	; 0x54bc <__mulohisi3>
     ca4:	bb 27       	eor	r27, r27
     ca6:	97 fd       	sbrc	r25, 7
     ca8:	b0 95       	com	r27
     caa:	ab 2f       	mov	r26, r27
	pressure = p + ((x1 + x2 + 3791) >> 4);
     cac:	88 0d       	add	r24, r8
     cae:	99 1d       	adc	r25, r9
     cb0:	aa 1d       	adc	r26, r10
     cb2:	bb 1d       	adc	r27, r11
     cb4:	81 53       	subi	r24, 0x31	; 49
     cb6:	91 4f       	sbci	r25, 0xF1	; 241
     cb8:	af 4f       	sbci	r26, 0xFF	; 255
     cba:	bf 4f       	sbci	r27, 0xFF	; 255
     cbc:	68 94       	set
     cbe:	13 f8       	bld	r1, 3
     cc0:	b5 95       	asr	r27
     cc2:	a7 95       	ror	r26
     cc4:	97 95       	ror	r25
     cc6:	87 95       	ror	r24
     cc8:	16 94       	lsr	r1
     cca:	d1 f7       	brne	.-12     	; 0xcc0 <BMP180_calculation+0x28e>
     ccc:	bc 01       	movw	r22, r24
     cce:	cd 01       	movw	r24, r26
     cd0:	6c 0d       	add	r22, r12
     cd2:	7d 1d       	adc	r23, r13
     cd4:	8e 1d       	adc	r24, r14
     cd6:	9f 1d       	adc	r25, r15
     cd8:	60 93 6e 03 	sts	0x036E, r22	; 0x80036e <__data_end>
     cdc:	70 93 6f 03 	sts	0x036F, r23	; 0x80036f <__data_end+0x1>
     ce0:	80 93 70 03 	sts	0x0370, r24	; 0x800370 <__data_end+0x2>
     ce4:	90 93 71 03 	sts	0x0371, r25	; 0x800371 <__data_end+0x3>
	return pressure;
}
     ce8:	0f 90       	pop	r0
     cea:	0f 90       	pop	r0
     cec:	0f 90       	pop	r0
     cee:	0f 90       	pop	r0
     cf0:	df 91       	pop	r29
     cf2:	cf 91       	pop	r28
     cf4:	1f 91       	pop	r17
     cf6:	0f 91       	pop	r16
     cf8:	ff 90       	pop	r15
     cfa:	ef 90       	pop	r14
     cfc:	df 90       	pop	r13
     cfe:	cf 90       	pop	r12
     d00:	bf 90       	pop	r11
     d02:	af 90       	pop	r10
     d04:	9f 90       	pop	r9
     d06:	8f 90       	pop	r8
     d08:	7f 90       	pop	r7
     d0a:	6f 90       	pop	r6
     d0c:	5f 90       	pop	r5
     d0e:	4f 90       	pop	r4
     d10:	08 95       	ret

00000d12 <dht22_init>:
     d12:	2f ef       	ldi	r18, 0xFF	; 255
     d14:	83 ed       	ldi	r24, 0xD3	; 211
     d16:	90 e3       	ldi	r25, 0x30	; 48
     d18:	21 50       	subi	r18, 0x01	; 1
     d1a:	80 40       	sbci	r24, 0x00	; 0
     d1c:	90 40       	sbci	r25, 0x00	; 0
     d1e:	e1 f7       	brne	.-8      	; 0xd18 <dht22_init+0x6>
     d20:	00 c0       	rjmp	.+0      	; 0xd22 <dht22_init+0x10>
     d22:	00 00       	nop
#include "DHT22.h"

uint8_t dht22_init (void)
{
	_delay_ms(2000);
	DDRC |= (1<<DHT22_PORT);   // set as output
     d24:	87 b1       	in	r24, 0x07	; 7
     d26:	81 60       	ori	r24, 0x01	; 1
     d28:	87 b9       	out	0x07, r24	; 7
	PORTC |= (1<<DHT22_PORT);// pull the pin high
     d2a:	88 b1       	in	r24, 0x08	; 8
     d2c:	81 60       	ori	r24, 0x01	; 1
     d2e:	88 b9       	out	0x08, r24	; 8

	return 0;
}
     d30:	80 e0       	ldi	r24, 0x00	; 0
     d32:	08 95       	ret

00000d34 <dht22_GetData>:
uint8_t dht22_GetData (uint8_t *data)
{
     d34:	bc 01       	movw	r22, r24
	uint8_t i, j = 0;
	DDRC |= (1<<DHT22_PORT);   // set as output
     d36:	87 b1       	in	r24, 0x07	; 7
     d38:	81 60       	ori	r24, 0x01	; 1
     d3a:	87 b9       	out	0x07, r24	; 7
	//reset ports
	PORTC &= ~(1<<DHT22_PORT);// pull the pin low
     d3c:	88 b1       	in	r24, 0x08	; 8
     d3e:	8e 7f       	andi	r24, 0xFE	; 254
     d40:	88 b9       	out	0x08, r24	; 8
	PORTC |= (1<<DHT22_PORT);// pull the pin high
     d42:	88 b1       	in	r24, 0x08	; 8
     d44:	81 60       	ori	r24, 0x01	; 1
     d46:	88 b9       	out	0x08, r24	; 8
     d48:	2f ef       	ldi	r18, 0xFF	; 255
     d4a:	80 e7       	ldi	r24, 0x70	; 112
     d4c:	92 e0       	ldi	r25, 0x02	; 2
     d4e:	21 50       	subi	r18, 0x01	; 1
     d50:	80 40       	sbci	r24, 0x00	; 0
     d52:	90 40       	sbci	r25, 0x00	; 0
     d54:	e1 f7       	brne	.-8      	; 0xd4e <dht22_GetData+0x1a>
     d56:	00 c0       	rjmp	.+0      	; 0xd58 <dht22_GetData+0x24>
     d58:	00 00       	nop
	_delay_ms(100);
	//start
	PORTC &= ~(1<<DHT22_PORT);// pull the pin low
     d5a:	88 b1       	in	r24, 0x08	; 8
     d5c:	8e 7f       	andi	r24, 0xFE	; 254
     d5e:	88 b9       	out	0x08, r24	; 8
     d60:	8f e9       	ldi	r24, 0x9F	; 159
     d62:	9c e8       	ldi	r25, 0x8C	; 140
     d64:	01 97       	sbiw	r24, 0x01	; 1
     d66:	f1 f7       	brne	.-4      	; 0xd64 <dht22_GetData+0x30>
     d68:	00 c0       	rjmp	.+0      	; 0xd6a <dht22_GetData+0x36>
     d6a:	00 00       	nop
	_delay_ms(18);
	PORTC |= (1<<DHT22_PORT);// pull the pin high
     d6c:	88 b1       	in	r24, 0x08	; 8
     d6e:	81 60       	ori	r24, 0x01	; 1
     d70:	88 b9       	out	0x08, r24	; 8
	//ждем ответа датчика
	DDRC &= ~(1<<DHT22_PORT);   // set as input
     d72:	87 b1       	in	r24, 0x07	; 7
     d74:	8e 7f       	andi	r24, 0xFE	; 254
     d76:	87 b9       	out	0x07, r24	; 7
	#else
		//round up by default
		__ticks_dc = (uint32_t)(ceil(fabs(__tmp)));
	#endif

	__builtin_avr_delay_cycles(__ticks_dc);
     d78:	90 ea       	ldi	r25, 0xA0	; 160
     d7a:	9a 95       	dec	r25
     d7c:	f1 f7       	brne	.-4      	; 0xd7a <dht22_GetData+0x46>
	_delay_us(60);//экспериментом выявлено 60 а не 40 сек
	//если датчик не ответил притягиванием шины, то ошибка
	if (PINC & (1 << DHT22_PORT))
     d7e:	30 99       	sbic	0x06, 0	; 6
     d80:	38 c0       	rjmp	.+112    	; 0xdf2 <dht22_GetData+0xbe>
     d82:	25 ed       	ldi	r18, 0xD5	; 213
     d84:	2a 95       	dec	r18
     d86:	f1 f7       	brne	.-4      	; 0xd84 <dht22_GetData+0x50>
     d88:	00 00       	nop
	{
		return 0;
	}
	_delay_us(80);
	//если датчик не отпустил шину, то ошибка
	if (!(PINC & (1 << DHT22_PORT)))
     d8a:	96 b1       	in	r25, 0x06	; 6
     d8c:	89 2f       	mov	r24, r25
     d8e:	81 70       	andi	r24, 0x01	; 1
     d90:	90 ff       	sbrs	r25, 0
     d92:	30 c0       	rjmp	.+96     	; 0xdf4 <dht22_GetData+0xc0>
     d94:	85 ed       	ldi	r24, 0xD5	; 213
     d96:	8a 95       	dec	r24
     d98:	f1 f7       	brne	.-4      	; 0xd96 <dht22_GetData+0x62>
     d9a:	00 00       	nop
	}
	_delay_us(80);
	//читаем данные (записываем байты в массив наоборот,
	//т.к. сначала передается старший, чтобы потом
	//не переворачивать двухбайтовый результат
	for (j=0; j<5; j++)
     d9c:	80 e0       	ldi	r24, 0x00	; 0
     d9e:	25 c0       	rjmp	.+74     	; 0xdea <dht22_GetData+0xb6>
	{
		data[4-j] = 0;
     da0:	e4 e0       	ldi	r30, 0x04	; 4
     da2:	f0 e0       	ldi	r31, 0x00	; 0
     da4:	e8 1b       	sub	r30, r24
     da6:	f1 09       	sbc	r31, r1
     da8:	e6 0f       	add	r30, r22
     daa:	f7 1f       	adc	r31, r23
     dac:	10 82       	st	Z, r1
		for (i = 0; i<8; i++)
     dae:	90 e0       	ldi	r25, 0x00	; 0
     db0:	19 c0       	rjmp	.+50     	; 0xde4 <dht22_GetData+0xb0>
		{
			while(!(PINC & (1 << DHT22_PORT)));//ждем отпускания шины
     db2:	30 9b       	sbis	0x06, 0	; 6
     db4:	fe cf       	rjmp	.-4      	; 0xdb2 <dht22_GetData+0x7e>
     db6:	2d e5       	ldi	r18, 0x5D	; 93
     db8:	2a 95       	dec	r18
     dba:	f1 f7       	brne	.-4      	; 0xdb8 <dht22_GetData+0x84>
     dbc:	00 00       	nop
			_delay_us(35);
			if (PINC & (1 << DHT22_PORT))//читаем результат по прошествии 30 микросекунд
     dbe:	30 9b       	sbis	0x06, 0	; 6
     dc0:	0e c0       	rjmp	.+28     	; 0xdde <dht22_GetData+0xaa>
			//если шина за это время не притянулась к земле, то значит это единица, иначе ноль
			data[4-j] |= (1<<(7-i));
     dc2:	47 e0       	ldi	r20, 0x07	; 7
     dc4:	50 e0       	ldi	r21, 0x00	; 0
     dc6:	49 1b       	sub	r20, r25
     dc8:	51 09       	sbc	r21, r1
     dca:	21 e0       	ldi	r18, 0x01	; 1
     dcc:	30 e0       	ldi	r19, 0x00	; 0
     dce:	02 c0       	rjmp	.+4      	; 0xdd4 <dht22_GetData+0xa0>
     dd0:	22 0f       	add	r18, r18
     dd2:	33 1f       	adc	r19, r19
     dd4:	4a 95       	dec	r20
     dd6:	e2 f7       	brpl	.-8      	; 0xdd0 <dht22_GetData+0x9c>
     dd8:	30 81       	ld	r19, Z
     dda:	23 2b       	or	r18, r19
     ddc:	20 83       	st	Z, r18
			while(PINC & (1 << DHT22_PORT));//ждем пока датчик притянет шину(в случае единицы)
     dde:	30 99       	sbic	0x06, 0	; 6
     de0:	fe cf       	rjmp	.-4      	; 0xdde <dht22_GetData+0xaa>
	//т.к. сначала передается старший, чтобы потом
	//не переворачивать двухбайтовый результат
	for (j=0; j<5; j++)
	{
		data[4-j] = 0;
		for (i = 0; i<8; i++)
     de2:	9f 5f       	subi	r25, 0xFF	; 255
     de4:	98 30       	cpi	r25, 0x08	; 8
     de6:	28 f3       	brcs	.-54     	; 0xdb2 <dht22_GetData+0x7e>
	}
	_delay_us(80);
	//читаем данные (записываем байты в массив наоборот,
	//т.к. сначала передается старший, чтобы потом
	//не переворачивать двухбайтовый результат
	for (j=0; j<5; j++)
     de8:	8f 5f       	subi	r24, 0xFF	; 255
     dea:	85 30       	cpi	r24, 0x05	; 5
     dec:	c8 f2       	brcs	.-78     	; 0xda0 <dht22_GetData+0x6c>
			//если шина за это время не притянулась к земле, то значит это единица, иначе ноль
			data[4-j] |= (1<<(7-i));
			while(PINC & (1 << DHT22_PORT));//ждем пока датчик притянет шину(в случае единицы)
		}
	}
	return 1;
     dee:	81 e0       	ldi	r24, 0x01	; 1
     df0:	08 95       	ret
	DDRC &= ~(1<<DHT22_PORT);   // set as input
	_delay_us(60);//экспериментом выявлено 60 а не 40 сек
	//если датчик не ответил притягиванием шины, то ошибка
	if (PINC & (1 << DHT22_PORT))
	{
		return 0;
     df2:	80 e0       	ldi	r24, 0x00	; 0
			data[4-j] |= (1<<(7-i));
			while(PINC & (1 << DHT22_PORT));//ждем пока датчик притянет шину(в случае единицы)
		}
	}
	return 1;
     df4:	08 95       	ret

00000df6 <LCD_12864_Draw_pixel>:
			LCD_12864_send_data(0x00);
			LCD_12864_send_data(0x00);
		}
	}
	LCD_12864_Clean_Frame_buffer(Frame_buffer);
}
     df6:	90 91 01 01 	lds	r25, 0x0101	; 0x800101 <ST7920_height>
     dfa:	69 17       	cp	r22, r25
     dfc:	e0 f4       	brcc	.+56     	; 0xe36 <LCD_12864_Draw_pixel+0x40>
     dfe:	90 91 02 01 	lds	r25, 0x0102	; 0x800102 <ST7920_width>
     e02:	89 17       	cp	r24, r25
     e04:	c0 f4       	brcc	.+48     	; 0xe36 <LCD_12864_Draw_pixel+0x40>
     e06:	26 2f       	mov	r18, r22
     e08:	26 95       	lsr	r18
     e0a:	26 95       	lsr	r18
     e0c:	26 95       	lsr	r18
     e0e:	90 e0       	ldi	r25, 0x00	; 0
     e10:	30 e8       	ldi	r19, 0x80	; 128
     e12:	23 9f       	mul	r18, r19
     e14:	80 0d       	add	r24, r0
     e16:	91 1d       	adc	r25, r1
     e18:	11 24       	eor	r1, r1
     e1a:	fa 01       	movw	r30, r20
     e1c:	e8 0f       	add	r30, r24
     e1e:	f9 1f       	adc	r31, r25
     e20:	67 70       	andi	r22, 0x07	; 7
     e22:	81 e0       	ldi	r24, 0x01	; 1
     e24:	90 e0       	ldi	r25, 0x00	; 0
     e26:	02 c0       	rjmp	.+4      	; 0xe2c <LCD_12864_Draw_pixel+0x36>
     e28:	88 0f       	add	r24, r24
     e2a:	99 1f       	adc	r25, r25
     e2c:	6a 95       	dec	r22
     e2e:	e2 f7       	brpl	.-8      	; 0xe28 <LCD_12864_Draw_pixel+0x32>
     e30:	90 81       	ld	r25, Z
     e32:	89 2b       	or	r24, r25
     e34:	80 83       	st	Z, r24
     e36:	08 95       	ret

00000e38 <LCD_12864_Clean_pixel>:
     e38:	90 91 01 01 	lds	r25, 0x0101	; 0x800101 <ST7920_height>
     e3c:	69 17       	cp	r22, r25
     e3e:	e0 f4       	brcc	.+56     	; 0xe78 <LCD_12864_Clean_pixel+0x40>
     e40:	90 91 02 01 	lds	r25, 0x0102	; 0x800102 <ST7920_width>
     e44:	89 17       	cp	r24, r25
     e46:	c0 f4       	brcc	.+48     	; 0xe78 <LCD_12864_Clean_pixel+0x40>
     e48:	26 2f       	mov	r18, r22
     e4a:	26 95       	lsr	r18
     e4c:	26 95       	lsr	r18
     e4e:	26 95       	lsr	r18
     e50:	90 e0       	ldi	r25, 0x00	; 0
     e52:	30 e8       	ldi	r19, 0x80	; 128
     e54:	23 9f       	mul	r18, r19
     e56:	80 0d       	add	r24, r0
     e58:	91 1d       	adc	r25, r1
     e5a:	11 24       	eor	r1, r1
     e5c:	fa 01       	movw	r30, r20
     e5e:	e8 0f       	add	r30, r24
     e60:	f9 1f       	adc	r31, r25
     e62:	67 70       	andi	r22, 0x07	; 7
     e64:	8e ef       	ldi	r24, 0xFE	; 254
     e66:	90 e0       	ldi	r25, 0x00	; 0
     e68:	02 c0       	rjmp	.+4      	; 0xe6e <LCD_12864_Clean_pixel+0x36>
     e6a:	88 0f       	add	r24, r24
     e6c:	99 1f       	adc	r25, r25
     e6e:	6a 95       	dec	r22
     e70:	e2 f7       	brpl	.-8      	; 0xe6a <LCD_12864_Clean_pixel+0x32>
     e72:	90 81       	ld	r25, Z
     e74:	89 23       	and	r24, r25
     e76:	80 83       	st	Z, r24
     e78:	08 95       	ret

00000e7a <strob>:
     e7a:	82 e0       	ldi	r24, 0x02	; 2
     e7c:	8a 95       	dec	r24
     e7e:	f1 f7       	brne	.-4      	; 0xe7c <strob+0x2>
     e80:	00 c0       	rjmp	.+0      	; 0xe82 <strob+0x8>
     e82:	8b b1       	in	r24, 0x0b	; 11
     e84:	80 62       	ori	r24, 0x20	; 32
     e86:	8b b9       	out	0x0b, r24	; 11
     e88:	82 e0       	ldi	r24, 0x02	; 2
     e8a:	8a 95       	dec	r24
     e8c:	f1 f7       	brne	.-4      	; 0xe8a <strob+0x10>
     e8e:	00 c0       	rjmp	.+0      	; 0xe90 <strob+0x16>
     e90:	8b b1       	in	r24, 0x0b	; 11
     e92:	8f 7d       	andi	r24, 0xDF	; 223
     e94:	8b b9       	out	0x0b, r24	; 11
     e96:	82 e0       	ldi	r24, 0x02	; 2
     e98:	8a 95       	dec	r24
     e9a:	f1 f7       	brne	.-4      	; 0xe98 <strob+0x1e>
     e9c:	00 c0       	rjmp	.+0      	; 0xe9e <strob+0x24>
     e9e:	08 95       	ret

00000ea0 <LCD_12864_send_data>:
     ea0:	1f 93       	push	r17
     ea2:	cf 93       	push	r28
     ea4:	df 93       	push	r29
     ea6:	18 2f       	mov	r17, r24
     ea8:	8b b1       	in	r24, 0x0b	; 11
     eaa:	80 68       	ori	r24, 0x80	; 128
     eac:	8b b9       	out	0x0b, r24	; 11
     eae:	8b b1       	in	r24, 0x0b	; 11
     eb0:	80 64       	ori	r24, 0x40	; 64
     eb2:	8b b9       	out	0x0b, r24	; 11
     eb4:	0e 94 3d 07 	call	0xe7a	; 0xe7a <strob>
     eb8:	0e 94 3d 07 	call	0xe7a	; 0xe7a <strob>
     ebc:	0e 94 3d 07 	call	0xe7a	; 0xe7a <strob>
     ec0:	0e 94 3d 07 	call	0xe7a	; 0xe7a <strob>
     ec4:	0e 94 3d 07 	call	0xe7a	; 0xe7a <strob>
     ec8:	8b b1       	in	r24, 0x0b	; 11
     eca:	8f 7b       	andi	r24, 0xBF	; 191
     ecc:	8b b9       	out	0x0b, r24	; 11
     ece:	0e 94 3d 07 	call	0xe7a	; 0xe7a <strob>
     ed2:	8b b1       	in	r24, 0x0b	; 11
     ed4:	80 64       	ori	r24, 0x40	; 64
     ed6:	8b b9       	out	0x0b, r24	; 11
     ed8:	0e 94 3d 07 	call	0xe7a	; 0xe7a <strob>
     edc:	8b b1       	in	r24, 0x0b	; 11
     ede:	8f 7b       	andi	r24, 0xBF	; 191
     ee0:	8b b9       	out	0x0b, r24	; 11
     ee2:	0e 94 3d 07 	call	0xe7a	; 0xe7a <strob>
     ee6:	c0 e0       	ldi	r28, 0x00	; 0
     ee8:	d0 e0       	ldi	r29, 0x00	; 0
     eea:	1c c0       	rjmp	.+56     	; 0xf24 <LCD_12864_send_data+0x84>
     eec:	ce 01       	movw	r24, r28
     eee:	04 97       	sbiw	r24, 0x04	; 4
     ef0:	04 97       	sbiw	r24, 0x04	; 4
     ef2:	30 f4       	brcc	.+12     	; 0xf00 <LCD_12864_send_data+0x60>
     ef4:	8b b1       	in	r24, 0x0b	; 11
     ef6:	8f 7b       	andi	r24, 0xBF	; 191
     ef8:	8b b9       	out	0x0b, r24	; 11
     efa:	0e 94 3d 07 	call	0xe7a	; 0xe7a <strob>
     efe:	11 c0       	rjmp	.+34     	; 0xf22 <LCD_12864_send_data+0x82>
     f00:	81 2f       	mov	r24, r17
     f02:	80 78       	andi	r24, 0x80	; 128
     f04:	41 f0       	breq	.+16     	; 0xf16 <LCD_12864_send_data+0x76>
     f06:	80 38       	cpi	r24, 0x80	; 128
     f08:	59 f4       	brne	.+22     	; 0xf20 <LCD_12864_send_data+0x80>
     f0a:	8b b1       	in	r24, 0x0b	; 11
     f0c:	80 64       	ori	r24, 0x40	; 64
     f0e:	8b b9       	out	0x0b, r24	; 11
     f10:	0e 94 3d 07 	call	0xe7a	; 0xe7a <strob>
     f14:	05 c0       	rjmp	.+10     	; 0xf20 <LCD_12864_send_data+0x80>
     f16:	8b b1       	in	r24, 0x0b	; 11
     f18:	8f 7b       	andi	r24, 0xBF	; 191
     f1a:	8b b9       	out	0x0b, r24	; 11
     f1c:	0e 94 3d 07 	call	0xe7a	; 0xe7a <strob>
     f20:	11 0f       	add	r17, r17
     f22:	21 96       	adiw	r28, 0x01	; 1
     f24:	cc 30       	cpi	r28, 0x0C	; 12
     f26:	d1 05       	cpc	r29, r1
     f28:	0c f3       	brlt	.-62     	; 0xeec <LCD_12864_send_data+0x4c>
     f2a:	8b b1       	in	r24, 0x0b	; 11
     f2c:	8f 7b       	andi	r24, 0xBF	; 191
     f2e:	8b b9       	out	0x0b, r24	; 11
     f30:	0e 94 3d 07 	call	0xe7a	; 0xe7a <strob>
     f34:	0e 94 3d 07 	call	0xe7a	; 0xe7a <strob>
     f38:	0e 94 3d 07 	call	0xe7a	; 0xe7a <strob>
     f3c:	0e 94 3d 07 	call	0xe7a	; 0xe7a <strob>
     f40:	8b b1       	in	r24, 0x0b	; 11
     f42:	8f 77       	andi	r24, 0x7F	; 127
     f44:	8b b9       	out	0x0b, r24	; 11
     f46:	df 91       	pop	r29
     f48:	cf 91       	pop	r28
     f4a:	1f 91       	pop	r17
     f4c:	08 95       	ret

00000f4e <LCD_12864_send_command>:
     f4e:	1f 93       	push	r17
     f50:	cf 93       	push	r28
     f52:	df 93       	push	r29
     f54:	18 2f       	mov	r17, r24
     f56:	8b b1       	in	r24, 0x0b	; 11
     f58:	80 68       	ori	r24, 0x80	; 128
     f5a:	8b b9       	out	0x0b, r24	; 11
     f5c:	8b b1       	in	r24, 0x0b	; 11
     f5e:	80 64       	ori	r24, 0x40	; 64
     f60:	8b b9       	out	0x0b, r24	; 11
     f62:	0e 94 3d 07 	call	0xe7a	; 0xe7a <strob>
     f66:	0e 94 3d 07 	call	0xe7a	; 0xe7a <strob>
     f6a:	0e 94 3d 07 	call	0xe7a	; 0xe7a <strob>
     f6e:	0e 94 3d 07 	call	0xe7a	; 0xe7a <strob>
     f72:	0e 94 3d 07 	call	0xe7a	; 0xe7a <strob>
     f76:	8b b1       	in	r24, 0x0b	; 11
     f78:	8f 7b       	andi	r24, 0xBF	; 191
     f7a:	8b b9       	out	0x0b, r24	; 11
     f7c:	0e 94 3d 07 	call	0xe7a	; 0xe7a <strob>
     f80:	8b b1       	in	r24, 0x0b	; 11
     f82:	8f 7b       	andi	r24, 0xBF	; 191
     f84:	8b b9       	out	0x0b, r24	; 11
     f86:	0e 94 3d 07 	call	0xe7a	; 0xe7a <strob>
     f8a:	8b b1       	in	r24, 0x0b	; 11
     f8c:	8f 7b       	andi	r24, 0xBF	; 191
     f8e:	8b b9       	out	0x0b, r24	; 11
     f90:	0e 94 3d 07 	call	0xe7a	; 0xe7a <strob>
     f94:	c0 e0       	ldi	r28, 0x00	; 0
     f96:	d0 e0       	ldi	r29, 0x00	; 0
     f98:	1c c0       	rjmp	.+56     	; 0xfd2 <LCD_12864_send_command+0x84>
     f9a:	ce 01       	movw	r24, r28
     f9c:	04 97       	sbiw	r24, 0x04	; 4
     f9e:	04 97       	sbiw	r24, 0x04	; 4
     fa0:	30 f4       	brcc	.+12     	; 0xfae <LCD_12864_send_command+0x60>
     fa2:	8b b1       	in	r24, 0x0b	; 11
     fa4:	8f 7b       	andi	r24, 0xBF	; 191
     fa6:	8b b9       	out	0x0b, r24	; 11
     fa8:	0e 94 3d 07 	call	0xe7a	; 0xe7a <strob>
     fac:	11 c0       	rjmp	.+34     	; 0xfd0 <LCD_12864_send_command+0x82>
     fae:	81 2f       	mov	r24, r17
     fb0:	80 78       	andi	r24, 0x80	; 128
     fb2:	41 f0       	breq	.+16     	; 0xfc4 <LCD_12864_send_command+0x76>
     fb4:	80 38       	cpi	r24, 0x80	; 128
     fb6:	59 f4       	brne	.+22     	; 0xfce <LCD_12864_send_command+0x80>
     fb8:	8b b1       	in	r24, 0x0b	; 11
     fba:	80 64       	ori	r24, 0x40	; 64
     fbc:	8b b9       	out	0x0b, r24	; 11
     fbe:	0e 94 3d 07 	call	0xe7a	; 0xe7a <strob>
     fc2:	05 c0       	rjmp	.+10     	; 0xfce <LCD_12864_send_command+0x80>
     fc4:	8b b1       	in	r24, 0x0b	; 11
     fc6:	8f 7b       	andi	r24, 0xBF	; 191
     fc8:	8b b9       	out	0x0b, r24	; 11
     fca:	0e 94 3d 07 	call	0xe7a	; 0xe7a <strob>
     fce:	11 0f       	add	r17, r17
     fd0:	21 96       	adiw	r28, 0x01	; 1
     fd2:	cc 30       	cpi	r28, 0x0C	; 12
     fd4:	d1 05       	cpc	r29, r1
     fd6:	0c f3       	brlt	.-62     	; 0xf9a <LCD_12864_send_command+0x4c>
     fd8:	8b b1       	in	r24, 0x0b	; 11
     fda:	8f 7b       	andi	r24, 0xBF	; 191
     fdc:	8b b9       	out	0x0b, r24	; 11
     fde:	0e 94 3d 07 	call	0xe7a	; 0xe7a <strob>
     fe2:	0e 94 3d 07 	call	0xe7a	; 0xe7a <strob>
     fe6:	0e 94 3d 07 	call	0xe7a	; 0xe7a <strob>
     fea:	0e 94 3d 07 	call	0xe7a	; 0xe7a <strob>
     fee:	8b b1       	in	r24, 0x0b	; 11
     ff0:	8f 77       	andi	r24, 0x7F	; 127
     ff2:	8b b9       	out	0x0b, r24	; 11
     ff4:	df 91       	pop	r29
     ff6:	cf 91       	pop	r28
     ff8:	1f 91       	pop	r17
     ffa:	08 95       	ret

00000ffc <LCD_12864_GrapnicMode>:
     ffc:	88 23       	and	r24, r24
     ffe:	99 f0       	breq	.+38     	; 0x1026 <LCD_12864_GrapnicMode+0x2a>
    1000:	84 e3       	ldi	r24, 0x34	; 52
    1002:	0e 94 a7 07 	call	0xf4e	; 0xf4e <LCD_12864_send_command>
    1006:	8f ec       	ldi	r24, 0xCF	; 207
    1008:	97 e0       	ldi	r25, 0x07	; 7
    100a:	01 97       	sbiw	r24, 0x01	; 1
    100c:	f1 f7       	brne	.-4      	; 0x100a <LCD_12864_GrapnicMode+0xe>
    100e:	00 c0       	rjmp	.+0      	; 0x1010 <LCD_12864_GrapnicMode+0x14>
    1010:	00 00       	nop
    1012:	86 e3       	ldi	r24, 0x36	; 54
    1014:	0e 94 a7 07 	call	0xf4e	; 0xf4e <LCD_12864_send_command>
    1018:	8f ec       	ldi	r24, 0xCF	; 207
    101a:	97 e0       	ldi	r25, 0x07	; 7
    101c:	01 97       	sbiw	r24, 0x01	; 1
    101e:	f1 f7       	brne	.-4      	; 0x101c <LCD_12864_GrapnicMode+0x20>
    1020:	00 c0       	rjmp	.+0      	; 0x1022 <LCD_12864_GrapnicMode+0x26>
    1022:	00 00       	nop
    1024:	08 95       	ret
    1026:	80 e3       	ldi	r24, 0x30	; 48
    1028:	0e 94 a7 07 	call	0xf4e	; 0xf4e <LCD_12864_send_command>
    102c:	8f ec       	ldi	r24, 0xCF	; 207
    102e:	97 e0       	ldi	r25, 0x07	; 7
    1030:	01 97       	sbiw	r24, 0x01	; 1
    1032:	f1 f7       	brne	.-4      	; 0x1030 <LCD_12864_GrapnicMode+0x34>
    1034:	00 c0       	rjmp	.+0      	; 0x1036 <LCD_12864_GrapnicMode+0x3a>
    1036:	00 00       	nop
    1038:	08 95       	ret

0000103a <LCD_12864_Draw_bitmap>:
    103a:	8f 92       	push	r8
    103c:	9f 92       	push	r9
    103e:	af 92       	push	r10
    1040:	bf 92       	push	r11
    1042:	df 92       	push	r13
    1044:	ef 92       	push	r14
    1046:	ff 92       	push	r15
    1048:	0f 93       	push	r16
    104a:	1f 93       	push	r17
    104c:	cf 93       	push	r28
    104e:	df 93       	push	r29
    1050:	7c 01       	movw	r14, r24
    1052:	d1 2c       	mov	r13, r1
    1054:	31 c1       	rjmp	.+610    	; 0x12b8 <LCD_12864_Draw_bitmap+0x27e>
    1056:	8f e1       	ldi	r24, 0x1F	; 31
    1058:	8d 15       	cp	r24, r13
    105a:	48 f0       	brcs	.+18     	; 0x106e <LCD_12864_Draw_bitmap+0x34>
    105c:	8d 2d       	mov	r24, r13
    105e:	80 68       	ori	r24, 0x80	; 128
    1060:	0e 94 a7 07 	call	0xf4e	; 0xf4e <LCD_12864_send_command>
    1064:	80 2f       	mov	r24, r16
    1066:	80 68       	ori	r24, 0x80	; 128
    1068:	0e 94 a7 07 	call	0xf4e	; 0xf4e <LCD_12864_send_command>
    106c:	09 c0       	rjmp	.+18     	; 0x1080 <LCD_12864_Draw_bitmap+0x46>
    106e:	80 ee       	ldi	r24, 0xE0	; 224
    1070:	8d 0d       	add	r24, r13
    1072:	80 68       	ori	r24, 0x80	; 128
    1074:	0e 94 a7 07 	call	0xf4e	; 0xf4e <LCD_12864_send_command>
    1078:	80 2f       	mov	r24, r16
    107a:	88 68       	ori	r24, 0x88	; 136
    107c:	0e 94 a7 07 	call	0xf4e	; 0xf4e <LCD_12864_send_command>
    1080:	cd 2d       	mov	r28, r13
    1082:	c6 95       	lsr	r28
    1084:	c6 95       	lsr	r28
    1086:	c6 95       	lsr	r28
    1088:	d0 e0       	ldi	r29, 0x00	; 0
    108a:	cc 0f       	add	r28, r28
    108c:	dd 1f       	adc	r29, r29
    108e:	cc 0f       	add	r28, r28
    1090:	dd 1f       	adc	r29, r29
    1092:	cc 0f       	add	r28, r28
    1094:	dd 1f       	adc	r29, r29
    1096:	c0 0f       	add	r28, r16
    1098:	d1 1d       	adc	r29, r1
    109a:	c2 95       	swap	r28
    109c:	d2 95       	swap	r29
    109e:	d0 7f       	andi	r29, 0xF0	; 240
    10a0:	dc 27       	eor	r29, r28
    10a2:	c0 7f       	andi	r28, 0xF0	; 240
    10a4:	dc 27       	eor	r29, r28
    10a6:	ce 0d       	add	r28, r14
    10a8:	df 1d       	adc	r29, r15
    10aa:	88 80       	ld	r8, Y
    10ac:	91 2c       	mov	r9, r1
    10ae:	1d 2d       	mov	r17, r13
    10b0:	17 70       	andi	r17, 0x07	; 7
    10b2:	01 2e       	mov	r0, r17
    10b4:	02 c0       	rjmp	.+4      	; 0x10ba <LCD_12864_Draw_bitmap+0x80>
    10b6:	95 94       	asr	r9
    10b8:	87 94       	ror	r8
    10ba:	0a 94       	dec	r0
    10bc:	e2 f7       	brpl	.-8      	; 0x10b6 <LCD_12864_Draw_bitmap+0x7c>
    10be:	96 94       	lsr	r9
    10c0:	98 2c       	mov	r9, r8
    10c2:	88 24       	eor	r8, r8
    10c4:	97 94       	ror	r9
    10c6:	87 94       	ror	r8
    10c8:	a9 80       	ldd	r10, Y+1	; 0x01
    10ca:	b1 2c       	mov	r11, r1
    10cc:	01 2e       	mov	r0, r17
    10ce:	02 c0       	rjmp	.+4      	; 0x10d4 <LCD_12864_Draw_bitmap+0x9a>
    10d0:	b5 94       	asr	r11
    10d2:	a7 94       	ror	r10
    10d4:	0a 94       	dec	r0
    10d6:	e2 f7       	brpl	.-8      	; 0x10d0 <LCD_12864_Draw_bitmap+0x96>
    10d8:	81 e0       	ldi	r24, 0x01	; 1
    10da:	a8 22       	and	r10, r24
    10dc:	bb 24       	eor	r11, r11
    10de:	00 24       	eor	r0, r0
    10e0:	b6 94       	lsr	r11
    10e2:	a7 94       	ror	r10
    10e4:	07 94       	ror	r0
    10e6:	b6 94       	lsr	r11
    10e8:	a7 94       	ror	r10
    10ea:	07 94       	ror	r0
    10ec:	ba 2c       	mov	r11, r10
    10ee:	a0 2c       	mov	r10, r0
    10f0:	aa 81       	ldd	r26, Y+2	; 0x02
    10f2:	b0 e0       	ldi	r27, 0x00	; 0
    10f4:	01 2e       	mov	r0, r17
    10f6:	02 c0       	rjmp	.+4      	; 0x10fc <LCD_12864_Draw_bitmap+0xc2>
    10f8:	b5 95       	asr	r27
    10fa:	a7 95       	ror	r26
    10fc:	0a 94       	dec	r0
    10fe:	e2 f7       	brpl	.-8      	; 0x10f8 <LCD_12864_Draw_bitmap+0xbe>
    1100:	a1 70       	andi	r26, 0x01	; 1
    1102:	bb 27       	eor	r27, r27
    1104:	aa 0f       	add	r26, r26
    1106:	bb 1f       	adc	r27, r27
    1108:	a2 95       	swap	r26
    110a:	b2 95       	swap	r27
    110c:	b0 7f       	andi	r27, 0xF0	; 240
    110e:	ba 27       	eor	r27, r26
    1110:	a0 7f       	andi	r26, 0xF0	; 240
    1112:	ba 27       	eor	r27, r26
    1114:	eb 81       	ldd	r30, Y+3	; 0x03
    1116:	f0 e0       	ldi	r31, 0x00	; 0
    1118:	01 2e       	mov	r0, r17
    111a:	02 c0       	rjmp	.+4      	; 0x1120 <LCD_12864_Draw_bitmap+0xe6>
    111c:	f5 95       	asr	r31
    111e:	e7 95       	ror	r30
    1120:	0a 94       	dec	r0
    1122:	e2 f7       	brpl	.-8      	; 0x111c <LCD_12864_Draw_bitmap+0xe2>
    1124:	e1 70       	andi	r30, 0x01	; 1
    1126:	ff 27       	eor	r31, r31
    1128:	e2 95       	swap	r30
    112a:	f2 95       	swap	r31
    112c:	f0 7f       	andi	r31, 0xF0	; 240
    112e:	fe 27       	eor	r31, r30
    1130:	e0 7f       	andi	r30, 0xF0	; 240
    1132:	fe 27       	eor	r31, r30
    1134:	6c 81       	ldd	r22, Y+4	; 0x04
    1136:	70 e0       	ldi	r23, 0x00	; 0
    1138:	01 2e       	mov	r0, r17
    113a:	02 c0       	rjmp	.+4      	; 0x1140 <LCD_12864_Draw_bitmap+0x106>
    113c:	75 95       	asr	r23
    113e:	67 95       	ror	r22
    1140:	0a 94       	dec	r0
    1142:	e2 f7       	brpl	.-8      	; 0x113c <LCD_12864_Draw_bitmap+0x102>
    1144:	61 70       	andi	r22, 0x01	; 1
    1146:	77 27       	eor	r23, r23
    1148:	66 0f       	add	r22, r22
    114a:	77 1f       	adc	r23, r23
    114c:	66 0f       	add	r22, r22
    114e:	77 1f       	adc	r23, r23
    1150:	66 0f       	add	r22, r22
    1152:	77 1f       	adc	r23, r23
    1154:	4d 81       	ldd	r20, Y+5	; 0x05
    1156:	50 e0       	ldi	r21, 0x00	; 0
    1158:	01 2e       	mov	r0, r17
    115a:	02 c0       	rjmp	.+4      	; 0x1160 <LCD_12864_Draw_bitmap+0x126>
    115c:	55 95       	asr	r21
    115e:	47 95       	ror	r20
    1160:	0a 94       	dec	r0
    1162:	e2 f7       	brpl	.-8      	; 0x115c <LCD_12864_Draw_bitmap+0x122>
    1164:	41 70       	andi	r20, 0x01	; 1
    1166:	55 27       	eor	r21, r21
    1168:	44 0f       	add	r20, r20
    116a:	55 1f       	adc	r21, r21
    116c:	44 0f       	add	r20, r20
    116e:	55 1f       	adc	r21, r21
    1170:	2e 81       	ldd	r18, Y+6	; 0x06
    1172:	30 e0       	ldi	r19, 0x00	; 0
    1174:	01 2e       	mov	r0, r17
    1176:	02 c0       	rjmp	.+4      	; 0x117c <LCD_12864_Draw_bitmap+0x142>
    1178:	35 95       	asr	r19
    117a:	27 95       	ror	r18
    117c:	0a 94       	dec	r0
    117e:	e2 f7       	brpl	.-8      	; 0x1178 <LCD_12864_Draw_bitmap+0x13e>
    1180:	21 70       	andi	r18, 0x01	; 1
    1182:	33 27       	eor	r19, r19
    1184:	22 0f       	add	r18, r18
    1186:	33 1f       	adc	r19, r19
    1188:	8f 81       	ldd	r24, Y+7	; 0x07
    118a:	90 e0       	ldi	r25, 0x00	; 0
    118c:	01 2e       	mov	r0, r17
    118e:	02 c0       	rjmp	.+4      	; 0x1194 <LCD_12864_Draw_bitmap+0x15a>
    1190:	95 95       	asr	r25
    1192:	87 95       	ror	r24
    1194:	0a 94       	dec	r0
    1196:	e2 f7       	brpl	.-8      	; 0x1190 <LCD_12864_Draw_bitmap+0x156>
    1198:	a8 28       	or	r10, r8
    119a:	aa 29       	or	r26, r10
    119c:	ea 2b       	or	r30, r26
    119e:	6e 2b       	or	r22, r30
    11a0:	46 2b       	or	r20, r22
    11a2:	24 2b       	or	r18, r20
    11a4:	81 70       	andi	r24, 0x01	; 1
    11a6:	82 2b       	or	r24, r18
    11a8:	0e 94 50 07 	call	0xea0	; 0xea0 <LCD_12864_send_data>
    11ac:	88 84       	ldd	r8, Y+8	; 0x08
    11ae:	91 2c       	mov	r9, r1
    11b0:	01 2e       	mov	r0, r17
    11b2:	02 c0       	rjmp	.+4      	; 0x11b8 <LCD_12864_Draw_bitmap+0x17e>
    11b4:	95 94       	asr	r9
    11b6:	87 94       	ror	r8
    11b8:	0a 94       	dec	r0
    11ba:	e2 f7       	brpl	.-8      	; 0x11b4 <LCD_12864_Draw_bitmap+0x17a>
    11bc:	96 94       	lsr	r9
    11be:	98 2c       	mov	r9, r8
    11c0:	88 24       	eor	r8, r8
    11c2:	97 94       	ror	r9
    11c4:	87 94       	ror	r8
    11c6:	a9 84       	ldd	r10, Y+9	; 0x09
    11c8:	b1 2c       	mov	r11, r1
    11ca:	01 2e       	mov	r0, r17
    11cc:	02 c0       	rjmp	.+4      	; 0x11d2 <LCD_12864_Draw_bitmap+0x198>
    11ce:	b5 94       	asr	r11
    11d0:	a7 94       	ror	r10
    11d2:	0a 94       	dec	r0
    11d4:	e2 f7       	brpl	.-8      	; 0x11ce <LCD_12864_Draw_bitmap+0x194>
    11d6:	81 e0       	ldi	r24, 0x01	; 1
    11d8:	a8 22       	and	r10, r24
    11da:	bb 24       	eor	r11, r11
    11dc:	00 24       	eor	r0, r0
    11de:	b6 94       	lsr	r11
    11e0:	a7 94       	ror	r10
    11e2:	07 94       	ror	r0
    11e4:	b6 94       	lsr	r11
    11e6:	a7 94       	ror	r10
    11e8:	07 94       	ror	r0
    11ea:	ba 2c       	mov	r11, r10
    11ec:	a0 2c       	mov	r10, r0
    11ee:	aa 85       	ldd	r26, Y+10	; 0x0a
    11f0:	b0 e0       	ldi	r27, 0x00	; 0
    11f2:	01 2e       	mov	r0, r17
    11f4:	02 c0       	rjmp	.+4      	; 0x11fa <LCD_12864_Draw_bitmap+0x1c0>
    11f6:	b5 95       	asr	r27
    11f8:	a7 95       	ror	r26
    11fa:	0a 94       	dec	r0
    11fc:	e2 f7       	brpl	.-8      	; 0x11f6 <LCD_12864_Draw_bitmap+0x1bc>
    11fe:	a1 70       	andi	r26, 0x01	; 1
    1200:	bb 27       	eor	r27, r27
    1202:	aa 0f       	add	r26, r26
    1204:	bb 1f       	adc	r27, r27
    1206:	a2 95       	swap	r26
    1208:	b2 95       	swap	r27
    120a:	b0 7f       	andi	r27, 0xF0	; 240
    120c:	ba 27       	eor	r27, r26
    120e:	a0 7f       	andi	r26, 0xF0	; 240
    1210:	ba 27       	eor	r27, r26
    1212:	eb 85       	ldd	r30, Y+11	; 0x0b
    1214:	f0 e0       	ldi	r31, 0x00	; 0
    1216:	01 2e       	mov	r0, r17
    1218:	02 c0       	rjmp	.+4      	; 0x121e <LCD_12864_Draw_bitmap+0x1e4>
    121a:	f5 95       	asr	r31
    121c:	e7 95       	ror	r30
    121e:	0a 94       	dec	r0
    1220:	e2 f7       	brpl	.-8      	; 0x121a <LCD_12864_Draw_bitmap+0x1e0>
    1222:	e1 70       	andi	r30, 0x01	; 1
    1224:	ff 27       	eor	r31, r31
    1226:	e2 95       	swap	r30
    1228:	f2 95       	swap	r31
    122a:	f0 7f       	andi	r31, 0xF0	; 240
    122c:	fe 27       	eor	r31, r30
    122e:	e0 7f       	andi	r30, 0xF0	; 240
    1230:	fe 27       	eor	r31, r30
    1232:	6c 85       	ldd	r22, Y+12	; 0x0c
    1234:	70 e0       	ldi	r23, 0x00	; 0
    1236:	01 2e       	mov	r0, r17
    1238:	02 c0       	rjmp	.+4      	; 0x123e <LCD_12864_Draw_bitmap+0x204>
    123a:	75 95       	asr	r23
    123c:	67 95       	ror	r22
    123e:	0a 94       	dec	r0
    1240:	e2 f7       	brpl	.-8      	; 0x123a <LCD_12864_Draw_bitmap+0x200>
    1242:	61 70       	andi	r22, 0x01	; 1
    1244:	77 27       	eor	r23, r23
    1246:	66 0f       	add	r22, r22
    1248:	77 1f       	adc	r23, r23
    124a:	66 0f       	add	r22, r22
    124c:	77 1f       	adc	r23, r23
    124e:	66 0f       	add	r22, r22
    1250:	77 1f       	adc	r23, r23
    1252:	4d 85       	ldd	r20, Y+13	; 0x0d
    1254:	50 e0       	ldi	r21, 0x00	; 0
    1256:	01 2e       	mov	r0, r17
    1258:	02 c0       	rjmp	.+4      	; 0x125e <LCD_12864_Draw_bitmap+0x224>
    125a:	55 95       	asr	r21
    125c:	47 95       	ror	r20
    125e:	0a 94       	dec	r0
    1260:	e2 f7       	brpl	.-8      	; 0x125a <LCD_12864_Draw_bitmap+0x220>
    1262:	41 70       	andi	r20, 0x01	; 1
    1264:	55 27       	eor	r21, r21
    1266:	44 0f       	add	r20, r20
    1268:	55 1f       	adc	r21, r21
    126a:	44 0f       	add	r20, r20
    126c:	55 1f       	adc	r21, r21
    126e:	2e 85       	ldd	r18, Y+14	; 0x0e
    1270:	30 e0       	ldi	r19, 0x00	; 0
    1272:	01 2e       	mov	r0, r17
    1274:	02 c0       	rjmp	.+4      	; 0x127a <LCD_12864_Draw_bitmap+0x240>
    1276:	35 95       	asr	r19
    1278:	27 95       	ror	r18
    127a:	0a 94       	dec	r0
    127c:	e2 f7       	brpl	.-8      	; 0x1276 <LCD_12864_Draw_bitmap+0x23c>
    127e:	21 70       	andi	r18, 0x01	; 1
    1280:	33 27       	eor	r19, r19
    1282:	22 0f       	add	r18, r18
    1284:	33 1f       	adc	r19, r19
    1286:	cf 85       	ldd	r28, Y+15	; 0x0f
    1288:	d0 e0       	ldi	r29, 0x00	; 0
    128a:	02 c0       	rjmp	.+4      	; 0x1290 <LCD_12864_Draw_bitmap+0x256>
    128c:	d5 95       	asr	r29
    128e:	c7 95       	ror	r28
    1290:	1a 95       	dec	r17
    1292:	e2 f7       	brpl	.-8      	; 0x128c <LCD_12864_Draw_bitmap+0x252>
    1294:	88 2d       	mov	r24, r8
    1296:	8a 29       	or	r24, r10
    1298:	8a 2b       	or	r24, r26
    129a:	8e 2b       	or	r24, r30
    129c:	86 2b       	or	r24, r22
    129e:	84 2b       	or	r24, r20
    12a0:	82 2b       	or	r24, r18
    12a2:	c1 70       	andi	r28, 0x01	; 1
    12a4:	8c 2b       	or	r24, r28
    12a6:	0e 94 50 07 	call	0xea0	; 0xea0 <LCD_12864_send_data>
    12aa:	0f 5f       	subi	r16, 0xFF	; 255
    12ac:	01 c0       	rjmp	.+2      	; 0x12b0 <LCD_12864_Draw_bitmap+0x276>
    12ae:	00 e0       	ldi	r16, 0x00	; 0
    12b0:	08 30       	cpi	r16, 0x08	; 8
    12b2:	08 f4       	brcc	.+2      	; 0x12b6 <LCD_12864_Draw_bitmap+0x27c>
    12b4:	d0 ce       	rjmp	.-608    	; 0x1056 <LCD_12864_Draw_bitmap+0x1c>
    12b6:	d3 94       	inc	r13
    12b8:	8f e3       	ldi	r24, 0x3F	; 63
    12ba:	8d 15       	cp	r24, r13
    12bc:	c0 f7       	brcc	.-16     	; 0x12ae <LCD_12864_Draw_bitmap+0x274>
    12be:	df 91       	pop	r29
    12c0:	cf 91       	pop	r28
    12c2:	1f 91       	pop	r17
    12c4:	0f 91       	pop	r16
    12c6:	ff 90       	pop	r15
    12c8:	ef 90       	pop	r14
    12ca:	df 90       	pop	r13
    12cc:	bf 90       	pop	r11
    12ce:	af 90       	pop	r10
    12d0:	9f 90       	pop	r9
    12d2:	8f 90       	pop	r8
    12d4:	08 95       	ret

000012d6 <clear_LCD_12864>:
    12d6:	81 e0       	ldi	r24, 0x01	; 1
    12d8:	0e 94 a7 07 	call	0xf4e	; 0xf4e <LCD_12864_send_command>
    12dc:	8f e1       	ldi	r24, 0x1F	; 31
    12de:	9e e4       	ldi	r25, 0x4E	; 78
    12e0:	01 97       	sbiw	r24, 0x01	; 1
    12e2:	f1 f7       	brne	.-4      	; 0x12e0 <clear_LCD_12864+0xa>
    12e4:	00 c0       	rjmp	.+0      	; 0x12e6 <clear_LCD_12864+0x10>
    12e6:	00 00       	nop
    12e8:	08 95       	ret

000012ea <LCD_12864_ini>:
    12ea:	2f ef       	ldi	r18, 0xFF	; 255
    12ec:	89 ef       	ldi	r24, 0xF9	; 249
    12ee:	90 e0       	ldi	r25, 0x00	; 0
    12f0:	21 50       	subi	r18, 0x01	; 1
    12f2:	80 40       	sbci	r24, 0x00	; 0
    12f4:	90 40       	sbci	r25, 0x00	; 0
    12f6:	e1 f7       	brne	.-8      	; 0x12f0 <LCD_12864_ini+0x6>
    12f8:	00 c0       	rjmp	.+0      	; 0x12fa <LCD_12864_ini+0x10>
    12fa:	00 00       	nop
    12fc:	8c e0       	ldi	r24, 0x0C	; 12
    12fe:	0e 94 a7 07 	call	0xf4e	; 0xf4e <LCD_12864_send_command>
    1302:	87 ec       	ldi	r24, 0xC7	; 199
    1304:	90 e0       	ldi	r25, 0x00	; 0
    1306:	01 97       	sbiw	r24, 0x01	; 1
    1308:	f1 f7       	brne	.-4      	; 0x1306 <LCD_12864_ini+0x1c>
    130a:	00 c0       	rjmp	.+0      	; 0x130c <LCD_12864_ini+0x22>
    130c:	00 00       	nop
    130e:	0e 94 6b 09 	call	0x12d6	; 0x12d6 <clear_LCD_12864>
    1312:	86 e0       	ldi	r24, 0x06	; 6
    1314:	0e 94 a7 07 	call	0xf4e	; 0xf4e <LCD_12864_send_command>
    1318:	8f e1       	ldi	r24, 0x1F	; 31
    131a:	9e e4       	ldi	r25, 0x4E	; 78
    131c:	01 97       	sbiw	r24, 0x01	; 1
    131e:	f1 f7       	brne	.-4      	; 0x131c <LCD_12864_ini+0x32>
    1320:	00 c0       	rjmp	.+0      	; 0x1322 <LCD_12864_ini+0x38>
    1322:	00 00       	nop
    1324:	08 95       	ret

00001326 <LCD_12864_print_symbol>:
    1326:	cf 93       	push	r28
    1328:	df 93       	push	r29
    132a:	a0 e0       	ldi	r26, 0x00	; 0
    132c:	b0 e0       	ldi	r27, 0x00	; 0
    132e:	2b c0       	rjmp	.+86     	; 0x1386 <LCD_12864_print_symbol+0x60>
    1330:	44 23       	and	r20, r20
    1332:	a9 f0       	breq	.+42     	; 0x135e <LCD_12864_print_symbol+0x38>
    1334:	ed 01       	movw	r28, r26
    1336:	c8 0f       	add	r28, r24
    1338:	d9 1f       	adc	r29, r25
    133a:	21 97       	sbiw	r28, 0x01	; 1
    133c:	c2 0f       	add	r28, r18
    133e:	d3 1f       	adc	r29, r19
    1340:	fb 01       	movw	r30, r22
    1342:	ee 0f       	add	r30, r30
    1344:	ff 1f       	adc	r31, r31
    1346:	e6 0f       	add	r30, r22
    1348:	f7 1f       	adc	r31, r23
    134a:	ee 0f       	add	r30, r30
    134c:	ff 1f       	adc	r31, r31
    134e:	ea 0f       	add	r30, r26
    1350:	fb 1f       	adc	r31, r27
    1352:	e0 5f       	subi	r30, 0xF0	; 240
    1354:	fb 4f       	sbci	r31, 0xFB	; 251
    1356:	54 91       	lpm	r21, Z
    1358:	50 95       	com	r21
    135a:	58 83       	st	Y, r21
    135c:	13 c0       	rjmp	.+38     	; 0x1384 <LCD_12864_print_symbol+0x5e>
    135e:	ec 01       	movw	r28, r24
    1360:	ca 0f       	add	r28, r26
    1362:	db 1f       	adc	r29, r27
    1364:	21 97       	sbiw	r28, 0x01	; 1
    1366:	c2 0f       	add	r28, r18
    1368:	d3 1f       	adc	r29, r19
    136a:	fb 01       	movw	r30, r22
    136c:	ee 0f       	add	r30, r30
    136e:	ff 1f       	adc	r31, r31
    1370:	e6 0f       	add	r30, r22
    1372:	f7 1f       	adc	r31, r23
    1374:	ee 0f       	add	r30, r30
    1376:	ff 1f       	adc	r31, r31
    1378:	ea 0f       	add	r30, r26
    137a:	fb 1f       	adc	r31, r27
    137c:	e0 5f       	subi	r30, 0xF0	; 240
    137e:	fb 4f       	sbci	r31, 0xFB	; 251
    1380:	54 91       	lpm	r21, Z
    1382:	58 83       	st	Y, r21
    1384:	11 96       	adiw	r26, 0x01	; 1
    1386:	a7 30       	cpi	r26, 0x07	; 7
    1388:	b1 05       	cpc	r27, r1
    138a:	94 f2       	brlt	.-92     	; 0x1330 <LCD_12864_print_symbol+0xa>
    138c:	df 91       	pop	r29
    138e:	cf 91       	pop	r28
    1390:	08 95       	ret

00001392 <LCD_12864_print_symbol_4_6>:
    1392:	cf 93       	push	r28
    1394:	df 93       	push	r29
    1396:	a0 e0       	ldi	r26, 0x00	; 0
    1398:	b0 e0       	ldi	r27, 0x00	; 0
    139a:	27 c0       	rjmp	.+78     	; 0x13ea <LCD_12864_print_symbol_4_6+0x58>
    139c:	44 23       	and	r20, r20
    139e:	99 f0       	breq	.+38     	; 0x13c6 <LCD_12864_print_symbol_4_6+0x34>
    13a0:	ed 01       	movw	r28, r26
    13a2:	c8 0f       	add	r28, r24
    13a4:	d9 1f       	adc	r29, r25
    13a6:	21 97       	sbiw	r28, 0x01	; 1
    13a8:	c2 0f       	add	r28, r18
    13aa:	d3 1f       	adc	r29, r19
    13ac:	fb 01       	movw	r30, r22
    13ae:	ee 0f       	add	r30, r30
    13b0:	ff 1f       	adc	r31, r31
    13b2:	ee 0f       	add	r30, r30
    13b4:	ff 1f       	adc	r31, r31
    13b6:	ea 0f       	add	r30, r26
    13b8:	fb 1f       	adc	r31, r27
    13ba:	ec 51       	subi	r30, 0x1C	; 28
    13bc:	fc 4f       	sbci	r31, 0xFC	; 252
    13be:	54 91       	lpm	r21, Z
    13c0:	50 95       	com	r21
    13c2:	58 83       	st	Y, r21
    13c4:	11 c0       	rjmp	.+34     	; 0x13e8 <LCD_12864_print_symbol_4_6+0x56>
    13c6:	ec 01       	movw	r28, r24
    13c8:	ca 0f       	add	r28, r26
    13ca:	db 1f       	adc	r29, r27
    13cc:	21 97       	sbiw	r28, 0x01	; 1
    13ce:	c2 0f       	add	r28, r18
    13d0:	d3 1f       	adc	r29, r19
    13d2:	fb 01       	movw	r30, r22
    13d4:	ee 0f       	add	r30, r30
    13d6:	ff 1f       	adc	r31, r31
    13d8:	ee 0f       	add	r30, r30
    13da:	ff 1f       	adc	r31, r31
    13dc:	ea 0f       	add	r30, r26
    13de:	fb 1f       	adc	r31, r27
    13e0:	ec 51       	subi	r30, 0x1C	; 28
    13e2:	fc 4f       	sbci	r31, 0xFC	; 252
    13e4:	54 91       	lpm	r21, Z
    13e6:	58 83       	st	Y, r21
    13e8:	11 96       	adiw	r26, 0x01	; 1
    13ea:	a4 30       	cpi	r26, 0x04	; 4
    13ec:	b1 05       	cpc	r27, r1
    13ee:	b4 f2       	brlt	.-84     	; 0x139c <LCD_12864_print_symbol_4_6+0xa>
    13f0:	df 91       	pop	r29
    13f2:	cf 91       	pop	r28
    13f4:	08 95       	ret

000013f6 <LCD_12864_print_symbol_5_8>:
    13f6:	cf 93       	push	r28
    13f8:	df 93       	push	r29
    13fa:	a0 e0       	ldi	r26, 0x00	; 0
    13fc:	b0 e0       	ldi	r27, 0x00	; 0
    13fe:	2b c0       	rjmp	.+86     	; 0x1456 <LCD_12864_print_symbol_5_8+0x60>
    1400:	44 23       	and	r20, r20
    1402:	a9 f0       	breq	.+42     	; 0x142e <LCD_12864_print_symbol_5_8+0x38>
    1404:	ed 01       	movw	r28, r26
    1406:	c8 0f       	add	r28, r24
    1408:	d9 1f       	adc	r29, r25
    140a:	21 97       	sbiw	r28, 0x01	; 1
    140c:	c2 0f       	add	r28, r18
    140e:	d3 1f       	adc	r29, r19
    1410:	fb 01       	movw	r30, r22
    1412:	ee 0f       	add	r30, r30
    1414:	ff 1f       	adc	r31, r31
    1416:	ee 0f       	add	r30, r30
    1418:	ff 1f       	adc	r31, r31
    141a:	e6 0f       	add	r30, r22
    141c:	f7 1f       	adc	r31, r23
    141e:	ea 0f       	add	r30, r26
    1420:	fb 1f       	adc	r31, r27
    1422:	e8 55       	subi	r30, 0x58	; 88
    1424:	fc 4f       	sbci	r31, 0xFC	; 252
    1426:	54 91       	lpm	r21, Z
    1428:	50 95       	com	r21
    142a:	58 83       	st	Y, r21
    142c:	13 c0       	rjmp	.+38     	; 0x1454 <LCD_12864_print_symbol_5_8+0x5e>
    142e:	ec 01       	movw	r28, r24
    1430:	ca 0f       	add	r28, r26
    1432:	db 1f       	adc	r29, r27
    1434:	21 97       	sbiw	r28, 0x01	; 1
    1436:	c2 0f       	add	r28, r18
    1438:	d3 1f       	adc	r29, r19
    143a:	fb 01       	movw	r30, r22
    143c:	ee 0f       	add	r30, r30
    143e:	ff 1f       	adc	r31, r31
    1440:	ee 0f       	add	r30, r30
    1442:	ff 1f       	adc	r31, r31
    1444:	e6 0f       	add	r30, r22
    1446:	f7 1f       	adc	r31, r23
    1448:	ea 0f       	add	r30, r26
    144a:	fb 1f       	adc	r31, r27
    144c:	e8 55       	subi	r30, 0x58	; 88
    144e:	fc 4f       	sbci	r31, 0xFC	; 252
    1450:	54 91       	lpm	r21, Z
    1452:	58 83       	st	Y, r21
    1454:	11 96       	adiw	r26, 0x01	; 1
    1456:	a5 30       	cpi	r26, 0x05	; 5
    1458:	b1 05       	cpc	r27, r1
    145a:	94 f2       	brlt	.-92     	; 0x1400 <LCD_12864_print_symbol_5_8+0xa>
    145c:	df 91       	pop	r29
    145e:	cf 91       	pop	r28
    1460:	08 95       	ret

00001462 <LCD_12864_print_symbol_11_16>:
    1462:	cf 93       	push	r28
    1464:	df 93       	push	r29
    1466:	a0 e0       	ldi	r26, 0x00	; 0
    1468:	b0 e0       	ldi	r27, 0x00	; 0
    146a:	29 c0       	rjmp	.+82     	; 0x14be <LCD_12864_print_symbol_11_16+0x5c>
    146c:	44 23       	and	r20, r20
    146e:	a1 f0       	breq	.+40     	; 0x1498 <LCD_12864_print_symbol_11_16+0x36>
    1470:	ed 01       	movw	r28, r26
    1472:	c8 0f       	add	r28, r24
    1474:	d9 1f       	adc	r29, r25
    1476:	21 97       	sbiw	r28, 0x01	; 1
    1478:	c2 0f       	add	r28, r18
    147a:	d3 1f       	adc	r29, r19
    147c:	56 e1       	ldi	r21, 0x16	; 22
    147e:	56 9f       	mul	r21, r22
    1480:	f0 01       	movw	r30, r0
    1482:	57 9f       	mul	r21, r23
    1484:	f0 0d       	add	r31, r0
    1486:	11 24       	eor	r1, r1
    1488:	ea 0f       	add	r30, r26
    148a:	fb 1f       	adc	r31, r27
    148c:	ea 54       	subi	r30, 0x4A	; 74
    148e:	fd 4f       	sbci	r31, 0xFD	; 253
    1490:	54 91       	lpm	r21, Z
    1492:	50 95       	com	r21
    1494:	58 83       	st	Y, r21
    1496:	12 c0       	rjmp	.+36     	; 0x14bc <LCD_12864_print_symbol_11_16+0x5a>
    1498:	ec 01       	movw	r28, r24
    149a:	ca 0f       	add	r28, r26
    149c:	db 1f       	adc	r29, r27
    149e:	21 97       	sbiw	r28, 0x01	; 1
    14a0:	c2 0f       	add	r28, r18
    14a2:	d3 1f       	adc	r29, r19
    14a4:	56 e1       	ldi	r21, 0x16	; 22
    14a6:	56 9f       	mul	r21, r22
    14a8:	f0 01       	movw	r30, r0
    14aa:	57 9f       	mul	r21, r23
    14ac:	f0 0d       	add	r31, r0
    14ae:	11 24       	eor	r1, r1
    14b0:	ea 0f       	add	r30, r26
    14b2:	fb 1f       	adc	r31, r27
    14b4:	ea 54       	subi	r30, 0x4A	; 74
    14b6:	fd 4f       	sbci	r31, 0xFD	; 253
    14b8:	54 91       	lpm	r21, Z
    14ba:	58 83       	st	Y, r21
    14bc:	11 96       	adiw	r26, 0x01	; 1
    14be:	ab 30       	cpi	r26, 0x0B	; 11
    14c0:	b1 05       	cpc	r27, r1
    14c2:	a4 f2       	brlt	.-88     	; 0x146c <LCD_12864_print_symbol_11_16+0xa>
    14c4:	8b 58       	subi	r24, 0x8B	; 139
    14c6:	9f 4f       	sbci	r25, 0xFF	; 255
    14c8:	ab e0       	ldi	r26, 0x0B	; 11
    14ca:	b0 e0       	ldi	r27, 0x00	; 0
    14cc:	29 c0       	rjmp	.+82     	; 0x1520 <LCD_12864_print_symbol_11_16+0xbe>
    14ce:	44 23       	and	r20, r20
    14d0:	a1 f0       	breq	.+40     	; 0x14fa <LCD_12864_print_symbol_11_16+0x98>
    14d2:	ec 01       	movw	r28, r24
    14d4:	ca 0f       	add	r28, r26
    14d6:	db 1f       	adc	r29, r27
    14d8:	21 97       	sbiw	r28, 0x01	; 1
    14da:	c2 0f       	add	r28, r18
    14dc:	d3 1f       	adc	r29, r19
    14de:	56 e1       	ldi	r21, 0x16	; 22
    14e0:	56 9f       	mul	r21, r22
    14e2:	f0 01       	movw	r30, r0
    14e4:	57 9f       	mul	r21, r23
    14e6:	f0 0d       	add	r31, r0
    14e8:	11 24       	eor	r1, r1
    14ea:	ea 0f       	add	r30, r26
    14ec:	fb 1f       	adc	r31, r27
    14ee:	ea 54       	subi	r30, 0x4A	; 74
    14f0:	fd 4f       	sbci	r31, 0xFD	; 253
    14f2:	54 91       	lpm	r21, Z
    14f4:	50 95       	com	r21
    14f6:	58 83       	st	Y, r21
    14f8:	12 c0       	rjmp	.+36     	; 0x151e <LCD_12864_print_symbol_11_16+0xbc>
    14fa:	ec 01       	movw	r28, r24
    14fc:	ca 0f       	add	r28, r26
    14fe:	db 1f       	adc	r29, r27
    1500:	21 97       	sbiw	r28, 0x01	; 1
    1502:	c2 0f       	add	r28, r18
    1504:	d3 1f       	adc	r29, r19
    1506:	56 e1       	ldi	r21, 0x16	; 22
    1508:	56 9f       	mul	r21, r22
    150a:	f0 01       	movw	r30, r0
    150c:	57 9f       	mul	r21, r23
    150e:	f0 0d       	add	r31, r0
    1510:	11 24       	eor	r1, r1
    1512:	ea 0f       	add	r30, r26
    1514:	fb 1f       	adc	r31, r27
    1516:	ea 54       	subi	r30, 0x4A	; 74
    1518:	fd 4f       	sbci	r31, 0xFD	; 253
    151a:	54 91       	lpm	r21, Z
    151c:	58 83       	st	Y, r21
    151e:	11 96       	adiw	r26, 0x01	; 1
    1520:	a6 31       	cpi	r26, 0x16	; 22
    1522:	b1 05       	cpc	r27, r1
    1524:	a4 f2       	brlt	.-88     	; 0x14ce <LCD_12864_print_symbol_11_16+0x6c>
    1526:	df 91       	pop	r29
    1528:	cf 91       	pop	r28
    152a:	08 95       	ret

0000152c <LCD_12864_Print_4_6>:
    152c:	bf 92       	push	r11
    152e:	cf 92       	push	r12
    1530:	df 92       	push	r13
    1532:	ef 92       	push	r14
    1534:	ff 92       	push	r15
    1536:	0f 93       	push	r16
    1538:	1f 93       	push	r17
    153a:	cf 93       	push	r28
    153c:	df 93       	push	r29
    153e:	b4 2e       	mov	r11, r20
    1540:	79 01       	movw	r14, r18
    1542:	6c 01       	movw	r12, r24
    1544:	20 e8       	ldi	r18, 0x80	; 128
    1546:	62 9f       	mul	r22, r18
    1548:	c0 0c       	add	r12, r0
    154a:	d1 1c       	adc	r13, r1
    154c:	11 24       	eor	r1, r1
    154e:	c0 e0       	ldi	r28, 0x00	; 0
    1550:	d0 e0       	ldi	r29, 0x00	; 0
    1552:	30 c0       	rjmp	.+96     	; 0x15b4 <LCD_12864_Print_4_6+0x88>
    1554:	f7 01       	movw	r30, r14
    1556:	ec 0f       	add	r30, r28
    1558:	fd 1f       	adc	r31, r29
    155a:	60 81       	ld	r22, Z
    155c:	70 e0       	ldi	r23, 0x00	; 0
    155e:	bb 20       	and	r11, r11
    1560:	99 f0       	breq	.+38     	; 0x1588 <LCD_12864_Print_4_6+0x5c>
    1562:	6e 32       	cpi	r22, 0x2E	; 46
    1564:	71 05       	cpc	r23, r1
    1566:	41 f0       	breq	.+16     	; 0x1578 <LCD_12864_Print_4_6+0x4c>
    1568:	60 53       	subi	r22, 0x30	; 48
    156a:	71 09       	sbc	r23, r1
    156c:	98 01       	movw	r18, r16
    156e:	41 e0       	ldi	r20, 0x01	; 1
    1570:	c6 01       	movw	r24, r12
    1572:	0e 94 c9 09 	call	0x1392	; 0x1392 <LCD_12864_print_symbol_4_6>
    1576:	1a c0       	rjmp	.+52     	; 0x15ac <LCD_12864_Print_4_6+0x80>
    1578:	98 01       	movw	r18, r16
    157a:	41 e0       	ldi	r20, 0x01	; 1
    157c:	6a e0       	ldi	r22, 0x0A	; 10
    157e:	70 e0       	ldi	r23, 0x00	; 0
    1580:	c6 01       	movw	r24, r12
    1582:	0e 94 c9 09 	call	0x1392	; 0x1392 <LCD_12864_print_symbol_4_6>
    1586:	12 c0       	rjmp	.+36     	; 0x15ac <LCD_12864_Print_4_6+0x80>
    1588:	6e 32       	cpi	r22, 0x2E	; 46
    158a:	71 05       	cpc	r23, r1
    158c:	41 f0       	breq	.+16     	; 0x159e <LCD_12864_Print_4_6+0x72>
    158e:	60 53       	subi	r22, 0x30	; 48
    1590:	71 09       	sbc	r23, r1
    1592:	98 01       	movw	r18, r16
    1594:	40 e0       	ldi	r20, 0x00	; 0
    1596:	c6 01       	movw	r24, r12
    1598:	0e 94 c9 09 	call	0x1392	; 0x1392 <LCD_12864_print_symbol_4_6>
    159c:	07 c0       	rjmp	.+14     	; 0x15ac <LCD_12864_Print_4_6+0x80>
    159e:	98 01       	movw	r18, r16
    15a0:	40 e0       	ldi	r20, 0x00	; 0
    15a2:	6a e0       	ldi	r22, 0x0A	; 10
    15a4:	70 e0       	ldi	r23, 0x00	; 0
    15a6:	c6 01       	movw	r24, r12
    15a8:	0e 94 c9 09 	call	0x1392	; 0x1392 <LCD_12864_print_symbol_4_6>
    15ac:	85 e0       	ldi	r24, 0x05	; 5
    15ae:	c8 0e       	add	r12, r24
    15b0:	d1 1c       	adc	r13, r1
    15b2:	21 96       	adiw	r28, 0x01	; 1
    15b4:	f7 01       	movw	r30, r14
    15b6:	01 90       	ld	r0, Z+
    15b8:	00 20       	and	r0, r0
    15ba:	e9 f7       	brne	.-6      	; 0x15b6 <LCD_12864_Print_4_6+0x8a>
    15bc:	31 97       	sbiw	r30, 0x01	; 1
    15be:	ee 19       	sub	r30, r14
    15c0:	ff 09       	sbc	r31, r15
    15c2:	ce 17       	cp	r28, r30
    15c4:	df 07       	cpc	r29, r31
    15c6:	30 f2       	brcs	.-116    	; 0x1554 <LCD_12864_Print_4_6+0x28>
    15c8:	df 91       	pop	r29
    15ca:	cf 91       	pop	r28
    15cc:	1f 91       	pop	r17
    15ce:	0f 91       	pop	r16
    15d0:	ff 90       	pop	r15
    15d2:	ef 90       	pop	r14
    15d4:	df 90       	pop	r13
    15d6:	cf 90       	pop	r12
    15d8:	bf 90       	pop	r11
    15da:	08 95       	ret

000015dc <LCD_12864_Print_5_8>:
    15dc:	bf 92       	push	r11
    15de:	cf 92       	push	r12
    15e0:	df 92       	push	r13
    15e2:	ef 92       	push	r14
    15e4:	ff 92       	push	r15
    15e6:	0f 93       	push	r16
    15e8:	1f 93       	push	r17
    15ea:	cf 93       	push	r28
    15ec:	df 93       	push	r29
    15ee:	b4 2e       	mov	r11, r20
    15f0:	79 01       	movw	r14, r18
    15f2:	6c 01       	movw	r12, r24
    15f4:	20 e8       	ldi	r18, 0x80	; 128
    15f6:	62 9f       	mul	r22, r18
    15f8:	c0 0c       	add	r12, r0
    15fa:	d1 1c       	adc	r13, r1
    15fc:	11 24       	eor	r1, r1
    15fe:	c0 e0       	ldi	r28, 0x00	; 0
    1600:	d0 e0       	ldi	r29, 0x00	; 0
    1602:	46 c0       	rjmp	.+140    	; 0x1690 <LCD_12864_Print_5_8+0xb4>
    1604:	f7 01       	movw	r30, r14
    1606:	ec 0f       	add	r30, r28
    1608:	fd 1f       	adc	r31, r29
    160a:	60 81       	ld	r22, Z
    160c:	70 e0       	ldi	r23, 0x00	; 0
    160e:	bb 20       	and	r11, r11
    1610:	f1 f0       	breq	.+60     	; 0x164e <LCD_12864_Print_5_8+0x72>
    1612:	6e 32       	cpi	r22, 0x2E	; 46
    1614:	71 05       	cpc	r23, r1
    1616:	41 f4       	brne	.+16     	; 0x1628 <LCD_12864_Print_5_8+0x4c>
    1618:	98 01       	movw	r18, r16
    161a:	41 e0       	ldi	r20, 0x01	; 1
    161c:	6a e0       	ldi	r22, 0x0A	; 10
    161e:	70 e0       	ldi	r23, 0x00	; 0
    1620:	c6 01       	movw	r24, r12
    1622:	0e 94 fb 09 	call	0x13f6	; 0x13f6 <LCD_12864_print_symbol_5_8>
    1626:	30 c0       	rjmp	.+96     	; 0x1688 <LCD_12864_Print_5_8+0xac>
    1628:	6d 32       	cpi	r22, 0x2D	; 45
    162a:	71 05       	cpc	r23, r1
    162c:	41 f4       	brne	.+16     	; 0x163e <LCD_12864_Print_5_8+0x62>
    162e:	98 01       	movw	r18, r16
    1630:	41 e0       	ldi	r20, 0x01	; 1
    1632:	6b e0       	ldi	r22, 0x0B	; 11
    1634:	70 e0       	ldi	r23, 0x00	; 0
    1636:	c6 01       	movw	r24, r12
    1638:	0e 94 fb 09 	call	0x13f6	; 0x13f6 <LCD_12864_print_symbol_5_8>
    163c:	25 c0       	rjmp	.+74     	; 0x1688 <LCD_12864_Print_5_8+0xac>
    163e:	60 53       	subi	r22, 0x30	; 48
    1640:	71 09       	sbc	r23, r1
    1642:	98 01       	movw	r18, r16
    1644:	41 e0       	ldi	r20, 0x01	; 1
    1646:	c6 01       	movw	r24, r12
    1648:	0e 94 fb 09 	call	0x13f6	; 0x13f6 <LCD_12864_print_symbol_5_8>
    164c:	1d c0       	rjmp	.+58     	; 0x1688 <LCD_12864_Print_5_8+0xac>
    164e:	6e 32       	cpi	r22, 0x2E	; 46
    1650:	71 05       	cpc	r23, r1
    1652:	41 f4       	brne	.+16     	; 0x1664 <LCD_12864_Print_5_8+0x88>
    1654:	98 01       	movw	r18, r16
    1656:	40 e0       	ldi	r20, 0x00	; 0
    1658:	6a e0       	ldi	r22, 0x0A	; 10
    165a:	70 e0       	ldi	r23, 0x00	; 0
    165c:	c6 01       	movw	r24, r12
    165e:	0e 94 fb 09 	call	0x13f6	; 0x13f6 <LCD_12864_print_symbol_5_8>
    1662:	12 c0       	rjmp	.+36     	; 0x1688 <LCD_12864_Print_5_8+0xac>
    1664:	6d 32       	cpi	r22, 0x2D	; 45
    1666:	71 05       	cpc	r23, r1
    1668:	41 f4       	brne	.+16     	; 0x167a <LCD_12864_Print_5_8+0x9e>
    166a:	98 01       	movw	r18, r16
    166c:	40 e0       	ldi	r20, 0x00	; 0
    166e:	6b e0       	ldi	r22, 0x0B	; 11
    1670:	70 e0       	ldi	r23, 0x00	; 0
    1672:	c6 01       	movw	r24, r12
    1674:	0e 94 fb 09 	call	0x13f6	; 0x13f6 <LCD_12864_print_symbol_5_8>
    1678:	07 c0       	rjmp	.+14     	; 0x1688 <LCD_12864_Print_5_8+0xac>
    167a:	60 53       	subi	r22, 0x30	; 48
    167c:	71 09       	sbc	r23, r1
    167e:	98 01       	movw	r18, r16
    1680:	40 e0       	ldi	r20, 0x00	; 0
    1682:	c6 01       	movw	r24, r12
    1684:	0e 94 fb 09 	call	0x13f6	; 0x13f6 <LCD_12864_print_symbol_5_8>
    1688:	86 e0       	ldi	r24, 0x06	; 6
    168a:	c8 0e       	add	r12, r24
    168c:	d1 1c       	adc	r13, r1
    168e:	21 96       	adiw	r28, 0x01	; 1
    1690:	f7 01       	movw	r30, r14
    1692:	01 90       	ld	r0, Z+
    1694:	00 20       	and	r0, r0
    1696:	e9 f7       	brne	.-6      	; 0x1692 <LCD_12864_Print_5_8+0xb6>
    1698:	31 97       	sbiw	r30, 0x01	; 1
    169a:	ee 19       	sub	r30, r14
    169c:	ff 09       	sbc	r31, r15
    169e:	ce 17       	cp	r28, r30
    16a0:	df 07       	cpc	r29, r31
    16a2:	08 f4       	brcc	.+2      	; 0x16a6 <LCD_12864_Print_5_8+0xca>
    16a4:	af cf       	rjmp	.-162    	; 0x1604 <LCD_12864_Print_5_8+0x28>
    16a6:	df 91       	pop	r29
    16a8:	cf 91       	pop	r28
    16aa:	1f 91       	pop	r17
    16ac:	0f 91       	pop	r16
    16ae:	ff 90       	pop	r15
    16b0:	ef 90       	pop	r14
    16b2:	df 90       	pop	r13
    16b4:	cf 90       	pop	r12
    16b6:	bf 90       	pop	r11
    16b8:	08 95       	ret

000016ba <LCD_12864_Print_11_16>:
    16ba:	bf 92       	push	r11
    16bc:	cf 92       	push	r12
    16be:	df 92       	push	r13
    16c0:	ef 92       	push	r14
    16c2:	ff 92       	push	r15
    16c4:	0f 93       	push	r16
    16c6:	1f 93       	push	r17
    16c8:	cf 93       	push	r28
    16ca:	df 93       	push	r29
    16cc:	b4 2e       	mov	r11, r20
    16ce:	79 01       	movw	r14, r18
    16d0:	6c 01       	movw	r12, r24
    16d2:	20 e8       	ldi	r18, 0x80	; 128
    16d4:	62 9f       	mul	r22, r18
    16d6:	c0 0c       	add	r12, r0
    16d8:	d1 1c       	adc	r13, r1
    16da:	11 24       	eor	r1, r1
    16dc:	c0 e0       	ldi	r28, 0x00	; 0
    16de:	d0 e0       	ldi	r29, 0x00	; 0
    16e0:	1a c0       	rjmp	.+52     	; 0x1716 <LCD_12864_Print_11_16+0x5c>
    16e2:	f7 01       	movw	r30, r14
    16e4:	ec 0f       	add	r30, r28
    16e6:	fd 1f       	adc	r31, r29
    16e8:	60 81       	ld	r22, Z
    16ea:	70 e0       	ldi	r23, 0x00	; 0
    16ec:	bb 20       	and	r11, r11
    16ee:	41 f0       	breq	.+16     	; 0x1700 <LCD_12864_Print_11_16+0x46>
    16f0:	60 53       	subi	r22, 0x30	; 48
    16f2:	71 09       	sbc	r23, r1
    16f4:	98 01       	movw	r18, r16
    16f6:	41 e0       	ldi	r20, 0x01	; 1
    16f8:	c6 01       	movw	r24, r12
    16fa:	0e 94 31 0a 	call	0x1462	; 0x1462 <LCD_12864_print_symbol_11_16>
    16fe:	07 c0       	rjmp	.+14     	; 0x170e <LCD_12864_Print_11_16+0x54>
    1700:	60 53       	subi	r22, 0x30	; 48
    1702:	71 09       	sbc	r23, r1
    1704:	98 01       	movw	r18, r16
    1706:	40 e0       	ldi	r20, 0x00	; 0
    1708:	c6 01       	movw	r24, r12
    170a:	0e 94 31 0a 	call	0x1462	; 0x1462 <LCD_12864_print_symbol_11_16>
    170e:	8c e0       	ldi	r24, 0x0C	; 12
    1710:	c8 0e       	add	r12, r24
    1712:	d1 1c       	adc	r13, r1
    1714:	21 96       	adiw	r28, 0x01	; 1
    1716:	f7 01       	movw	r30, r14
    1718:	01 90       	ld	r0, Z+
    171a:	00 20       	and	r0, r0
    171c:	e9 f7       	brne	.-6      	; 0x1718 <LCD_12864_Print_11_16+0x5e>
    171e:	31 97       	sbiw	r30, 0x01	; 1
    1720:	ee 19       	sub	r30, r14
    1722:	ff 09       	sbc	r31, r15
    1724:	ce 17       	cp	r28, r30
    1726:	df 07       	cpc	r29, r31
    1728:	e0 f2       	brcs	.-72     	; 0x16e2 <LCD_12864_Print_11_16+0x28>
    172a:	df 91       	pop	r29
    172c:	cf 91       	pop	r28
    172e:	1f 91       	pop	r17
    1730:	0f 91       	pop	r16
    1732:	ff 90       	pop	r15
    1734:	ef 90       	pop	r14
    1736:	df 90       	pop	r13
    1738:	cf 90       	pop	r12
    173a:	bf 90       	pop	r11
    173c:	08 95       	ret

0000173e <LCD_12864_Decode_UTF8>:
    173e:	9f 92       	push	r9
    1740:	af 92       	push	r10
    1742:	bf 92       	push	r11
    1744:	cf 92       	push	r12
    1746:	df 92       	push	r13
    1748:	ef 92       	push	r14
    174a:	ff 92       	push	r15
    174c:	0f 93       	push	r16
    174e:	1f 93       	push	r17
    1750:	cf 93       	push	r28
    1752:	df 93       	push	r29
    1754:	94 2e       	mov	r9, r20
    1756:	59 01       	movw	r10, r18
    1758:	6c 01       	movw	r12, r24
    175a:	20 e8       	ldi	r18, 0x80	; 128
    175c:	62 9f       	mul	r22, r18
    175e:	c0 0c       	add	r12, r0
    1760:	d1 1c       	adc	r13, r1
    1762:	11 24       	eor	r1, r1
    1764:	e1 2c       	mov	r14, r1
    1766:	f1 2c       	mov	r15, r1
    1768:	88 c0       	rjmp	.+272    	; 0x187a <LCD_12864_Decode_UTF8+0x13c>
    176a:	f5 01       	movw	r30, r10
    176c:	ee 0d       	add	r30, r14
    176e:	ff 1d       	adc	r31, r15
    1770:	c0 81       	ld	r28, Z
    1772:	c0 3c       	cpi	r28, 0xC0	; 192
    1774:	e8 f4       	brcc	.+58     	; 0x17b0 <LCD_12864_Decode_UTF8+0x72>
    1776:	c8 3a       	cpi	r28, 0xA8	; 168
    1778:	d9 f0       	breq	.+54     	; 0x17b0 <LCD_12864_Decode_UTF8+0x72>
    177a:	c8 3b       	cpi	r28, 0xB8	; 184
    177c:	c9 f0       	breq	.+50     	; 0x17b0 <LCD_12864_Decode_UTF8+0x72>
    177e:	c0 3b       	cpi	r28, 0xB0	; 176
    1780:	b9 f0       	breq	.+46     	; 0x17b0 <LCD_12864_Decode_UTF8+0x72>
    1782:	6c 2f       	mov	r22, r28
    1784:	70 e0       	ldi	r23, 0x00	; 0
    1786:	99 20       	and	r9, r9
    1788:	41 f0       	breq	.+16     	; 0x179a <LCD_12864_Decode_UTF8+0x5c>
    178a:	60 52       	subi	r22, 0x20	; 32
    178c:	71 09       	sbc	r23, r1
    178e:	98 01       	movw	r18, r16
    1790:	41 e0       	ldi	r20, 0x01	; 1
    1792:	c6 01       	movw	r24, r12
    1794:	0e 94 93 09 	call	0x1326	; 0x1326 <LCD_12864_print_symbol>
    1798:	07 c0       	rjmp	.+14     	; 0x17a8 <LCD_12864_Decode_UTF8+0x6a>
    179a:	60 52       	subi	r22, 0x20	; 32
    179c:	71 09       	sbc	r23, r1
    179e:	98 01       	movw	r18, r16
    17a0:	40 e0       	ldi	r20, 0x00	; 0
    17a2:	c6 01       	movw	r24, r12
    17a4:	0e 94 93 09 	call	0x1326	; 0x1326 <LCD_12864_print_symbol>
    17a8:	86 e0       	ldi	r24, 0x06	; 6
    17aa:	c8 0e       	add	r12, r24
    17ac:	d1 1c       	adc	r13, r1
    17ae:	62 c0       	rjmp	.+196    	; 0x1874 <LCD_12864_Decode_UTF8+0x136>
    17b0:	d0 e0       	ldi	r29, 0x00	; 0
    17b2:	ce 01       	movw	r24, r28
    17b4:	80 5c       	subi	r24, 0xC0	; 192
    17b6:	91 09       	sbc	r25, r1
    17b8:	80 34       	cpi	r24, 0x40	; 64
    17ba:	91 05       	cpc	r25, r1
    17bc:	b0 f4       	brcc	.+44     	; 0x17ea <LCD_12864_Decode_UTF8+0xac>
    17be:	99 20       	and	r9, r9
    17c0:	49 f0       	breq	.+18     	; 0x17d4 <LCD_12864_Decode_UTF8+0x96>
    17c2:	98 01       	movw	r18, r16
    17c4:	41 e0       	ldi	r20, 0x01	; 1
    17c6:	be 01       	movw	r22, r28
    17c8:	61 56       	subi	r22, 0x61	; 97
    17ca:	71 09       	sbc	r23, r1
    17cc:	c6 01       	movw	r24, r12
    17ce:	0e 94 93 09 	call	0x1326	; 0x1326 <LCD_12864_print_symbol>
    17d2:	08 c0       	rjmp	.+16     	; 0x17e4 <LCD_12864_Decode_UTF8+0xa6>
    17d4:	98 01       	movw	r18, r16
    17d6:	40 e0       	ldi	r20, 0x00	; 0
    17d8:	be 01       	movw	r22, r28
    17da:	61 56       	subi	r22, 0x61	; 97
    17dc:	71 09       	sbc	r23, r1
    17de:	c6 01       	movw	r24, r12
    17e0:	0e 94 93 09 	call	0x1326	; 0x1326 <LCD_12864_print_symbol>
    17e4:	26 e0       	ldi	r18, 0x06	; 6
    17e6:	c2 0e       	add	r12, r18
    17e8:	d1 1c       	adc	r13, r1
    17ea:	c8 3a       	cpi	r28, 0xA8	; 168
    17ec:	d1 05       	cpc	r29, r1
    17ee:	a1 f4       	brne	.+40     	; 0x1818 <LCD_12864_Decode_UTF8+0xda>
    17f0:	99 20       	and	r9, r9
    17f2:	41 f0       	breq	.+16     	; 0x1804 <LCD_12864_Decode_UTF8+0xc6>
    17f4:	98 01       	movw	r18, r16
    17f6:	41 e0       	ldi	r20, 0x01	; 1
    17f8:	6f e9       	ldi	r22, 0x9F	; 159
    17fa:	70 e0       	ldi	r23, 0x00	; 0
    17fc:	c6 01       	movw	r24, r12
    17fe:	0e 94 93 09 	call	0x1326	; 0x1326 <LCD_12864_print_symbol>
    1802:	07 c0       	rjmp	.+14     	; 0x1812 <LCD_12864_Decode_UTF8+0xd4>
    1804:	98 01       	movw	r18, r16
    1806:	40 e0       	ldi	r20, 0x00	; 0
    1808:	6f e9       	ldi	r22, 0x9F	; 159
    180a:	70 e0       	ldi	r23, 0x00	; 0
    180c:	c6 01       	movw	r24, r12
    180e:	0e 94 93 09 	call	0x1326	; 0x1326 <LCD_12864_print_symbol>
    1812:	86 e0       	ldi	r24, 0x06	; 6
    1814:	c8 0e       	add	r12, r24
    1816:	d1 1c       	adc	r13, r1
    1818:	c8 3b       	cpi	r28, 0xB8	; 184
    181a:	d1 05       	cpc	r29, r1
    181c:	a1 f4       	brne	.+40     	; 0x1846 <LCD_12864_Decode_UTF8+0x108>
    181e:	99 20       	and	r9, r9
    1820:	41 f0       	breq	.+16     	; 0x1832 <LCD_12864_Decode_UTF8+0xf4>
    1822:	98 01       	movw	r18, r16
    1824:	41 e0       	ldi	r20, 0x01	; 1
    1826:	60 ea       	ldi	r22, 0xA0	; 160
    1828:	70 e0       	ldi	r23, 0x00	; 0
    182a:	c6 01       	movw	r24, r12
    182c:	0e 94 93 09 	call	0x1326	; 0x1326 <LCD_12864_print_symbol>
    1830:	07 c0       	rjmp	.+14     	; 0x1840 <LCD_12864_Decode_UTF8+0x102>
    1832:	98 01       	movw	r18, r16
    1834:	40 e0       	ldi	r20, 0x00	; 0
    1836:	60 ea       	ldi	r22, 0xA0	; 160
    1838:	70 e0       	ldi	r23, 0x00	; 0
    183a:	c6 01       	movw	r24, r12
    183c:	0e 94 93 09 	call	0x1326	; 0x1326 <LCD_12864_print_symbol>
    1840:	26 e0       	ldi	r18, 0x06	; 6
    1842:	c2 0e       	add	r12, r18
    1844:	d1 1c       	adc	r13, r1
    1846:	c0 3b       	cpi	r28, 0xB0	; 176
    1848:	d1 05       	cpc	r29, r1
    184a:	a1 f4       	brne	.+40     	; 0x1874 <LCD_12864_Decode_UTF8+0x136>
    184c:	99 20       	and	r9, r9
    184e:	41 f0       	breq	.+16     	; 0x1860 <LCD_12864_Decode_UTF8+0x122>
    1850:	98 01       	movw	r18, r16
    1852:	41 e0       	ldi	r20, 0x01	; 1
    1854:	61 ea       	ldi	r22, 0xA1	; 161
    1856:	70 e0       	ldi	r23, 0x00	; 0
    1858:	c6 01       	movw	r24, r12
    185a:	0e 94 93 09 	call	0x1326	; 0x1326 <LCD_12864_print_symbol>
    185e:	07 c0       	rjmp	.+14     	; 0x186e <LCD_12864_Decode_UTF8+0x130>
    1860:	98 01       	movw	r18, r16
    1862:	40 e0       	ldi	r20, 0x00	; 0
    1864:	61 ea       	ldi	r22, 0xA1	; 161
    1866:	70 e0       	ldi	r23, 0x00	; 0
    1868:	c6 01       	movw	r24, r12
    186a:	0e 94 93 09 	call	0x1326	; 0x1326 <LCD_12864_print_symbol>
    186e:	86 e0       	ldi	r24, 0x06	; 6
    1870:	c8 0e       	add	r12, r24
    1872:	d1 1c       	adc	r13, r1
    1874:	2f ef       	ldi	r18, 0xFF	; 255
    1876:	e2 1a       	sub	r14, r18
    1878:	f2 0a       	sbc	r15, r18
    187a:	f5 01       	movw	r30, r10
    187c:	01 90       	ld	r0, Z+
    187e:	00 20       	and	r0, r0
    1880:	e9 f7       	brne	.-6      	; 0x187c <LCD_12864_Decode_UTF8+0x13e>
    1882:	31 97       	sbiw	r30, 0x01	; 1
    1884:	ea 19       	sub	r30, r10
    1886:	fb 09       	sbc	r31, r11
    1888:	ee 16       	cp	r14, r30
    188a:	ff 06       	cpc	r15, r31
    188c:	08 f4       	brcc	.+2      	; 0x1890 <LCD_12864_Decode_UTF8+0x152>
    188e:	6d cf       	rjmp	.-294    	; 0x176a <LCD_12864_Decode_UTF8+0x2c>
    1890:	df 91       	pop	r29
    1892:	cf 91       	pop	r28
    1894:	1f 91       	pop	r17
    1896:	0f 91       	pop	r16
    1898:	ff 90       	pop	r15
    189a:	ef 90       	pop	r14
    189c:	df 90       	pop	r13
    189e:	cf 90       	pop	r12
    18a0:	bf 90       	pop	r11
    18a2:	af 90       	pop	r10
    18a4:	9f 90       	pop	r9
    18a6:	08 95       	ret

000018a8 <LCD_12864_Print_jpeg>:
    18a8:	ef 92       	push	r14
    18aa:	ff 92       	push	r15
    18ac:	0f 93       	push	r16
    18ae:	1f 93       	push	r17
    18b0:	cf 93       	push	r28
    18b2:	df 93       	push	r29
    18b4:	ec 01       	movw	r28, r24
    18b6:	00 e0       	ldi	r16, 0x00	; 0
    18b8:	10 e0       	ldi	r17, 0x00	; 0
    18ba:	40 e0       	ldi	r20, 0x00	; 0
    18bc:	50 e0       	ldi	r21, 0x00	; 0
    18be:	20 c0       	rjmp	.+64     	; 0x1900 <LCD_12864_Print_jpeg+0x58>
    18c0:	d8 01       	movw	r26, r16
    18c2:	b6 95       	lsr	r27
    18c4:	ba 2f       	mov	r27, r26
    18c6:	aa 27       	eor	r26, r26
    18c8:	b7 95       	ror	r27
    18ca:	a7 95       	ror	r26
    18cc:	9d 01       	movw	r18, r26
    18ce:	21 5e       	subi	r18, 0xE1	; 225
    18d0:	3f 4f       	sbci	r19, 0xFF	; 255
    18d2:	0e c0       	rjmp	.+28     	; 0x18f0 <LCD_12864_Print_jpeg+0x48>
    18d4:	7e 01       	movw	r14, r28
    18d6:	e2 0e       	add	r14, r18
    18d8:	f3 1e       	adc	r15, r19
    18da:	ba 01       	movw	r22, r20
    18dc:	6a 54       	subi	r22, 0x4A	; 74
    18de:	7f 4f       	sbci	r23, 0xFF	; 255
    18e0:	fb 01       	movw	r30, r22
    18e2:	94 91       	lpm	r25, Z
    18e4:	f7 01       	movw	r30, r14
    18e6:	90 83       	st	Z, r25
    18e8:	4f 5f       	subi	r20, 0xFF	; 255
    18ea:	5f 4f       	sbci	r21, 0xFF	; 255
    18ec:	2f 5f       	subi	r18, 0xFF	; 255
    18ee:	3f 4f       	sbci	r19, 0xFF	; 255
    18f0:	bd 01       	movw	r22, r26
    18f2:	61 5a       	subi	r22, 0xA1	; 161
    18f4:	7f 4f       	sbci	r23, 0xFF	; 255
    18f6:	26 17       	cp	r18, r22
    18f8:	37 07       	cpc	r19, r23
    18fa:	64 f3       	brlt	.-40     	; 0x18d4 <LCD_12864_Print_jpeg+0x2c>
    18fc:	0f 5f       	subi	r16, 0xFF	; 255
    18fe:	1f 4f       	sbci	r17, 0xFF	; 255
    1900:	08 30       	cpi	r16, 0x08	; 8
    1902:	11 05       	cpc	r17, r1
    1904:	ec f2       	brlt	.-70     	; 0x18c0 <LCD_12864_Print_jpeg+0x18>
    1906:	df 91       	pop	r29
    1908:	cf 91       	pop	r28
    190a:	1f 91       	pop	r17
    190c:	0f 91       	pop	r16
    190e:	ff 90       	pop	r15
    1910:	ef 90       	pop	r14
    1912:	08 95       	ret

00001914 <LCD_12864_Clean_Frame_buffer>:
    1914:	fc 01       	movw	r30, r24
    1916:	11 82       	std	Z+1, r1	; 0x01
    1918:	10 82       	st	Z, r1
    191a:	08 95       	ret

0000191c <LCD_12864_Draw_line>:
	memset(Frame_buffer, 0x00, sizeof(Frame_buffer));
}
/*----------Различная графика--------------------*/
/*-----------------------------------------------*/
/*----------Линия--------------------*/
void LCD_12864_Draw_line(uint8_t x_start, uint8_t y_start, uint8_t x_end, uint8_t y_end, uint8_t *Frame_buffer) {
    191c:	6f 92       	push	r6
    191e:	7f 92       	push	r7
    1920:	8f 92       	push	r8
    1922:	9f 92       	push	r9
    1924:	af 92       	push	r10
    1926:	bf 92       	push	r11
    1928:	cf 92       	push	r12
    192a:	df 92       	push	r13
    192c:	ef 92       	push	r14
    192e:	ff 92       	push	r15
    1930:	0f 93       	push	r16
    1932:	1f 93       	push	r17
    1934:	cf 93       	push	r28
    1936:	df 93       	push	r29
    1938:	c8 2f       	mov	r28, r24
    193a:	d6 2f       	mov	r29, r22
    193c:	94 2e       	mov	r9, r20
    193e:	82 2e       	mov	r8, r18
	int dx = (x_end >= x_start) ? x_end - x_start : x_start - x_end;
    1940:	48 17       	cp	r20, r24
    1942:	28 f0       	brcs	.+10     	; 0x194e <LCD_12864_Draw_line+0x32>
    1944:	a4 2e       	mov	r10, r20
    1946:	b1 2c       	mov	r11, r1
    1948:	a8 1a       	sub	r10, r24
    194a:	b1 08       	sbc	r11, r1
    194c:	04 c0       	rjmp	.+8      	; 0x1956 <LCD_12864_Draw_line+0x3a>
    194e:	a8 2e       	mov	r10, r24
    1950:	b1 2c       	mov	r11, r1
    1952:	a4 1a       	sub	r10, r20
    1954:	b1 08       	sbc	r11, r1
	int dy = (y_end >= y_start) ? y_end - y_start : y_start - y_end;
    1956:	8d 16       	cp	r8, r29
    1958:	28 f0       	brcs	.+10     	; 0x1964 <LCD_12864_Draw_line+0x48>
    195a:	c8 2c       	mov	r12, r8
    195c:	d1 2c       	mov	r13, r1
    195e:	cd 1a       	sub	r12, r29
    1960:	d1 08       	sbc	r13, r1
    1962:	04 c0       	rjmp	.+8      	; 0x196c <LCD_12864_Draw_line+0x50>
    1964:	cd 2e       	mov	r12, r29
    1966:	d1 2c       	mov	r13, r1
    1968:	c8 18       	sub	r12, r8
    196a:	d1 08       	sbc	r13, r1
	int sx = (x_start < x_end) ? 1 : -1;
    196c:	c9 15       	cp	r28, r9
    196e:	18 f4       	brcc	.+6      	; 0x1976 <LCD_12864_Draw_line+0x5a>
    1970:	77 24       	eor	r7, r7
    1972:	73 94       	inc	r7
    1974:	02 c0       	rjmp	.+4      	; 0x197a <LCD_12864_Draw_line+0x5e>
    1976:	77 24       	eor	r7, r7
    1978:	7a 94       	dec	r7
	int sy = (y_start < y_end) ? 1 : -1;
    197a:	d8 15       	cp	r29, r8
    197c:	18 f4       	brcc	.+6      	; 0x1984 <LCD_12864_Draw_line+0x68>
    197e:	66 24       	eor	r6, r6
    1980:	63 94       	inc	r6
    1982:	02 c0       	rjmp	.+4      	; 0x1988 <LCD_12864_Draw_line+0x6c>
    1984:	66 24       	eor	r6, r6
    1986:	6a 94       	dec	r6
	int err = dx - dy;
    1988:	75 01       	movw	r14, r10
    198a:	ec 18       	sub	r14, r12
    198c:	fd 08       	sbc	r15, r13

	for (;;) {
		LCD_12864_Draw_pixel(x_start, y_start, Frame_buffer);
    198e:	a8 01       	movw	r20, r16
    1990:	6d 2f       	mov	r22, r29
    1992:	8c 2f       	mov	r24, r28
    1994:	0e 94 fb 06 	call	0xdf6	; 0xdf6 <LCD_12864_Draw_pixel>
		if (x_start == x_end && y_start == y_end)
    1998:	c9 11       	cpse	r28, r9
    199a:	02 c0       	rjmp	.+4      	; 0x19a0 <LCD_12864_Draw_line+0x84>
    199c:	d8 15       	cp	r29, r8
    199e:	a1 f0       	breq	.+40     	; 0x19c8 <LCD_12864_Draw_line+0xac>
		break;
		int e2 = err + err;
    19a0:	c7 01       	movw	r24, r14
    19a2:	88 0f       	add	r24, r24
    19a4:	99 1f       	adc	r25, r25
		if (e2 > -dy) {
    19a6:	22 27       	eor	r18, r18
    19a8:	33 27       	eor	r19, r19
    19aa:	2c 19       	sub	r18, r12
    19ac:	3d 09       	sbc	r19, r13
    19ae:	28 17       	cp	r18, r24
    19b0:	39 07       	cpc	r19, r25
    19b2:	1c f4       	brge	.+6      	; 0x19ba <LCD_12864_Draw_line+0x9e>
			err -= dy;
    19b4:	ec 18       	sub	r14, r12
    19b6:	fd 08       	sbc	r15, r13
			x_start += sx;
    19b8:	c7 0d       	add	r28, r7
		}
		if (e2 < dx) {
    19ba:	8a 15       	cp	r24, r10
    19bc:	9b 05       	cpc	r25, r11
    19be:	3c f7       	brge	.-50     	; 0x198e <LCD_12864_Draw_line+0x72>
			err += dx;
    19c0:	ea 0c       	add	r14, r10
    19c2:	fb 1c       	adc	r15, r11
			y_start += sy;
    19c4:	d6 0d       	add	r29, r6
    19c6:	e3 cf       	rjmp	.-58     	; 0x198e <LCD_12864_Draw_line+0x72>
		}
	}
}
    19c8:	df 91       	pop	r29
    19ca:	cf 91       	pop	r28
    19cc:	1f 91       	pop	r17
    19ce:	0f 91       	pop	r16
    19d0:	ff 90       	pop	r15
    19d2:	ef 90       	pop	r14
    19d4:	df 90       	pop	r13
    19d6:	cf 90       	pop	r12
    19d8:	bf 90       	pop	r11
    19da:	af 90       	pop	r10
    19dc:	9f 90       	pop	r9
    19de:	8f 90       	pop	r8
    19e0:	7f 90       	pop	r7
    19e2:	6f 90       	pop	r6
    19e4:	08 95       	ret

000019e6 <LCD_12864_Draw_rectangle>:
/*----------Пустотелый прямоугольник--------------------*/
void LCD_12864_Draw_rectangle(uint16_t x, uint16_t y, uint16_t width, uint16_t height, uint8_t *Frame_buffer) {
    19e6:	af 92       	push	r10
    19e8:	bf 92       	push	r11
    19ea:	cf 92       	push	r12
    19ec:	df 92       	push	r13
    19ee:	ef 92       	push	r14
    19f0:	ff 92       	push	r15
    19f2:	0f 93       	push	r16
    19f4:	1f 93       	push	r17
    19f6:	cf 93       	push	r28
    19f8:	df 93       	push	r29
    19fa:	5c 01       	movw	r10, r24
    19fc:	7b 01       	movw	r14, r22
    19fe:	e9 01       	movw	r28, r18
    1a00:	68 01       	movw	r12, r16
	/// \param y - начальная точка по оси "y"
	/// \param width - ширина прямоугольника
	/// \param height - высота прямоугольника

	/*Проверка ширины и высоты*/
	if ((x + width) >= ST7920_width) {
    1a02:	9c 01       	movw	r18, r24
    1a04:	24 0f       	add	r18, r20
    1a06:	35 1f       	adc	r19, r21
    1a08:	80 91 02 01 	lds	r24, 0x0102	; 0x800102 <ST7920_width>
    1a0c:	90 e0       	ldi	r25, 0x00	; 0
    1a0e:	28 17       	cp	r18, r24
    1a10:	39 07       	cpc	r19, r25
    1a12:	18 f0       	brcs	.+6      	; 0x1a1a <LCD_12864_Draw_rectangle+0x34>
		width = ST7920_width - x;
    1a14:	ac 01       	movw	r20, r24
    1a16:	4a 19       	sub	r20, r10
    1a18:	5b 09       	sbc	r21, r11
	}
	if ((y + height) >= ST7920_height) {
    1a1a:	80 91 01 01 	lds	r24, 0x0101	; 0x800101 <ST7920_height>
    1a1e:	90 e0       	ldi	r25, 0x00	; 0
    1a20:	97 01       	movw	r18, r14
    1a22:	2c 0f       	add	r18, r28
    1a24:	3d 1f       	adc	r19, r29
    1a26:	28 17       	cp	r18, r24
    1a28:	39 07       	cpc	r19, r25
    1a2a:	18 f0       	brcs	.+6      	; 0x1a32 <LCD_12864_Draw_rectangle+0x4c>
		height = ST7920_height - y;
    1a2c:	ec 01       	movw	r28, r24
    1a2e:	ce 19       	sub	r28, r14
    1a30:	df 09       	sbc	r29, r15
	}

	/*Рисуем линии*/
	LCD_12864_Draw_line(x, y, x + width, y, Frame_buffer); /*Верх прямоугольника*/
    1a32:	da 2d       	mov	r29, r10
    1a34:	d4 0f       	add	r29, r20
    1a36:	86 01       	movw	r16, r12
    1a38:	2e 2d       	mov	r18, r14
    1a3a:	4d 2f       	mov	r20, r29
    1a3c:	6e 2d       	mov	r22, r14
    1a3e:	8a 2d       	mov	r24, r10
    1a40:	0e 94 8e 0c 	call	0x191c	; 0x191c <LCD_12864_Draw_line>
	LCD_12864_Draw_line(x, y + height, x + width, y + height, Frame_buffer); /*Низ прямоугольника*/
    1a44:	ce 0d       	add	r28, r14
    1a46:	2c 2f       	mov	r18, r28
    1a48:	4d 2f       	mov	r20, r29
    1a4a:	6c 2f       	mov	r22, r28
    1a4c:	8a 2d       	mov	r24, r10
    1a4e:	0e 94 8e 0c 	call	0x191c	; 0x191c <LCD_12864_Draw_line>
	LCD_12864_Draw_line(x, y, x, y + height, Frame_buffer); /*Левая сторона прямоугольника*/
    1a52:	2c 2f       	mov	r18, r28
    1a54:	4a 2d       	mov	r20, r10
    1a56:	6e 2d       	mov	r22, r14
    1a58:	8a 2d       	mov	r24, r10
    1a5a:	0e 94 8e 0c 	call	0x191c	; 0x191c <LCD_12864_Draw_line>
	LCD_12864_Draw_line(x + width, y, x + width, y + height, Frame_buffer); /*Правая сторона прямоугольника*/
    1a5e:	2c 2f       	mov	r18, r28
    1a60:	4d 2f       	mov	r20, r29
    1a62:	6e 2d       	mov	r22, r14
    1a64:	8d 2f       	mov	r24, r29
    1a66:	0e 94 8e 0c 	call	0x191c	; 0x191c <LCD_12864_Draw_line>
}
    1a6a:	df 91       	pop	r29
    1a6c:	cf 91       	pop	r28
    1a6e:	1f 91       	pop	r17
    1a70:	0f 91       	pop	r16
    1a72:	ff 90       	pop	r15
    1a74:	ef 90       	pop	r14
    1a76:	df 90       	pop	r13
    1a78:	cf 90       	pop	r12
    1a7a:	bf 90       	pop	r11
    1a7c:	af 90       	pop	r10
    1a7e:	08 95       	ret

00001a80 <LCD_12864_Draw_rectangle_filled>:
/*-------------------------------Закрашенный прямоугольник---------------------------------*/
void LCD_12864_Draw_rectangle_filled(uint16_t x, uint16_t y, uint16_t width, uint16_t height, uint8_t *Frame_buffer) {
    1a80:	7f 92       	push	r7
    1a82:	8f 92       	push	r8
    1a84:	9f 92       	push	r9
    1a86:	af 92       	push	r10
    1a88:	bf 92       	push	r11
    1a8a:	cf 92       	push	r12
    1a8c:	df 92       	push	r13
    1a8e:	ef 92       	push	r14
    1a90:	ff 92       	push	r15
    1a92:	0f 93       	push	r16
    1a94:	1f 93       	push	r17
    1a96:	cf 93       	push	r28
    1a98:	df 93       	push	r29
    1a9a:	ec 01       	movw	r28, r24
    1a9c:	6b 01       	movw	r12, r22
    1a9e:	5a 01       	movw	r10, r20
    1aa0:	79 01       	movw	r14, r18
    1aa2:	48 01       	movw	r8, r16
	/// \param y - начальная точка по оси "y"
	/// \param width - ширина прямоугольника
	/// \param height - высота прямоугольника

	/*Проверка ширины и высоты*/
	if ((x + width) >= ST7920_width) {
    1aa4:	9c 01       	movw	r18, r24
    1aa6:	24 0f       	add	r18, r20
    1aa8:	35 1f       	adc	r19, r21
    1aaa:	80 91 02 01 	lds	r24, 0x0102	; 0x800102 <ST7920_width>
    1aae:	90 e0       	ldi	r25, 0x00	; 0
    1ab0:	28 17       	cp	r18, r24
    1ab2:	39 07       	cpc	r19, r25
    1ab4:	18 f0       	brcs	.+6      	; 0x1abc <LCD_12864_Draw_rectangle_filled+0x3c>
		width = ST7920_width - x;
    1ab6:	5c 01       	movw	r10, r24
    1ab8:	ac 1a       	sub	r10, r28
    1aba:	bd 0a       	sbc	r11, r29
	}
	if ((y + height) >= ST7920_height) {
    1abc:	80 91 01 01 	lds	r24, 0x0101	; 0x800101 <ST7920_height>
    1ac0:	90 e0       	ldi	r25, 0x00	; 0
    1ac2:	96 01       	movw	r18, r12
    1ac4:	2e 0d       	add	r18, r14
    1ac6:	3f 1d       	adc	r19, r15
    1ac8:	28 17       	cp	r18, r24
    1aca:	39 07       	cpc	r19, r25
    1acc:	18 f0       	brcs	.+6      	; 0x1ad4 <LCD_12864_Draw_rectangle_filled+0x54>
		height = ST7920_height - y;
    1ace:	7c 01       	movw	r14, r24
    1ad0:	ec 18       	sub	r14, r12
    1ad2:	fd 08       	sbc	r15, r13
	}

	/*Рисуем линии*/
	for (uint8_t i = 0; i <= height; i++) {
    1ad4:	71 2c       	mov	r7, r1
    1ad6:	0a c0       	rjmp	.+20     	; 0x1aec <LCD_12864_Draw_rectangle_filled+0x6c>
		LCD_12864_Draw_line(x, y + i, x + width, y + i, Frame_buffer);
    1ad8:	67 2d       	mov	r22, r7
    1ada:	6c 0d       	add	r22, r12
    1adc:	84 01       	movw	r16, r8
    1ade:	26 2f       	mov	r18, r22
    1ae0:	4c 2f       	mov	r20, r28
    1ae2:	4a 0d       	add	r20, r10
    1ae4:	8c 2f       	mov	r24, r28
    1ae6:	0e 94 8e 0c 	call	0x191c	; 0x191c <LCD_12864_Draw_line>
	if ((y + height) >= ST7920_height) {
		height = ST7920_height - y;
	}

	/*Рисуем линии*/
	for (uint8_t i = 0; i <= height; i++) {
    1aea:	73 94       	inc	r7
    1aec:	87 2d       	mov	r24, r7
    1aee:	90 e0       	ldi	r25, 0x00	; 0
    1af0:	e8 16       	cp	r14, r24
    1af2:	f9 06       	cpc	r15, r25
    1af4:	88 f7       	brcc	.-30     	; 0x1ad8 <LCD_12864_Draw_rectangle_filled+0x58>
		LCD_12864_Draw_line(x, y + i, x + width, y + i, Frame_buffer);
	}
}
    1af6:	df 91       	pop	r29
    1af8:	cf 91       	pop	r28
    1afa:	1f 91       	pop	r17
    1afc:	0f 91       	pop	r16
    1afe:	ff 90       	pop	r15
    1b00:	ef 90       	pop	r14
    1b02:	df 90       	pop	r13
    1b04:	cf 90       	pop	r12
    1b06:	bf 90       	pop	r11
    1b08:	af 90       	pop	r10
    1b0a:	9f 90       	pop	r9
    1b0c:	8f 90       	pop	r8
    1b0e:	7f 90       	pop	r7
    1b10:	08 95       	ret

00001b12 <LCD_12864_Draw_circle>:
/*---------------------------------Пустотелая окружность-----------------------------------*/
void LCD_12864_Draw_circle(uint8_t x, uint8_t y, uint8_t radius, uint8_t *Frame_buffer) {
    1b12:	3f 92       	push	r3
    1b14:	4f 92       	push	r4
    1b16:	5f 92       	push	r5
    1b18:	6f 92       	push	r6
    1b1a:	7f 92       	push	r7
    1b1c:	8f 92       	push	r8
    1b1e:	9f 92       	push	r9
    1b20:	af 92       	push	r10
    1b22:	bf 92       	push	r11
    1b24:	cf 92       	push	r12
    1b26:	df 92       	push	r13
    1b28:	ef 92       	push	r14
    1b2a:	ff 92       	push	r15
    1b2c:	0f 93       	push	r16
    1b2e:	1f 93       	push	r17
    1b30:	cf 93       	push	r28
    1b32:	df 93       	push	r29
    1b34:	58 2e       	mov	r5, r24
    1b36:	46 2e       	mov	r4, r22
    1b38:	14 2f       	mov	r17, r20
    1b3a:	e9 01       	movw	r28, r18
	/// Вывести пустотелую окружность
	/// \param x - точка центра окружности по оси "x"
	/// \param y - точка центра окружности по оси "y"
	/// \param radius - радиус окружности

	int f = 1 - (int) radius;
    1b3c:	e4 2e       	mov	r14, r20
    1b3e:	f1 2c       	mov	r15, r1
    1b40:	81 e0       	ldi	r24, 0x01	; 1
    1b42:	90 e0       	ldi	r25, 0x00	; 0
    1b44:	6c 01       	movw	r12, r24
    1b46:	ce 18       	sub	r12, r14
    1b48:	df 08       	sbc	r13, r15
	int ddF_x = 1;

	int ddF_y = -2 * (int) radius;
    1b4a:	aa 24       	eor	r10, r10
    1b4c:	bb 24       	eor	r11, r11
    1b4e:	ae 18       	sub	r10, r14
    1b50:	bf 08       	sbc	r11, r15
    1b52:	aa 0c       	add	r10, r10
    1b54:	bb 1c       	adc	r11, r11
	int x_0 = 0;

	LCD_12864_Draw_pixel(x, y + radius, Frame_buffer);
    1b56:	64 2f       	mov	r22, r20
    1b58:	64 0d       	add	r22, r4
    1b5a:	a9 01       	movw	r20, r18
    1b5c:	85 2d       	mov	r24, r5
    1b5e:	0e 94 fb 06 	call	0xdf6	; 0xdf6 <LCD_12864_Draw_pixel>
	LCD_12864_Draw_pixel(x, y - radius, Frame_buffer);
    1b62:	64 2d       	mov	r22, r4
    1b64:	61 1b       	sub	r22, r17
    1b66:	ae 01       	movw	r20, r28
    1b68:	85 2d       	mov	r24, r5
    1b6a:	0e 94 fb 06 	call	0xdf6	; 0xdf6 <LCD_12864_Draw_pixel>
	LCD_12864_Draw_pixel(x + radius, y, Frame_buffer);
    1b6e:	ae 01       	movw	r20, r28
    1b70:	64 2d       	mov	r22, r4
    1b72:	81 2f       	mov	r24, r17
    1b74:	85 0d       	add	r24, r5
    1b76:	0e 94 fb 06 	call	0xdf6	; 0xdf6 <LCD_12864_Draw_pixel>
	LCD_12864_Draw_pixel(x - radius, y, Frame_buffer);
    1b7a:	ae 01       	movw	r20, r28
    1b7c:	64 2d       	mov	r22, r4
    1b7e:	85 2d       	mov	r24, r5
    1b80:	81 1b       	sub	r24, r17
    1b82:	0e 94 fb 06 	call	0xdf6	; 0xdf6 <LCD_12864_Draw_pixel>

	int f = 1 - (int) radius;
	int ddF_x = 1;

	int ddF_y = -2 * (int) radius;
	int x_0 = 0;
    1b86:	00 e0       	ldi	r16, 0x00	; 0
    1b88:	10 e0       	ldi	r17, 0x00	; 0
	/// \param x - точка центра окружности по оси "x"
	/// \param y - точка центра окружности по оси "y"
	/// \param radius - радиус окружности

	int f = 1 - (int) radius;
	int ddF_x = 1;
    1b8a:	88 24       	eor	r8, r8
    1b8c:	83 94       	inc	r8
    1b8e:	91 2c       	mov	r9, r1
	LCD_12864_Draw_pixel(x, y - radius, Frame_buffer);
	LCD_12864_Draw_pixel(x + radius, y, Frame_buffer);
	LCD_12864_Draw_pixel(x - radius, y, Frame_buffer);

	int y_0 = radius;
	while (x_0 < y_0) {
    1b90:	49 c0       	rjmp	.+146    	; 0x1c24 <LCD_12864_Draw_circle+0x112>
		if (f >= 0) {
    1b92:	dd 20       	and	r13, r13
    1b94:	44 f0       	brlt	.+16     	; 0x1ba6 <LCD_12864_Draw_circle+0x94>
			y_0--;
    1b96:	81 e0       	ldi	r24, 0x01	; 1
    1b98:	e8 1a       	sub	r14, r24
    1b9a:	f1 08       	sbc	r15, r1
			ddF_y += 2;
    1b9c:	82 e0       	ldi	r24, 0x02	; 2
    1b9e:	a8 0e       	add	r10, r24
    1ba0:	b1 1c       	adc	r11, r1
			f += ddF_y;
    1ba2:	ca 0c       	add	r12, r10
    1ba4:	db 1c       	adc	r13, r11
		}
		x_0++;
    1ba6:	0f 5f       	subi	r16, 0xFF	; 255
    1ba8:	1f 4f       	sbci	r17, 0xFF	; 255
		ddF_x += 2;
    1baa:	82 e0       	ldi	r24, 0x02	; 2
    1bac:	88 0e       	add	r8, r24
    1bae:	91 1c       	adc	r9, r1
		f += ddF_x;
    1bb0:	c8 0c       	add	r12, r8
    1bb2:	d9 1c       	adc	r13, r9
		LCD_12864_Draw_pixel(x + x_0, y + y_0, Frame_buffer);
    1bb4:	35 2c       	mov	r3, r5
    1bb6:	30 0e       	add	r3, r16
    1bb8:	ae 01       	movw	r20, r28
    1bba:	74 2c       	mov	r7, r4
    1bbc:	7e 0c       	add	r7, r14
    1bbe:	67 2d       	mov	r22, r7
    1bc0:	83 2d       	mov	r24, r3
    1bc2:	0e 94 fb 06 	call	0xdf6	; 0xdf6 <LCD_12864_Draw_pixel>
		LCD_12864_Draw_pixel(x - x_0, y + y_0, Frame_buffer);
    1bc6:	65 2c       	mov	r6, r5
    1bc8:	60 1a       	sub	r6, r16
    1bca:	ae 01       	movw	r20, r28
    1bcc:	67 2d       	mov	r22, r7
    1bce:	86 2d       	mov	r24, r6
    1bd0:	0e 94 fb 06 	call	0xdf6	; 0xdf6 <LCD_12864_Draw_pixel>
		LCD_12864_Draw_pixel(x + x_0, y - y_0, Frame_buffer);
    1bd4:	ae 01       	movw	r20, r28
    1bd6:	74 2c       	mov	r7, r4
    1bd8:	7e 18       	sub	r7, r14
    1bda:	67 2d       	mov	r22, r7
    1bdc:	83 2d       	mov	r24, r3
    1bde:	0e 94 fb 06 	call	0xdf6	; 0xdf6 <LCD_12864_Draw_pixel>
		LCD_12864_Draw_pixel(x - x_0, y - y_0, Frame_buffer);
    1be2:	ae 01       	movw	r20, r28
    1be4:	67 2d       	mov	r22, r7
    1be6:	86 2d       	mov	r24, r6
    1be8:	0e 94 fb 06 	call	0xdf6	; 0xdf6 <LCD_12864_Draw_pixel>
		LCD_12864_Draw_pixel(x + y_0, y + x_0, Frame_buffer);
    1bec:	74 2c       	mov	r7, r4
    1bee:	70 0e       	add	r7, r16
    1bf0:	ae 01       	movw	r20, r28
    1bf2:	67 2d       	mov	r22, r7
    1bf4:	65 2c       	mov	r6, r5
    1bf6:	6e 0c       	add	r6, r14
    1bf8:	86 2d       	mov	r24, r6
    1bfa:	0e 94 fb 06 	call	0xdf6	; 0xdf6 <LCD_12864_Draw_pixel>
		LCD_12864_Draw_pixel(x - y_0, y + x_0, Frame_buffer);
    1bfe:	ae 01       	movw	r20, r28
    1c00:	67 2d       	mov	r22, r7
    1c02:	75 2c       	mov	r7, r5
    1c04:	7e 18       	sub	r7, r14
    1c06:	87 2d       	mov	r24, r7
    1c08:	0e 94 fb 06 	call	0xdf6	; 0xdf6 <LCD_12864_Draw_pixel>
		LCD_12864_Draw_pixel(x + y_0, y - x_0, Frame_buffer);
    1c0c:	34 2c       	mov	r3, r4
    1c0e:	30 1a       	sub	r3, r16
    1c10:	ae 01       	movw	r20, r28
    1c12:	63 2d       	mov	r22, r3
    1c14:	86 2d       	mov	r24, r6
    1c16:	0e 94 fb 06 	call	0xdf6	; 0xdf6 <LCD_12864_Draw_pixel>
		LCD_12864_Draw_pixel(x - y_0, y - x_0, Frame_buffer);
    1c1a:	ae 01       	movw	r20, r28
    1c1c:	63 2d       	mov	r22, r3
    1c1e:	87 2d       	mov	r24, r7
    1c20:	0e 94 fb 06 	call	0xdf6	; 0xdf6 <LCD_12864_Draw_pixel>
	LCD_12864_Draw_pixel(x, y - radius, Frame_buffer);
	LCD_12864_Draw_pixel(x + radius, y, Frame_buffer);
	LCD_12864_Draw_pixel(x - radius, y, Frame_buffer);

	int y_0 = radius;
	while (x_0 < y_0) {
    1c24:	0e 15       	cp	r16, r14
    1c26:	1f 05       	cpc	r17, r15
    1c28:	0c f4       	brge	.+2      	; 0x1c2c <LCD_12864_Draw_circle+0x11a>
    1c2a:	b3 cf       	rjmp	.-154    	; 0x1b92 <LCD_12864_Draw_circle+0x80>
		LCD_12864_Draw_pixel(x + y_0, y + x_0, Frame_buffer);
		LCD_12864_Draw_pixel(x - y_0, y + x_0, Frame_buffer);
		LCD_12864_Draw_pixel(x + y_0, y - x_0, Frame_buffer);
		LCD_12864_Draw_pixel(x - y_0, y - x_0, Frame_buffer);
	}
}
    1c2c:	df 91       	pop	r29
    1c2e:	cf 91       	pop	r28
    1c30:	1f 91       	pop	r17
    1c32:	0f 91       	pop	r16
    1c34:	ff 90       	pop	r15
    1c36:	ef 90       	pop	r14
    1c38:	df 90       	pop	r13
    1c3a:	cf 90       	pop	r12
    1c3c:	bf 90       	pop	r11
    1c3e:	af 90       	pop	r10
    1c40:	9f 90       	pop	r9
    1c42:	8f 90       	pop	r8
    1c44:	7f 90       	pop	r7
    1c46:	6f 90       	pop	r6
    1c48:	5f 90       	pop	r5
    1c4a:	4f 90       	pop	r4
    1c4c:	3f 90       	pop	r3
    1c4e:	08 95       	ret

00001c50 <LCD_12864_Draw_circle_filled>:
/*--------------------------------Закрашенная окружность-----------------------------------*/
void LCD_12864_Draw_circle_filled(int16_t x, int16_t y, int16_t radius, uint8_t *Frame_buffer) {
    1c50:	2f 92       	push	r2
    1c52:	3f 92       	push	r3
    1c54:	4f 92       	push	r4
    1c56:	5f 92       	push	r5
    1c58:	6f 92       	push	r6
    1c5a:	7f 92       	push	r7
    1c5c:	8f 92       	push	r8
    1c5e:	9f 92       	push	r9
    1c60:	af 92       	push	r10
    1c62:	bf 92       	push	r11
    1c64:	cf 92       	push	r12
    1c66:	df 92       	push	r13
    1c68:	ef 92       	push	r14
    1c6a:	ff 92       	push	r15
    1c6c:	0f 93       	push	r16
    1c6e:	1f 93       	push	r17
    1c70:	cf 93       	push	r28
    1c72:	df 93       	push	r29
    1c74:	f8 2e       	mov	r15, r24
    1c76:	e6 2e       	mov	r14, r22
    1c78:	ea 01       	movw	r28, r20
    1c7a:	39 01       	movw	r6, r18
	/// Вывести закрашенную окружность
	/// \param x - точка центра окружности по оси "x"
	/// \param y - точка центра окружности по оси "y"
	/// \param radius - радиус окружности

	int16_t f = 1 - radius;
    1c7c:	81 e0       	ldi	r24, 0x01	; 1
    1c7e:	90 e0       	ldi	r25, 0x00	; 0
    1c80:	6c 01       	movw	r12, r24
    1c82:	c4 1a       	sub	r12, r20
    1c84:	d5 0a       	sbc	r13, r21
	int16_t ddF_x = 1;
	int16_t ddF_y = -2 * radius;
    1c86:	88 24       	eor	r8, r8
    1c88:	99 24       	eor	r9, r9
    1c8a:	84 1a       	sub	r8, r20
    1c8c:	95 0a       	sbc	r9, r21
    1c8e:	88 0c       	add	r8, r8
    1c90:	99 1c       	adc	r9, r9
	int16_t x_0 = 0;
	int16_t y_0 = radius;

	LCD_12864_Draw_pixel(x, y + radius, Frame_buffer);
    1c92:	26 2e       	mov	r2, r22
    1c94:	3f 2c       	mov	r3, r15
    1c96:	64 2f       	mov	r22, r20
    1c98:	6e 0d       	add	r22, r14
    1c9a:	a9 01       	movw	r20, r18
    1c9c:	8f 2d       	mov	r24, r15
    1c9e:	0e 94 fb 06 	call	0xdf6	; 0xdf6 <LCD_12864_Draw_pixel>
	LCD_12864_Draw_pixel(x, y - radius, Frame_buffer);
    1ca2:	6e 2d       	mov	r22, r14
    1ca4:	6c 1b       	sub	r22, r28
    1ca6:	a3 01       	movw	r20, r6
    1ca8:	8f 2d       	mov	r24, r15
    1caa:	0e 94 fb 06 	call	0xdf6	; 0xdf6 <LCD_12864_Draw_pixel>
	LCD_12864_Draw_pixel(x + radius, y, Frame_buffer);
    1cae:	bc 2e       	mov	r11, r28
    1cb0:	bf 0c       	add	r11, r15
    1cb2:	a3 01       	movw	r20, r6
    1cb4:	6e 2d       	mov	r22, r14
    1cb6:	8b 2d       	mov	r24, r11
    1cb8:	0e 94 fb 06 	call	0xdf6	; 0xdf6 <LCD_12864_Draw_pixel>
	LCD_12864_Draw_pixel(x - radius, y, Frame_buffer);
    1cbc:	fc 1a       	sub	r15, r28
    1cbe:	a3 01       	movw	r20, r6
    1cc0:	6e 2d       	mov	r22, r14
    1cc2:	8f 2d       	mov	r24, r15
    1cc4:	0e 94 fb 06 	call	0xdf6	; 0xdf6 <LCD_12864_Draw_pixel>
	LCD_12864_Draw_line(x - radius, y, x + radius, y, Frame_buffer);
    1cc8:	83 01       	movw	r16, r6
    1cca:	2e 2d       	mov	r18, r14
    1ccc:	4b 2d       	mov	r20, r11
    1cce:	6e 2d       	mov	r22, r14
    1cd0:	8f 2d       	mov	r24, r15
    1cd2:	0e 94 8e 0c 	call	0x191c	; 0x191c <LCD_12864_Draw_line>
	/// \param radius - радиус окружности

	int16_t f = 1 - radius;
	int16_t ddF_x = 1;
	int16_t ddF_y = -2 * radius;
	int16_t x_0 = 0;
    1cd6:	e1 2c       	mov	r14, r1
    1cd8:	f1 2c       	mov	r15, r1
	/// \param x - точка центра окружности по оси "x"
	/// \param y - точка центра окружности по оси "y"
	/// \param radius - радиус окружности

	int16_t f = 1 - radius;
	int16_t ddF_x = 1;
    1cda:	aa 24       	eor	r10, r10
    1cdc:	a3 94       	inc	r10
    1cde:	b1 2c       	mov	r11, r1
	LCD_12864_Draw_pixel(x, y - radius, Frame_buffer);
	LCD_12864_Draw_pixel(x + radius, y, Frame_buffer);
	LCD_12864_Draw_pixel(x - radius, y, Frame_buffer);
	LCD_12864_Draw_line(x - radius, y, x + radius, y, Frame_buffer);

	while (x_0 < y_0) {
    1ce0:	35 c0       	rjmp	.+106    	; 0x1d4c <LCD_12864_Draw_circle_filled+0xfc>
		if (f >= 0) {
    1ce2:	dd 20       	and	r13, r13
    1ce4:	34 f0       	brlt	.+12     	; 0x1cf2 <LCD_12864_Draw_circle_filled+0xa2>
			y_0--;
    1ce6:	21 97       	sbiw	r28, 0x01	; 1
			ddF_y += 2;
    1ce8:	82 e0       	ldi	r24, 0x02	; 2
    1cea:	88 0e       	add	r8, r24
    1cec:	91 1c       	adc	r9, r1
			f += ddF_y;
    1cee:	c8 0c       	add	r12, r8
    1cf0:	d9 1c       	adc	r13, r9
		}
		x_0++;
    1cf2:	8f ef       	ldi	r24, 0xFF	; 255
    1cf4:	e8 1a       	sub	r14, r24
    1cf6:	f8 0a       	sbc	r15, r24
		ddF_x += 2;
    1cf8:	82 e0       	ldi	r24, 0x02	; 2
    1cfa:	a8 0e       	add	r10, r24
    1cfc:	b1 1c       	adc	r11, r1
		f += ddF_x;
    1cfe:	ca 0c       	add	r12, r10
    1d00:	db 1c       	adc	r13, r11

		LCD_12864_Draw_line(x - x_0, y + y_0, x + x_0, y + y_0, Frame_buffer);
    1d02:	53 2c       	mov	r5, r3
    1d04:	5e 0c       	add	r5, r14
    1d06:	43 2c       	mov	r4, r3
    1d08:	4e 18       	sub	r4, r14
    1d0a:	83 01       	movw	r16, r6
    1d0c:	6c 2f       	mov	r22, r28
    1d0e:	62 0d       	add	r22, r2
    1d10:	26 2f       	mov	r18, r22
    1d12:	45 2d       	mov	r20, r5
    1d14:	84 2d       	mov	r24, r4
    1d16:	0e 94 8e 0c 	call	0x191c	; 0x191c <LCD_12864_Draw_line>
		LCD_12864_Draw_line(x + x_0, y - y_0, x - x_0, y - y_0, Frame_buffer);
    1d1a:	62 2d       	mov	r22, r2
    1d1c:	6c 1b       	sub	r22, r28
    1d1e:	26 2f       	mov	r18, r22
    1d20:	44 2d       	mov	r20, r4
    1d22:	85 2d       	mov	r24, r5
    1d24:	0e 94 8e 0c 	call	0x191c	; 0x191c <LCD_12864_Draw_line>
		LCD_12864_Draw_line(x + y_0, y + x_0, x - y_0, y + x_0, Frame_buffer);
    1d28:	62 2d       	mov	r22, r2
    1d2a:	6e 0d       	add	r22, r14
    1d2c:	26 2f       	mov	r18, r22
    1d2e:	43 2c       	mov	r4, r3
    1d30:	4c 1a       	sub	r4, r28
    1d32:	44 2d       	mov	r20, r4
    1d34:	5c 2e       	mov	r5, r28
    1d36:	53 0c       	add	r5, r3
    1d38:	85 2d       	mov	r24, r5
    1d3a:	0e 94 8e 0c 	call	0x191c	; 0x191c <LCD_12864_Draw_line>
		LCD_12864_Draw_line(x + y_0, y - x_0, x - y_0, y - x_0, Frame_buffer);
    1d3e:	62 2d       	mov	r22, r2
    1d40:	6e 19       	sub	r22, r14
    1d42:	26 2f       	mov	r18, r22
    1d44:	44 2d       	mov	r20, r4
    1d46:	85 2d       	mov	r24, r5
    1d48:	0e 94 8e 0c 	call	0x191c	; 0x191c <LCD_12864_Draw_line>
	LCD_12864_Draw_pixel(x, y - radius, Frame_buffer);
	LCD_12864_Draw_pixel(x + radius, y, Frame_buffer);
	LCD_12864_Draw_pixel(x - radius, y, Frame_buffer);
	LCD_12864_Draw_line(x - radius, y, x + radius, y, Frame_buffer);

	while (x_0 < y_0) {
    1d4c:	ec 16       	cp	r14, r28
    1d4e:	fd 06       	cpc	r15, r29
    1d50:	44 f2       	brlt	.-112    	; 0x1ce2 <LCD_12864_Draw_circle_filled+0x92>
		LCD_12864_Draw_line(x - x_0, y + y_0, x + x_0, y + y_0, Frame_buffer);
		LCD_12864_Draw_line(x + x_0, y - y_0, x - x_0, y - y_0, Frame_buffer);
		LCD_12864_Draw_line(x + y_0, y + x_0, x - y_0, y + x_0, Frame_buffer);
		LCD_12864_Draw_line(x + y_0, y - x_0, x - y_0, y - x_0, Frame_buffer);
	}
}
    1d52:	df 91       	pop	r29
    1d54:	cf 91       	pop	r28
    1d56:	1f 91       	pop	r17
    1d58:	0f 91       	pop	r16
    1d5a:	ff 90       	pop	r15
    1d5c:	ef 90       	pop	r14
    1d5e:	df 90       	pop	r13
    1d60:	cf 90       	pop	r12
    1d62:	bf 90       	pop	r11
    1d64:	af 90       	pop	r10
    1d66:	9f 90       	pop	r9
    1d68:	8f 90       	pop	r8
    1d6a:	7f 90       	pop	r7
    1d6c:	6f 90       	pop	r6
    1d6e:	5f 90       	pop	r5
    1d70:	4f 90       	pop	r4
    1d72:	3f 90       	pop	r3
    1d74:	2f 90       	pop	r2
    1d76:	08 95       	ret

00001d78 <timer1_ini>:
	TCCR2B |= (1<<CS22)|(1<<CS21);//установим делитель 256.
}*/
//-------------------------------------------------------------
void timer1_ini(void)//период 1мс
{
	TCCR1B |= (1<<WGM12); // устанавливаем режим СТС (сброс по совпадению)
    1d78:	e1 e8       	ldi	r30, 0x81	; 129
    1d7a:	f0 e0       	ldi	r31, 0x00	; 0
    1d7c:	80 81       	ld	r24, Z
    1d7e:	88 60       	ori	r24, 0x08	; 8
    1d80:	80 83       	st	Z, r24
	TIMSK1 |= (1<<OCIE1A); //устанавливаем бит разрешения прерывания 1ого счетчика по совпадению с OCR1A(H и L)
    1d82:	af e6       	ldi	r26, 0x6F	; 111
    1d84:	b0 e0       	ldi	r27, 0x00	; 0
    1d86:	8c 91       	ld	r24, X
    1d88:	82 60       	ori	r24, 0x02	; 2
    1d8a:	8c 93       	st	X, r24
	OCR1AH = 0b00000011; //записываем в регистр число для сравнения 1000
    1d8c:	83 e0       	ldi	r24, 0x03	; 3
    1d8e:	80 93 89 00 	sts	0x0089, r24	; 0x800089 <__TEXT_REGION_LENGTH__+0x7f8089>
	OCR1AL = 0b11101000;
    1d92:	88 ee       	ldi	r24, 0xE8	; 232
    1d94:	80 93 88 00 	sts	0x0088, r24	; 0x800088 <__TEXT_REGION_LENGTH__+0x7f8088>
	TCCR1B |= (1<<CS11);//установим делитель 8.
    1d98:	80 81       	ld	r24, Z
    1d9a:	82 60       	ori	r24, 0x02	; 2
    1d9c:	80 83       	st	Z, r24
    1d9e:	08 95       	ret

00001da0 <timer0_ini>:
}
//-------------------------------------------------------------
void timer0_ini(void) // период 100мкс
{
	TCCR0B |= (1<<WGM01); // устанавливаем режим СТС (сброс по совпадению)
    1da0:	85 b5       	in	r24, 0x25	; 37
    1da2:	82 60       	ori	r24, 0x02	; 2
    1da4:	85 bd       	out	0x25, r24	; 37
	OCR0A = 0b01100100; //записываем в регистр число для сравнения 100
    1da6:	84 e6       	ldi	r24, 0x64	; 100
    1da8:	87 bd       	out	0x27, r24	; 39
	TCCR0B |= (1<<CS01); //делитель 8
    1daa:	85 b5       	in	r24, 0x25	; 37
    1dac:	82 60       	ori	r24, 0x02	; 2
    1dae:	85 bd       	out	0x25, r24	; 37
	TIMSK0 |= (1<<OCIE0A); //устанавливаем бит разрешения прерывания 0-ого счетчика по совпадению с OCR0A
    1db0:	ee e6       	ldi	r30, 0x6E	; 110
    1db2:	f0 e0       	ldi	r31, 0x00	; 0
    1db4:	80 81       	ld	r24, Z
    1db6:	82 60       	ori	r24, 0x02	; 2
    1db8:	80 83       	st	Z, r24
    1dba:	08 95       	ret

00001dbc <__vector_11>:
		timer2_flag = 0;
	}
}*/
//-------------------------------------------------------------
ISR (TIMER1_COMPA_vect)
{	
    1dbc:	1f 92       	push	r1
    1dbe:	0f 92       	push	r0
    1dc0:	0f b6       	in	r0, 0x3f	; 63
    1dc2:	0f 92       	push	r0
    1dc4:	11 24       	eor	r1, r1
    1dc6:	8f 93       	push	r24
    1dc8:	9f 93       	push	r25
    1dca:	af 93       	push	r26
    1dcc:	bf 93       	push	r27
	/*if (millis == 300001)
	{
		millis = 0;
	}*/
	millis++;
    1dce:	80 91 74 03 	lds	r24, 0x0374	; 0x800374 <millis>
    1dd2:	90 91 75 03 	lds	r25, 0x0375	; 0x800375 <millis+0x1>
    1dd6:	a0 91 76 03 	lds	r26, 0x0376	; 0x800376 <millis+0x2>
    1dda:	b0 91 77 03 	lds	r27, 0x0377	; 0x800377 <millis+0x3>
    1dde:	01 96       	adiw	r24, 0x01	; 1
    1de0:	a1 1d       	adc	r26, r1
    1de2:	b1 1d       	adc	r27, r1
    1de4:	80 93 74 03 	sts	0x0374, r24	; 0x800374 <millis>
    1de8:	90 93 75 03 	sts	0x0375, r25	; 0x800375 <millis+0x1>
    1dec:	a0 93 76 03 	sts	0x0376, r26	; 0x800376 <millis+0x2>
    1df0:	b0 93 77 03 	sts	0x0377, r27	; 0x800377 <millis+0x3>
}
    1df4:	bf 91       	pop	r27
    1df6:	af 91       	pop	r26
    1df8:	9f 91       	pop	r25
    1dfa:	8f 91       	pop	r24
    1dfc:	0f 90       	pop	r0
    1dfe:	0f be       	out	0x3f, r0	; 63
    1e00:	0f 90       	pop	r0
    1e02:	1f 90       	pop	r1
    1e04:	18 95       	reti

00001e06 <__vector_14>:
//-------------------------------------------------------------
ISR (TIMER0_COMPA_vect)
{
    1e06:	1f 92       	push	r1
    1e08:	0f 92       	push	r0
    1e0a:	0f b6       	in	r0, 0x3f	; 63
    1e0c:	0f 92       	push	r0
    1e0e:	11 24       	eor	r1, r1
    1e10:	2f 93       	push	r18
    1e12:	8f 93       	push	r24
    1e14:	9f 93       	push	r25
	  static unsigned char new_state=0;
	  static unsigned char old_state=0;
	  
		  new_state = (PINB&0b11000000)>>6;
    1e16:	83 b1       	in	r24, 0x03	; 3
    1e18:	82 95       	swap	r24
    1e1a:	86 95       	lsr	r24
    1e1c:	86 95       	lsr	r24
    1e1e:	83 70       	andi	r24, 0x03	; 3
    1e20:	80 93 73 03 	sts	0x0373, r24	; 0x800373 <new_state.2627>
		  
		  switch(old_state | new_state)
    1e24:	90 91 72 03 	lds	r25, 0x0372	; 0x800372 <old_state.2628>
    1e28:	89 2b       	or	r24, r25
    1e2a:	84 30       	cpi	r24, 0x04	; 4
    1e2c:	d9 f0       	breq	.+54     	; 0x1e64 <__vector_14+0x5e>
    1e2e:	18 f4       	brcc	.+6      	; 0x1e36 <__vector_14+0x30>
    1e30:	81 30       	cpi	r24, 0x01	; 1
    1e32:	29 f0       	breq	.+10     	; 0x1e3e <__vector_14+0x38>
    1e34:	29 c0       	rjmp	.+82     	; 0x1e88 <__vector_14+0x82>
    1e36:	8b 30       	cpi	r24, 0x0B	; 11
    1e38:	a9 f0       	breq	.+42     	; 0x1e64 <__vector_14+0x5e>
    1e3a:	8e 30       	cpi	r24, 0x0E	; 14
    1e3c:	29 f5       	brne	.+74     	; 0x1e88 <__vector_14+0x82>
		  {
			  case 0x01: case 0x0e:
			  if (change_flag) {add_cnt++;}
    1e3e:	80 91 78 03 	lds	r24, 0x0378	; 0x800378 <change_flag>
    1e42:	88 23       	and	r24, r24
    1e44:	31 f0       	breq	.+12     	; 0x1e52 <__vector_14+0x4c>
    1e46:	80 91 12 04 	lds	r24, 0x0412	; 0x800412 <add_cnt>
    1e4a:	8f 5f       	subi	r24, 0xFF	; 255
    1e4c:	80 93 12 04 	sts	0x0412, r24	; 0x800412 <add_cnt>
    1e50:	1b c0       	rjmp	.+54     	; 0x1e88 <__vector_14+0x82>
			  else {cnt++; PORTD |= (1<<LED);}
    1e52:	80 91 13 04 	lds	r24, 0x0413	; 0x800413 <cnt>
    1e56:	8f 5f       	subi	r24, 0xFF	; 255
    1e58:	80 93 13 04 	sts	0x0413, r24	; 0x800413 <cnt>
    1e5c:	8b b1       	in	r24, 0x0b	; 11
    1e5e:	80 61       	ori	r24, 0x10	; 16
    1e60:	8b b9       	out	0x0b, r24	; 11
    1e62:	12 c0       	rjmp	.+36     	; 0x1e88 <__vector_14+0x82>
			  break;
			  case 0x04: case 0x0b:
			  if (change_flag) add_cnt--;
    1e64:	80 91 78 03 	lds	r24, 0x0378	; 0x800378 <change_flag>
    1e68:	88 23       	and	r24, r24
    1e6a:	31 f0       	breq	.+12     	; 0x1e78 <__vector_14+0x72>
    1e6c:	80 91 12 04 	lds	r24, 0x0412	; 0x800412 <add_cnt>
    1e70:	81 50       	subi	r24, 0x01	; 1
    1e72:	80 93 12 04 	sts	0x0412, r24	; 0x800412 <add_cnt>
    1e76:	08 c0       	rjmp	.+16     	; 0x1e88 <__vector_14+0x82>
			  else {cnt--; PORTD |= (1<<LED);}
    1e78:	80 91 13 04 	lds	r24, 0x0413	; 0x800413 <cnt>
    1e7c:	81 50       	subi	r24, 0x01	; 1
    1e7e:	80 93 13 04 	sts	0x0413, r24	; 0x800413 <cnt>
    1e82:	8b b1       	in	r24, 0x0b	; 11
    1e84:	80 61       	ori	r24, 0x10	; 16
    1e86:	8b b9       	out	0x0b, r24	; 11
			  break;
		  }
		  old_state = new_state<<2;
    1e88:	80 91 73 03 	lds	r24, 0x0373	; 0x800373 <new_state.2627>
    1e8c:	88 0f       	add	r24, r24
    1e8e:	88 0f       	add	r24, r24
    1e90:	80 93 72 03 	sts	0x0372, r24	; 0x800372 <old_state.2628>
		  //ограничение диапазона cnt
		  if (cnt >= 120){cnt = 0;}
    1e94:	80 91 13 04 	lds	r24, 0x0413	; 0x800413 <cnt>
    1e98:	88 37       	cpi	r24, 0x78	; 120
    1e9a:	1c f0       	brlt	.+6      	; 0x1ea2 <__vector_14+0x9c>
    1e9c:	10 92 13 04 	sts	0x0413, r1	; 0x800413 <cnt>
    1ea0:	05 c0       	rjmp	.+10     	; 0x1eac <__vector_14+0xa6>
		  else if (cnt <= -1){cnt = 119;}
    1ea2:	88 23       	and	r24, r24
    1ea4:	1c f4       	brge	.+6      	; 0x1eac <__vector_14+0xa6>
    1ea6:	87 e7       	ldi	r24, 0x77	; 119
    1ea8:	80 93 13 04 	sts	0x0413, r24	; 0x800413 <cnt>
		  //ограничение диапазона add_cnt
		  switch(cnt%7)
    1eac:	90 91 13 04 	lds	r25, 0x0413	; 0x800413 <cnt>
    1eb0:	83 e9       	ldi	r24, 0x93	; 147
    1eb2:	98 02       	muls	r25, r24
    1eb4:	81 2d       	mov	r24, r1
    1eb6:	11 24       	eor	r1, r1
    1eb8:	89 0f       	add	r24, r25
    1eba:	85 95       	asr	r24
    1ebc:	85 95       	asr	r24
    1ebe:	97 fd       	sbrc	r25, 7
    1ec0:	83 95       	inc	r24
    1ec2:	28 2f       	mov	r18, r24
    1ec4:	22 0f       	add	r18, r18
    1ec6:	22 0f       	add	r18, r18
    1ec8:	22 0f       	add	r18, r18
    1eca:	28 1b       	sub	r18, r24
    1ecc:	92 1b       	sub	r25, r18
    1ece:	92 30       	cpi	r25, 0x02	; 2
    1ed0:	41 f1       	breq	.+80     	; 0x1f22 <__vector_14+0x11c>
    1ed2:	2c f4       	brge	.+10     	; 0x1ede <__vector_14+0xd8>
    1ed4:	99 23       	and	r25, r25
    1ed6:	51 f0       	breq	.+20     	; 0x1eec <__vector_14+0xe6>
    1ed8:	91 30       	cpi	r25, 0x01	; 1
    1eda:	b1 f0       	breq	.+44     	; 0x1f08 <__vector_14+0x102>
    1edc:	55 c0       	rjmp	.+170    	; 0x1f88 <__vector_14+0x182>
    1ede:	94 30       	cpi	r25, 0x04	; 4
    1ee0:	d1 f1       	breq	.+116    	; 0x1f56 <__vector_14+0x150>
    1ee2:	64 f1       	brlt	.+88     	; 0x1f3c <__vector_14+0x136>
    1ee4:	95 30       	cpi	r25, 0x05	; 5
    1ee6:	09 f4       	brne	.+2      	; 0x1eea <__vector_14+0xe4>
    1ee8:	43 c0       	rjmp	.+134    	; 0x1f70 <__vector_14+0x16a>
    1eea:	4e c0       	rjmp	.+156    	; 0x1f88 <__vector_14+0x182>
		  {
			  case 0:	if (add_cnt >= 24){add_cnt = 0;}
    1eec:	80 91 12 04 	lds	r24, 0x0412	; 0x800412 <add_cnt>
    1ef0:	88 31       	cpi	r24, 0x18	; 24
    1ef2:	1c f0       	brlt	.+6      	; 0x1efa <__vector_14+0xf4>
    1ef4:	10 92 12 04 	sts	0x0412, r1	; 0x800412 <add_cnt>
    1ef8:	47 c0       	rjmp	.+142    	; 0x1f88 <__vector_14+0x182>
			  else if (add_cnt <= -1){add_cnt = 23;}
    1efa:	88 23       	and	r24, r24
    1efc:	0c f0       	brlt	.+2      	; 0x1f00 <__vector_14+0xfa>
    1efe:	44 c0       	rjmp	.+136    	; 0x1f88 <__vector_14+0x182>
    1f00:	87 e1       	ldi	r24, 0x17	; 23
    1f02:	80 93 12 04 	sts	0x0412, r24	; 0x800412 <add_cnt>
    1f06:	40 c0       	rjmp	.+128    	; 0x1f88 <__vector_14+0x182>
			  break;
			  case 1: if (add_cnt >= 60){add_cnt = 0;}
    1f08:	80 91 12 04 	lds	r24, 0x0412	; 0x800412 <add_cnt>
    1f0c:	8c 33       	cpi	r24, 0x3C	; 60
    1f0e:	1c f0       	brlt	.+6      	; 0x1f16 <__vector_14+0x110>
    1f10:	10 92 12 04 	sts	0x0412, r1	; 0x800412 <add_cnt>
    1f14:	39 c0       	rjmp	.+114    	; 0x1f88 <__vector_14+0x182>
			  else if (add_cnt <= -1){add_cnt = 59;}
    1f16:	88 23       	and	r24, r24
    1f18:	bc f5       	brge	.+110    	; 0x1f88 <__vector_14+0x182>
    1f1a:	8b e3       	ldi	r24, 0x3B	; 59
    1f1c:	80 93 12 04 	sts	0x0412, r24	; 0x800412 <add_cnt>
    1f20:	33 c0       	rjmp	.+102    	; 0x1f88 <__vector_14+0x182>
			  break;
			  case 2: if (add_cnt >= 8){add_cnt = 0;}
    1f22:	80 91 12 04 	lds	r24, 0x0412	; 0x800412 <add_cnt>
    1f26:	88 30       	cpi	r24, 0x08	; 8
    1f28:	1c f0       	brlt	.+6      	; 0x1f30 <__vector_14+0x12a>
    1f2a:	10 92 12 04 	sts	0x0412, r1	; 0x800412 <add_cnt>
    1f2e:	2c c0       	rjmp	.+88     	; 0x1f88 <__vector_14+0x182>
			  else if (add_cnt <= -1){add_cnt = 7;}
    1f30:	88 23       	and	r24, r24
    1f32:	54 f5       	brge	.+84     	; 0x1f88 <__vector_14+0x182>
    1f34:	87 e0       	ldi	r24, 0x07	; 7
    1f36:	80 93 12 04 	sts	0x0412, r24	; 0x800412 <add_cnt>
    1f3a:	26 c0       	rjmp	.+76     	; 0x1f88 <__vector_14+0x182>
			  break;
			  case 3: if (add_cnt >= 32){add_cnt = 0;}
    1f3c:	80 91 12 04 	lds	r24, 0x0412	; 0x800412 <add_cnt>
    1f40:	80 32       	cpi	r24, 0x20	; 32
    1f42:	1c f0       	brlt	.+6      	; 0x1f4a <__vector_14+0x144>
    1f44:	10 92 12 04 	sts	0x0412, r1	; 0x800412 <add_cnt>
    1f48:	1f c0       	rjmp	.+62     	; 0x1f88 <__vector_14+0x182>
			  else if (add_cnt <= -1){add_cnt = 31;}
    1f4a:	88 23       	and	r24, r24
    1f4c:	ec f4       	brge	.+58     	; 0x1f88 <__vector_14+0x182>
    1f4e:	8f e1       	ldi	r24, 0x1F	; 31
    1f50:	80 93 12 04 	sts	0x0412, r24	; 0x800412 <add_cnt>
    1f54:	19 c0       	rjmp	.+50     	; 0x1f88 <__vector_14+0x182>
			  break;
			  case 4: if (add_cnt >= 13){add_cnt = 0;}
    1f56:	80 91 12 04 	lds	r24, 0x0412	; 0x800412 <add_cnt>
    1f5a:	8d 30       	cpi	r24, 0x0D	; 13
    1f5c:	1c f0       	brlt	.+6      	; 0x1f64 <__vector_14+0x15e>
    1f5e:	10 92 12 04 	sts	0x0412, r1	; 0x800412 <add_cnt>
    1f62:	12 c0       	rjmp	.+36     	; 0x1f88 <__vector_14+0x182>
			  else if (add_cnt <= -1){add_cnt = 12;}
    1f64:	88 23       	and	r24, r24
    1f66:	84 f4       	brge	.+32     	; 0x1f88 <__vector_14+0x182>
    1f68:	8c e0       	ldi	r24, 0x0C	; 12
    1f6a:	80 93 12 04 	sts	0x0412, r24	; 0x800412 <add_cnt>
    1f6e:	0c c0       	rjmp	.+24     	; 0x1f88 <__vector_14+0x182>
			  break;
			  case 5: if (add_cnt >= 100){add_cnt = 0;}
    1f70:	80 91 12 04 	lds	r24, 0x0412	; 0x800412 <add_cnt>
    1f74:	84 36       	cpi	r24, 0x64	; 100
    1f76:	1c f0       	brlt	.+6      	; 0x1f7e <__vector_14+0x178>
    1f78:	10 92 12 04 	sts	0x0412, r1	; 0x800412 <add_cnt>
    1f7c:	05 c0       	rjmp	.+10     	; 0x1f88 <__vector_14+0x182>
			  else if (add_cnt <= -1){add_cnt = 99;}
    1f7e:	88 23       	and	r24, r24
    1f80:	1c f4       	brge	.+6      	; 0x1f88 <__vector_14+0x182>
    1f82:	83 e6       	ldi	r24, 0x63	; 99
    1f84:	80 93 12 04 	sts	0x0412, r24	; 0x800412 <add_cnt>
			  break;
		  }
		  PORTD &= ~(1<<LED);
    1f88:	8b b1       	in	r24, 0x0b	; 11
    1f8a:	8f 7e       	andi	r24, 0xEF	; 239
    1f8c:	8b b9       	out	0x0b, r24	; 11
}
    1f8e:	9f 91       	pop	r25
    1f90:	8f 91       	pop	r24
    1f92:	2f 91       	pop	r18
    1f94:	0f 90       	pop	r0
    1f96:	0f be       	out	0x3f, r0	; 63
    1f98:	0f 90       	pop	r0
    1f9a:	1f 90       	pop	r1
    1f9c:	18 95       	reti

00001f9e <enc_interrupt_ini>:
//-------------------------------------------------------------
//прерывания от кнопки энкодера для переключения в окно меню
void enc_interrupt_ini(void)
{
	//включим прерывания INT1 по нисходящему фронту
	EICRA |= (1<<ISC11);
    1f9e:	e9 e6       	ldi	r30, 0x69	; 105
    1fa0:	f0 e0       	ldi	r31, 0x00	; 0
    1fa2:	80 81       	ld	r24, Z
    1fa4:	88 60       	ori	r24, 0x08	; 8
    1fa6:	80 83       	st	Z, r24
	//разрешим внешние прерывания INT1
	EIMSK |= (1<<INT1);
    1fa8:	8d b3       	in	r24, 0x1d	; 29
    1faa:	82 60       	ori	r24, 0x02	; 2
    1fac:	8d bb       	out	0x1d, r24	; 29
    1fae:	08 95       	ret

00001fb0 <__vector_2>:
	PORTD &= ~(1<<LED);
}*/
//-------------------------------------------------------------
//обработчик внешн.прерываний от кнопки энкодера
ISR(INT1_vect)
{
    1fb0:	1f 92       	push	r1
    1fb2:	0f 92       	push	r0
    1fb4:	0f b6       	in	r0, 0x3f	; 63
    1fb6:	0f 92       	push	r0
    1fb8:	11 24       	eor	r1, r1
    1fba:	2f 93       	push	r18
    1fbc:	3f 93       	push	r19
    1fbe:	4f 93       	push	r20
    1fc0:	5f 93       	push	r21
    1fc2:	6f 93       	push	r22
    1fc4:	7f 93       	push	r23
    1fc6:	8f 93       	push	r24
    1fc8:	9f 93       	push	r25
    1fca:	af 93       	push	r26
    1fcc:	bf 93       	push	r27
    1fce:	ef 93       	push	r30
    1fd0:	ff 93       	push	r31
	//enc_int_flag = 1;
	switch (menu_flag)
    1fd2:	80 91 79 03 	lds	r24, 0x0379	; 0x800379 <menu_flag>
    1fd6:	82 30       	cpi	r24, 0x02	; 2
    1fd8:	91 f1       	breq	.+100    	; 0x203e <__vector_2+0x8e>
    1fda:	28 f4       	brcc	.+10     	; 0x1fe6 <__vector_2+0x36>
    1fdc:	88 23       	and	r24, r24
    1fde:	51 f0       	breq	.+20     	; 0x1ff4 <__vector_2+0x44>
    1fe0:	81 30       	cpi	r24, 0x01	; 1
    1fe2:	61 f0       	breq	.+24     	; 0x1ffc <__vector_2+0x4c>
    1fe4:	ea c0       	rjmp	.+468    	; 0x21ba <__vector_2+0x20a>
    1fe6:	83 30       	cpi	r24, 0x03	; 3
    1fe8:	09 f4       	brne	.+2      	; 0x1fec <__vector_2+0x3c>
    1fea:	e0 c0       	rjmp	.+448    	; 0x21ac <__vector_2+0x1fc>
    1fec:	84 30       	cpi	r24, 0x04	; 4
    1fee:	09 f4       	brne	.+2      	; 0x1ff2 <__vector_2+0x42>
    1ff0:	e1 c0       	rjmp	.+450    	; 0x21b4 <__vector_2+0x204>
    1ff2:	e3 c0       	rjmp	.+454    	; 0x21ba <__vector_2+0x20a>
	{
		case 0: menu_flag = 1;
    1ff4:	81 e0       	ldi	r24, 0x01	; 1
    1ff6:	80 93 79 03 	sts	0x0379, r24	; 0x800379 <menu_flag>
		//cnt = 0;
		break;
    1ffa:	df c0       	rjmp	.+446    	; 0x21ba <__vector_2+0x20a>
		case 1:	switch(cnt%4)
    1ffc:	80 91 13 04 	lds	r24, 0x0413	; 0x800413 <cnt>
    2000:	83 78       	andi	r24, 0x83	; 131
    2002:	1c f4       	brge	.+6      	; 0x200a <__vector_2+0x5a>
    2004:	81 50       	subi	r24, 0x01	; 1
    2006:	8c 6f       	ori	r24, 0xFC	; 252
    2008:	8f 5f       	subi	r24, 0xFF	; 255
    200a:	81 30       	cpi	r24, 0x01	; 1
    200c:	61 f0       	breq	.+24     	; 0x2026 <__vector_2+0x76>
    200e:	1c f4       	brge	.+6      	; 0x2016 <__vector_2+0x66>
    2010:	88 23       	and	r24, r24
    2012:	31 f0       	breq	.+12     	; 0x2020 <__vector_2+0x70>
    2014:	d2 c0       	rjmp	.+420    	; 0x21ba <__vector_2+0x20a>
    2016:	82 30       	cpi	r24, 0x02	; 2
    2018:	51 f0       	breq	.+20     	; 0x202e <__vector_2+0x7e>
    201a:	83 30       	cpi	r24, 0x03	; 3
    201c:	61 f0       	breq	.+24     	; 0x2036 <__vector_2+0x86>
    201e:	cd c0       	rjmp	.+410    	; 0x21ba <__vector_2+0x20a>
		{
			case 0:	menu_flag = 0;
    2020:	10 92 79 03 	sts	0x0379, r1	; 0x800379 <menu_flag>
			break;
    2024:	ca c0       	rjmp	.+404    	; 0x21ba <__vector_2+0x20a>
			case 1:	menu_flag = 2;
    2026:	82 e0       	ldi	r24, 0x02	; 2
    2028:	80 93 79 03 	sts	0x0379, r24	; 0x800379 <menu_flag>
			break;
    202c:	c6 c0       	rjmp	.+396    	; 0x21ba <__vector_2+0x20a>
			case 2:	menu_flag = 3;
    202e:	83 e0       	ldi	r24, 0x03	; 3
    2030:	80 93 79 03 	sts	0x0379, r24	; 0x800379 <menu_flag>
			break;
    2034:	c2 c0       	rjmp	.+388    	; 0x21ba <__vector_2+0x20a>
			case 3:	menu_flag = 4;
    2036:	84 e0       	ldi	r24, 0x04	; 4
    2038:	80 93 79 03 	sts	0x0379, r24	; 0x800379 <menu_flag>
			break;
    203c:	be c0       	rjmp	.+380    	; 0x21ba <__vector_2+0x20a>
		}
		//cnt = 0;
		break;
		case 2:	switch(cnt%7)
    203e:	90 91 13 04 	lds	r25, 0x0413	; 0x800413 <cnt>
    2042:	83 e9       	ldi	r24, 0x93	; 147
    2044:	98 02       	muls	r25, r24
    2046:	81 2d       	mov	r24, r1
    2048:	11 24       	eor	r1, r1
    204a:	89 0f       	add	r24, r25
    204c:	85 95       	asr	r24
    204e:	85 95       	asr	r24
    2050:	e8 2f       	mov	r30, r24
    2052:	97 fd       	sbrc	r25, 7
    2054:	e3 95       	inc	r30
    2056:	8e 2f       	mov	r24, r30
    2058:	88 0f       	add	r24, r24
    205a:	88 0f       	add	r24, r24
    205c:	88 0f       	add	r24, r24
    205e:	8e 1b       	sub	r24, r30
    2060:	e9 2f       	mov	r30, r25
    2062:	e8 1b       	sub	r30, r24
    2064:	8e 2f       	mov	r24, r30
    2066:	ee 0f       	add	r30, r30
    2068:	99 0b       	sbc	r25, r25
    206a:	aa 0b       	sbc	r26, r26
    206c:	bb 0b       	sbc	r27, r27
    206e:	87 30       	cpi	r24, 0x07	; 7
    2070:	91 05       	cpc	r25, r1
    2072:	08 f0       	brcs	.+2      	; 0x2076 <__vector_2+0xc6>
    2074:	a2 c0       	rjmp	.+324    	; 0x21ba <__vector_2+0x20a>
    2076:	fc 01       	movw	r30, r24
    2078:	ec 5c       	subi	r30, 0xCC	; 204
    207a:	ff 4f       	sbci	r31, 0xFF	; 255
    207c:	0c 94 4a 2a 	jmp	0x5494	; 0x5494 <__tablejump2__>
		{
			case 0:	if(!change_flag)
    2080:	80 91 78 03 	lds	r24, 0x0378	; 0x800378 <change_flag>
    2084:	81 11       	cpse	r24, r1
    2086:	08 c0       	rjmp	.+16     	; 0x2098 <__vector_2+0xe8>
			{
				add_cnt = hour;
    2088:	80 91 15 04 	lds	r24, 0x0415	; 0x800415 <hour>
    208c:	80 93 12 04 	sts	0x0412, r24	; 0x800412 <add_cnt>
				change_flag = 1;
    2090:	81 e0       	ldi	r24, 0x01	; 1
    2092:	80 93 78 03 	sts	0x0378, r24	; 0x800378 <change_flag>
    2096:	91 c0       	rjmp	.+290    	; 0x21ba <__vector_2+0x20a>
			}
			else
			{
				hour = add_cnt;
    2098:	80 91 12 04 	lds	r24, 0x0412	; 0x800412 <add_cnt>
    209c:	80 93 15 04 	sts	0x0415, r24	; 0x800415 <hour>
				clock_change_mode = 1;
    20a0:	81 e0       	ldi	r24, 0x01	; 1
    20a2:	80 93 16 04 	sts	0x0416, r24	; 0x800416 <clock_change_mode>
				ModifyRTC();
    20a6:	0e 94 9a 17 	call	0x2f34	; 0x2f34 <ModifyRTC>
				change_flag = 0;
    20aa:	10 92 78 03 	sts	0x0378, r1	; 0x800378 <change_flag>
    20ae:	85 c0       	rjmp	.+266    	; 0x21ba <__vector_2+0x20a>
			}
			break;
			case 1:	if(!change_flag)
    20b0:	80 91 78 03 	lds	r24, 0x0378	; 0x800378 <change_flag>
    20b4:	81 11       	cpse	r24, r1
    20b6:	08 c0       	rjmp	.+16     	; 0x20c8 <__vector_2+0x118>
			{
				add_cnt = min;
    20b8:	80 91 17 04 	lds	r24, 0x0417	; 0x800417 <min>
    20bc:	80 93 12 04 	sts	0x0412, r24	; 0x800412 <add_cnt>
				change_flag = 1;
    20c0:	81 e0       	ldi	r24, 0x01	; 1
    20c2:	80 93 78 03 	sts	0x0378, r24	; 0x800378 <change_flag>
    20c6:	79 c0       	rjmp	.+242    	; 0x21ba <__vector_2+0x20a>
			}
			else
			{
				min = add_cnt;
    20c8:	80 91 12 04 	lds	r24, 0x0412	; 0x800412 <add_cnt>
    20cc:	80 93 17 04 	sts	0x0417, r24	; 0x800417 <min>
				clock_change_mode = 2;
    20d0:	82 e0       	ldi	r24, 0x02	; 2
    20d2:	80 93 16 04 	sts	0x0416, r24	; 0x800416 <clock_change_mode>
				ModifyRTC();
    20d6:	0e 94 9a 17 	call	0x2f34	; 0x2f34 <ModifyRTC>
				change_flag = 0;
    20da:	10 92 78 03 	sts	0x0378, r1	; 0x800378 <change_flag>
    20de:	6d c0       	rjmp	.+218    	; 0x21ba <__vector_2+0x20a>
			}
			break;
			case 2:	if(!change_flag)
    20e0:	80 91 78 03 	lds	r24, 0x0378	; 0x800378 <change_flag>
    20e4:	81 11       	cpse	r24, r1
    20e6:	08 c0       	rjmp	.+16     	; 0x20f8 <__vector_2+0x148>
			{
				add_cnt = day;
    20e8:	80 91 1a 04 	lds	r24, 0x041A	; 0x80041a <day>
    20ec:	80 93 12 04 	sts	0x0412, r24	; 0x800412 <add_cnt>
				change_flag = 1;
    20f0:	81 e0       	ldi	r24, 0x01	; 1
    20f2:	80 93 78 03 	sts	0x0378, r24	; 0x800378 <change_flag>
    20f6:	61 c0       	rjmp	.+194    	; 0x21ba <__vector_2+0x20a>
			}
			else
			{
				day = add_cnt;
    20f8:	80 91 12 04 	lds	r24, 0x0412	; 0x800412 <add_cnt>
    20fc:	80 93 1a 04 	sts	0x041A, r24	; 0x80041a <day>
				clock_change_mode = 6;
    2100:	86 e0       	ldi	r24, 0x06	; 6
    2102:	80 93 16 04 	sts	0x0416, r24	; 0x800416 <clock_change_mode>
				ModifyRTC();
    2106:	0e 94 9a 17 	call	0x2f34	; 0x2f34 <ModifyRTC>
				change_flag = 0;
    210a:	10 92 78 03 	sts	0x0378, r1	; 0x800378 <change_flag>
    210e:	55 c0       	rjmp	.+170    	; 0x21ba <__vector_2+0x20a>
			}
			break;
			case 3:	if(!change_flag)
    2110:	80 91 78 03 	lds	r24, 0x0378	; 0x800378 <change_flag>
    2114:	81 11       	cpse	r24, r1
    2116:	08 c0       	rjmp	.+16     	; 0x2128 <__vector_2+0x178>
			{
				add_cnt = date;
    2118:	80 91 1c 04 	lds	r24, 0x041C	; 0x80041c <date>
    211c:	80 93 12 04 	sts	0x0412, r24	; 0x800412 <add_cnt>
				change_flag = 1;
    2120:	81 e0       	ldi	r24, 0x01	; 1
    2122:	80 93 78 03 	sts	0x0378, r24	; 0x800378 <change_flag>
    2126:	49 c0       	rjmp	.+146    	; 0x21ba <__vector_2+0x20a>
			}
			else
			{
				date = add_cnt;
    2128:	80 91 12 04 	lds	r24, 0x0412	; 0x800412 <add_cnt>
    212c:	80 93 1c 04 	sts	0x041C, r24	; 0x80041c <date>
				clock_change_mode = 3;
    2130:	83 e0       	ldi	r24, 0x03	; 3
    2132:	80 93 16 04 	sts	0x0416, r24	; 0x800416 <clock_change_mode>
				ModifyRTC();
    2136:	0e 94 9a 17 	call	0x2f34	; 0x2f34 <ModifyRTC>
				change_flag = 0;
    213a:	10 92 78 03 	sts	0x0378, r1	; 0x800378 <change_flag>
    213e:	3d c0       	rjmp	.+122    	; 0x21ba <__vector_2+0x20a>
			}
			break;
			case 4:	if(!change_flag)
    2140:	80 91 78 03 	lds	r24, 0x0378	; 0x800378 <change_flag>
    2144:	81 11       	cpse	r24, r1
    2146:	08 c0       	rjmp	.+16     	; 0x2158 <__vector_2+0x1a8>
			{
				add_cnt = month;
    2148:	80 91 14 04 	lds	r24, 0x0414	; 0x800414 <month>
    214c:	80 93 12 04 	sts	0x0412, r24	; 0x800412 <add_cnt>
				change_flag = 1;
    2150:	81 e0       	ldi	r24, 0x01	; 1
    2152:	80 93 78 03 	sts	0x0378, r24	; 0x800378 <change_flag>
    2156:	31 c0       	rjmp	.+98     	; 0x21ba <__vector_2+0x20a>
			}
			else
			{
				month = add_cnt;
    2158:	80 91 12 04 	lds	r24, 0x0412	; 0x800412 <add_cnt>
    215c:	80 93 14 04 	sts	0x0414, r24	; 0x800414 <month>
				clock_change_mode = 4;
    2160:	84 e0       	ldi	r24, 0x04	; 4
    2162:	80 93 16 04 	sts	0x0416, r24	; 0x800416 <clock_change_mode>
				ModifyRTC();
    2166:	0e 94 9a 17 	call	0x2f34	; 0x2f34 <ModifyRTC>
				change_flag = 0;
    216a:	10 92 78 03 	sts	0x0378, r1	; 0x800378 <change_flag>
    216e:	25 c0       	rjmp	.+74     	; 0x21ba <__vector_2+0x20a>
			}
			break;
			case 5:	if(!change_flag)
    2170:	80 91 78 03 	lds	r24, 0x0378	; 0x800378 <change_flag>
    2174:	81 11       	cpse	r24, r1
    2176:	08 c0       	rjmp	.+16     	; 0x2188 <__vector_2+0x1d8>
			{
				add_cnt = year;
    2178:	80 91 18 04 	lds	r24, 0x0418	; 0x800418 <year>
    217c:	80 93 12 04 	sts	0x0412, r24	; 0x800412 <add_cnt>
				change_flag = 1;
    2180:	81 e0       	ldi	r24, 0x01	; 1
    2182:	80 93 78 03 	sts	0x0378, r24	; 0x800378 <change_flag>
    2186:	19 c0       	rjmp	.+50     	; 0x21ba <__vector_2+0x20a>
			}
			else
			{
				year = add_cnt;
    2188:	80 91 12 04 	lds	r24, 0x0412	; 0x800412 <add_cnt>
    218c:	80 93 18 04 	sts	0x0418, r24	; 0x800418 <year>
				clock_change_mode = 5;
    2190:	85 e0       	ldi	r24, 0x05	; 5
    2192:	80 93 16 04 	sts	0x0416, r24	; 0x800416 <clock_change_mode>
				ModifyRTC();
    2196:	0e 94 9a 17 	call	0x2f34	; 0x2f34 <ModifyRTC>
				change_flag = 0;
    219a:	10 92 78 03 	sts	0x0378, r1	; 0x800378 <change_flag>
    219e:	0d c0       	rjmp	.+26     	; 0x21ba <__vector_2+0x20a>
			}
			break;
			case 6:	clock_change_mode = 0;
    21a0:	10 92 16 04 	sts	0x0416, r1	; 0x800416 <clock_change_mode>
			menu_flag = 1;
    21a4:	81 e0       	ldi	r24, 0x01	; 1
    21a6:	80 93 79 03 	sts	0x0379, r24	; 0x800379 <menu_flag>
			//cnt = 1;
			break;
    21aa:	07 c0       	rjmp	.+14     	; 0x21ba <__vector_2+0x20a>
		}
		break;
		case 3: menu_flag = 1;
    21ac:	81 e0       	ldi	r24, 0x01	; 1
    21ae:	80 93 79 03 	sts	0x0379, r24	; 0x800379 <menu_flag>
		//cnt = 0;
		break;
    21b2:	03 c0       	rjmp	.+6      	; 0x21ba <__vector_2+0x20a>
		case 4: menu_flag = 1;
    21b4:	81 e0       	ldi	r24, 0x01	; 1
    21b6:	80 93 79 03 	sts	0x0379, r24	; 0x800379 <menu_flag>
		//cnt = 0;
		break;
	}
}
    21ba:	ff 91       	pop	r31
    21bc:	ef 91       	pop	r30
    21be:	bf 91       	pop	r27
    21c0:	af 91       	pop	r26
    21c2:	9f 91       	pop	r25
    21c4:	8f 91       	pop	r24
    21c6:	7f 91       	pop	r23
    21c8:	6f 91       	pop	r22
    21ca:	5f 91       	pop	r21
    21cc:	4f 91       	pop	r20
    21ce:	3f 91       	pop	r19
    21d0:	2f 91       	pop	r18
    21d2:	0f 90       	pop	r0
    21d4:	0f be       	out	0x3f, r0	; 63
    21d6:	0f 90       	pop	r0
    21d8:	1f 90       	pop	r1
    21da:	18 95       	reti

000021dc <SPI_init>:
//-------------------------------------------------------------
void SPI_init(void) //инициализация SPI
{
	DDRB |= ((1<<SS)|(1<<MOSI)|(1<<CE)|(1<<SCK)); //ножки SPI на выход
    21dc:	84 b1       	in	r24, 0x04	; 4
    21de:	8e 62       	ori	r24, 0x2E	; 46
    21e0:	84 b9       	out	0x04, r24	; 4
	PORTB &= ~((1<<SS)|(1<<MOSI)|(1<<SCK)); //низкий уровень
    21e2:	85 b1       	in	r24, 0x05	; 5
    21e4:	83 7d       	andi	r24, 0xD3	; 211
    21e6:	85 b9       	out	0x05, r24	; 5
	HIGH_CSN;
    21e8:	85 b1       	in	r24, 0x05	; 5
    21ea:	84 60       	ori	r24, 0x04	; 4
    21ec:	85 b9       	out	0x05, r24	; 5
	SPCR = ((1<<SPE)|(1<<MSTR));//включим шину, объявим ведущим
    21ee:	80 e5       	ldi	r24, 0x50	; 80
    21f0:	8c bd       	out	0x2c, r24	; 44
    21f2:	08 95       	ret

000021f4 <port_init>:
}
//-------------------------------------------------------------
void port_init(void)
{
	//инициализация ножки IRQ для внеш прерывания
	DDRD &= ~(1<<IRQ);
    21f4:	8a b1       	in	r24, 0x0a	; 10
    21f6:	8b 7f       	andi	r24, 0xFB	; 251
    21f8:	8a b9       	out	0x0a, r24	; 10
	PORTD |= (1<<IRQ);
    21fa:	8b b1       	in	r24, 0x0b	; 11
    21fc:	84 60       	ori	r24, 0x04	; 4
    21fe:	8b b9       	out	0x0b, r24	; 11
	//инициализация портов для светодиода
	DDRD |= (1 << LED);//led
    2200:	8a b1       	in	r24, 0x0a	; 10
    2202:	80 61       	ori	r24, 0x10	; 16
    2204:	8a b9       	out	0x0a, r24	; 10
	PORTD &= ~ (1 << LED);
    2206:	8b b1       	in	r24, 0x0b	; 11
    2208:	8f 7e       	andi	r24, 0xEF	; 239
    220a:	8b b9       	out	0x0b, r24	; 11
	
	//инициализация портов для LCD12864
	DDRD |= (1<<RS);//ножка RS на выход для LCD12864
    220c:	8a b1       	in	r24, 0x0a	; 10
    220e:	80 68       	ori	r24, 0x80	; 128
    2210:	8a b9       	out	0x0a, r24	; 10
	PORTD &= ~(1<<RS);
    2212:	8b b1       	in	r24, 0x0b	; 11
    2214:	8f 77       	andi	r24, 0x7F	; 127
    2216:	8b b9       	out	0x0b, r24	; 11
	DDRD |= (1<<E);
    2218:	8a b1       	in	r24, 0x0a	; 10
    221a:	80 62       	ori	r24, 0x20	; 32
    221c:	8a b9       	out	0x0a, r24	; 10
	PORTD &= ~(1<<E);
    221e:	8b b1       	in	r24, 0x0b	; 11
    2220:	8f 7d       	andi	r24, 0xDF	; 223
    2222:	8b b9       	out	0x0b, r24	; 11
	DDRD |= (1<<RW);
    2224:	8a b1       	in	r24, 0x0a	; 10
    2226:	80 64       	ori	r24, 0x40	; 64
    2228:	8a b9       	out	0x0a, r24	; 10
	PORTD &= ~(1<<RW);
    222a:	8b b1       	in	r24, 0x0b	; 11
    222c:	8f 7b       	andi	r24, 0xBF	; 191
    222e:	8b b9       	out	0x0b, r24	; 11
	//DDRB |= (1<<PSB);//ножка PSB на выход для LCD12864
	//PORTB &= ~(1<<PSB);
	
	//Инициализация для энкодера
	DDRD &= ~(1<<SW_ENC);
    2230:	8a b1       	in	r24, 0x0a	; 10
    2232:	87 7f       	andi	r24, 0xF7	; 247
    2234:	8a b9       	out	0x0a, r24	; 10
	DDRB &= ~((1<<DT_ENC)||(1<<CLK_ENC));
    2236:	84 b1       	in	r24, 0x04	; 4
    2238:	8e 7f       	andi	r24, 0xFE	; 254
    223a:	84 b9       	out	0x04, r24	; 4
	PORTD |= (1 << SW_ENC);
    223c:	8b b1       	in	r24, 0x0b	; 11
    223e:	88 60       	ori	r24, 0x08	; 8
    2240:	8b b9       	out	0x0b, r24	; 11
	PORTB &= ~((1 << DT_ENC)|(1 << CLK_ENC));
    2242:	85 b1       	in	r24, 0x05	; 5
    2244:	8f 73       	andi	r24, 0x3F	; 63
    2246:	85 b9       	out	0x05, r24	; 5
    2248:	08 95       	ret

0000224a <spi_send_recv>:
	 DDRC|=(1<<MOSI_SD)|(1<<SCK_SD);*/
} 
//-------------------------------------------------------------
uint8_t spi_send_recv(uint8_t data) // Передаёт и принимает 1 байт по SPI, возвращает полученное значение
{
	SPDR = data;
    224a:	8e bd       	out	0x2e, r24	; 46
	while (!(SPSR & (1 << SPIF)));
    224c:	0d b4       	in	r0, 0x2d	; 45
    224e:	07 fe       	sbrs	r0, 7
    2250:	fd cf       	rjmp	.-6      	; 0x224c <spi_send_recv+0x2>
	return SPDR;
    2252:	8e b5       	in	r24, 0x2e	; 46
}
    2254:	08 95       	ret

00002256 <main>:
//-------------------------------------------------------------
int main(void)
{	
	//настрока WDT
	//wdt_reset();
	WDTCSR &= ~(1<<WDE);
    2256:	e0 e6       	ldi	r30, 0x60	; 96
    2258:	f0 e0       	ldi	r31, 0x00	; 0
    225a:	80 81       	ld	r24, Z
    225c:	87 7f       	andi	r24, 0xF7	; 247
    225e:	80 83       	st	Z, r24
				: "r0"
		);
	}
	else
	{
		__asm__ __volatile__ (
    2260:	99 e2       	ldi	r25, 0x29	; 41
    2262:	88 e1       	ldi	r24, 0x18	; 24
    2264:	0f b6       	in	r0, 0x3f	; 63
    2266:	f8 94       	cli
    2268:	a8 95       	wdr
    226a:	80 93 60 00 	sts	0x0060, r24	; 0x800060 <__TEXT_REGION_LENGTH__+0x7f8060>
    226e:	0f be       	out	0x3f, r0	; 63
    2270:	90 93 60 00 	sts	0x0060, r25	; 0x800060 <__TEXT_REGION_LENGTH__+0x7f8060>
	//WDTCSR |= (1<<WDP2)|(1<<WDP1)|(1<<WDP0);
	//ACSR |= (1<<ACD);
	//включаем Watchdog на 8с
	wdt_enable(WDTO_8S);
	
	port_init();
    2274:	0e 94 fa 10 	call	0x21f4	; 0x21f4 <port_init>
	PORTD |= (1<<LED);
    2278:	8b b1       	in	r24, 0x0b	; 11
    227a:	80 61       	ori	r24, 0x10	; 16
    227c:	8b b9       	out	0x0b, r24	; 11
	//Инициализация интерфейсов
	SPI_init();
    227e:	0e 94 ee 10 	call	0x21dc	; 0x21dc <SPI_init>
	I2C_Init();
    2282:	0e 94 6a 18 	call	0x30d4	; 0x30d4 <I2C_Init>
	USART_Init(8);    //Инициализация модуля USART скорость 115200	
    2286:	88 e0       	ldi	r24, 0x08	; 8
    2288:	90 e0       	ldi	r25, 0x00	; 0
    228a:	0e 94 98 18 	call	0x3130	; 0x3130 <USART_Init>
	LCD_12864_ini();
    228e:	0e 94 75 09 	call	0x12ea	; 0x12ea <LCD_12864_ini>
	/*LCD_12864_GrapnicMode(1);
	LCD_12864_Clean_Frame_buffer();
	LCD_12864_Draw_bitmap(Frame_buffer);
	LCD_12864_GrapnicMode(0);*/
	//Вывод приветствия
	Print_Hello_World();
    2292:	0e 94 d0 18 	call	0x31a0	; 0x31a0 <Print_Hello_World>
	wdt_reset();
    2296:	a8 95       	wdr
	//Инициализация оборудования
	NRF24_ini();
    2298:	0e 94 1f 17 	call	0x2e3e	; 0x2e3e <NRF24_ini>
	RTC_init();
    229c:	0e 94 89 17 	call	0x2f12	; 0x2f12 <RTC_init>
	dht22_init();
    22a0:	0e 94 89 06 	call	0xd12	; 0xd12 <dht22_init>
	BMP180_Calibration();
    22a4:	0e 94 34 04 	call	0x868	; 0x868 <BMP180_Calibration>
	wdt_reset();
    22a8:	a8 95       	wdr
	// Установка времени для DS3231(делается 1 разv)
	//RTC_write_time(13, 30, 0);
	//RTC_write_date(2, 28, 6, 22);
	//Вывод окна загрузки
	Print_Download();
    22aa:	0e 94 14 19 	call	0x3228	; 0x3228 <Print_Download>
	wdt_reset();
    22ae:	a8 95       	wdr
	PORTD &= ~(1<<LED);
    22b0:	8b b1       	in	r24, 0x0b	; 11
    22b2:	8f 7e       	andi	r24, 0xEF	; 239
    22b4:	8b b9       	out	0x0b, r24	; 11
	//Инициализация таймеров и прерываний
	//timer2_ini();
	timer1_ini();
    22b6:	0e 94 bc 0e 	call	0x1d78	; 0x1d78 <timer1_ini>
	timer0_ini();
    22ba:	0e 94 d0 0e 	call	0x1da0	; 0x1da0 <timer0_ini>
	// настраиваем параметры прерывания
	EICRA |= (1<<ISC01) | (0<<ISC00);
    22be:	e9 e6       	ldi	r30, 0x69	; 105
    22c0:	f0 e0       	ldi	r31, 0x00	; 0
    22c2:	80 81       	ld	r24, Z
    22c4:	82 60       	ori	r24, 0x02	; 2
    22c6:	80 83       	st	Z, r24
	EIMSK |= (1<<INT0);
    22c8:	8d b3       	in	r24, 0x1d	; 29
    22ca:	81 60       	ori	r24, 0x01	; 1
    22cc:	8d bb       	out	0x1d, r24	; 29
	enc_interrupt_ini();
    22ce:	0e 94 cf 0f 	call	0x1f9e	; 0x1f9e <enc_interrupt_ini>
	// и разрешаем его глобально
	sei();
    22d2:	78 94       	sei
	//Начальная конфигурация
	strcpy(temp_street_to_DB,"NULL");
    22d4:	85 e0       	ldi	r24, 0x05	; 5
    22d6:	ee e2       	ldi	r30, 0x2E	; 46
    22d8:	f1 e0       	ldi	r31, 0x01	; 1
    22da:	ac e3       	ldi	r26, 0x3C	; 60
    22dc:	b4 e0       	ldi	r27, 0x04	; 4
    22de:	01 90       	ld	r0, Z+
    22e0:	0d 92       	st	X+, r0
    22e2:	8a 95       	dec	r24
    22e4:	e1 f7       	brne	.-8      	; 0x22de <main+0x88>
	strcpy(hum_street_to_DB,"NULL");
    22e6:	85 e0       	ldi	r24, 0x05	; 5
    22e8:	ee e2       	ldi	r30, 0x2E	; 46
    22ea:	f1 e0       	ldi	r31, 0x01	; 1
    22ec:	a9 e8       	ldi	r26, 0x89	; 137
    22ee:	b4 e0       	ldi	r27, 0x04	; 4
    22f0:	01 90       	ld	r0, Z+
    22f2:	0d 92       	st	X+, r0
    22f4:	8a 95       	dec	r24
    22f6:	e1 f7       	brne	.-8      	; 0x22f0 <main+0x9a>
	strcpy(WIND_speed_to_DB,"NULL");
    22f8:	85 e0       	ldi	r24, 0x05	; 5
    22fa:	ee e2       	ldi	r30, 0x2E	; 46
    22fc:	f1 e0       	ldi	r31, 0x01	; 1
    22fe:	a4 e8       	ldi	r26, 0x84	; 132
    2300:	b4 e0       	ldi	r27, 0x04	; 4
    2302:	01 90       	ld	r0, Z+
    2304:	0d 92       	st	X+, r0
    2306:	8a 95       	dec	r24
    2308:	e1 f7       	brne	.-8      	; 0x2302 <main+0xac>
	strcpy(wind_direction_to_DB,"NULL");
    230a:	0e e8       	ldi	r16, 0x8E	; 142
    230c:	14 e0       	ldi	r17, 0x04	; 4
    230e:	85 e0       	ldi	r24, 0x05	; 5
    2310:	ee e2       	ldi	r30, 0x2E	; 46
    2312:	f1 e0       	ldi	r31, 0x01	; 1
    2314:	d8 01       	movw	r26, r16
    2316:	01 90       	ld	r0, Z+
    2318:	0d 92       	st	X+, r0
    231a:	8a 95       	dec	r24
    231c:	e1 f7       	brne	.-8      	; 0x2316 <main+0xc0>
	strcpy(Vbat_to_DB,"NULL");
    231e:	85 e0       	ldi	r24, 0x05	; 5
    2320:	ee e2       	ldi	r30, 0x2E	; 46
    2322:	f1 e0       	ldi	r31, 0x01	; 1
    2324:	a7 e3       	ldi	r26, 0x37	; 55
    2326:	b4 e0       	ldi	r27, 0x04	; 4
    2328:	01 90       	ld	r0, Z+
    232a:	0d 92       	st	X+, r0
    232c:	8a 95       	dec	r24
    232e:	e1 f7       	brne	.-8      	; 0x2328 <main+0xd2>
	strcpy(Rain_to_DB,"NULL");
    2330:	0f 2e       	mov	r0, r31
    2332:	f3 e6       	ldi	r31, 0x63	; 99
    2334:	cf 2e       	mov	r12, r31
    2336:	f4 e0       	ldi	r31, 0x04	; 4
    2338:	df 2e       	mov	r13, r31
    233a:	f0 2d       	mov	r31, r0
    233c:	85 e0       	ldi	r24, 0x05	; 5
    233e:	ee e2       	ldi	r30, 0x2E	; 46
    2340:	f1 e0       	ldi	r31, 0x01	; 1
    2342:	d6 01       	movw	r26, r12
    2344:	01 90       	ld	r0, Z+
    2346:	0d 92       	st	X+, r0
    2348:	8a 95       	dec	r24
    234a:	e1 f7       	brne	.-8      	; 0x2344 <main+0xee>
	temp_street[0] = '0';
    234c:	ee e7       	ldi	r30, 0x7E	; 126
    234e:	f4 e0       	ldi	r31, 0x04	; 4
    2350:	80 e3       	ldi	r24, 0x30	; 48
    2352:	80 83       	st	Z, r24
	temp_street[1] = '0';
    2354:	81 83       	std	Z+1, r24	; 0x01
	temp_street[2] = '.';
    2356:	9e e2       	ldi	r25, 0x2E	; 46
    2358:	92 83       	std	Z+2, r25	; 0x02
	temp_street[3] = '0';
    235a:	83 83       	std	Z+3, r24	; 0x03
	hum_street[0] = '0';
    235c:	e3 e7       	ldi	r30, 0x73	; 115
    235e:	f4 e0       	ldi	r31, 0x04	; 4
    2360:	80 83       	st	Z, r24
	hum_street[1] = '0';
    2362:	81 83       	std	Z+1, r24	; 0x01
	Vbat[0] = '0';
    2364:	e9 e6       	ldi	r30, 0x69	; 105
    2366:	f4 e0       	ldi	r31, 0x04	; 4
    2368:	80 83       	st	Z, r24
	Vbat[1] = '.';
    236a:	91 83       	std	Z+1, r25	; 0x01
	Vbat[2] = '0';
    236c:	82 83       	std	Z+2, r24	; 0x02
	Vbat[3] = '0';
    236e:	83 83       	std	Z+3, r24	; 0x03
	temp_home[0] = '0';
    2370:	cb e2       	ldi	r28, 0x2B	; 43
    2372:	d4 e0       	ldi	r29, 0x04	; 4
    2374:	88 83       	st	Y, r24
	temp_home[1] = '0';
    2376:	89 83       	std	Y+1, r24	; 0x01
	temp_home[2] = '.';
    2378:	9a 83       	std	Y+2, r25	; 0x02
	temp_home[3] = '0';
    237a:	8b 83       	std	Y+3, r24	; 0x03
	hum_home[0] = '0';
    237c:	0f 2e       	mov	r0, r31
    237e:	fe e6       	ldi	r31, 0x6E	; 110
    2380:	ef 2e       	mov	r14, r31
    2382:	f4 e0       	ldi	r31, 0x04	; 4
    2384:	ff 2e       	mov	r15, r31
    2386:	f0 2d       	mov	r31, r0
    2388:	f7 01       	movw	r30, r14
    238a:	80 83       	st	Z, r24
	hum_home[1] = '0';
    238c:	81 83       	std	Z+1, r24	; 0x01
	WIND_speed[0] = '0';
    238e:	e4 e9       	ldi	r30, 0x94	; 148
    2390:	f4 e0       	ldi	r31, 0x04	; 4
    2392:	80 83       	st	Z, r24
	WIND_speed[1] = '.';
    2394:	91 83       	std	Z+1, r25	; 0x01
	WIND_speed[2] = '0';
    2396:	82 83       	std	Z+2, r24	; 0x02
	WIND_speed[3] = '0';
    2398:	83 83       	std	Z+3, r24	; 0x03
	Press_home[0] = '0';
    239a:	0f 2e       	mov	r0, r31
    239c:	f8 e7       	ldi	r31, 0x78	; 120
    239e:	af 2e       	mov	r10, r31
    23a0:	f4 e0       	ldi	r31, 0x04	; 4
    23a2:	bf 2e       	mov	r11, r31
    23a4:	f0 2d       	mov	r31, r0
    23a6:	f5 01       	movw	r30, r10
    23a8:	80 83       	st	Z, r24
	wind_direction[0] = '-';
    23aa:	8d e2       	ldi	r24, 0x2D	; 45
    23ac:	80 93 31 04 	sts	0x0431, r24	; 0x800431 <wind_direction>
	Rain[0] = '-';
    23b0:	80 93 41 04 	sts	0x0441, r24	; 0x800441 <Rain>
	//Фиксация времени начала работы
	Clock ();
    23b4:	0e 94 f1 23 	call	0x47e2	; 0x47e2 <Clock>
	sprintf(start_time,"%s:%s:%s,%s/%s/%s", T_Param.hours, T_Param.minutes, T_Param.seconds, T_Param.mounthday, T_Param.Mounth, T_Param.Year);
    23b8:	8f e5       	ldi	r24, 0x5F	; 95
    23ba:	94 e0       	ldi	r25, 0x04	; 4
    23bc:	9f 93       	push	r25
    23be:	8f 93       	push	r24
    23c0:	8b e5       	ldi	r24, 0x5B	; 91
    23c2:	94 e0       	ldi	r25, 0x04	; 4
    23c4:	9f 93       	push	r25
    23c6:	8f 93       	push	r24
    23c8:	87 e5       	ldi	r24, 0x57	; 87
    23ca:	94 e0       	ldi	r25, 0x04	; 4
    23cc:	9f 93       	push	r25
    23ce:	8f 93       	push	r24
    23d0:	8f e4       	ldi	r24, 0x4F	; 79
    23d2:	94 e0       	ldi	r25, 0x04	; 4
    23d4:	9f 93       	push	r25
    23d6:	8f 93       	push	r24
    23d8:	8b e4       	ldi	r24, 0x4B	; 75
    23da:	94 e0       	ldi	r25, 0x04	; 4
    23dc:	9f 93       	push	r25
    23de:	8f 93       	push	r24
    23e0:	87 e4       	ldi	r24, 0x47	; 71
    23e2:	94 e0       	ldi	r25, 0x04	; 4
    23e4:	9f 93       	push	r25
    23e6:	8f 93       	push	r24
    23e8:	83 e3       	ldi	r24, 0x33	; 51
    23ea:	91 e0       	ldi	r25, 0x01	; 1
    23ec:	9f 93       	push	r25
    23ee:	8f 93       	push	r24
    23f0:	8a ec       	ldi	r24, 0xCA	; 202
    23f2:	93 e0       	ldi	r25, 0x03	; 3
    23f4:	9f 93       	push	r25
    23f6:	8f 93       	push	r24
    23f8:	0e 94 a1 2a 	call	0x5542	; 0x5542 <sprintf>
	//первоначальная отправка данных в БД
	Clock ();
    23fc:	0e 94 f1 23 	call	0x47e2	; 0x47e2 <Clock>
	//sprintf(send_time,"%d:%d:%d,%d/%d/%d", hour, min, sec, date, month, year);
	sprintf_HOME_Weath_Param();
    2400:	0e 94 3e 28 	call	0x507c	; 0x507c <sprintf_HOME_Weath_Param>
	//отправка строки по UART в формате: ул.темп./дом.темп./ул.влажность/дом.влажн./давление/осадки/заряд АКБ/скор.ветра/направл.ветра
	sprintf(DATA_TO_UART,"%s %s %s %s %s %s %s %s %s %s ", temp_street_to_DB, temp_home, hum_street_to_DB, hum_home, Press_home, Rain_to_DB, Vbat_to_DB, WIND_speed_to_DB, wind_direction_to_DB, send_time);
    2404:	83 e0       	ldi	r24, 0x03	; 3
    2406:	91 e0       	ldi	r25, 0x01	; 1
    2408:	9f 93       	push	r25
    240a:	8f 93       	push	r24
    240c:	1f 93       	push	r17
    240e:	0f 93       	push	r16
    2410:	84 e8       	ldi	r24, 0x84	; 132
    2412:	94 e0       	ldi	r25, 0x04	; 4
    2414:	9f 93       	push	r25
    2416:	8f 93       	push	r24
    2418:	87 e3       	ldi	r24, 0x37	; 55
    241a:	94 e0       	ldi	r25, 0x04	; 4
    241c:	9f 93       	push	r25
    241e:	8f 93       	push	r24
    2420:	df 92       	push	r13
    2422:	cf 92       	push	r12
    2424:	bf 92       	push	r11
    2426:	af 92       	push	r10
    2428:	ff 92       	push	r15
    242a:	ef 92       	push	r14
    242c:	89 e8       	ldi	r24, 0x89	; 137
    242e:	94 e0       	ldi	r25, 0x04	; 4
    2430:	9f 93       	push	r25
    2432:	8f 93       	push	r24
    2434:	df 93       	push	r29
    2436:	cf 93       	push	r28
    2438:	8c e3       	ldi	r24, 0x3C	; 60
    243a:	94 e0       	ldi	r25, 0x04	; 4
    243c:	9f 93       	push	r25
    243e:	8f 93       	push	r24
    2440:	85 e4       	ldi	r24, 0x45	; 69
    2442:	91 e0       	ldi	r25, 0x01	; 1
    2444:	9f 93       	push	r25
    2446:	8f 93       	push	r24
    2448:	ca e7       	ldi	r28, 0x7A	; 122
    244a:	d3 e0       	ldi	r29, 0x03	; 3
    244c:	df 93       	push	r29
    244e:	cf 93       	push	r28
    2450:	0e 94 a1 2a 	call	0x5542	; 0x5542 <sprintf>
	//UCSR0B &= ~(1<<RXCIE0);
	//USART_Transmit(DATA_TO_UART);
	memset(DATA_TO_UART, 0, sizeof(char) * strlen(DATA_TO_UART));//очистка массива
    2454:	09 90       	ld	r0, Y+
    2456:	00 20       	and	r0, r0
    2458:	e9 f7       	brne	.-6      	; 0x2454 <main+0x1fe>
    245a:	21 97       	sbiw	r28, 0x01	; 1
    245c:	ae 01       	movw	r20, r28
    245e:	4a 57       	subi	r20, 0x7A	; 122
    2460:	53 40       	sbci	r21, 0x03	; 3
    2462:	8d b7       	in	r24, 0x3d	; 61
    2464:	9e b7       	in	r25, 0x3e	; 62
    2466:	88 96       	adiw	r24, 0x28	; 40
    2468:	0f b6       	in	r0, 0x3f	; 63
    246a:	f8 94       	cli
    246c:	9e bf       	out	0x3e, r25	; 62
    246e:	0f be       	out	0x3f, r0	; 63
    2470:	8d bf       	out	0x3d, r24	; 61
    2472:	60 e0       	ldi	r22, 0x00	; 0
    2474:	70 e0       	ldi	r23, 0x00	; 0
    2476:	8a e7       	ldi	r24, 0x7A	; 122
    2478:	93 e0       	ldi	r25, 0x03	; 3
    247a:	0e 94 86 2a 	call	0x550c	; 0x550c <memset>
	
    while (1) 
    {
		//прием данных от передатчика
		if (rx_flag == 1)
    247e:	80 91 de 03 	lds	r24, 0x03DE	; 0x8003de <rx_flag>
    2482:	81 30       	cpi	r24, 0x01	; 1
    2484:	09 f0       	breq	.+2      	; 0x2488 <main+0x232>
    2486:	40 c0       	rjmp	.+128    	; 0x2508 <main+0x2b2>
    2488:	e7 e5       	ldi	r30, 0x57	; 87
    248a:	f2 e0       	ldi	r31, 0x02	; 2
    248c:	31 97       	sbiw	r30, 0x01	; 1
    248e:	f1 f7       	brne	.-4      	; 0x248c <main+0x236>
    2490:	00 c0       	rjmp	.+0      	; 0x2492 <main+0x23c>
    2492:	00 00       	nop
		{
			_delay_us(300);
			PORTD |= (1<<LED);
    2494:	8b b1       	in	r24, 0x0b	; 11
    2496:	80 61       	ori	r24, 0x10	; 16
    2498:	8b b9       	out	0x0b, r24	; 11
    249a:	87 e5       	ldi	r24, 0x57	; 87
    249c:	92 e0       	ldi	r25, 0x02	; 2
    249e:	01 97       	sbiw	r24, 0x01	; 1
    24a0:	f1 f7       	brne	.-4      	; 0x249e <main+0x248>
    24a2:	00 c0       	rjmp	.+0      	; 0x24a4 <main+0x24e>
    24a4:	00 00       	nop
			_delay_us(300);
			PORTD &= ~(1<<LED);
    24a6:	8b b1       	in	r24, 0x0b	; 11
    24a8:	8f 7e       	andi	r24, 0xEF	; 239
    24aa:	8b b9       	out	0x0b, r24	; 11
			NRF24L01_Receive();
    24ac:	0e 94 46 13 	call	0x268c	; 0x268c <NRF24L01_Receive>
			Clock ();
    24b0:	0e 94 f1 23 	call	0x47e2	; 0x47e2 <Clock>
			sprintf(receive_time,"%s:%s:%s,%s/%s/%s", T_Param.hours, T_Param.minutes, T_Param.seconds, T_Param.mounthday, T_Param.Mounth, T_Param.Year);
    24b4:	8f e5       	ldi	r24, 0x5F	; 95
    24b6:	94 e0       	ldi	r25, 0x04	; 4
    24b8:	9f 93       	push	r25
    24ba:	8f 93       	push	r24
    24bc:	8b e5       	ldi	r24, 0x5B	; 91
    24be:	94 e0       	ldi	r25, 0x04	; 4
    24c0:	9f 93       	push	r25
    24c2:	8f 93       	push	r24
    24c4:	87 e5       	ldi	r24, 0x57	; 87
    24c6:	94 e0       	ldi	r25, 0x04	; 4
    24c8:	9f 93       	push	r25
    24ca:	8f 93       	push	r24
    24cc:	8f e4       	ldi	r24, 0x4F	; 79
    24ce:	94 e0       	ldi	r25, 0x04	; 4
    24d0:	9f 93       	push	r25
    24d2:	8f 93       	push	r24
    24d4:	8b e4       	ldi	r24, 0x4B	; 75
    24d6:	94 e0       	ldi	r25, 0x04	; 4
    24d8:	9f 93       	push	r25
    24da:	8f 93       	push	r24
    24dc:	87 e4       	ldi	r24, 0x47	; 71
    24de:	94 e0       	ldi	r25, 0x04	; 4
    24e0:	9f 93       	push	r25
    24e2:	8f 93       	push	r24
    24e4:	83 e3       	ldi	r24, 0x33	; 51
    24e6:	91 e0       	ldi	r25, 0x01	; 1
    24e8:	9f 93       	push	r25
    24ea:	8f 93       	push	r24
    24ec:	87 e1       	ldi	r24, 0x17	; 23
    24ee:	91 e0       	ldi	r25, 0x01	; 1
    24f0:	9f 93       	push	r25
    24f2:	8f 93       	push	r24
    24f4:	0e 94 a1 2a 	call	0x5542	; 0x5542 <sprintf>
    24f8:	ed b7       	in	r30, 0x3d	; 61
    24fa:	fe b7       	in	r31, 0x3e	; 62
    24fc:	70 96       	adiw	r30, 0x10	; 16
    24fe:	0f b6       	in	r0, 0x3f	; 63
    2500:	f8 94       	cli
    2502:	fe bf       	out	0x3e, r31	; 62
    2504:	0f be       	out	0x3f, r0	; 63
    2506:	ed bf       	out	0x3d, r30	; 61
		}
		//отправка данных в БД
		 if(millis >= 300000)
    2508:	c0 90 74 03 	lds	r12, 0x0374	; 0x800374 <millis>
    250c:	d0 90 75 03 	lds	r13, 0x0375	; 0x800375 <millis+0x1>
    2510:	e0 90 76 03 	lds	r14, 0x0376	; 0x800376 <millis+0x2>
    2514:	f0 90 77 03 	lds	r15, 0x0377	; 0x800377 <millis+0x3>
    2518:	f0 ee       	ldi	r31, 0xE0	; 224
    251a:	cf 16       	cp	r12, r31
    251c:	f3 e9       	ldi	r31, 0x93	; 147
    251e:	df 06       	cpc	r13, r31
    2520:	f4 e0       	ldi	r31, 0x04	; 4
    2522:	ef 06       	cpc	r14, r31
    2524:	f1 04       	cpc	r15, r1
    2526:	0c f4       	brge	.+2      	; 0x252a <main+0x2d4>
    2528:	77 c0       	rjmp	.+238    	; 0x2618 <main+0x3c2>
 		{
			Clock ();
    252a:	0e 94 f1 23 	call	0x47e2	; 0x47e2 <Clock>
			sprintf(send_time,"%d:%d:%d,%d/%d/%d", hour, min, sec, date, month, year);
    252e:	80 91 18 04 	lds	r24, 0x0418	; 0x800418 <year>
    2532:	1f 92       	push	r1
    2534:	8f 93       	push	r24
    2536:	80 91 14 04 	lds	r24, 0x0414	; 0x800414 <month>
    253a:	1f 92       	push	r1
    253c:	8f 93       	push	r24
    253e:	80 91 1c 04 	lds	r24, 0x041C	; 0x80041c <date>
    2542:	1f 92       	push	r1
    2544:	8f 93       	push	r24
    2546:	80 91 19 04 	lds	r24, 0x0419	; 0x800419 <sec>
    254a:	1f 92       	push	r1
    254c:	8f 93       	push	r24
    254e:	80 91 17 04 	lds	r24, 0x0417	; 0x800417 <min>
    2552:	1f 92       	push	r1
    2554:	8f 93       	push	r24
    2556:	80 91 15 04 	lds	r24, 0x0415	; 0x800415 <hour>
    255a:	1f 92       	push	r1
    255c:	8f 93       	push	r24
    255e:	84 e6       	ldi	r24, 0x64	; 100
    2560:	91 e0       	ldi	r25, 0x01	; 1
    2562:	9f 93       	push	r25
    2564:	8f 93       	push	r24
    2566:	c3 e0       	ldi	r28, 0x03	; 3
    2568:	d1 e0       	ldi	r29, 0x01	; 1
    256a:	df 93       	push	r29
    256c:	cf 93       	push	r28
    256e:	0e 94 a1 2a 	call	0x5542	; 0x5542 <sprintf>
		    sprintf_HOME_Weath_Param();
    2572:	0e 94 3e 28 	call	0x507c	; 0x507c <sprintf_HOME_Weath_Param>
			//отправка строки по UART в формате: ул.темп./дом.темп./ул.влажность/дом.влажн./давление/осадки/заряд АКБ/скор.ветра/направл.ветра
			sprintf(DATA_TO_UART,"%s %s %s %s %s %s %s %s %s %s ", temp_street_to_DB, temp_home, hum_street_to_DB, hum_home, Press_home, Rain_to_DB, Vbat_to_DB, WIND_speed_to_DB, wind_direction_to_DB, send_time);
    2576:	df 93       	push	r29
    2578:	cf 93       	push	r28
    257a:	8e e8       	ldi	r24, 0x8E	; 142
    257c:	94 e0       	ldi	r25, 0x04	; 4
    257e:	9f 93       	push	r25
    2580:	8f 93       	push	r24
    2582:	84 e8       	ldi	r24, 0x84	; 132
    2584:	94 e0       	ldi	r25, 0x04	; 4
    2586:	9f 93       	push	r25
    2588:	8f 93       	push	r24
    258a:	87 e3       	ldi	r24, 0x37	; 55
    258c:	94 e0       	ldi	r25, 0x04	; 4
    258e:	9f 93       	push	r25
    2590:	8f 93       	push	r24
    2592:	83 e6       	ldi	r24, 0x63	; 99
    2594:	94 e0       	ldi	r25, 0x04	; 4
    2596:	9f 93       	push	r25
    2598:	8f 93       	push	r24
    259a:	88 e7       	ldi	r24, 0x78	; 120
    259c:	94 e0       	ldi	r25, 0x04	; 4
    259e:	9f 93       	push	r25
    25a0:	8f 93       	push	r24
    25a2:	8e e6       	ldi	r24, 0x6E	; 110
    25a4:	94 e0       	ldi	r25, 0x04	; 4
    25a6:	9f 93       	push	r25
    25a8:	8f 93       	push	r24
    25aa:	89 e8       	ldi	r24, 0x89	; 137
    25ac:	94 e0       	ldi	r25, 0x04	; 4
    25ae:	9f 93       	push	r25
    25b0:	8f 93       	push	r24
    25b2:	8b e2       	ldi	r24, 0x2B	; 43
    25b4:	94 e0       	ldi	r25, 0x04	; 4
    25b6:	9f 93       	push	r25
    25b8:	8f 93       	push	r24
    25ba:	8c e3       	ldi	r24, 0x3C	; 60
    25bc:	94 e0       	ldi	r25, 0x04	; 4
    25be:	9f 93       	push	r25
    25c0:	8f 93       	push	r24
    25c2:	85 e4       	ldi	r24, 0x45	; 69
    25c4:	91 e0       	ldi	r25, 0x01	; 1
    25c6:	9f 93       	push	r25
    25c8:	8f 93       	push	r24
    25ca:	ca e7       	ldi	r28, 0x7A	; 122
    25cc:	d3 e0       	ldi	r29, 0x03	; 3
    25ce:	df 93       	push	r29
    25d0:	cf 93       	push	r28
    25d2:	0e 94 a1 2a 	call	0x5542	; 0x5542 <sprintf>
			//UCSR0B &= ~(1<<RXCIE0); 
			USART_Transmit(DATA_TO_UART);
    25d6:	ed b7       	in	r30, 0x3d	; 61
    25d8:	fe b7       	in	r31, 0x3e	; 62
    25da:	b8 96       	adiw	r30, 0x28	; 40
    25dc:	0f b6       	in	r0, 0x3f	; 63
    25de:	f8 94       	cli
    25e0:	fe bf       	out	0x3e, r31	; 62
    25e2:	0f be       	out	0x3f, r0	; 63
    25e4:	ed bf       	out	0x3d, r30	; 61
    25e6:	ce 01       	movw	r24, r28
    25e8:	0e 94 ac 18 	call	0x3158	; 0x3158 <USART_Transmit>
			memset(DATA_TO_UART, 0, sizeof(char) * strlen(DATA_TO_UART));//очистка массива
    25ec:	09 90       	ld	r0, Y+
    25ee:	00 20       	and	r0, r0
    25f0:	e9 f7       	brne	.-6      	; 0x25ec <main+0x396>
    25f2:	21 97       	sbiw	r28, 0x01	; 1
    25f4:	ae 01       	movw	r20, r28
    25f6:	4a 57       	subi	r20, 0x7A	; 122
    25f8:	53 40       	sbci	r21, 0x03	; 3
    25fa:	60 e0       	ldi	r22, 0x00	; 0
    25fc:	70 e0       	ldi	r23, 0x00	; 0
    25fe:	8a e7       	ldi	r24, 0x7A	; 122
    2600:	93 e0       	ldi	r25, 0x03	; 3
    2602:	0e 94 86 2a 	call	0x550c	; 0x550c <memset>
			//timer1_flag = 0;
			millis = 0;
    2606:	10 92 74 03 	sts	0x0374, r1	; 0x800374 <millis>
    260a:	10 92 75 03 	sts	0x0375, r1	; 0x800375 <millis+0x1>
    260e:	10 92 76 03 	sts	0x0376, r1	; 0x800376 <millis+0x2>
    2612:	10 92 77 03 	sts	0x0377, r1	; 0x800377 <millis+0x3>
    2616:	38 c0       	rjmp	.+112    	; 0x2688 <main+0x432>
				WiFi_Flag = 0;
				UCSR0B |= (1<<RXCIE0); //Разрешаем прерывание при приеме
			}*/
		}
		//обновление домашних показаний
		else if ((millis % 3000) == 0)
    2618:	c7 01       	movw	r24, r14
    261a:	b6 01       	movw	r22, r12
    261c:	28 eb       	ldi	r18, 0xB8	; 184
    261e:	3b e0       	ldi	r19, 0x0B	; 11
    2620:	40 e0       	ldi	r20, 0x00	; 0
    2622:	50 e0       	ldi	r21, 0x00	; 0
    2624:	0e 94 2b 2a 	call	0x5456	; 0x5456 <__divmodsi4>
    2628:	67 2b       	or	r22, r23
    262a:	68 2b       	or	r22, r24
    262c:	69 2b       	or	r22, r25
    262e:	19 f4       	brne	.+6      	; 0x2636 <main+0x3e0>
		{
			sprintf_HOME_Weath_Param();
    2630:	0e 94 3e 28 	call	0x507c	; 0x507c <sprintf_HOME_Weath_Param>
    2634:	29 c0       	rjmp	.+82     	; 0x2688 <main+0x432>
		}
		//обновление изображения на дисплее
		else if((millis % 50) == 0)
    2636:	c7 01       	movw	r24, r14
    2638:	b6 01       	movw	r22, r12
    263a:	22 e3       	ldi	r18, 0x32	; 50
    263c:	30 e0       	ldi	r19, 0x00	; 0
    263e:	40 e0       	ldi	r20, 0x00	; 0
    2640:	50 e0       	ldi	r21, 0x00	; 0
    2642:	0e 94 2b 2a 	call	0x5456	; 0x5456 <__divmodsi4>
    2646:	67 2b       	or	r22, r23
    2648:	68 2b       	or	r22, r24
    264a:	69 2b       	or	r22, r25
    264c:	e9 f4       	brne	.+58     	; 0x2688 <main+0x432>
		{
			switch (menu_flag)
    264e:	80 91 79 03 	lds	r24, 0x0379	; 0x800379 <menu_flag>
    2652:	82 30       	cpi	r24, 0x02	; 2
    2654:	89 f0       	breq	.+34     	; 0x2678 <main+0x422>
    2656:	28 f4       	brcc	.+10     	; 0x2662 <main+0x40c>
    2658:	88 23       	and	r24, r24
    265a:	41 f0       	breq	.+16     	; 0x266c <main+0x416>
    265c:	81 30       	cpi	r24, 0x01	; 1
    265e:	49 f0       	breq	.+18     	; 0x2672 <main+0x41c>
    2660:	13 c0       	rjmp	.+38     	; 0x2688 <main+0x432>
    2662:	83 30       	cpi	r24, 0x03	; 3
    2664:	61 f0       	breq	.+24     	; 0x267e <main+0x428>
    2666:	84 30       	cpi	r24, 0x04	; 4
    2668:	69 f0       	breq	.+26     	; 0x2684 <main+0x42e>
    266a:	0e c0       	rjmp	.+28     	; 0x2688 <main+0x432>
			{
				case 0:	Print_Home_Page();
    266c:	0e 94 7d 25 	call	0x4afa	; 0x4afa <Print_Home_Page>
				break;
    2670:	0b c0       	rjmp	.+22     	; 0x2688 <main+0x432>
				case 1:	Print_Menu_Page();
    2672:	0e 94 84 19 	call	0x3308	; 0x3308 <Print_Menu_Page>
				break;
    2676:	08 c0       	rjmp	.+16     	; 0x2688 <main+0x432>
				case 2:	Print_Page_Clock_Settings();
    2678:	0e 94 9a 21 	call	0x4334	; 0x4334 <Print_Page_Clock_Settings>
				break;
    267c:	05 c0       	rjmp	.+10     	; 0x2688 <main+0x432>
				case 3:	Print_Page_About();
    267e:	0e 94 5e 1a 	call	0x34bc	; 0x34bc <Print_Page_About>
				break;
    2682:	02 c0       	rjmp	.+4      	; 0x2688 <main+0x432>
				case 4:	Print_Page_Dop_Info();
    2684:	0e 94 d2 1a 	call	0x35a4	; 0x35a4 <Print_Page_Dop_Info>
				break;
			}
			//timer2_flag = 0;
		}
		wdt_reset();
    2688:	a8 95       	wdr
    }
    268a:	f9 ce       	rjmp	.-526    	; 0x247e <main+0x228>

0000268c <NRF24L01_Receive>:
//-------------------------------------------------------------
void nRF_command(uint8_t command)
{
	LOW_CSN;
	spi_send_recv(command);
	HIGH_CSN;
    268c:	cf 92       	push	r12
    268e:	df 92       	push	r13
    2690:	ef 92       	push	r14
    2692:	ff 92       	push	r15
    2694:	0f 93       	push	r16
    2696:	1f 93       	push	r17
    2698:	cf 93       	push	r28
    269a:	df 93       	push	r29
    269c:	80 91 de 03 	lds	r24, 0x03DE	; 0x8003de <rx_flag>
    26a0:	81 30       	cpi	r24, 0x01	; 1
    26a2:	09 f0       	breq	.+2      	; 0x26a6 <NRF24L01_Receive+0x1a>
    26a4:	d2 c2       	rjmp	.+1444   	; 0x2c4a <NRF24L01_Receive+0x5be>
    26a6:	80 91 e4 03 	lds	r24, 0x03E4	; 0x8003e4 <RX_BUF>
    26aa:	83 30       	cpi	r24, 0x03	; 3
    26ac:	09 f4       	brne	.+2      	; 0x26b0 <NRF24L01_Receive+0x24>
    26ae:	5d c1       	rjmp	.+698    	; 0x296a <NRF24L01_Receive+0x2de>
    26b0:	30 f4       	brcc	.+12     	; 0x26be <NRF24L01_Receive+0x32>
    26b2:	81 30       	cpi	r24, 0x01	; 1
    26b4:	69 f0       	breq	.+26     	; 0x26d0 <NRF24L01_Receive+0x44>
    26b6:	82 30       	cpi	r24, 0x02	; 2
    26b8:	09 f4       	brne	.+2      	; 0x26bc <NRF24L01_Receive+0x30>
    26ba:	c1 c0       	rjmp	.+386    	; 0x283e <NRF24L01_Receive+0x1b2>
    26bc:	c4 c2       	rjmp	.+1416   	; 0x2c46 <NRF24L01_Receive+0x5ba>
    26be:	85 30       	cpi	r24, 0x05	; 5
    26c0:	09 f4       	brne	.+2      	; 0x26c4 <NRF24L01_Receive+0x38>
    26c2:	6d c0       	rjmp	.+218    	; 0x279e <NRF24L01_Receive+0x112>
    26c4:	08 f4       	brcc	.+2      	; 0x26c8 <NRF24L01_Receive+0x3c>
    26c6:	94 c1       	rjmp	.+808    	; 0x29f0 <NRF24L01_Receive+0x364>
    26c8:	86 30       	cpi	r24, 0x06	; 6
    26ca:	09 f4       	brne	.+2      	; 0x26ce <NRF24L01_Receive+0x42>
    26cc:	27 c2       	rjmp	.+1102   	; 0x2b1c <NRF24L01_Receive+0x490>
    26ce:	bb c2       	rjmp	.+1398   	; 0x2c46 <NRF24L01_Receive+0x5ba>
    26d0:	80 91 1e 04 	lds	r24, 0x041E	; 0x80041e <receive_counter>
    26d4:	8f 5f       	subi	r24, 0xFF	; 255
    26d6:	80 93 1e 04 	sts	0x041E, r24	; 0x80041e <receive_counter>
    26da:	ee e7       	ldi	r30, 0x7E	; 126
    26dc:	f4 e0       	ldi	r31, 0x04	; 4
    26de:	01 90       	ld	r0, Z+
    26e0:	00 20       	and	r0, r0
    26e2:	e9 f7       	brne	.-6      	; 0x26de <NRF24L01_Receive+0x52>
    26e4:	31 97       	sbiw	r30, 0x01	; 1
    26e6:	af 01       	movw	r20, r30
    26e8:	4e 57       	subi	r20, 0x7E	; 126
    26ea:	54 40       	sbci	r21, 0x04	; 4
    26ec:	60 e0       	ldi	r22, 0x00	; 0
    26ee:	70 e0       	ldi	r23, 0x00	; 0
    26f0:	8e e7       	ldi	r24, 0x7E	; 126
    26f2:	94 e0       	ldi	r25, 0x04	; 4
    26f4:	0e 94 86 2a 	call	0x550c	; 0x550c <memset>
    26f8:	ec e3       	ldi	r30, 0x3C	; 60
    26fa:	f4 e0       	ldi	r31, 0x04	; 4
    26fc:	01 90       	ld	r0, Z+
    26fe:	00 20       	and	r0, r0
    2700:	e9 f7       	brne	.-6      	; 0x26fc <NRF24L01_Receive+0x70>
    2702:	31 97       	sbiw	r30, 0x01	; 1
    2704:	af 01       	movw	r20, r30
    2706:	4c 53       	subi	r20, 0x3C	; 60
    2708:	54 40       	sbci	r21, 0x04	; 4
    270a:	60 e0       	ldi	r22, 0x00	; 0
    270c:	70 e0       	ldi	r23, 0x00	; 0
    270e:	8c e3       	ldi	r24, 0x3C	; 60
    2710:	94 e0       	ldi	r25, 0x04	; 4
    2712:	0e 94 86 2a 	call	0x550c	; 0x550c <memset>
    2716:	e4 ee       	ldi	r30, 0xE4	; 228
    2718:	f3 e0       	ldi	r31, 0x03	; 3
    271a:	81 81       	ldd	r24, Z+1	; 0x01
    271c:	22 81       	ldd	r18, Z+2	; 0x02
    271e:	30 e0       	ldi	r19, 0x00	; 0
    2720:	32 2f       	mov	r19, r18
    2722:	22 27       	eor	r18, r18
    2724:	28 2b       	or	r18, r24
    2726:	33 23       	and	r19, r19
    2728:	1c f4       	brge	.+6      	; 0x2730 <NRF24L01_Receive+0xa4>
    272a:	3f 77       	andi	r19, 0x7F	; 127
    272c:	20 95       	com	r18
    272e:	30 95       	com	r19
    2730:	c9 01       	movw	r24, r18
    2732:	33 23       	and	r19, r19
    2734:	24 f4       	brge	.+8      	; 0x273e <NRF24L01_Receive+0xb2>
    2736:	88 27       	eor	r24, r24
    2738:	99 27       	eor	r25, r25
    273a:	82 1b       	sub	r24, r18
    273c:	93 0b       	sbc	r25, r19
    273e:	ea e0       	ldi	r30, 0x0A	; 10
    2740:	f0 e0       	ldi	r31, 0x00	; 0
    2742:	bf 01       	movw	r22, r30
    2744:	0e 94 f5 29 	call	0x53ea	; 0x53ea <__divmodhi4>
    2748:	f8 2e       	mov	r15, r24
    274a:	e9 2e       	mov	r14, r25
    274c:	c9 01       	movw	r24, r18
    274e:	bf 01       	movw	r22, r30
    2750:	0e 94 f5 29 	call	0x53ea	; 0x53ea <__divmodhi4>
    2754:	16 2f       	mov	r17, r22
    2756:	07 2f       	mov	r16, r23
    2758:	ef 92       	push	r14
    275a:	ff 92       	push	r15
    275c:	7f 93       	push	r23
    275e:	6f 93       	push	r22
    2760:	c6 e7       	ldi	r28, 0x76	; 118
    2762:	d1 e0       	ldi	r29, 0x01	; 1
    2764:	df 93       	push	r29
    2766:	cf 93       	push	r28
    2768:	8e e7       	ldi	r24, 0x7E	; 126
    276a:	94 e0       	ldi	r25, 0x04	; 4
    276c:	9f 93       	push	r25
    276e:	8f 93       	push	r24
    2770:	0e 94 a1 2a 	call	0x5542	; 0x5542 <sprintf>
    2774:	ef 92       	push	r14
    2776:	ff 92       	push	r15
    2778:	0f 93       	push	r16
    277a:	1f 93       	push	r17
    277c:	df 93       	push	r29
    277e:	cf 93       	push	r28
    2780:	8c e3       	ldi	r24, 0x3C	; 60
    2782:	94 e0       	ldi	r25, 0x04	; 4
    2784:	9f 93       	push	r25
    2786:	8f 93       	push	r24
    2788:	0e 94 a1 2a 	call	0x5542	; 0x5542 <sprintf>
    278c:	8d b7       	in	r24, 0x3d	; 61
    278e:	9e b7       	in	r25, 0x3e	; 62
    2790:	40 96       	adiw	r24, 0x10	; 16
    2792:	0f b6       	in	r0, 0x3f	; 63
    2794:	f8 94       	cli
    2796:	9e bf       	out	0x3e, r25	; 62
    2798:	0f be       	out	0x3f, r0	; 63
    279a:	8d bf       	out	0x3d, r24	; 61
    279c:	54 c2       	rjmp	.+1192   	; 0x2c46 <NRF24L01_Receive+0x5ba>
    279e:	80 91 1e 04 	lds	r24, 0x041E	; 0x80041e <receive_counter>
    27a2:	8f 5f       	subi	r24, 0xFF	; 255
    27a4:	80 93 1e 04 	sts	0x041E, r24	; 0x80041e <receive_counter>
    27a8:	03 e7       	ldi	r16, 0x73	; 115
    27aa:	14 e0       	ldi	r17, 0x04	; 4
    27ac:	f8 01       	movw	r30, r16
    27ae:	01 90       	ld	r0, Z+
    27b0:	00 20       	and	r0, r0
    27b2:	e9 f7       	brne	.-6      	; 0x27ae <NRF24L01_Receive+0x122>
    27b4:	31 97       	sbiw	r30, 0x01	; 1
    27b6:	af 01       	movw	r20, r30
    27b8:	43 57       	subi	r20, 0x73	; 115
    27ba:	54 40       	sbci	r21, 0x04	; 4
    27bc:	60 e0       	ldi	r22, 0x00	; 0
    27be:	70 e0       	ldi	r23, 0x00	; 0
    27c0:	c8 01       	movw	r24, r16
    27c2:	0e 94 86 2a 	call	0x550c	; 0x550c <memset>
    27c6:	c9 e8       	ldi	r28, 0x89	; 137
    27c8:	d4 e0       	ldi	r29, 0x04	; 4
    27ca:	fe 01       	movw	r30, r28
    27cc:	01 90       	ld	r0, Z+
    27ce:	00 20       	and	r0, r0
    27d0:	e9 f7       	brne	.-6      	; 0x27cc <NRF24L01_Receive+0x140>
    27d2:	31 97       	sbiw	r30, 0x01	; 1
    27d4:	af 01       	movw	r20, r30
    27d6:	49 58       	subi	r20, 0x89	; 137
    27d8:	54 40       	sbci	r21, 0x04	; 4
    27da:	60 e0       	ldi	r22, 0x00	; 0
    27dc:	70 e0       	ldi	r23, 0x00	; 0
    27de:	ce 01       	movw	r24, r28
    27e0:	0e 94 86 2a 	call	0x550c	; 0x550c <memset>
    27e4:	e4 ee       	ldi	r30, 0xE4	; 228
    27e6:	f3 e0       	ldi	r31, 0x03	; 3
    27e8:	21 81       	ldd	r18, Z+1	; 0x01
    27ea:	82 81       	ldd	r24, Z+2	; 0x02
    27ec:	90 e0       	ldi	r25, 0x00	; 0
    27ee:	98 2f       	mov	r25, r24
    27f0:	88 27       	eor	r24, r24
    27f2:	82 2b       	or	r24, r18
    27f4:	6a e0       	ldi	r22, 0x0A	; 10
    27f6:	70 e0       	ldi	r23, 0x00	; 0
    27f8:	0e 94 f5 29 	call	0x53ea	; 0x53ea <__divmodhi4>
    27fc:	d6 2e       	mov	r13, r22
    27fe:	c7 2e       	mov	r12, r23
    2800:	7f 93       	push	r23
    2802:	6f 93       	push	r22
    2804:	0f 2e       	mov	r0, r31
    2806:	f9 e7       	ldi	r31, 0x79	; 121
    2808:	ef 2e       	mov	r14, r31
    280a:	f1 e0       	ldi	r31, 0x01	; 1
    280c:	ff 2e       	mov	r15, r31
    280e:	f0 2d       	mov	r31, r0
    2810:	ff 92       	push	r15
    2812:	ef 92       	push	r14
    2814:	1f 93       	push	r17
    2816:	0f 93       	push	r16
    2818:	0e 94 a1 2a 	call	0x5542	; 0x5542 <sprintf>
    281c:	cf 92       	push	r12
    281e:	df 92       	push	r13
    2820:	ff 92       	push	r15
    2822:	ef 92       	push	r14
    2824:	df 93       	push	r29
    2826:	cf 93       	push	r28
    2828:	0e 94 a1 2a 	call	0x5542	; 0x5542 <sprintf>
    282c:	8d b7       	in	r24, 0x3d	; 61
    282e:	9e b7       	in	r25, 0x3e	; 62
    2830:	0c 96       	adiw	r24, 0x0c	; 12
    2832:	0f b6       	in	r0, 0x3f	; 63
    2834:	f8 94       	cli
    2836:	9e bf       	out	0x3e, r25	; 62
    2838:	0f be       	out	0x3f, r0	; 63
    283a:	8d bf       	out	0x3d, r24	; 61
    283c:	04 c2       	rjmp	.+1032   	; 0x2c46 <NRF24L01_Receive+0x5ba>
    283e:	80 91 1e 04 	lds	r24, 0x041E	; 0x80041e <receive_counter>
    2842:	8f 5f       	subi	r24, 0xFF	; 255
    2844:	80 93 1e 04 	sts	0x041E, r24	; 0x80041e <receive_counter>
    2848:	ef ed       	ldi	r30, 0xDF	; 223
    284a:	f3 e0       	ldi	r31, 0x03	; 3
    284c:	01 90       	ld	r0, Z+
    284e:	00 20       	and	r0, r0
    2850:	e9 f7       	brne	.-6      	; 0x284c <NRF24L01_Receive+0x1c0>
    2852:	31 97       	sbiw	r30, 0x01	; 1
    2854:	af 01       	movw	r20, r30
    2856:	4f 5d       	subi	r20, 0xDF	; 223
    2858:	53 40       	sbci	r21, 0x03	; 3
    285a:	60 e0       	ldi	r22, 0x00	; 0
    285c:	70 e0       	ldi	r23, 0x00	; 0
    285e:	8f ed       	ldi	r24, 0xDF	; 223
    2860:	93 e0       	ldi	r25, 0x03	; 3
    2862:	0e 94 86 2a 	call	0x550c	; 0x550c <memset>
    2866:	e4 e9       	ldi	r30, 0x94	; 148
    2868:	f4 e0       	ldi	r31, 0x04	; 4
    286a:	01 90       	ld	r0, Z+
    286c:	00 20       	and	r0, r0
    286e:	e9 f7       	brne	.-6      	; 0x286a <NRF24L01_Receive+0x1de>
    2870:	31 97       	sbiw	r30, 0x01	; 1
    2872:	af 01       	movw	r20, r30
    2874:	44 59       	subi	r20, 0x94	; 148
    2876:	54 40       	sbci	r21, 0x04	; 4
    2878:	60 e0       	ldi	r22, 0x00	; 0
    287a:	70 e0       	ldi	r23, 0x00	; 0
    287c:	84 e9       	ldi	r24, 0x94	; 148
    287e:	94 e0       	ldi	r25, 0x04	; 4
    2880:	0e 94 86 2a 	call	0x550c	; 0x550c <memset>
    2884:	e4 e8       	ldi	r30, 0x84	; 132
    2886:	f4 e0       	ldi	r31, 0x04	; 4
    2888:	01 90       	ld	r0, Z+
    288a:	00 20       	and	r0, r0
    288c:	e9 f7       	brne	.-6      	; 0x2888 <NRF24L01_Receive+0x1fc>
    288e:	31 97       	sbiw	r30, 0x01	; 1
    2890:	af 01       	movw	r20, r30
    2892:	44 58       	subi	r20, 0x84	; 132
    2894:	54 40       	sbci	r21, 0x04	; 4
    2896:	60 e0       	ldi	r22, 0x00	; 0
    2898:	70 e0       	ldi	r23, 0x00	; 0
    289a:	84 e8       	ldi	r24, 0x84	; 132
    289c:	94 e0       	ldi	r25, 0x04	; 4
    289e:	0e 94 86 2a 	call	0x550c	; 0x550c <memset>
    28a2:	20 e0       	ldi	r18, 0x00	; 0
    28a4:	0b c0       	rjmp	.+22     	; 0x28bc <NRF24L01_Receive+0x230>
    28a6:	82 2f       	mov	r24, r18
    28a8:	90 e0       	ldi	r25, 0x00	; 0
    28aa:	fc 01       	movw	r30, r24
    28ac:	eb 51       	subi	r30, 0x1B	; 27
    28ae:	fc 4f       	sbci	r31, 0xFC	; 252
    28b0:	30 81       	ld	r19, Z
    28b2:	fc 01       	movw	r30, r24
    28b4:	e1 52       	subi	r30, 0x21	; 33
    28b6:	fc 4f       	sbci	r31, 0xFC	; 252
    28b8:	30 83       	st	Z, r19
    28ba:	2f 5f       	subi	r18, 0xFF	; 255
    28bc:	82 2f       	mov	r24, r18
    28be:	90 e0       	ldi	r25, 0x00	; 0
    28c0:	e4 ee       	ldi	r30, 0xE4	; 228
    28c2:	f3 e0       	ldi	r31, 0x03	; 3
    28c4:	01 90       	ld	r0, Z+
    28c6:	00 20       	and	r0, r0
    28c8:	e9 f7       	brne	.-6      	; 0x28c4 <NRF24L01_Receive+0x238>
    28ca:	31 97       	sbiw	r30, 0x01	; 1
    28cc:	e4 5e       	subi	r30, 0xE4	; 228
    28ce:	f3 40       	sbci	r31, 0x03	; 3
    28d0:	31 97       	sbiw	r30, 0x01	; 1
    28d2:	8e 17       	cp	r24, r30
    28d4:	9f 07       	cpc	r25, r31
    28d6:	38 f3       	brcs	.-50     	; 0x28a6 <NRF24L01_Receive+0x21a>
    28d8:	8f ed       	ldi	r24, 0xDF	; 223
    28da:	93 e0       	ldi	r25, 0x03	; 3
    28dc:	0e 94 42 25 	call	0x4a84	; 0x4a84 <wind_speed>
    28e0:	ec 01       	movw	r28, r24
    28e2:	8f ed       	ldi	r24, 0xDF	; 223
    28e4:	93 e0       	ldi	r25, 0x03	; 3
    28e6:	0e 94 42 25 	call	0x4a84	; 0x4a84 <wind_speed>
    28ea:	9c 01       	movw	r18, r24
    28ec:	04 e6       	ldi	r16, 0x64	; 100
    28ee:	10 e0       	ldi	r17, 0x00	; 0
    28f0:	ce 01       	movw	r24, r28
    28f2:	b8 01       	movw	r22, r16
    28f4:	0e 94 f5 29 	call	0x53ea	; 0x53ea <__divmodhi4>
    28f8:	9f 93       	push	r25
    28fa:	8f 93       	push	r24
    28fc:	c9 01       	movw	r24, r18
    28fe:	b8 01       	movw	r22, r16
    2900:	0e 94 f5 29 	call	0x53ea	; 0x53ea <__divmodhi4>
    2904:	7f 93       	push	r23
    2906:	6f 93       	push	r22
    2908:	c6 e7       	ldi	r28, 0x76	; 118
    290a:	d1 e0       	ldi	r29, 0x01	; 1
    290c:	df 93       	push	r29
    290e:	cf 93       	push	r28
    2910:	84 e9       	ldi	r24, 0x94	; 148
    2912:	94 e0       	ldi	r25, 0x04	; 4
    2914:	9f 93       	push	r25
    2916:	8f 93       	push	r24
    2918:	0e 94 a1 2a 	call	0x5542	; 0x5542 <sprintf>
    291c:	8f ed       	ldi	r24, 0xDF	; 223
    291e:	93 e0       	ldi	r25, 0x03	; 3
    2920:	0e 94 42 25 	call	0x4a84	; 0x4a84 <wind_speed>
    2924:	7c 01       	movw	r14, r24
    2926:	8f ed       	ldi	r24, 0xDF	; 223
    2928:	93 e0       	ldi	r25, 0x03	; 3
    292a:	0e 94 42 25 	call	0x4a84	; 0x4a84 <wind_speed>
    292e:	9c 01       	movw	r18, r24
    2930:	c7 01       	movw	r24, r14
    2932:	b8 01       	movw	r22, r16
    2934:	0e 94 f5 29 	call	0x53ea	; 0x53ea <__divmodhi4>
    2938:	9f 93       	push	r25
    293a:	8f 93       	push	r24
    293c:	c9 01       	movw	r24, r18
    293e:	b8 01       	movw	r22, r16
    2940:	0e 94 f5 29 	call	0x53ea	; 0x53ea <__divmodhi4>
    2944:	7f 93       	push	r23
    2946:	6f 93       	push	r22
    2948:	df 93       	push	r29
    294a:	cf 93       	push	r28
    294c:	84 e8       	ldi	r24, 0x84	; 132
    294e:	94 e0       	ldi	r25, 0x04	; 4
    2950:	9f 93       	push	r25
    2952:	8f 93       	push	r24
    2954:	0e 94 a1 2a 	call	0x5542	; 0x5542 <sprintf>
    2958:	8d b7       	in	r24, 0x3d	; 61
    295a:	9e b7       	in	r25, 0x3e	; 62
    295c:	40 96       	adiw	r24, 0x10	; 16
    295e:	0f b6       	in	r0, 0x3f	; 63
    2960:	f8 94       	cli
    2962:	9e bf       	out	0x3e, r25	; 62
    2964:	0f be       	out	0x3f, r0	; 63
    2966:	8d bf       	out	0x3d, r24	; 61
    2968:	6e c1       	rjmp	.+732    	; 0x2c46 <NRF24L01_Receive+0x5ba>
    296a:	80 91 1e 04 	lds	r24, 0x041E	; 0x80041e <receive_counter>
    296e:	8f 5f       	subi	r24, 0xFF	; 255
    2970:	80 93 1e 04 	sts	0x041E, r24	; 0x80041e <receive_counter>
    2974:	e1 e3       	ldi	r30, 0x31	; 49
    2976:	f4 e0       	ldi	r31, 0x04	; 4
    2978:	01 90       	ld	r0, Z+
    297a:	00 20       	and	r0, r0
    297c:	e9 f7       	brne	.-6      	; 0x2978 <NRF24L01_Receive+0x2ec>
    297e:	31 97       	sbiw	r30, 0x01	; 1
    2980:	af 01       	movw	r20, r30
    2982:	41 53       	subi	r20, 0x31	; 49
    2984:	54 40       	sbci	r21, 0x04	; 4
    2986:	60 e0       	ldi	r22, 0x00	; 0
    2988:	70 e0       	ldi	r23, 0x00	; 0
    298a:	81 e3       	ldi	r24, 0x31	; 49
    298c:	94 e0       	ldi	r25, 0x04	; 4
    298e:	0e 94 86 2a 	call	0x550c	; 0x550c <memset>
    2992:	ee e8       	ldi	r30, 0x8E	; 142
    2994:	f4 e0       	ldi	r31, 0x04	; 4
    2996:	01 90       	ld	r0, Z+
    2998:	00 20       	and	r0, r0
    299a:	e9 f7       	brne	.-6      	; 0x2996 <NRF24L01_Receive+0x30a>
    299c:	31 97       	sbiw	r30, 0x01	; 1
    299e:	af 01       	movw	r20, r30
    29a0:	4e 58       	subi	r20, 0x8E	; 142
    29a2:	54 40       	sbci	r21, 0x04	; 4
    29a4:	60 e0       	ldi	r22, 0x00	; 0
    29a6:	70 e0       	ldi	r23, 0x00	; 0
    29a8:	8e e8       	ldi	r24, 0x8E	; 142
    29aa:	94 e0       	ldi	r25, 0x04	; 4
    29ac:	0e 94 86 2a 	call	0x550c	; 0x550c <memset>
    29b0:	20 e0       	ldi	r18, 0x00	; 0
    29b2:	0f c0       	rjmp	.+30     	; 0x29d2 <NRF24L01_Receive+0x346>
    29b4:	82 2f       	mov	r24, r18
    29b6:	90 e0       	ldi	r25, 0x00	; 0
    29b8:	fc 01       	movw	r30, r24
    29ba:	eb 51       	subi	r30, 0x1B	; 27
    29bc:	fc 4f       	sbci	r31, 0xFC	; 252
    29be:	30 81       	ld	r19, Z
    29c0:	fc 01       	movw	r30, r24
    29c2:	ef 5c       	subi	r30, 0xCF	; 207
    29c4:	fb 4f       	sbci	r31, 0xFB	; 251
    29c6:	30 83       	st	Z, r19
    29c8:	fc 01       	movw	r30, r24
    29ca:	e2 57       	subi	r30, 0x72	; 114
    29cc:	fb 4f       	sbci	r31, 0xFB	; 251
    29ce:	30 83       	st	Z, r19
    29d0:	2f 5f       	subi	r18, 0xFF	; 255
    29d2:	82 2f       	mov	r24, r18
    29d4:	90 e0       	ldi	r25, 0x00	; 0
    29d6:	e4 ee       	ldi	r30, 0xE4	; 228
    29d8:	f3 e0       	ldi	r31, 0x03	; 3
    29da:	01 90       	ld	r0, Z+
    29dc:	00 20       	and	r0, r0
    29de:	e9 f7       	brne	.-6      	; 0x29da <NRF24L01_Receive+0x34e>
    29e0:	31 97       	sbiw	r30, 0x01	; 1
    29e2:	e4 5e       	subi	r30, 0xE4	; 228
    29e4:	f3 40       	sbci	r31, 0x03	; 3
    29e6:	31 97       	sbiw	r30, 0x01	; 1
    29e8:	8e 17       	cp	r24, r30
    29ea:	9f 07       	cpc	r25, r31
    29ec:	18 f3       	brcs	.-58     	; 0x29b4 <NRF24L01_Receive+0x328>
    29ee:	2b c1       	rjmp	.+598    	; 0x2c46 <NRF24L01_Receive+0x5ba>
    29f0:	80 91 1e 04 	lds	r24, 0x041E	; 0x80041e <receive_counter>
    29f4:	8f 5f       	subi	r24, 0xFF	; 255
    29f6:	80 93 1e 04 	sts	0x041E, r24	; 0x80041e <receive_counter>
    29fa:	ef e1       	ldi	r30, 0x1F	; 31
    29fc:	f4 e0       	ldi	r31, 0x04	; 4
    29fe:	01 90       	ld	r0, Z+
    2a00:	00 20       	and	r0, r0
    2a02:	e9 f7       	brne	.-6      	; 0x29fe <NRF24L01_Receive+0x372>
    2a04:	31 97       	sbiw	r30, 0x01	; 1
    2a06:	af 01       	movw	r20, r30
    2a08:	4f 51       	subi	r20, 0x1F	; 31
    2a0a:	54 40       	sbci	r21, 0x04	; 4
    2a0c:	60 e0       	ldi	r22, 0x00	; 0
    2a0e:	70 e0       	ldi	r23, 0x00	; 0
    2a10:	8f e1       	ldi	r24, 0x1F	; 31
    2a12:	94 e0       	ldi	r25, 0x04	; 4
    2a14:	0e 94 86 2a 	call	0x550c	; 0x550c <memset>
    2a18:	e9 e6       	ldi	r30, 0x69	; 105
    2a1a:	f4 e0       	ldi	r31, 0x04	; 4
    2a1c:	01 90       	ld	r0, Z+
    2a1e:	00 20       	and	r0, r0
    2a20:	e9 f7       	brne	.-6      	; 0x2a1c <NRF24L01_Receive+0x390>
    2a22:	31 97       	sbiw	r30, 0x01	; 1
    2a24:	af 01       	movw	r20, r30
    2a26:	49 56       	subi	r20, 0x69	; 105
    2a28:	54 40       	sbci	r21, 0x04	; 4
    2a2a:	60 e0       	ldi	r22, 0x00	; 0
    2a2c:	70 e0       	ldi	r23, 0x00	; 0
    2a2e:	89 e6       	ldi	r24, 0x69	; 105
    2a30:	94 e0       	ldi	r25, 0x04	; 4
    2a32:	0e 94 86 2a 	call	0x550c	; 0x550c <memset>
    2a36:	e7 e3       	ldi	r30, 0x37	; 55
    2a38:	f4 e0       	ldi	r31, 0x04	; 4
    2a3a:	01 90       	ld	r0, Z+
    2a3c:	00 20       	and	r0, r0
    2a3e:	e9 f7       	brne	.-6      	; 0x2a3a <NRF24L01_Receive+0x3ae>
    2a40:	31 97       	sbiw	r30, 0x01	; 1
    2a42:	af 01       	movw	r20, r30
    2a44:	47 53       	subi	r20, 0x37	; 55
    2a46:	54 40       	sbci	r21, 0x04	; 4
    2a48:	60 e0       	ldi	r22, 0x00	; 0
    2a4a:	70 e0       	ldi	r23, 0x00	; 0
    2a4c:	87 e3       	ldi	r24, 0x37	; 55
    2a4e:	94 e0       	ldi	r25, 0x04	; 4
    2a50:	0e 94 86 2a 	call	0x550c	; 0x550c <memset>
    2a54:	20 e0       	ldi	r18, 0x00	; 0
    2a56:	0b c0       	rjmp	.+22     	; 0x2a6e <NRF24L01_Receive+0x3e2>
    2a58:	82 2f       	mov	r24, r18
    2a5a:	90 e0       	ldi	r25, 0x00	; 0
    2a5c:	fc 01       	movw	r30, r24
    2a5e:	eb 51       	subi	r30, 0x1B	; 27
    2a60:	fc 4f       	sbci	r31, 0xFC	; 252
    2a62:	30 81       	ld	r19, Z
    2a64:	fc 01       	movw	r30, r24
    2a66:	e1 5e       	subi	r30, 0xE1	; 225
    2a68:	fb 4f       	sbci	r31, 0xFB	; 251
    2a6a:	30 83       	st	Z, r19
    2a6c:	2f 5f       	subi	r18, 0xFF	; 255
    2a6e:	82 2f       	mov	r24, r18
    2a70:	90 e0       	ldi	r25, 0x00	; 0
    2a72:	e4 ee       	ldi	r30, 0xE4	; 228
    2a74:	f3 e0       	ldi	r31, 0x03	; 3
    2a76:	01 90       	ld	r0, Z+
    2a78:	00 20       	and	r0, r0
    2a7a:	e9 f7       	brne	.-6      	; 0x2a76 <NRF24L01_Receive+0x3ea>
    2a7c:	31 97       	sbiw	r30, 0x01	; 1
    2a7e:	e4 5e       	subi	r30, 0xE4	; 228
    2a80:	f3 40       	sbci	r31, 0x03	; 3
    2a82:	31 97       	sbiw	r30, 0x01	; 1
    2a84:	8e 17       	cp	r24, r30
    2a86:	9f 07       	cpc	r25, r31
    2a88:	38 f3       	brcs	.-50     	; 0x2a58 <NRF24L01_Receive+0x3cc>
    2a8a:	8f e1       	ldi	r24, 0x1F	; 31
    2a8c:	94 e0       	ldi	r25, 0x04	; 4
    2a8e:	0e 94 64 24 	call	0x48c8	; 0x48c8 <V_BAT>
    2a92:	ec 01       	movw	r28, r24
    2a94:	8f e1       	ldi	r24, 0x1F	; 31
    2a96:	94 e0       	ldi	r25, 0x04	; 4
    2a98:	0e 94 64 24 	call	0x48c8	; 0x48c8 <V_BAT>
    2a9c:	9c 01       	movw	r18, r24
    2a9e:	04 e6       	ldi	r16, 0x64	; 100
    2aa0:	10 e0       	ldi	r17, 0x00	; 0
    2aa2:	ce 01       	movw	r24, r28
    2aa4:	b8 01       	movw	r22, r16
    2aa6:	0e 94 f5 29 	call	0x53ea	; 0x53ea <__divmodhi4>
    2aaa:	9f 93       	push	r25
    2aac:	8f 93       	push	r24
    2aae:	c9 01       	movw	r24, r18
    2ab0:	b8 01       	movw	r22, r16
    2ab2:	0e 94 f5 29 	call	0x53ea	; 0x53ea <__divmodhi4>
    2ab6:	7f 93       	push	r23
    2ab8:	6f 93       	push	r22
    2aba:	c6 e7       	ldi	r28, 0x76	; 118
    2abc:	d1 e0       	ldi	r29, 0x01	; 1
    2abe:	df 93       	push	r29
    2ac0:	cf 93       	push	r28
    2ac2:	89 e6       	ldi	r24, 0x69	; 105
    2ac4:	94 e0       	ldi	r25, 0x04	; 4
    2ac6:	9f 93       	push	r25
    2ac8:	8f 93       	push	r24
    2aca:	0e 94 a1 2a 	call	0x5542	; 0x5542 <sprintf>
    2ace:	8f e1       	ldi	r24, 0x1F	; 31
    2ad0:	94 e0       	ldi	r25, 0x04	; 4
    2ad2:	0e 94 64 24 	call	0x48c8	; 0x48c8 <V_BAT>
    2ad6:	7c 01       	movw	r14, r24
    2ad8:	8f e1       	ldi	r24, 0x1F	; 31
    2ada:	94 e0       	ldi	r25, 0x04	; 4
    2adc:	0e 94 64 24 	call	0x48c8	; 0x48c8 <V_BAT>
    2ae0:	9c 01       	movw	r18, r24
    2ae2:	c7 01       	movw	r24, r14
    2ae4:	b8 01       	movw	r22, r16
    2ae6:	0e 94 f5 29 	call	0x53ea	; 0x53ea <__divmodhi4>
    2aea:	9f 93       	push	r25
    2aec:	8f 93       	push	r24
    2aee:	c9 01       	movw	r24, r18
    2af0:	b8 01       	movw	r22, r16
    2af2:	0e 94 f5 29 	call	0x53ea	; 0x53ea <__divmodhi4>
    2af6:	7f 93       	push	r23
    2af8:	6f 93       	push	r22
    2afa:	df 93       	push	r29
    2afc:	cf 93       	push	r28
    2afe:	87 e3       	ldi	r24, 0x37	; 55
    2b00:	94 e0       	ldi	r25, 0x04	; 4
    2b02:	9f 93       	push	r25
    2b04:	8f 93       	push	r24
    2b06:	0e 94 a1 2a 	call	0x5542	; 0x5542 <sprintf>
    2b0a:	8d b7       	in	r24, 0x3d	; 61
    2b0c:	9e b7       	in	r25, 0x3e	; 62
    2b0e:	40 96       	adiw	r24, 0x10	; 16
    2b10:	0f b6       	in	r0, 0x3f	; 63
    2b12:	f8 94       	cli
    2b14:	9e bf       	out	0x3e, r25	; 62
    2b16:	0f be       	out	0x3f, r0	; 63
    2b18:	8d bf       	out	0x3d, r24	; 61
    2b1a:	95 c0       	rjmp	.+298    	; 0x2c46 <NRF24L01_Receive+0x5ba>
    2b1c:	80 91 1e 04 	lds	r24, 0x041E	; 0x80041e <receive_counter>
    2b20:	8f 5f       	subi	r24, 0xFF	; 255
    2b22:	80 93 1e 04 	sts	0x041E, r24	; 0x80041e <receive_counter>
    2b26:	e5 e2       	ldi	r30, 0x25	; 37
    2b28:	f4 e0       	ldi	r31, 0x04	; 4
    2b2a:	01 90       	ld	r0, Z+
    2b2c:	00 20       	and	r0, r0
    2b2e:	e9 f7       	brne	.-6      	; 0x2b2a <NRF24L01_Receive+0x49e>
    2b30:	31 97       	sbiw	r30, 0x01	; 1
    2b32:	af 01       	movw	r20, r30
    2b34:	45 52       	subi	r20, 0x25	; 37
    2b36:	54 40       	sbci	r21, 0x04	; 4
    2b38:	60 e0       	ldi	r22, 0x00	; 0
    2b3a:	70 e0       	ldi	r23, 0x00	; 0
    2b3c:	85 e2       	ldi	r24, 0x25	; 37
    2b3e:	94 e0       	ldi	r25, 0x04	; 4
    2b40:	0e 94 86 2a 	call	0x550c	; 0x550c <memset>
    2b44:	e1 e4       	ldi	r30, 0x41	; 65
    2b46:	f4 e0       	ldi	r31, 0x04	; 4
    2b48:	01 90       	ld	r0, Z+
    2b4a:	00 20       	and	r0, r0
    2b4c:	e9 f7       	brne	.-6      	; 0x2b48 <NRF24L01_Receive+0x4bc>
    2b4e:	31 97       	sbiw	r30, 0x01	; 1
    2b50:	af 01       	movw	r20, r30
    2b52:	41 54       	subi	r20, 0x41	; 65
    2b54:	54 40       	sbci	r21, 0x04	; 4
    2b56:	60 e0       	ldi	r22, 0x00	; 0
    2b58:	70 e0       	ldi	r23, 0x00	; 0
    2b5a:	81 e4       	ldi	r24, 0x41	; 65
    2b5c:	94 e0       	ldi	r25, 0x04	; 4
    2b5e:	0e 94 86 2a 	call	0x550c	; 0x550c <memset>
    2b62:	e3 e6       	ldi	r30, 0x63	; 99
    2b64:	f4 e0       	ldi	r31, 0x04	; 4
    2b66:	01 90       	ld	r0, Z+
    2b68:	00 20       	and	r0, r0
    2b6a:	e9 f7       	brne	.-6      	; 0x2b66 <NRF24L01_Receive+0x4da>
    2b6c:	31 97       	sbiw	r30, 0x01	; 1
    2b6e:	af 01       	movw	r20, r30
    2b70:	43 56       	subi	r20, 0x63	; 99
    2b72:	54 40       	sbci	r21, 0x04	; 4
    2b74:	60 e0       	ldi	r22, 0x00	; 0
    2b76:	70 e0       	ldi	r23, 0x00	; 0
    2b78:	83 e6       	ldi	r24, 0x63	; 99
    2b7a:	94 e0       	ldi	r25, 0x04	; 4
    2b7c:	0e 94 86 2a 	call	0x550c	; 0x550c <memset>
    2b80:	20 e0       	ldi	r18, 0x00	; 0
    2b82:	0b c0       	rjmp	.+22     	; 0x2b9a <NRF24L01_Receive+0x50e>
    2b84:	82 2f       	mov	r24, r18
    2b86:	90 e0       	ldi	r25, 0x00	; 0
    2b88:	fc 01       	movw	r30, r24
    2b8a:	eb 51       	subi	r30, 0x1B	; 27
    2b8c:	fc 4f       	sbci	r31, 0xFC	; 252
    2b8e:	30 81       	ld	r19, Z
    2b90:	fc 01       	movw	r30, r24
    2b92:	eb 5d       	subi	r30, 0xDB	; 219
    2b94:	fb 4f       	sbci	r31, 0xFB	; 251
    2b96:	30 83       	st	Z, r19
    2b98:	2f 5f       	subi	r18, 0xFF	; 255
    2b9a:	82 2f       	mov	r24, r18
    2b9c:	90 e0       	ldi	r25, 0x00	; 0
    2b9e:	e4 ee       	ldi	r30, 0xE4	; 228
    2ba0:	f3 e0       	ldi	r31, 0x03	; 3
    2ba2:	01 90       	ld	r0, Z+
    2ba4:	00 20       	and	r0, r0
    2ba6:	e9 f7       	brne	.-6      	; 0x2ba2 <NRF24L01_Receive+0x516>
    2ba8:	31 97       	sbiw	r30, 0x01	; 1
    2baa:	e4 5e       	subi	r30, 0xE4	; 228
    2bac:	f3 40       	sbci	r31, 0x03	; 3
    2bae:	31 97       	sbiw	r30, 0x01	; 1
    2bb0:	8e 17       	cp	r24, r30
    2bb2:	9f 07       	cpc	r25, r31
    2bb4:	38 f3       	brcs	.-50     	; 0x2b84 <NRF24L01_Receive+0x4f8>
    2bb6:	85 e2       	ldi	r24, 0x25	; 37
    2bb8:	94 e0       	ldi	r25, 0x04	; 4
    2bba:	0e 94 2f 24 	call	0x485e	; 0x485e <RAIN_AMOUNT>
    2bbe:	ec 01       	movw	r28, r24
    2bc0:	85 e2       	ldi	r24, 0x25	; 37
    2bc2:	94 e0       	ldi	r25, 0x04	; 4
    2bc4:	0e 94 2f 24 	call	0x485e	; 0x485e <RAIN_AMOUNT>
    2bc8:	9c 01       	movw	r18, r24
    2bca:	04 e6       	ldi	r16, 0x64	; 100
    2bcc:	10 e0       	ldi	r17, 0x00	; 0
    2bce:	ce 01       	movw	r24, r28
    2bd0:	b8 01       	movw	r22, r16
    2bd2:	0e 94 f5 29 	call	0x53ea	; 0x53ea <__divmodhi4>
    2bd6:	9f 93       	push	r25
    2bd8:	8f 93       	push	r24
    2bda:	c9 01       	movw	r24, r18
    2bdc:	b8 01       	movw	r22, r16
    2bde:	0e 94 f5 29 	call	0x53ea	; 0x53ea <__divmodhi4>
    2be2:	7f 93       	push	r23
    2be4:	6f 93       	push	r22
    2be6:	c6 e7       	ldi	r28, 0x76	; 118
    2be8:	d1 e0       	ldi	r29, 0x01	; 1
    2bea:	df 93       	push	r29
    2bec:	cf 93       	push	r28
    2bee:	81 e4       	ldi	r24, 0x41	; 65
    2bf0:	94 e0       	ldi	r25, 0x04	; 4
    2bf2:	9f 93       	push	r25
    2bf4:	8f 93       	push	r24
    2bf6:	0e 94 a1 2a 	call	0x5542	; 0x5542 <sprintf>
    2bfa:	85 e2       	ldi	r24, 0x25	; 37
    2bfc:	94 e0       	ldi	r25, 0x04	; 4
    2bfe:	0e 94 2f 24 	call	0x485e	; 0x485e <RAIN_AMOUNT>
    2c02:	7c 01       	movw	r14, r24
    2c04:	85 e2       	ldi	r24, 0x25	; 37
    2c06:	94 e0       	ldi	r25, 0x04	; 4
    2c08:	0e 94 2f 24 	call	0x485e	; 0x485e <RAIN_AMOUNT>
    2c0c:	9c 01       	movw	r18, r24
    2c0e:	c7 01       	movw	r24, r14
    2c10:	b8 01       	movw	r22, r16
    2c12:	0e 94 f5 29 	call	0x53ea	; 0x53ea <__divmodhi4>
    2c16:	9f 93       	push	r25
    2c18:	8f 93       	push	r24
    2c1a:	c9 01       	movw	r24, r18
    2c1c:	b8 01       	movw	r22, r16
    2c1e:	0e 94 f5 29 	call	0x53ea	; 0x53ea <__divmodhi4>
    2c22:	7f 93       	push	r23
    2c24:	6f 93       	push	r22
    2c26:	df 93       	push	r29
    2c28:	cf 93       	push	r28
    2c2a:	83 e6       	ldi	r24, 0x63	; 99
    2c2c:	94 e0       	ldi	r25, 0x04	; 4
    2c2e:	9f 93       	push	r25
    2c30:	8f 93       	push	r24
    2c32:	0e 94 a1 2a 	call	0x5542	; 0x5542 <sprintf>
    2c36:	8d b7       	in	r24, 0x3d	; 61
    2c38:	9e b7       	in	r25, 0x3e	; 62
    2c3a:	40 96       	adiw	r24, 0x10	; 16
    2c3c:	0f b6       	in	r0, 0x3f	; 63
    2c3e:	f8 94       	cli
    2c40:	9e bf       	out	0x3e, r25	; 62
    2c42:	0f be       	out	0x3f, r0	; 63
    2c44:	8d bf       	out	0x3d, r24	; 61
    2c46:	10 92 de 03 	sts	0x03DE, r1	; 0x8003de <rx_flag>
    2c4a:	df 91       	pop	r29
    2c4c:	cf 91       	pop	r28
    2c4e:	1f 91       	pop	r17
    2c50:	0f 91       	pop	r16
    2c52:	ff 90       	pop	r15
    2c54:	ef 90       	pop	r14
    2c56:	df 90       	pop	r13
    2c58:	cf 90       	pop	r12
    2c5a:	08 95       	ret

00002c5c <NRF24_FlushRX>:
    2c5c:	85 b1       	in	r24, 0x05	; 5
    2c5e:	8b 7f       	andi	r24, 0xFB	; 251
    2c60:	85 b9       	out	0x05, r24	; 5
    2c62:	82 ee       	ldi	r24, 0xE2	; 226
    2c64:	0e 94 25 11 	call	0x224a	; 0x224a <spi_send_recv>
    2c68:	82 e0       	ldi	r24, 0x02	; 2
    2c6a:	8a 95       	dec	r24
    2c6c:	f1 f7       	brne	.-4      	; 0x2c6a <NRF24_FlushRX+0xe>
    2c6e:	00 c0       	rjmp	.+0      	; 0x2c70 <NRF24_FlushRX+0x14>
    2c70:	85 b1       	in	r24, 0x05	; 5
    2c72:	84 60       	ori	r24, 0x04	; 4
    2c74:	85 b9       	out	0x05, r24	; 5
    2c76:	08 95       	ret

00002c78 <NRF24_FlushTX>:
    2c78:	85 b1       	in	r24, 0x05	; 5
    2c7a:	8b 7f       	andi	r24, 0xFB	; 251
    2c7c:	85 b9       	out	0x05, r24	; 5
    2c7e:	81 ee       	ldi	r24, 0xE1	; 225
    2c80:	0e 94 25 11 	call	0x224a	; 0x224a <spi_send_recv>
    2c84:	82 e0       	ldi	r24, 0x02	; 2
    2c86:	8a 95       	dec	r24
    2c88:	f1 f7       	brne	.-4      	; 0x2c86 <NRF24_FlushTX+0xe>
    2c8a:	00 c0       	rjmp	.+0      	; 0x2c8c <NRF24_FlushTX+0x14>
    2c8c:	85 b1       	in	r24, 0x05	; 5
    2c8e:	84 60       	ori	r24, 0x04	; 4
    2c90:	85 b9       	out	0x05, r24	; 5
    2c92:	08 95       	ret

00002c94 <NRF24_ToggleFeatures>:
    2c94:	85 b1       	in	r24, 0x05	; 5
    2c96:	8b 7f       	andi	r24, 0xFB	; 251
    2c98:	85 b9       	out	0x05, r24	; 5
    2c9a:	80 e5       	ldi	r24, 0x50	; 80
    2c9c:	0e 94 25 11 	call	0x224a	; 0x224a <spi_send_recv>
    2ca0:	82 e0       	ldi	r24, 0x02	; 2
    2ca2:	8a 95       	dec	r24
    2ca4:	f1 f7       	brne	.-4      	; 0x2ca2 <NRF24_ToggleFeatures+0xe>
    2ca6:	00 c0       	rjmp	.+0      	; 0x2ca8 <NRF24_ToggleFeatures+0x14>
    2ca8:	83 e7       	ldi	r24, 0x73	; 115
    2caa:	0e 94 25 11 	call	0x224a	; 0x224a <spi_send_recv>
    2cae:	85 b1       	in	r24, 0x05	; 5
    2cb0:	84 60       	ori	r24, 0x04	; 4
    2cb2:	85 b9       	out	0x05, r24	; 5
    2cb4:	08 95       	ret

00002cb6 <NRF24_Read_Buf>:
    2cb6:	ef 92       	push	r14
    2cb8:	ff 92       	push	r15
    2cba:	0f 93       	push	r16
    2cbc:	1f 93       	push	r17
    2cbe:	cf 93       	push	r28
    2cc0:	df 93       	push	r29
    2cc2:	8b 01       	movw	r16, r22
    2cc4:	c4 2f       	mov	r28, r20
    2cc6:	95 b1       	in	r25, 0x05	; 5
    2cc8:	9b 7f       	andi	r25, 0xFB	; 251
    2cca:	95 b9       	out	0x05, r25	; 5
    2ccc:	0e 94 25 11 	call	0x224a	; 0x224a <spi_send_recv>
    2cd0:	0b c0       	rjmp	.+22     	; 0x2ce8 <NRF24_Read_Buf+0x32>
    2cd2:	78 01       	movw	r14, r16
    2cd4:	8f ef       	ldi	r24, 0xFF	; 255
    2cd6:	e8 1a       	sub	r14, r24
    2cd8:	f8 0a       	sbc	r15, r24
    2cda:	8f ef       	ldi	r24, 0xFF	; 255
    2cdc:	0e 94 25 11 	call	0x224a	; 0x224a <spi_send_recv>
    2ce0:	f8 01       	movw	r30, r16
    2ce2:	80 83       	st	Z, r24
    2ce4:	cd 2f       	mov	r28, r29
    2ce6:	87 01       	movw	r16, r14
    2ce8:	df ef       	ldi	r29, 0xFF	; 255
    2cea:	dc 0f       	add	r29, r28
    2cec:	c1 11       	cpse	r28, r1
    2cee:	f1 cf       	rjmp	.-30     	; 0x2cd2 <NRF24_Read_Buf+0x1c>
    2cf0:	85 b1       	in	r24, 0x05	; 5
    2cf2:	84 60       	ori	r24, 0x04	; 4
    2cf4:	85 b9       	out	0x05, r24	; 5
    2cf6:	df 91       	pop	r29
    2cf8:	cf 91       	pop	r28
    2cfa:	1f 91       	pop	r17
    2cfc:	0f 91       	pop	r16
    2cfe:	ff 90       	pop	r15
    2d00:	ef 90       	pop	r14
    2d02:	08 95       	ret

00002d04 <NRF24_Write_Buf>:
    2d04:	ef 92       	push	r14
    2d06:	ff 92       	push	r15
    2d08:	0f 93       	push	r16
    2d0a:	1f 93       	push	r17
    2d0c:	cf 93       	push	r28
    2d0e:	df 93       	push	r29
    2d10:	8b 01       	movw	r16, r22
    2d12:	c4 2f       	mov	r28, r20
    2d14:	95 b1       	in	r25, 0x05	; 5
    2d16:	9b 7f       	andi	r25, 0xFB	; 251
    2d18:	95 b9       	out	0x05, r25	; 5
    2d1a:	80 62       	ori	r24, 0x20	; 32
    2d1c:	0e 94 25 11 	call	0x224a	; 0x224a <spi_send_recv>
    2d20:	82 e0       	ldi	r24, 0x02	; 2
    2d22:	8a 95       	dec	r24
    2d24:	f1 f7       	brne	.-4      	; 0x2d22 <NRF24_Write_Buf+0x1e>
    2d26:	00 c0       	rjmp	.+0      	; 0x2d28 <NRF24_Write_Buf+0x24>
    2d28:	0a c0       	rjmp	.+20     	; 0x2d3e <NRF24_Write_Buf+0x3a>
    2d2a:	78 01       	movw	r14, r16
    2d2c:	ef ef       	ldi	r30, 0xFF	; 255
    2d2e:	ee 1a       	sub	r14, r30
    2d30:	fe 0a       	sbc	r15, r30
    2d32:	f8 01       	movw	r30, r16
    2d34:	80 81       	ld	r24, Z
    2d36:	0e 94 25 11 	call	0x224a	; 0x224a <spi_send_recv>
    2d3a:	cd 2f       	mov	r28, r29
    2d3c:	87 01       	movw	r16, r14
    2d3e:	df ef       	ldi	r29, 0xFF	; 255
    2d40:	dc 0f       	add	r29, r28
    2d42:	c1 11       	cpse	r28, r1
    2d44:	f2 cf       	rjmp	.-28     	; 0x2d2a <NRF24_Write_Buf+0x26>
    2d46:	85 b1       	in	r24, 0x05	; 5
    2d48:	84 60       	ori	r24, 0x04	; 4
    2d4a:	85 b9       	out	0x05, r24	; 5
    2d4c:	df 91       	pop	r29
    2d4e:	cf 91       	pop	r28
    2d50:	1f 91       	pop	r17
    2d52:	0f 91       	pop	r16
    2d54:	ff 90       	pop	r15
    2d56:	ef 90       	pop	r14
    2d58:	08 95       	ret

00002d5a <nRF_write_register>:
}
//-------------------------------------------------------------
void nRF_write_register(uint8_t reg, uint8_t data_out)
{
    2d5a:	cf 93       	push	r28
    2d5c:	c6 2f       	mov	r28, r22
	reg |= W_REGISTER;
	LOW_CSN;
    2d5e:	95 b1       	in	r25, 0x05	; 5
    2d60:	9b 7f       	andi	r25, 0xFB	; 251
    2d62:	95 b9       	out	0x05, r25	; 5
	spi_send_recv(reg);
    2d64:	80 62       	ori	r24, 0x20	; 32
    2d66:	0e 94 25 11 	call	0x224a	; 0x224a <spi_send_recv>
	spi_send_recv(data_out);
    2d6a:	8c 2f       	mov	r24, r28
    2d6c:	0e 94 25 11 	call	0x224a	; 0x224a <spi_send_recv>
	HIGH_CSN;
    2d70:	85 b1       	in	r24, 0x05	; 5
    2d72:	84 60       	ori	r24, 0x04	; 4
    2d74:	85 b9       	out	0x05, r24	; 5
}
    2d76:	cf 91       	pop	r28
    2d78:	08 95       	ret

00002d7a <nRF_read_register>:
//-------------------------------------------------------------
uint8_t nRF_read_register(uint8_t reg)
{
    2d7a:	cf 93       	push	r28
    2d7c:	c8 2f       	mov	r28, r24
	uint8_t data_in;
	LOW_CSN;
    2d7e:	85 b1       	in	r24, 0x05	; 5
    2d80:	8b 7f       	andi	r24, 0xFB	; 251
    2d82:	85 b9       	out	0x05, r24	; 5
	data_in = spi_send_recv(reg);
    2d84:	8c 2f       	mov	r24, r28
    2d86:	0e 94 25 11 	call	0x224a	; 0x224a <spi_send_recv>
	if(reg != STATUS)
    2d8a:	c7 30       	cpi	r28, 0x07	; 7
    2d8c:	19 f0       	breq	.+6      	; 0x2d94 <nRF_read_register+0x1a>
	{
		data_in = spi_send_recv(NOP);
    2d8e:	8f ef       	ldi	r24, 0xFF	; 255
    2d90:	0e 94 25 11 	call	0x224a	; 0x224a <spi_send_recv>
	}
	HIGH_CSN;
    2d94:	95 b1       	in	r25, 0x05	; 5
    2d96:	94 60       	ori	r25, 0x04	; 4
    2d98:	95 b9       	out	0x05, r25	; 5
	return data_in;
}
    2d9a:	cf 91       	pop	r28
    2d9c:	08 95       	ret

00002d9e <__vector_1>:
		rx_flag = 0;
	}
}
//-------------------------------------------------------------
ISR(INT0_vect)
{
    2d9e:	1f 92       	push	r1
    2da0:	0f 92       	push	r0
    2da2:	0f b6       	in	r0, 0x3f	; 63
    2da4:	0f 92       	push	r0
    2da6:	11 24       	eor	r1, r1
    2da8:	2f 93       	push	r18
    2daa:	3f 93       	push	r19
    2dac:	4f 93       	push	r20
    2dae:	5f 93       	push	r21
    2db0:	6f 93       	push	r22
    2db2:	7f 93       	push	r23
    2db4:	8f 93       	push	r24
    2db6:	9f 93       	push	r25
    2db8:	af 93       	push	r26
    2dba:	bf 93       	push	r27
    2dbc:	ef 93       	push	r30
    2dbe:	ff 93       	push	r31
	uint8_t status=0x01;
	status = nRF_read_register(STATUS);
    2dc0:	87 e0       	ldi	r24, 0x07	; 7
    2dc2:	0e 94 bd 16 	call	0x2d7a	; 0x2d7a <nRF_read_register>
	if(status & 0x40)
    2dc6:	86 ff       	sbrs	r24, 6
    2dc8:	0a c0       	rjmp	.+20     	; 0x2dde <__vector_1+0x40>
	{
		NRF24_Read_Buf(R_RX_PAYLOAD,RX_BUF,TX_PLOAD_WIDTH);
    2dca:	45 e0       	ldi	r20, 0x05	; 5
    2dcc:	64 ee       	ldi	r22, 0xE4	; 228
    2dce:	73 e0       	ldi	r23, 0x03	; 3
    2dd0:	81 e6       	ldi	r24, 0x61	; 97
    2dd2:	0e 94 5b 16 	call	0x2cb6	; 0x2cb6 <NRF24_Read_Buf>
		nRF_write_register(STATUS, 0x40);
    2dd6:	60 e4       	ldi	r22, 0x40	; 64
    2dd8:	87 e0       	ldi	r24, 0x07	; 7
    2dda:	0e 94 ad 16 	call	0x2d5a	; 0x2d5a <nRF_write_register>
	}
	 if(receive_counter == 6)
    2dde:	80 91 1e 04 	lds	r24, 0x041E	; 0x80041e <receive_counter>
    2de2:	86 30       	cpi	r24, 0x06	; 6
    2de4:	11 f4       	brne	.+4      	; 0x2dea <__vector_1+0x4c>
	 {
		 receive_counter = 0;
    2de6:	10 92 1e 04 	sts	0x041E, r1	; 0x80041e <receive_counter>
	 }
	 rx_flag = 1;
    2dea:	81 e0       	ldi	r24, 0x01	; 1
    2dec:	80 93 de 03 	sts	0x03DE, r24	; 0x8003de <rx_flag>
}
    2df0:	ff 91       	pop	r31
    2df2:	ef 91       	pop	r30
    2df4:	bf 91       	pop	r27
    2df6:	af 91       	pop	r26
    2df8:	9f 91       	pop	r25
    2dfa:	8f 91       	pop	r24
    2dfc:	7f 91       	pop	r23
    2dfe:	6f 91       	pop	r22
    2e00:	5f 91       	pop	r21
    2e02:	4f 91       	pop	r20
    2e04:	3f 91       	pop	r19
    2e06:	2f 91       	pop	r18
    2e08:	0f 90       	pop	r0
    2e0a:	0f be       	out	0x3f, r0	; 63
    2e0c:	0f 90       	pop	r0
    2e0e:	1f 90       	pop	r1
    2e10:	18 95       	reti

00002e12 <NRF24L01_RX_Mode>:
}
//-------------------------------------------------------------
void NRF24L01_RX_Mode(void) // включение режима приема
{
	uint8_t regval = 0x00;
	regval = nRF_read_register(CONFIG);
    2e12:	80 e0       	ldi	r24, 0x00	; 0
    2e14:	0e 94 bd 16 	call	0x2d7a	; 0x2d7a <nRF_read_register>
	//разбудим модуль и переведём его в режим приёмника, включив биты PWR_UP и PRIM_RX
	regval |= (1<<PWR_UP)|(1<<PRIM_RX);
    2e18:	68 2f       	mov	r22, r24
    2e1a:	63 60       	ori	r22, 0x03	; 3
	nRF_write_register(CONFIG,regval);
    2e1c:	80 e0       	ldi	r24, 0x00	; 0
    2e1e:	0e 94 ad 16 	call	0x2d5a	; 0x2d5a <nRF_write_register>
	HIGH_CE;
    2e22:	85 b1       	in	r24, 0x05	; 5
    2e24:	82 60       	ori	r24, 0x02	; 2
    2e26:	85 b9       	out	0x05, r24	; 5
    2e28:	8b e2       	ldi	r24, 0x2B	; 43
    2e2a:	91 e0       	ldi	r25, 0x01	; 1
    2e2c:	01 97       	sbiw	r24, 0x01	; 1
    2e2e:	f1 f7       	brne	.-4      	; 0x2e2c <NRF24L01_RX_Mode+0x1a>
    2e30:	00 c0       	rjmp	.+0      	; 0x2e32 <NRF24L01_RX_Mode+0x20>
    2e32:	00 00       	nop
	_delay_us(150); //Задержка минимум 130 мкс
	// Flush buffers
	NRF24_FlushRX();
    2e34:	0e 94 2e 16 	call	0x2c5c	; 0x2c5c <NRF24_FlushRX>
	NRF24_FlushTX();
    2e38:	0e 94 3c 16 	call	0x2c78	; 0x2c78 <NRF24_FlushTX>
    2e3c:	08 95       	ret

00002e3e <NRF24_ini>:
extern uint8_t timer1_flag, timer2_flag;

//-------------------------------------------------------------
void NRF24_ini(void)
{
	LOW_CE;
    2e3e:	85 b1       	in	r24, 0x05	; 5
    2e40:	8d 7f       	andi	r24, 0xFD	; 253
    2e42:	85 b9       	out	0x05, r24	; 5
	#else
		//round up by default
		__ticks_dc = (uint32_t)(ceil(fabs(__tmp)));
	#endif

	__builtin_avr_delay_cycles(__ticks_dc);
    2e44:	8f e0       	ldi	r24, 0x0F	; 15
    2e46:	97 e2       	ldi	r25, 0x27	; 39
    2e48:	01 97       	sbiw	r24, 0x01	; 1
    2e4a:	f1 f7       	brne	.-4      	; 0x2e48 <NRF24_ini+0xa>
    2e4c:	00 c0       	rjmp	.+0      	; 0x2e4e <NRF24_ini+0x10>
    2e4e:	00 00       	nop
	_delay_ms(5);
	nRF_write_register(CONFIG, 0x0a); // Set PWR_UP bit, enable CRC(1 byte) &Prim_RX:0 (Transmitter)
    2e50:	6a e0       	ldi	r22, 0x0A	; 10
    2e52:	80 e0       	ldi	r24, 0x00	; 0
    2e54:	0e 94 ad 16 	call	0x2d5a	; 0x2d5a <nRF_write_register>
    2e58:	8f e0       	ldi	r24, 0x0F	; 15
    2e5a:	97 e2       	ldi	r25, 0x27	; 39
    2e5c:	01 97       	sbiw	r24, 0x01	; 1
    2e5e:	f1 f7       	brne	.-4      	; 0x2e5c <NRF24_ini+0x1e>
    2e60:	00 c0       	rjmp	.+0      	; 0x2e62 <NRF24_ini+0x24>
    2e62:	00 00       	nop
	_delay_ms(5);
	nRF_write_register(EN_AA, 0x02); // Enable Pipe1
    2e64:	62 e0       	ldi	r22, 0x02	; 2
    2e66:	81 e0       	ldi	r24, 0x01	; 1
    2e68:	0e 94 ad 16 	call	0x2d5a	; 0x2d5a <nRF_write_register>
	nRF_write_register(EN_RXADDR, 0x02); // Enable Pipe1
    2e6c:	62 e0       	ldi	r22, 0x02	; 2
    2e6e:	82 e0       	ldi	r24, 0x02	; 2
    2e70:	0e 94 ad 16 	call	0x2d5a	; 0x2d5a <nRF_write_register>
	nRF_write_register(SETUP_AW, 0x01); // Setup address width=3 bytes
    2e74:	61 e0       	ldi	r22, 0x01	; 1
    2e76:	83 e0       	ldi	r24, 0x03	; 3
    2e78:	0e 94 ad 16 	call	0x2d5a	; 0x2d5a <nRF_write_register>
	nRF_write_register(SETUP_RETR, 0x5F); // // 1500us, 15 retrans
    2e7c:	6f e5       	ldi	r22, 0x5F	; 95
    2e7e:	84 e0       	ldi	r24, 0x04	; 4
    2e80:	0e 94 ad 16 	call	0x2d5a	; 0x2d5a <nRF_write_register>
	NRF24_ToggleFeatures();
    2e84:	0e 94 4a 16 	call	0x2c94	; 0x2c94 <NRF24_ToggleFeatures>
	nRF_write_register(FEATURE, 0);
    2e88:	60 e0       	ldi	r22, 0x00	; 0
    2e8a:	8d e1       	ldi	r24, 0x1D	; 29
    2e8c:	0e 94 ad 16 	call	0x2d5a	; 0x2d5a <nRF_write_register>
	nRF_write_register(DYNPD, 0);
    2e90:	60 e0       	ldi	r22, 0x00	; 0
    2e92:	8c e1       	ldi	r24, 0x1C	; 28
    2e94:	0e 94 ad 16 	call	0x2d5a	; 0x2d5a <nRF_write_register>
	nRF_write_register(STATUS, 0x70);//Reset flags for IRQ
    2e98:	60 e7       	ldi	r22, 0x70	; 112
    2e9a:	87 e0       	ldi	r24, 0x07	; 7
    2e9c:	0e 94 ad 16 	call	0x2d5a	; 0x2d5a <nRF_write_register>
	nRF_write_register(RF_CH, 76); // частота 2476 MHz
    2ea0:	6c e4       	ldi	r22, 0x4C	; 76
    2ea2:	85 e0       	ldi	r24, 0x05	; 5
    2ea4:	0e 94 ad 16 	call	0x2d5a	; 0x2d5a <nRF_write_register>
	nRF_write_register(RF_SETUP, 0x06); //TX_PWR:0dBm, Datarate:1Mbps
    2ea8:	66 e0       	ldi	r22, 0x06	; 6
    2eaa:	86 e0       	ldi	r24, 0x06	; 6
    2eac:	0e 94 ad 16 	call	0x2d5a	; 0x2d5a <nRF_write_register>
	NRF24_Write_Buf(TX_ADDR, TX_ADDRESS, TX_ADR_WIDTH);
    2eb0:	43 e0       	ldi	r20, 0x03	; 3
    2eb2:	6b e2       	ldi	r22, 0x2B	; 43
    2eb4:	71 e0       	ldi	r23, 0x01	; 1
    2eb6:	80 e1       	ldi	r24, 0x10	; 16
    2eb8:	0e 94 82 16 	call	0x2d04	; 0x2d04 <NRF24_Write_Buf>
	NRF24_Write_Buf(RX_ADDR_P1, TX_ADDRESS, TX_ADR_WIDTH);
    2ebc:	43 e0       	ldi	r20, 0x03	; 3
    2ebe:	6b e2       	ldi	r22, 0x2B	; 43
    2ec0:	71 e0       	ldi	r23, 0x01	; 1
    2ec2:	8b e0       	ldi	r24, 0x0B	; 11
    2ec4:	0e 94 82 16 	call	0x2d04	; 0x2d04 <NRF24_Write_Buf>
	nRF_write_register(RX_PW_P1, TX_PLOAD_WIDTH); //Number of bytes in RX payload in data pipe 1
    2ec8:	65 e0       	ldi	r22, 0x05	; 5
    2eca:	82 e1       	ldi	r24, 0x12	; 18
    2ecc:	0e 94 ad 16 	call	0x2d5a	; 0x2d5a <nRF_write_register>
	//пока уходим в режим приёмника
	NRF24L01_RX_Mode();
    2ed0:	0e 94 09 17 	call	0x2e12	; 0x2e12 <NRF24L01_RX_Mode>
    2ed4:	08 95       	ret

00002ed6 <RTC_ConvertFromBinDec>:
	I2C_SendByte(RTC_ConvertFromBinDec(wday));       // 0x03 день недели (воскресенье - 1, пн 2, вт 3, ср 4, чт 5, пт 6, сб 7)
	I2C_SendByte(RTC_ConvertFromBinDec(day));        // 0x04 день месяц
	I2C_SendByte(RTC_ConvertFromBinDec(month));      // 0x05 месяц
	I2C_SendByte(RTC_ConvertFromBinDec(year));       // 0x06 год
	I2C_StopCondition();                // остановка i2c
}
    2ed6:	9d ec       	ldi	r25, 0xCD	; 205
    2ed8:	89 9f       	mul	r24, r25
    2eda:	91 2d       	mov	r25, r1
    2edc:	11 24       	eor	r1, r1
    2ede:	96 95       	lsr	r25
    2ee0:	96 95       	lsr	r25
    2ee2:	96 95       	lsr	r25
    2ee4:	20 e1       	ldi	r18, 0x10	; 16
    2ee6:	92 9f       	mul	r25, r18
    2ee8:	a0 01       	movw	r20, r0
    2eea:	11 24       	eor	r1, r1
    2eec:	99 0f       	add	r25, r25
    2eee:	29 2f       	mov	r18, r25
    2ef0:	22 0f       	add	r18, r18
    2ef2:	22 0f       	add	r18, r18
    2ef4:	92 0f       	add	r25, r18
    2ef6:	89 1b       	sub	r24, r25
    2ef8:	84 2b       	or	r24, r20
    2efa:	08 95       	ret

00002efc <RTC_ConvertFromDec>:
    2efc:	98 2f       	mov	r25, r24
    2efe:	92 95       	swap	r25
    2f00:	9f 70       	andi	r25, 0x0F	; 15
    2f02:	99 0f       	add	r25, r25
    2f04:	29 2f       	mov	r18, r25
    2f06:	22 0f       	add	r18, r18
    2f08:	22 0f       	add	r18, r18
    2f0a:	92 0f       	add	r25, r18
    2f0c:	8f 70       	andi	r24, 0x0F	; 15
    2f0e:	89 0f       	add	r24, r25
    2f10:	08 95       	ret

00002f12 <RTC_init>:
    2f12:	0e 94 6e 18 	call	0x30dc	; 0x30dc <I2C_StartCondition>
    2f16:	80 ed       	ldi	r24, 0xD0	; 208
    2f18:	0e 94 7a 18 	call	0x30f4	; 0x30f4 <I2C_SendByte>
    2f1c:	8e e0       	ldi	r24, 0x0E	; 14
    2f1e:	0e 94 7a 18 	call	0x30f4	; 0x30f4 <I2C_SendByte>
    2f22:	80 e2       	ldi	r24, 0x20	; 32
    2f24:	0e 94 7a 18 	call	0x30f4	; 0x30f4 <I2C_SendByte>
    2f28:	88 e0       	ldi	r24, 0x08	; 8
    2f2a:	0e 94 7a 18 	call	0x30f4	; 0x30f4 <I2C_SendByte>
    2f2e:	0e 94 76 18 	call	0x30ec	; 0x30ec <I2C_StopCondition>
    2f32:	08 95       	ret

00002f34 <ModifyRTC>:
	t2=t2*5;
}
*/
void ModifyRTC(void)
{
	I2C_StartCondition();
    2f34:	0e 94 6e 18 	call	0x30dc	; 0x30dc <I2C_StartCondition>
	I2C_SendByte(0b11010000);
    2f38:	80 ed       	ldi	r24, 0xD0	; 208
    2f3a:	0e 94 7a 18 	call	0x30f4	; 0x30f4 <I2C_SendByte>
	switch(clock_change_mode)
    2f3e:	80 91 16 04 	lds	r24, 0x0416	; 0x800416 <clock_change_mode>
    2f42:	83 30       	cpi	r24, 0x03	; 3
    2f44:	99 f1       	breq	.+102    	; 0x2fac <ModifyRTC+0x78>
    2f46:	28 f4       	brcc	.+10     	; 0x2f52 <ModifyRTC+0x1e>
    2f48:	81 30       	cpi	r24, 0x01	; 1
    2f4a:	61 f0       	breq	.+24     	; 0x2f64 <ModifyRTC+0x30>
    2f4c:	82 30       	cpi	r24, 0x02	; 2
    2f4e:	e1 f0       	breq	.+56     	; 0x2f88 <ModifyRTC+0x54>
    2f50:	be c0       	rjmp	.+380    	; 0x30ce <ModifyRTC+0x19a>
    2f52:	85 30       	cpi	r24, 0x05	; 5
    2f54:	09 f4       	brne	.+2      	; 0x2f58 <ModifyRTC+0x24>
    2f56:	98 c0       	rjmp	.+304    	; 0x3088 <ModifyRTC+0x154>
    2f58:	08 f4       	brcc	.+2      	; 0x2f5c <ModifyRTC+0x28>
    2f5a:	84 c0       	rjmp	.+264    	; 0x3064 <ModifyRTC+0x130>
    2f5c:	86 30       	cpi	r24, 0x06	; 6
    2f5e:	09 f4       	brne	.+2      	; 0x2f62 <ModifyRTC+0x2e>
    2f60:	a5 c0       	rjmp	.+330    	; 0x30ac <ModifyRTC+0x178>
    2f62:	b5 c0       	rjmp	.+362    	; 0x30ce <ModifyRTC+0x19a>
	{
		case MODE_CHANGE_HOURS: //часы
		{
			I2C_SendByte(2);//Переходим на 0x02 — байт часов
    2f64:	82 e0       	ldi	r24, 0x02	; 2
    2f66:	0e 94 7a 18 	call	0x30f4	; 0x30f4 <I2C_SendByte>
			if (hour <= 23) I2C_SendByte(RTC_ConvertFromBinDec( hour ));
    2f6a:	80 91 15 04 	lds	r24, 0x0415	; 0x800415 <hour>
    2f6e:	88 31       	cpi	r24, 0x18	; 24
    2f70:	28 f4       	brcc	.+10     	; 0x2f7c <ModifyRTC+0x48>
    2f72:	0e 94 6b 17 	call	0x2ed6	; 0x2ed6 <RTC_ConvertFromBinDec>
    2f76:	0e 94 7a 18 	call	0x30f4	; 0x30f4 <I2C_SendByte>
    2f7a:	a9 c0       	rjmp	.+338    	; 0x30ce <ModifyRTC+0x19a>
			else I2C_SendByte(RTC_ConvertFromBinDec(0));
    2f7c:	80 e0       	ldi	r24, 0x00	; 0
    2f7e:	0e 94 6b 17 	call	0x2ed6	; 0x2ed6 <RTC_ConvertFromBinDec>
    2f82:	0e 94 7a 18 	call	0x30f4	; 0x30f4 <I2C_SendByte>
    2f86:	a3 c0       	rjmp	.+326    	; 0x30ce <ModifyRTC+0x19a>
			break;
		}
		case MODE_CHANGE_MINUTES: // минуты
		{
			I2C_SendByte(1);//Переходим на 0x01 — байт минут
    2f88:	81 e0       	ldi	r24, 0x01	; 1
    2f8a:	0e 94 7a 18 	call	0x30f4	; 0x30f4 <I2C_SendByte>
			if(min<59) I2C_SendByte(RTC_ConvertFromBinDec(min));
    2f8e:	80 91 17 04 	lds	r24, 0x0417	; 0x800417 <min>
    2f92:	8b 33       	cpi	r24, 0x3B	; 59
    2f94:	28 f4       	brcc	.+10     	; 0x2fa0 <ModifyRTC+0x6c>
    2f96:	0e 94 6b 17 	call	0x2ed6	; 0x2ed6 <RTC_ConvertFromBinDec>
    2f9a:	0e 94 7a 18 	call	0x30f4	; 0x30f4 <I2C_SendByte>
    2f9e:	97 c0       	rjmp	.+302    	; 0x30ce <ModifyRTC+0x19a>
			else I2C_SendByte(RTC_ConvertFromBinDec(0));
    2fa0:	80 e0       	ldi	r24, 0x00	; 0
    2fa2:	0e 94 6b 17 	call	0x2ed6	; 0x2ed6 <RTC_ConvertFromBinDec>
    2fa6:	0e 94 7a 18 	call	0x30f4	; 0x30f4 <I2C_SendByte>
    2faa:	91 c0       	rjmp	.+290    	; 0x30ce <ModifyRTC+0x19a>
			break;
		}
		case MODE_CHANGE_DATE: // дата
		{
			I2C_SendByte(4);//Переходим на 0x04 — байт даты
    2fac:	84 e0       	ldi	r24, 0x04	; 4
    2fae:	0e 94 7a 18 	call	0x30f4	; 0x30f4 <I2C_SendByte>
			if (month==2) //февраль
    2fb2:	80 91 14 04 	lds	r24, 0x0414	; 0x800414 <month>
    2fb6:	82 30       	cpi	r24, 0x02	; 2
    2fb8:	11 f5       	brne	.+68     	; 0x2ffe <ModifyRTC+0xca>
			{
				if(year%4==0) //високосный год
    2fba:	80 91 18 04 	lds	r24, 0x0418	; 0x800418 <year>
    2fbe:	83 70       	andi	r24, 0x03	; 3
    2fc0:	79 f4       	brne	.+30     	; 0x2fe0 <ModifyRTC+0xac>
				{
					if(date<29) I2C_SendByte(RTC_ConvertFromBinDec(date));
    2fc2:	80 91 1c 04 	lds	r24, 0x041C	; 0x80041c <date>
    2fc6:	8d 31       	cpi	r24, 0x1D	; 29
    2fc8:	28 f4       	brcc	.+10     	; 0x2fd4 <ModifyRTC+0xa0>
    2fca:	0e 94 6b 17 	call	0x2ed6	; 0x2ed6 <RTC_ConvertFromBinDec>
    2fce:	0e 94 7a 18 	call	0x30f4	; 0x30f4 <I2C_SendByte>
    2fd2:	7d c0       	rjmp	.+250    	; 0x30ce <ModifyRTC+0x19a>
					else I2C_SendByte(RTC_ConvertFromBinDec(1));
    2fd4:	81 e0       	ldi	r24, 0x01	; 1
    2fd6:	0e 94 6b 17 	call	0x2ed6	; 0x2ed6 <RTC_ConvertFromBinDec>
    2fda:	0e 94 7a 18 	call	0x30f4	; 0x30f4 <I2C_SendByte>
    2fde:	77 c0       	rjmp	.+238    	; 0x30ce <ModifyRTC+0x19a>
				}
				else
				{
					if(date<28) I2C_SendByte(RTC_ConvertFromBinDec(date));
    2fe0:	80 91 1c 04 	lds	r24, 0x041C	; 0x80041c <date>
    2fe4:	8c 31       	cpi	r24, 0x1C	; 28
    2fe6:	28 f4       	brcc	.+10     	; 0x2ff2 <ModifyRTC+0xbe>
    2fe8:	0e 94 6b 17 	call	0x2ed6	; 0x2ed6 <RTC_ConvertFromBinDec>
    2fec:	0e 94 7a 18 	call	0x30f4	; 0x30f4 <I2C_SendByte>
    2ff0:	6e c0       	rjmp	.+220    	; 0x30ce <ModifyRTC+0x19a>
					else I2C_SendByte(RTC_ConvertFromBinDec(1));
    2ff2:	81 e0       	ldi	r24, 0x01	; 1
    2ff4:	0e 94 6b 17 	call	0x2ed6	; 0x2ed6 <RTC_ConvertFromBinDec>
    2ff8:	0e 94 7a 18 	call	0x30f4	; 0x30f4 <I2C_SendByte>
    2ffc:	68 c0       	rjmp	.+208    	; 0x30ce <ModifyRTC+0x19a>
				}
			}
			else if ((month==4)|(month==6)|(month==9)|(month==11))
    2ffe:	21 e0       	ldi	r18, 0x01	; 1
    3000:	84 30       	cpi	r24, 0x04	; 4
    3002:	09 f0       	breq	.+2      	; 0x3006 <ModifyRTC+0xd2>
    3004:	20 e0       	ldi	r18, 0x00	; 0
    3006:	91 e0       	ldi	r25, 0x01	; 1
    3008:	86 30       	cpi	r24, 0x06	; 6
    300a:	09 f0       	breq	.+2      	; 0x300e <ModifyRTC+0xda>
    300c:	90 e0       	ldi	r25, 0x00	; 0
    300e:	29 2b       	or	r18, r25
    3010:	91 e0       	ldi	r25, 0x01	; 1
    3012:	89 30       	cpi	r24, 0x09	; 9
    3014:	09 f0       	breq	.+2      	; 0x3018 <ModifyRTC+0xe4>
    3016:	90 e0       	ldi	r25, 0x00	; 0
    3018:	31 e0       	ldi	r19, 0x01	; 1
    301a:	8b 30       	cpi	r24, 0x0B	; 11
    301c:	09 f0       	breq	.+2      	; 0x3020 <ModifyRTC+0xec>
    301e:	30 e0       	ldi	r19, 0x00	; 0
    3020:	92 2b       	or	r25, r18
    3022:	11 f4       	brne	.+4      	; 0x3028 <ModifyRTC+0xf4>
    3024:	33 23       	and	r19, r19
    3026:	79 f0       	breq	.+30     	; 0x3046 <ModifyRTC+0x112>
			{
				if(date<30) I2C_SendByte(RTC_ConvertFromBinDec(date));
    3028:	80 91 1c 04 	lds	r24, 0x041C	; 0x80041c <date>
    302c:	8e 31       	cpi	r24, 0x1E	; 30
    302e:	28 f4       	brcc	.+10     	; 0x303a <ModifyRTC+0x106>
    3030:	0e 94 6b 17 	call	0x2ed6	; 0x2ed6 <RTC_ConvertFromBinDec>
    3034:	0e 94 7a 18 	call	0x30f4	; 0x30f4 <I2C_SendByte>
    3038:	4a c0       	rjmp	.+148    	; 0x30ce <ModifyRTC+0x19a>
				else I2C_SendByte(RTC_ConvertFromBinDec(1));
    303a:	81 e0       	ldi	r24, 0x01	; 1
    303c:	0e 94 6b 17 	call	0x2ed6	; 0x2ed6 <RTC_ConvertFromBinDec>
    3040:	0e 94 7a 18 	call	0x30f4	; 0x30f4 <I2C_SendByte>
    3044:	44 c0       	rjmp	.+136    	; 0x30ce <ModifyRTC+0x19a>
			}
			else
			{
				if(date<31) I2C_SendByte(RTC_ConvertFromBinDec(date));
    3046:	80 91 1c 04 	lds	r24, 0x041C	; 0x80041c <date>
    304a:	8f 31       	cpi	r24, 0x1F	; 31
    304c:	28 f4       	brcc	.+10     	; 0x3058 <ModifyRTC+0x124>
    304e:	0e 94 6b 17 	call	0x2ed6	; 0x2ed6 <RTC_ConvertFromBinDec>
    3052:	0e 94 7a 18 	call	0x30f4	; 0x30f4 <I2C_SendByte>
    3056:	3b c0       	rjmp	.+118    	; 0x30ce <ModifyRTC+0x19a>
				else I2C_SendByte(RTC_ConvertFromBinDec(1));
    3058:	81 e0       	ldi	r24, 0x01	; 1
    305a:	0e 94 6b 17 	call	0x2ed6	; 0x2ed6 <RTC_ConvertFromBinDec>
    305e:	0e 94 7a 18 	call	0x30f4	; 0x30f4 <I2C_SendByte>
    3062:	35 c0       	rjmp	.+106    	; 0x30ce <ModifyRTC+0x19a>
			}
			break;
		}
		case MODE_CHANGE_MONTH: // месяц
		{
			I2C_SendByte(5);//Переходим на 0x05 — байт месяца
    3064:	85 e0       	ldi	r24, 0x05	; 5
    3066:	0e 94 7a 18 	call	0x30f4	; 0x30f4 <I2C_SendByte>
			if(month<12) I2C_SendByte(RTC_ConvertFromBinDec(month));
    306a:	80 91 14 04 	lds	r24, 0x0414	; 0x800414 <month>
    306e:	8c 30       	cpi	r24, 0x0C	; 12
    3070:	28 f4       	brcc	.+10     	; 0x307c <ModifyRTC+0x148>
    3072:	0e 94 6b 17 	call	0x2ed6	; 0x2ed6 <RTC_ConvertFromBinDec>
    3076:	0e 94 7a 18 	call	0x30f4	; 0x30f4 <I2C_SendByte>
    307a:	29 c0       	rjmp	.+82     	; 0x30ce <ModifyRTC+0x19a>
			else I2C_SendByte(RTC_ConvertFromBinDec(1));
    307c:	81 e0       	ldi	r24, 0x01	; 1
    307e:	0e 94 6b 17 	call	0x2ed6	; 0x2ed6 <RTC_ConvertFromBinDec>
    3082:	0e 94 7a 18 	call	0x30f4	; 0x30f4 <I2C_SendByte>
    3086:	23 c0       	rjmp	.+70     	; 0x30ce <ModifyRTC+0x19a>
			break;
		}
		case MODE_CHANGE_YEAR: // год
		{
			I2C_SendByte(6);//Переходим на 0x06 — байт года
    3088:	86 e0       	ldi	r24, 0x06	; 6
    308a:	0e 94 7a 18 	call	0x30f4	; 0x30f4 <I2C_SendByte>
			if(year<99) I2C_SendByte(RTC_ConvertFromBinDec(year));
    308e:	80 91 18 04 	lds	r24, 0x0418	; 0x800418 <year>
    3092:	83 36       	cpi	r24, 0x63	; 99
    3094:	28 f4       	brcc	.+10     	; 0x30a0 <ModifyRTC+0x16c>
    3096:	0e 94 6b 17 	call	0x2ed6	; 0x2ed6 <RTC_ConvertFromBinDec>
    309a:	0e 94 7a 18 	call	0x30f4	; 0x30f4 <I2C_SendByte>
    309e:	17 c0       	rjmp	.+46     	; 0x30ce <ModifyRTC+0x19a>
			else I2C_SendByte(RTC_ConvertFromBinDec(1));
    30a0:	81 e0       	ldi	r24, 0x01	; 1
    30a2:	0e 94 6b 17 	call	0x2ed6	; 0x2ed6 <RTC_ConvertFromBinDec>
    30a6:	0e 94 7a 18 	call	0x30f4	; 0x30f4 <I2C_SendByte>
    30aa:	11 c0       	rjmp	.+34     	; 0x30ce <ModifyRTC+0x19a>
			break;
		}
		case MODE_CHANGE_WEAKDAY: // день недели
		{
			I2C_SendByte(3);//Переходим на 0x03 — байт дня недели
    30ac:	83 e0       	ldi	r24, 0x03	; 3
    30ae:	0e 94 7a 18 	call	0x30f4	; 0x30f4 <I2C_SendByte>
			if(day<7) I2C_SendByte(RTC_ConvertFromBinDec(day));
    30b2:	80 91 1a 04 	lds	r24, 0x041A	; 0x80041a <day>
    30b6:	87 30       	cpi	r24, 0x07	; 7
    30b8:	28 f4       	brcc	.+10     	; 0x30c4 <ModifyRTC+0x190>
    30ba:	0e 94 6b 17 	call	0x2ed6	; 0x2ed6 <RTC_ConvertFromBinDec>
    30be:	0e 94 7a 18 	call	0x30f4	; 0x30f4 <I2C_SendByte>
    30c2:	05 c0       	rjmp	.+10     	; 0x30ce <ModifyRTC+0x19a>
			else I2C_SendByte(RTC_ConvertFromBinDec(1));
    30c4:	81 e0       	ldi	r24, 0x01	; 1
    30c6:	0e 94 6b 17 	call	0x2ed6	; 0x2ed6 <RTC_ConvertFromBinDec>
    30ca:	0e 94 7a 18 	call	0x30f4	; 0x30f4 <I2C_SendByte>
			if(alarmmin<59) EEPROM_write(3,alarmmin+1);
			else EEPROM_write(3,0);
			break;
		}*/
	}
	I2C_StopCondition();
    30ce:	0e 94 76 18 	call	0x30ec	; 0x30ec <I2C_StopCondition>
    30d2:	08 95       	ret

000030d4 <I2C_Init>:
{
    I2C_StartCondition(); // Отправим условие START
	I2C_SendByte(addr); // Отправим в шину адрес устройства + бит чтения-записи
	I2C_SendByte(c);// Отправим байт данных
	I2C_StopCondition();// Отправим условие STOP
}
    30d4:	80 e2       	ldi	r24, 0x20	; 32
    30d6:	80 93 b8 00 	sts	0x00B8, r24	; 0x8000b8 <__TEXT_REGION_LENGTH__+0x7f80b8>
    30da:	08 95       	ret

000030dc <I2C_StartCondition>:
    30dc:	84 ea       	ldi	r24, 0xA4	; 164
    30de:	80 93 bc 00 	sts	0x00BC, r24	; 0x8000bc <__TEXT_REGION_LENGTH__+0x7f80bc>
    30e2:	80 91 bc 00 	lds	r24, 0x00BC	; 0x8000bc <__TEXT_REGION_LENGTH__+0x7f80bc>
    30e6:	88 23       	and	r24, r24
    30e8:	e4 f7       	brge	.-8      	; 0x30e2 <I2C_StartCondition+0x6>
    30ea:	08 95       	ret

000030ec <I2C_StopCondition>:
    30ec:	84 e9       	ldi	r24, 0x94	; 148
    30ee:	80 93 bc 00 	sts	0x00BC, r24	; 0x8000bc <__TEXT_REGION_LENGTH__+0x7f80bc>
    30f2:	08 95       	ret

000030f4 <I2C_SendByte>:
    30f4:	80 93 bb 00 	sts	0x00BB, r24	; 0x8000bb <__TEXT_REGION_LENGTH__+0x7f80bb>
    30f8:	84 e8       	ldi	r24, 0x84	; 132
    30fa:	80 93 bc 00 	sts	0x00BC, r24	; 0x8000bc <__TEXT_REGION_LENGTH__+0x7f80bc>
    30fe:	80 91 bc 00 	lds	r24, 0x00BC	; 0x8000bc <__TEXT_REGION_LENGTH__+0x7f80bc>
    3102:	88 23       	and	r24, r24
    3104:	e4 f7       	brge	.-8      	; 0x30fe <I2C_SendByte+0xa>
    3106:	08 95       	ret

00003108 <I2C_ReadByte>:
unsigned char I2C_ReadByte(void)
{
	TWCR = (1<<TWINT)|(1<<TWEN)|(1<<TWEA);
    3108:	84 ec       	ldi	r24, 0xC4	; 196
    310a:	80 93 bc 00 	sts	0x00BC, r24	; 0x8000bc <__TEXT_REGION_LENGTH__+0x7f80bc>
	while (!(TWCR & (1<<TWINT)));//ожидание установки бита TWIN
    310e:	80 91 bc 00 	lds	r24, 0x00BC	; 0x8000bc <__TEXT_REGION_LENGTH__+0x7f80bc>
    3112:	88 23       	and	r24, r24
    3114:	e4 f7       	brge	.-8      	; 0x310e <I2C_ReadByte+0x6>
	return TWDR;//читаем регистр данных
    3116:	80 91 bb 00 	lds	r24, 0x00BB	; 0x8000bb <__TEXT_REGION_LENGTH__+0x7f80bb>
}
    311a:	08 95       	ret

0000311c <I2C_ReadLastByte>:
unsigned char I2C_ReadLastByte(void)
{
	TWCR = (1<<TWINT)|(1<<TWEN);
    311c:	84 e8       	ldi	r24, 0x84	; 132
    311e:	80 93 bc 00 	sts	0x00BC, r24	; 0x8000bc <__TEXT_REGION_LENGTH__+0x7f80bc>
	while (!(TWCR & (1<<TWINT)));//ожидание установки бита TWIN
    3122:	80 91 bc 00 	lds	r24, 0x00BC	; 0x8000bc <__TEXT_REGION_LENGTH__+0x7f80bc>
    3126:	88 23       	and	r24, r24
    3128:	e4 f7       	brge	.-8      	; 0x3122 <I2C_ReadLastByte+0x6>
	return TWDR;//читаем регистр данных
    312a:	80 91 bb 00 	lds	r24, 0x00BB	; 0x8000bb <__TEXT_REGION_LENGTH__+0x7f80bb>
    312e:	08 95       	ret

00003130 <USART_Init>:

extern uint8_t rx_flag;

void USART_Init( unsigned int speed)//Инициализация модуля USART
{	
  UBRR0H = (unsigned char)(speed>>8);
    3130:	90 93 c5 00 	sts	0x00C5, r25	; 0x8000c5 <__TEXT_REGION_LENGTH__+0x7f80c5>
  UBRR0L = (unsigned char)speed;
    3134:	80 93 c4 00 	sts	0x00C4, r24	; 0x8000c4 <__TEXT_REGION_LENGTH__+0x7f80c4>
  UCSR0B |= (1<<RXEN0)|( 1<<TXEN0); //Включаем прием и передачу по USART
    3138:	e1 ec       	ldi	r30, 0xC1	; 193
    313a:	f0 e0       	ldi	r31, 0x00	; 0
    313c:	80 81       	ld	r24, Z
    313e:	88 61       	ori	r24, 0x18	; 24
    3140:	80 83       	st	Z, r24
  //UCSR0B |= (1<<RXCIE0); //Разрешаем прерывание при приеме
  UCSR0A |= (1<<U2X0); // Для 8 мгц, удвоение скорости
    3142:	e0 ec       	ldi	r30, 0xC0	; 192
    3144:	f0 e0       	ldi	r31, 0x00	; 0
    3146:	80 81       	ld	r24, Z
    3148:	82 60       	ori	r24, 0x02	; 2
    314a:	80 83       	st	Z, r24
  UCSR0C |= (1<<USBS0)|(1<<UCSZ01)|(1<<UCSZ00);// Обращаемся именно к регистру UCSRC (URSEL=1),
    314c:	e2 ec       	ldi	r30, 0xC2	; 194
    314e:	f0 e0       	ldi	r31, 0x00	; 0
    3150:	80 81       	ld	r24, Z
    3152:	8e 60       	ori	r24, 0x0E	; 14
    3154:	80 83       	st	Z, r24
    3156:	08 95       	ret

00003158 <USART_Transmit>:
  //ассинхронный режим (UMSEL=0), без контроля четности (UPM1=0 и UPM0=0),
  //2 стоп-бит (USBS=1), 8-бит посылка (UCSZ1=1 и UCSZ0=1)
  //UCSRC |= (1<<UPM1);//четность
}
void USART_Transmit( char* data ) //Функция отправки данных
{
    3158:	dc 01       	movw	r26, r24
  uint8_t i;
  uint8_t Flag = 0;
    315a:	40 e0       	ldi	r20, 0x00	; 0
  
  for (i = 0; i < strlen(data); i++)
    315c:	80 e0       	ldi	r24, 0x00	; 0
    315e:	13 c0       	rjmp	.+38     	; 0x3186 <USART_Transmit+0x2e>
  {
	  while ( !(UCSR0A & (1<<UDRE0)) )//Ожидание опустошения буфера приема
	  {
		  if (rx_flag == 1) 
    3160:	90 91 de 03 	lds	r25, 0x03DE	; 0x8003de <rx_flag>
    3164:	91 30       	cpi	r25, 0x01	; 1
    3166:	29 f0       	breq	.+10     	; 0x3172 <USART_Transmit+0x1a>
  uint8_t i;
  uint8_t Flag = 0;
  
  for (i = 0; i < strlen(data); i++)
  {
	  while ( !(UCSR0A & (1<<UDRE0)) )//Ожидание опустошения буфера приема
    3168:	90 91 c0 00 	lds	r25, 0x00C0	; 0x8000c0 <__TEXT_REGION_LENGTH__+0x7f80c0>
    316c:	95 ff       	sbrs	r25, 5
    316e:	f8 cf       	rjmp	.-16     	; 0x3160 <USART_Transmit+0x8>
    3170:	01 c0       	rjmp	.+2      	; 0x3174 <USART_Transmit+0x1c>
	  {
		  if (rx_flag == 1) 
		  {
			  Flag = 1;
    3172:	41 e0       	ldi	r20, 0x01	; 1
			  break;
		  }
	  } 
	  if (Flag == 1)
    3174:	41 30       	cpi	r20, 0x01	; 1
    3176:	99 f0       	breq	.+38     	; 0x319e <USART_Transmit+0x46>
	  {
		  break;
	  }
	  UDR0 = data[i]; //Начало передачи данных
    3178:	fd 01       	movw	r30, r26
    317a:	e2 0f       	add	r30, r18
    317c:	f3 1f       	adc	r31, r19
    317e:	90 81       	ld	r25, Z
    3180:	90 93 c6 00 	sts	0x00C6, r25	; 0x8000c6 <__TEXT_REGION_LENGTH__+0x7f80c6>
void USART_Transmit( char* data ) //Функция отправки данных
{
  uint8_t i;
  uint8_t Flag = 0;
  
  for (i = 0; i < strlen(data); i++)
    3184:	8f 5f       	subi	r24, 0xFF	; 255
    3186:	28 2f       	mov	r18, r24
    3188:	30 e0       	ldi	r19, 0x00	; 0
    318a:	fd 01       	movw	r30, r26
    318c:	01 90       	ld	r0, Z+
    318e:	00 20       	and	r0, r0
    3190:	e9 f7       	brne	.-6      	; 0x318c <USART_Transmit+0x34>
    3192:	31 97       	sbiw	r30, 0x01	; 1
    3194:	ea 1b       	sub	r30, r26
    3196:	fb 0b       	sbc	r31, r27
    3198:	2e 17       	cp	r18, r30
    319a:	3f 07       	cpc	r19, r31
    319c:	28 f3       	brcs	.-54     	; 0x3168 <USART_Transmit+0x10>
    319e:	08 95       	ret

000031a0 <Print_Hello_World>:
extern uint8_t receive_counter;
extern uint8_t WiFi_Flag;

//Окно приветсвия на экране дисплея
void Print_Hello_World()
{	
    31a0:	ef 92       	push	r14
    31a2:	ff 92       	push	r15
    31a4:	0f 93       	push	r16
    31a6:	1f 93       	push	r17
    31a8:	cf 93       	push	r28
    31aa:	df 93       	push	r29
    31ac:	cd b7       	in	r28, 0x3d	; 61
    31ae:	de b7       	in	r29, 0x3e	; 62
    31b0:	d4 50       	subi	r29, 0x04	; 4
    31b2:	0f b6       	in	r0, 0x3f	; 63
    31b4:	f8 94       	cli
    31b6:	de bf       	out	0x3e, r29	; 62
    31b8:	0f be       	out	0x3f, r0	; 63
    31ba:	cd bf       	out	0x3d, r28	; 61
	uint8_t Frame_buffer[1024] = { 0 }; //Буфер кадра
    31bc:	9e 01       	movw	r18, r28
    31be:	2f 5f       	subi	r18, 0xFF	; 255
    31c0:	3f 4f       	sbci	r19, 0xFF	; 255
    31c2:	79 01       	movw	r14, r18
    31c4:	80 e0       	ldi	r24, 0x00	; 0
    31c6:	94 e0       	ldi	r25, 0x04	; 4
    31c8:	f9 01       	movw	r30, r18
    31ca:	9c 01       	movw	r18, r24
    31cc:	11 92       	st	Z+, r1
    31ce:	21 50       	subi	r18, 0x01	; 1
    31d0:	30 40       	sbci	r19, 0x00	; 0
    31d2:	e1 f7       	brne	.-8      	; 0x31cc <Print_Hello_World+0x2c>
	LCD_12864_GrapnicMode(1);
    31d4:	81 e0       	ldi	r24, 0x01	; 1
    31d6:	0e 94 fe 07 	call	0xffc	; 0xffc <LCD_12864_GrapnicMode>
	LCD_12864_Print_jpeg(Frame_buffer);
    31da:	c7 01       	movw	r24, r14
    31dc:	0e 94 54 0c 	call	0x18a8	; 0x18a8 <LCD_12864_Print_jpeg>
	LCD_12864_Decode_UTF8(40, 0, 0, "ДОМАШНЯЯ", Frame_buffer);
    31e0:	87 01       	movw	r16, r14
    31e2:	2c e7       	ldi	r18, 0x7C	; 124
    31e4:	31 e0       	ldi	r19, 0x01	; 1
    31e6:	40 e0       	ldi	r20, 0x00	; 0
    31e8:	60 e0       	ldi	r22, 0x00	; 0
    31ea:	88 e2       	ldi	r24, 0x28	; 40
    31ec:	90 e0       	ldi	r25, 0x00	; 0
    31ee:	0e 94 9f 0b 	call	0x173e	; 0x173e <LCD_12864_Decode_UTF8>
	LCD_12864_Decode_UTF8(30, 7, 0, "МЕТЕОСТАНЦИЯ", Frame_buffer);
    31f2:	25 e8       	ldi	r18, 0x85	; 133
    31f4:	31 e0       	ldi	r19, 0x01	; 1
    31f6:	40 e0       	ldi	r20, 0x00	; 0
    31f8:	67 e0       	ldi	r22, 0x07	; 7
    31fa:	8e e1       	ldi	r24, 0x1E	; 30
    31fc:	90 e0       	ldi	r25, 0x00	; 0
    31fe:	0e 94 9f 0b 	call	0x173e	; 0x173e <LCD_12864_Decode_UTF8>
	LCD_12864_Draw_bitmap(Frame_buffer);
    3202:	c7 01       	movw	r24, r14
    3204:	0e 94 1d 08 	call	0x103a	; 0x103a <LCD_12864_Draw_bitmap>
	LCD_12864_GrapnicMode(0);
    3208:	80 e0       	ldi	r24, 0x00	; 0
    320a:	0e 94 fe 07 	call	0xffc	; 0xffc <LCD_12864_GrapnicMode>
}
    320e:	dc 5f       	subi	r29, 0xFC	; 252
    3210:	0f b6       	in	r0, 0x3f	; 63
    3212:	f8 94       	cli
    3214:	de bf       	out	0x3e, r29	; 62
    3216:	0f be       	out	0x3f, r0	; 63
    3218:	cd bf       	out	0x3d, r28	; 61
    321a:	df 91       	pop	r29
    321c:	cf 91       	pop	r28
    321e:	1f 91       	pop	r17
    3220:	0f 91       	pop	r16
    3222:	ff 90       	pop	r15
    3224:	ef 90       	pop	r14
    3226:	08 95       	ret

00003228 <Print_Download>:
//Окно загрузки
void Print_Download()
{
    3228:	ef 92       	push	r14
    322a:	ff 92       	push	r15
    322c:	0f 93       	push	r16
    322e:	1f 93       	push	r17
    3230:	cf 93       	push	r28
    3232:	df 93       	push	r29
    3234:	cd b7       	in	r28, 0x3d	; 61
    3236:	de b7       	in	r29, 0x3e	; 62
    3238:	d4 50       	subi	r29, 0x04	; 4
    323a:	0f b6       	in	r0, 0x3f	; 63
    323c:	f8 94       	cli
    323e:	de bf       	out	0x3e, r29	; 62
    3240:	0f be       	out	0x3f, r0	; 63
    3242:	cd bf       	out	0x3d, r28	; 61
	uint8_t Frame_buffer[1024] = { 0 }; //Буфер кадра
    3244:	9e 01       	movw	r18, r28
    3246:	2f 5f       	subi	r18, 0xFF	; 255
    3248:	3f 4f       	sbci	r19, 0xFF	; 255
    324a:	79 01       	movw	r14, r18
    324c:	80 e0       	ldi	r24, 0x00	; 0
    324e:	94 e0       	ldi	r25, 0x04	; 4
    3250:	f9 01       	movw	r30, r18
    3252:	9c 01       	movw	r18, r24
    3254:	11 92       	st	Z+, r1
    3256:	21 50       	subi	r18, 0x01	; 1
    3258:	30 40       	sbci	r19, 0x00	; 0
    325a:	e1 f7       	brne	.-8      	; 0x3254 <Print_Download+0x2c>
	LCD_12864_GrapnicMode(1);
    325c:	81 e0       	ldi	r24, 0x01	; 1
    325e:	0e 94 fe 07 	call	0xffc	; 0xffc <LCD_12864_GrapnicMode>
	LCD_12864_Clean_Frame_buffer(Frame_buffer);
    3262:	c7 01       	movw	r24, r14
    3264:	0e 94 8a 0c 	call	0x1914	; 0x1914 <LCD_12864_Clean_Frame_buffer>
	LCD_12864_Draw_rectangle(6, 35, 112, 15, Frame_buffer);
    3268:	87 01       	movw	r16, r14
    326a:	2f e0       	ldi	r18, 0x0F	; 15
    326c:	30 e0       	ldi	r19, 0x00	; 0
    326e:	40 e7       	ldi	r20, 0x70	; 112
    3270:	50 e0       	ldi	r21, 0x00	; 0
    3272:	63 e2       	ldi	r22, 0x23	; 35
    3274:	70 e0       	ldi	r23, 0x00	; 0
    3276:	86 e0       	ldi	r24, 0x06	; 6
    3278:	90 e0       	ldi	r25, 0x00	; 0
    327a:	0e 94 f3 0c 	call	0x19e6	; 0x19e6 <LCD_12864_Draw_rectangle>
	LCD_12864_Decode_UTF8(3, 1, 0, "Пожалуйста подождите.", Frame_buffer);
    327e:	22 e9       	ldi	r18, 0x92	; 146
    3280:	31 e0       	ldi	r19, 0x01	; 1
    3282:	40 e0       	ldi	r20, 0x00	; 0
    3284:	61 e0       	ldi	r22, 0x01	; 1
    3286:	83 e0       	ldi	r24, 0x03	; 3
    3288:	90 e0       	ldi	r25, 0x00	; 0
    328a:	0e 94 9f 0b 	call	0x173e	; 0x173e <LCD_12864_Decode_UTF8>
	LCD_12864_Decode_UTF8(16, 3, 0, "Идёт загрузка...", Frame_buffer);
    328e:	28 ea       	ldi	r18, 0xA8	; 168
    3290:	31 e0       	ldi	r19, 0x01	; 1
    3292:	40 e0       	ldi	r20, 0x00	; 0
    3294:	63 e0       	ldi	r22, 0x03	; 3
    3296:	80 e1       	ldi	r24, 0x10	; 16
    3298:	90 e0       	ldi	r25, 0x00	; 0
    329a:	0e 94 9f 0b 	call	0x173e	; 0x173e <LCD_12864_Decode_UTF8>
	LCD_12864_Draw_bitmap(Frame_buffer);
    329e:	c7 01       	movw	r24, r14
    32a0:	0e 94 1d 08 	call	0x103a	; 0x103a <LCD_12864_Draw_bitmap>
	for(uint8_t i = 8; i <= 116 ; i = i + 11)
    32a4:	68 94       	set
    32a6:	ff 24       	eor	r15, r15
    32a8:	f3 f8       	bld	r15, 3
    32aa:	1b c0       	rjmp	.+54     	; 0x32e2 <Print_Download+0xba>
	{
		LCD_12864_Draw_rectangle_filled(i, 37, 9, 11, Frame_buffer);
    32ac:	8e 01       	movw	r16, r28
    32ae:	0f 5f       	subi	r16, 0xFF	; 255
    32b0:	1f 4f       	sbci	r17, 0xFF	; 255
    32b2:	2b e0       	ldi	r18, 0x0B	; 11
    32b4:	30 e0       	ldi	r19, 0x00	; 0
    32b6:	49 e0       	ldi	r20, 0x09	; 9
    32b8:	50 e0       	ldi	r21, 0x00	; 0
    32ba:	65 e2       	ldi	r22, 0x25	; 37
    32bc:	70 e0       	ldi	r23, 0x00	; 0
    32be:	8f 2d       	mov	r24, r15
    32c0:	90 e0       	ldi	r25, 0x00	; 0
    32c2:	0e 94 40 0d 	call	0x1a80	; 0x1a80 <LCD_12864_Draw_rectangle_filled>
		LCD_12864_Draw_bitmap(Frame_buffer);
    32c6:	c8 01       	movw	r24, r16
    32c8:	0e 94 1d 08 	call	0x103a	; 0x103a <LCD_12864_Draw_bitmap>
    32cc:	3f ef       	ldi	r19, 0xFF	; 255
    32ce:	82 e5       	ldi	r24, 0x52	; 82
    32d0:	97 e0       	ldi	r25, 0x07	; 7
    32d2:	31 50       	subi	r19, 0x01	; 1
    32d4:	80 40       	sbci	r24, 0x00	; 0
    32d6:	90 40       	sbci	r25, 0x00	; 0
    32d8:	e1 f7       	brne	.-8      	; 0x32d2 <Print_Download+0xaa>
    32da:	00 c0       	rjmp	.+0      	; 0x32dc <Print_Download+0xb4>
    32dc:	00 00       	nop
	LCD_12864_Clean_Frame_buffer(Frame_buffer);
	LCD_12864_Draw_rectangle(6, 35, 112, 15, Frame_buffer);
	LCD_12864_Decode_UTF8(3, 1, 0, "Пожалуйста подождите.", Frame_buffer);
	LCD_12864_Decode_UTF8(16, 3, 0, "Идёт загрузка...", Frame_buffer);
	LCD_12864_Draw_bitmap(Frame_buffer);
	for(uint8_t i = 8; i <= 116 ; i = i + 11)
    32de:	eb e0       	ldi	r30, 0x0B	; 11
    32e0:	fe 0e       	add	r15, r30
    32e2:	f4 e7       	ldi	r31, 0x74	; 116
    32e4:	ff 15       	cp	r31, r15
    32e6:	10 f7       	brcc	.-60     	; 0x32ac <Print_Download+0x84>
	{
		LCD_12864_Draw_rectangle_filled(i, 37, 9, 11, Frame_buffer);
		LCD_12864_Draw_bitmap(Frame_buffer);
		_delay_ms(300);
	}	
	LCD_12864_GrapnicMode(0);
    32e8:	80 e0       	ldi	r24, 0x00	; 0
    32ea:	0e 94 fe 07 	call	0xffc	; 0xffc <LCD_12864_GrapnicMode>
}
    32ee:	dc 5f       	subi	r29, 0xFC	; 252
    32f0:	0f b6       	in	r0, 0x3f	; 63
    32f2:	f8 94       	cli
    32f4:	de bf       	out	0x3e, r29	; 62
    32f6:	0f be       	out	0x3f, r0	; 63
    32f8:	cd bf       	out	0x3d, r28	; 61
    32fa:	df 91       	pop	r29
    32fc:	cf 91       	pop	r28
    32fe:	1f 91       	pop	r17
    3300:	0f 91       	pop	r16
    3302:	ff 90       	pop	r15
    3304:	ef 90       	pop	r14
    3306:	08 95       	ret

00003308 <Print_Menu_Page>:
	LCD_12864_Draw_bitmap(Frame_buffer);
	LCD_12864_GrapnicMode(0);
}
//Окно меню
void Print_Menu_Page()
{
    3308:	0f 93       	push	r16
    330a:	1f 93       	push	r17
    330c:	cf 93       	push	r28
    330e:	df 93       	push	r29
    3310:	cd b7       	in	r28, 0x3d	; 61
    3312:	de b7       	in	r29, 0x3e	; 62
    3314:	d4 50       	subi	r29, 0x04	; 4
    3316:	0f b6       	in	r0, 0x3f	; 63
    3318:	f8 94       	cli
    331a:	de bf       	out	0x3e, r29	; 62
    331c:	0f be       	out	0x3f, r0	; 63
    331e:	cd bf       	out	0x3d, r28	; 61
	uint8_t Frame_buffer[1024] = { 0 }; //Буфер кадра
    3320:	8e 01       	movw	r16, r28
    3322:	0f 5f       	subi	r16, 0xFF	; 255
    3324:	1f 4f       	sbci	r17, 0xFF	; 255
    3326:	80 e0       	ldi	r24, 0x00	; 0
    3328:	94 e0       	ldi	r25, 0x04	; 4
    332a:	f8 01       	movw	r30, r16
    332c:	9c 01       	movw	r18, r24
    332e:	11 92       	st	Z+, r1
    3330:	21 50       	subi	r18, 0x01	; 1
    3332:	30 40       	sbci	r19, 0x00	; 0
    3334:	e1 f7       	brne	.-8      	; 0x332e <Print_Menu_Page+0x26>
	LCD_12864_GrapnicMode(1);
    3336:	81 e0       	ldi	r24, 0x01	; 1
    3338:	0e 94 fe 07 	call	0xffc	; 0xffc <LCD_12864_GrapnicMode>
	LCD_12864_Clean_Frame_buffer(Frame_buffer);
    333c:	c8 01       	movw	r24, r16
    333e:	0e 94 8a 0c 	call	0x1914	; 0x1914 <LCD_12864_Clean_Frame_buffer>
	LCD_12864_Decode_UTF8(30, 0, 1, "ГЛАВНОЕ МЕНЮ", Frame_buffer);
    3342:	29 eb       	ldi	r18, 0xB9	; 185
    3344:	31 e0       	ldi	r19, 0x01	; 1
    3346:	41 e0       	ldi	r20, 0x01	; 1
    3348:	60 e0       	ldi	r22, 0x00	; 0
    334a:	8e e1       	ldi	r24, 0x1E	; 30
    334c:	90 e0       	ldi	r25, 0x00	; 0
    334e:	0e 94 9f 0b 	call	0x173e	; 0x173e <LCD_12864_Decode_UTF8>
	switch (cnt%4)
    3352:	80 91 13 04 	lds	r24, 0x0413	; 0x800413 <cnt>
    3356:	83 78       	andi	r24, 0x83	; 131
    3358:	1c f4       	brge	.+6      	; 0x3360 <Print_Menu_Page+0x58>
    335a:	81 50       	subi	r24, 0x01	; 1
    335c:	8c 6f       	ori	r24, 0xFC	; 252
    335e:	8f 5f       	subi	r24, 0xFF	; 255
    3360:	81 30       	cpi	r24, 0x01	; 1
    3362:	79 f1       	breq	.+94     	; 0x33c2 <Print_Menu_Page+0xba>
    3364:	1c f4       	brge	.+6      	; 0x336c <Print_Menu_Page+0x64>
    3366:	88 23       	and	r24, r24
    3368:	41 f0       	breq	.+16     	; 0x337a <Print_Menu_Page+0x72>
    336a:	96 c0       	rjmp	.+300    	; 0x3498 <Print_Menu_Page+0x190>
    336c:	82 30       	cpi	r24, 0x02	; 2
    336e:	09 f4       	brne	.+2      	; 0x3372 <Print_Menu_Page+0x6a>
    3370:	4c c0       	rjmp	.+152    	; 0x340a <Print_Menu_Page+0x102>
    3372:	83 30       	cpi	r24, 0x03	; 3
    3374:	09 f4       	brne	.+2      	; 0x3378 <Print_Menu_Page+0x70>
    3376:	6d c0       	rjmp	.+218    	; 0x3452 <Print_Menu_Page+0x14a>
    3378:	8f c0       	rjmp	.+286    	; 0x3498 <Print_Menu_Page+0x190>
	{
		case 0: LCD_12864_Decode_UTF8(15, 2, 1, "Главное инфо-окно", Frame_buffer);
    337a:	8e 01       	movw	r16, r28
    337c:	0f 5f       	subi	r16, 0xFF	; 255
    337e:	1f 4f       	sbci	r17, 0xFF	; 255
    3380:	26 ec       	ldi	r18, 0xC6	; 198
    3382:	31 e0       	ldi	r19, 0x01	; 1
    3384:	41 e0       	ldi	r20, 0x01	; 1
    3386:	62 e0       	ldi	r22, 0x02	; 2
    3388:	8f e0       	ldi	r24, 0x0F	; 15
    338a:	90 e0       	ldi	r25, 0x00	; 0
    338c:	0e 94 9f 0b 	call	0x173e	; 0x173e <LCD_12864_Decode_UTF8>
				LCD_12864_Decode_UTF8(15, 3, 0, "Настройка времени", Frame_buffer);
    3390:	28 ed       	ldi	r18, 0xD8	; 216
    3392:	31 e0       	ldi	r19, 0x01	; 1
    3394:	40 e0       	ldi	r20, 0x00	; 0
    3396:	63 e0       	ldi	r22, 0x03	; 3
    3398:	8f e0       	ldi	r24, 0x0F	; 15
    339a:	90 e0       	ldi	r25, 0x00	; 0
    339c:	0e 94 9f 0b 	call	0x173e	; 0x173e <LCD_12864_Decode_UTF8>
				LCD_12864_Decode_UTF8(15, 4, 0, "Справка", Frame_buffer);
    33a0:	2a ee       	ldi	r18, 0xEA	; 234
    33a2:	31 e0       	ldi	r19, 0x01	; 1
    33a4:	40 e0       	ldi	r20, 0x00	; 0
    33a6:	64 e0       	ldi	r22, 0x04	; 4
    33a8:	8f e0       	ldi	r24, 0x0F	; 15
    33aa:	90 e0       	ldi	r25, 0x00	; 0
    33ac:	0e 94 9f 0b 	call	0x173e	; 0x173e <LCD_12864_Decode_UTF8>
				LCD_12864_Decode_UTF8(15, 5, 0, "Доп.инфо", Frame_buffer);
    33b0:	22 ef       	ldi	r18, 0xF2	; 242
    33b2:	31 e0       	ldi	r19, 0x01	; 1
    33b4:	40 e0       	ldi	r20, 0x00	; 0
    33b6:	65 e0       	ldi	r22, 0x05	; 5
    33b8:	8f e0       	ldi	r24, 0x0F	; 15
    33ba:	90 e0       	ldi	r25, 0x00	; 0
    33bc:	0e 94 9f 0b 	call	0x173e	; 0x173e <LCD_12864_Decode_UTF8>
				break;
    33c0:	6b c0       	rjmp	.+214    	; 0x3498 <Print_Menu_Page+0x190>
		case 1: LCD_12864_Decode_UTF8(15, 2, 0, "Главное инфо-окно", Frame_buffer);
    33c2:	8e 01       	movw	r16, r28
    33c4:	0f 5f       	subi	r16, 0xFF	; 255
    33c6:	1f 4f       	sbci	r17, 0xFF	; 255
    33c8:	26 ec       	ldi	r18, 0xC6	; 198
    33ca:	31 e0       	ldi	r19, 0x01	; 1
    33cc:	40 e0       	ldi	r20, 0x00	; 0
    33ce:	62 e0       	ldi	r22, 0x02	; 2
    33d0:	8f e0       	ldi	r24, 0x0F	; 15
    33d2:	90 e0       	ldi	r25, 0x00	; 0
    33d4:	0e 94 9f 0b 	call	0x173e	; 0x173e <LCD_12864_Decode_UTF8>
				LCD_12864_Decode_UTF8(15, 3, 1, "Настройка времени", Frame_buffer);
    33d8:	28 ed       	ldi	r18, 0xD8	; 216
    33da:	31 e0       	ldi	r19, 0x01	; 1
    33dc:	41 e0       	ldi	r20, 0x01	; 1
    33de:	63 e0       	ldi	r22, 0x03	; 3
    33e0:	8f e0       	ldi	r24, 0x0F	; 15
    33e2:	90 e0       	ldi	r25, 0x00	; 0
    33e4:	0e 94 9f 0b 	call	0x173e	; 0x173e <LCD_12864_Decode_UTF8>
				LCD_12864_Decode_UTF8(15, 4, 0, "Справка", Frame_buffer);
    33e8:	2a ee       	ldi	r18, 0xEA	; 234
    33ea:	31 e0       	ldi	r19, 0x01	; 1
    33ec:	40 e0       	ldi	r20, 0x00	; 0
    33ee:	64 e0       	ldi	r22, 0x04	; 4
    33f0:	8f e0       	ldi	r24, 0x0F	; 15
    33f2:	90 e0       	ldi	r25, 0x00	; 0
    33f4:	0e 94 9f 0b 	call	0x173e	; 0x173e <LCD_12864_Decode_UTF8>
				LCD_12864_Decode_UTF8(15, 5, 0, "Доп.инфо", Frame_buffer);
    33f8:	22 ef       	ldi	r18, 0xF2	; 242
    33fa:	31 e0       	ldi	r19, 0x01	; 1
    33fc:	40 e0       	ldi	r20, 0x00	; 0
    33fe:	65 e0       	ldi	r22, 0x05	; 5
    3400:	8f e0       	ldi	r24, 0x0F	; 15
    3402:	90 e0       	ldi	r25, 0x00	; 0
    3404:	0e 94 9f 0b 	call	0x173e	; 0x173e <LCD_12864_Decode_UTF8>
				break;
    3408:	47 c0       	rjmp	.+142    	; 0x3498 <Print_Menu_Page+0x190>
		case 2: LCD_12864_Decode_UTF8(15, 2, 0, "Главное инфо-окно", Frame_buffer);
    340a:	8e 01       	movw	r16, r28
    340c:	0f 5f       	subi	r16, 0xFF	; 255
    340e:	1f 4f       	sbci	r17, 0xFF	; 255
    3410:	26 ec       	ldi	r18, 0xC6	; 198
    3412:	31 e0       	ldi	r19, 0x01	; 1
    3414:	40 e0       	ldi	r20, 0x00	; 0
    3416:	62 e0       	ldi	r22, 0x02	; 2
    3418:	8f e0       	ldi	r24, 0x0F	; 15
    341a:	90 e0       	ldi	r25, 0x00	; 0
    341c:	0e 94 9f 0b 	call	0x173e	; 0x173e <LCD_12864_Decode_UTF8>
				LCD_12864_Decode_UTF8(15, 3, 0, "Настройка времени", Frame_buffer);
    3420:	28 ed       	ldi	r18, 0xD8	; 216
    3422:	31 e0       	ldi	r19, 0x01	; 1
    3424:	40 e0       	ldi	r20, 0x00	; 0
    3426:	63 e0       	ldi	r22, 0x03	; 3
    3428:	8f e0       	ldi	r24, 0x0F	; 15
    342a:	90 e0       	ldi	r25, 0x00	; 0
    342c:	0e 94 9f 0b 	call	0x173e	; 0x173e <LCD_12864_Decode_UTF8>
				LCD_12864_Decode_UTF8(15, 4, 1, "Справка", Frame_buffer);
    3430:	2a ee       	ldi	r18, 0xEA	; 234
    3432:	31 e0       	ldi	r19, 0x01	; 1
    3434:	41 e0       	ldi	r20, 0x01	; 1
    3436:	64 e0       	ldi	r22, 0x04	; 4
    3438:	8f e0       	ldi	r24, 0x0F	; 15
    343a:	90 e0       	ldi	r25, 0x00	; 0
    343c:	0e 94 9f 0b 	call	0x173e	; 0x173e <LCD_12864_Decode_UTF8>
				LCD_12864_Decode_UTF8(15, 5, 0, "Доп.инфо", Frame_buffer);
    3440:	22 ef       	ldi	r18, 0xF2	; 242
    3442:	31 e0       	ldi	r19, 0x01	; 1
    3444:	40 e0       	ldi	r20, 0x00	; 0
    3446:	65 e0       	ldi	r22, 0x05	; 5
    3448:	8f e0       	ldi	r24, 0x0F	; 15
    344a:	90 e0       	ldi	r25, 0x00	; 0
    344c:	0e 94 9f 0b 	call	0x173e	; 0x173e <LCD_12864_Decode_UTF8>
				break;
    3450:	23 c0       	rjmp	.+70     	; 0x3498 <Print_Menu_Page+0x190>
		case 3: LCD_12864_Decode_UTF8(15, 2, 0, "Главное инфо-окно", Frame_buffer);
    3452:	8e 01       	movw	r16, r28
    3454:	0f 5f       	subi	r16, 0xFF	; 255
    3456:	1f 4f       	sbci	r17, 0xFF	; 255
    3458:	26 ec       	ldi	r18, 0xC6	; 198
    345a:	31 e0       	ldi	r19, 0x01	; 1
    345c:	40 e0       	ldi	r20, 0x00	; 0
    345e:	62 e0       	ldi	r22, 0x02	; 2
    3460:	8f e0       	ldi	r24, 0x0F	; 15
    3462:	90 e0       	ldi	r25, 0x00	; 0
    3464:	0e 94 9f 0b 	call	0x173e	; 0x173e <LCD_12864_Decode_UTF8>
				LCD_12864_Decode_UTF8(15, 3, 0, "Настройка времени", Frame_buffer);
    3468:	28 ed       	ldi	r18, 0xD8	; 216
    346a:	31 e0       	ldi	r19, 0x01	; 1
    346c:	40 e0       	ldi	r20, 0x00	; 0
    346e:	63 e0       	ldi	r22, 0x03	; 3
    3470:	8f e0       	ldi	r24, 0x0F	; 15
    3472:	90 e0       	ldi	r25, 0x00	; 0
    3474:	0e 94 9f 0b 	call	0x173e	; 0x173e <LCD_12864_Decode_UTF8>
				LCD_12864_Decode_UTF8(15, 4, 0, "Справка", Frame_buffer);
    3478:	2a ee       	ldi	r18, 0xEA	; 234
    347a:	31 e0       	ldi	r19, 0x01	; 1
    347c:	40 e0       	ldi	r20, 0x00	; 0
    347e:	64 e0       	ldi	r22, 0x04	; 4
    3480:	8f e0       	ldi	r24, 0x0F	; 15
    3482:	90 e0       	ldi	r25, 0x00	; 0
    3484:	0e 94 9f 0b 	call	0x173e	; 0x173e <LCD_12864_Decode_UTF8>
				LCD_12864_Decode_UTF8(15, 5, 1, "Доп.инфо", Frame_buffer);
    3488:	22 ef       	ldi	r18, 0xF2	; 242
    348a:	31 e0       	ldi	r19, 0x01	; 1
    348c:	41 e0       	ldi	r20, 0x01	; 1
    348e:	65 e0       	ldi	r22, 0x05	; 5
    3490:	8f e0       	ldi	r24, 0x0F	; 15
    3492:	90 e0       	ldi	r25, 0x00	; 0
    3494:	0e 94 9f 0b 	call	0x173e	; 0x173e <LCD_12864_Decode_UTF8>
				break;
	}
	
	LCD_12864_Draw_bitmap(Frame_buffer);
    3498:	ce 01       	movw	r24, r28
    349a:	01 96       	adiw	r24, 0x01	; 1
    349c:	0e 94 1d 08 	call	0x103a	; 0x103a <LCD_12864_Draw_bitmap>
	LCD_12864_GrapnicMode(0);
    34a0:	80 e0       	ldi	r24, 0x00	; 0
    34a2:	0e 94 fe 07 	call	0xffc	; 0xffc <LCD_12864_GrapnicMode>
}
    34a6:	dc 5f       	subi	r29, 0xFC	; 252
    34a8:	0f b6       	in	r0, 0x3f	; 63
    34aa:	f8 94       	cli
    34ac:	de bf       	out	0x3e, r29	; 62
    34ae:	0f be       	out	0x3f, r0	; 63
    34b0:	cd bf       	out	0x3d, r28	; 61
    34b2:	df 91       	pop	r29
    34b4:	cf 91       	pop	r28
    34b6:	1f 91       	pop	r17
    34b8:	0f 91       	pop	r16
    34ba:	08 95       	ret

000034bc <Print_Page_About>:
	LCD_12864_Draw_bitmap(Frame_buffer);
	LCD_12864_GrapnicMode(0);
}
//Окно справки
void Print_Page_About()
{
    34bc:	ef 92       	push	r14
    34be:	ff 92       	push	r15
    34c0:	0f 93       	push	r16
    34c2:	1f 93       	push	r17
    34c4:	cf 93       	push	r28
    34c6:	df 93       	push	r29
    34c8:	cd b7       	in	r28, 0x3d	; 61
    34ca:	de b7       	in	r29, 0x3e	; 62
    34cc:	d4 50       	subi	r29, 0x04	; 4
    34ce:	0f b6       	in	r0, 0x3f	; 63
    34d0:	f8 94       	cli
    34d2:	de bf       	out	0x3e, r29	; 62
    34d4:	0f be       	out	0x3f, r0	; 63
    34d6:	cd bf       	out	0x3d, r28	; 61
	uint8_t Frame_buffer[1024] = { 0 }; //Буфер кадра
    34d8:	9e 01       	movw	r18, r28
    34da:	2f 5f       	subi	r18, 0xFF	; 255
    34dc:	3f 4f       	sbci	r19, 0xFF	; 255
    34de:	79 01       	movw	r14, r18
    34e0:	80 e0       	ldi	r24, 0x00	; 0
    34e2:	94 e0       	ldi	r25, 0x04	; 4
    34e4:	f9 01       	movw	r30, r18
    34e6:	9c 01       	movw	r18, r24
    34e8:	11 92       	st	Z+, r1
    34ea:	21 50       	subi	r18, 0x01	; 1
    34ec:	30 40       	sbci	r19, 0x00	; 0
    34ee:	e1 f7       	brne	.-8      	; 0x34e8 <Print_Page_About+0x2c>
	LCD_12864_GrapnicMode(1);
    34f0:	81 e0       	ldi	r24, 0x01	; 1
    34f2:	0e 94 fe 07 	call	0xffc	; 0xffc <LCD_12864_GrapnicMode>
	LCD_12864_Clean_Frame_buffer(Frame_buffer);
    34f6:	c7 01       	movw	r24, r14
    34f8:	0e 94 8a 0c 	call	0x1914	; 0x1914 <LCD_12864_Clean_Frame_buffer>
	
	LCD_12864_Decode_UTF8(25, 0, 1, "Об устройстве", Frame_buffer);
    34fc:	87 01       	movw	r16, r14
    34fe:	2b ef       	ldi	r18, 0xFB	; 251
    3500:	31 e0       	ldi	r19, 0x01	; 1
    3502:	41 e0       	ldi	r20, 0x01	; 1
    3504:	60 e0       	ldi	r22, 0x00	; 0
    3506:	89 e1       	ldi	r24, 0x19	; 25
    3508:	90 e0       	ldi	r25, 0x00	; 0
    350a:	0e 94 9f 0b 	call	0x173e	; 0x173e <LCD_12864_Decode_UTF8>
	LCD_12864_Decode_UTF8(2, 1, 0, "\"Домашняя метеостан-", Frame_buffer);
    350e:	29 e0       	ldi	r18, 0x09	; 9
    3510:	32 e0       	ldi	r19, 0x02	; 2
    3512:	40 e0       	ldi	r20, 0x00	; 0
    3514:	61 e0       	ldi	r22, 0x01	; 1
    3516:	82 e0       	ldi	r24, 0x02	; 2
    3518:	90 e0       	ldi	r25, 0x00	; 0
    351a:	0e 94 9f 0b 	call	0x173e	; 0x173e <LCD_12864_Decode_UTF8>
	LCD_12864_Decode_UTF8(0, 2, 0, "ция (v.1.0)\"-предна-", Frame_buffer);
    351e:	2e e1       	ldi	r18, 0x1E	; 30
    3520:	32 e0       	ldi	r19, 0x02	; 2
    3522:	40 e0       	ldi	r20, 0x00	; 0
    3524:	62 e0       	ldi	r22, 0x02	; 2
    3526:	80 e0       	ldi	r24, 0x00	; 0
    3528:	90 e0       	ldi	r25, 0x00	; 0
    352a:	0e 94 9f 0b 	call	0x173e	; 0x173e <LCD_12864_Decode_UTF8>
	LCD_12864_Decode_UTF8(0, 3, 0, "значена для сбора и ", Frame_buffer);
    352e:	23 e3       	ldi	r18, 0x33	; 51
    3530:	32 e0       	ldi	r19, 0x02	; 2
    3532:	40 e0       	ldi	r20, 0x00	; 0
    3534:	63 e0       	ldi	r22, 0x03	; 3
    3536:	80 e0       	ldi	r24, 0x00	; 0
    3538:	90 e0       	ldi	r25, 0x00	; 0
    353a:	0e 94 9f 0b 	call	0x173e	; 0x173e <LCD_12864_Decode_UTF8>
	LCD_12864_Decode_UTF8(0, 4, 0, "обработки информации ", Frame_buffer);
    353e:	28 e4       	ldi	r18, 0x48	; 72
    3540:	32 e0       	ldi	r19, 0x02	; 2
    3542:	40 e0       	ldi	r20, 0x00	; 0
    3544:	64 e0       	ldi	r22, 0x04	; 4
    3546:	80 e0       	ldi	r24, 0x00	; 0
    3548:	90 e0       	ldi	r25, 0x00	; 0
    354a:	0e 94 9f 0b 	call	0x173e	; 0x173e <LCD_12864_Decode_UTF8>
	LCD_12864_Decode_UTF8(0, 5, 0, "о метео условиях за ", Frame_buffer);
    354e:	2e e5       	ldi	r18, 0x5E	; 94
    3550:	32 e0       	ldi	r19, 0x02	; 2
    3552:	40 e0       	ldi	r20, 0x00	; 0
    3554:	65 e0       	ldi	r22, 0x05	; 5
    3556:	80 e0       	ldi	r24, 0x00	; 0
    3558:	90 e0       	ldi	r25, 0x00	; 0
    355a:	0e 94 9f 0b 	call	0x173e	; 0x173e <LCD_12864_Decode_UTF8>
	LCD_12864_Decode_UTF8(0, 6, 0, "окном и в помещении.", Frame_buffer);
    355e:	23 e7       	ldi	r18, 0x73	; 115
    3560:	32 e0       	ldi	r19, 0x02	; 2
    3562:	40 e0       	ldi	r20, 0x00	; 0
    3564:	66 e0       	ldi	r22, 0x06	; 6
    3566:	80 e0       	ldi	r24, 0x00	; 0
    3568:	90 e0       	ldi	r25, 0x00	; 0
    356a:	0e 94 9f 0b 	call	0x173e	; 0x173e <LCD_12864_Decode_UTF8>
	LCD_12864_Decode_UTF8(25, 7, 1, "Назад в МЕНЮ", Frame_buffer);
    356e:	28 e8       	ldi	r18, 0x88	; 136
    3570:	32 e0       	ldi	r19, 0x02	; 2
    3572:	41 e0       	ldi	r20, 0x01	; 1
    3574:	67 e0       	ldi	r22, 0x07	; 7
    3576:	89 e1       	ldi	r24, 0x19	; 25
    3578:	90 e0       	ldi	r25, 0x00	; 0
    357a:	0e 94 9f 0b 	call	0x173e	; 0x173e <LCD_12864_Decode_UTF8>
	
	LCD_12864_Draw_bitmap(Frame_buffer);
    357e:	c7 01       	movw	r24, r14
    3580:	0e 94 1d 08 	call	0x103a	; 0x103a <LCD_12864_Draw_bitmap>
	LCD_12864_GrapnicMode(0);
    3584:	80 e0       	ldi	r24, 0x00	; 0
    3586:	0e 94 fe 07 	call	0xffc	; 0xffc <LCD_12864_GrapnicMode>
}
    358a:	dc 5f       	subi	r29, 0xFC	; 252
    358c:	0f b6       	in	r0, 0x3f	; 63
    358e:	f8 94       	cli
    3590:	de bf       	out	0x3e, r29	; 62
    3592:	0f be       	out	0x3f, r0	; 63
    3594:	cd bf       	out	0x3d, r28	; 61
    3596:	df 91       	pop	r29
    3598:	cf 91       	pop	r28
    359a:	1f 91       	pop	r17
    359c:	0f 91       	pop	r16
    359e:	ff 90       	pop	r15
    35a0:	ef 90       	pop	r14
    35a2:	08 95       	ret

000035a4 <Print_Page_Dop_Info>:
//Окно доп инфо
void Print_Page_Dop_Info()
{
    35a4:	ef 92       	push	r14
    35a6:	ff 92       	push	r15
    35a8:	0f 93       	push	r16
    35aa:	1f 93       	push	r17
    35ac:	cf 93       	push	r28
    35ae:	df 93       	push	r29
    35b0:	cd b7       	in	r28, 0x3d	; 61
    35b2:	de b7       	in	r29, 0x3e	; 62
    35b4:	d4 50       	subi	r29, 0x04	; 4
    35b6:	0f b6       	in	r0, 0x3f	; 63
    35b8:	f8 94       	cli
    35ba:	de bf       	out	0x3e, r29	; 62
    35bc:	0f be       	out	0x3f, r0	; 63
    35be:	cd bf       	out	0x3d, r28	; 61
	uint8_t Frame_buffer[1024] = { 0 }; //Буфер кадра
    35c0:	9e 01       	movw	r18, r28
    35c2:	2f 5f       	subi	r18, 0xFF	; 255
    35c4:	3f 4f       	sbci	r19, 0xFF	; 255
    35c6:	79 01       	movw	r14, r18
    35c8:	80 e0       	ldi	r24, 0x00	; 0
    35ca:	94 e0       	ldi	r25, 0x04	; 4
    35cc:	f9 01       	movw	r30, r18
    35ce:	9c 01       	movw	r18, r24
    35d0:	11 92       	st	Z+, r1
    35d2:	21 50       	subi	r18, 0x01	; 1
    35d4:	30 40       	sbci	r19, 0x00	; 0
    35d6:	e1 f7       	brne	.-8      	; 0x35d0 <Print_Page_Dop_Info+0x2c>
	LCD_12864_GrapnicMode(1);
    35d8:	81 e0       	ldi	r24, 0x01	; 1
    35da:	0e 94 fe 07 	call	0xffc	; 0xffc <LCD_12864_GrapnicMode>
	LCD_12864_Clean_Frame_buffer(Frame_buffer);
    35de:	c7 01       	movw	r24, r14
    35e0:	0e 94 8a 0c 	call	0x1914	; 0x1914 <LCD_12864_Clean_Frame_buffer>
	
	LCD_12864_Decode_UTF8(7, 0, 1, "Дополнительная инфо", Frame_buffer);
    35e4:	87 01       	movw	r16, r14
    35e6:	25 e9       	ldi	r18, 0x95	; 149
    35e8:	32 e0       	ldi	r19, 0x02	; 2
    35ea:	41 e0       	ldi	r20, 0x01	; 1
    35ec:	60 e0       	ldi	r22, 0x00	; 0
    35ee:	87 e0       	ldi	r24, 0x07	; 7
    35f0:	90 e0       	ldi	r25, 0x00	; 0
    35f2:	0e 94 9f 0b 	call	0x173e	; 0x173e <LCD_12864_Decode_UTF8>
	LCD_12864_Decode_UTF8(0, 1, 0, "Время запуска:", Frame_buffer);
    35f6:	29 ea       	ldi	r18, 0xA9	; 169
    35f8:	32 e0       	ldi	r19, 0x02	; 2
    35fa:	40 e0       	ldi	r20, 0x00	; 0
    35fc:	61 e0       	ldi	r22, 0x01	; 1
    35fe:	80 e0       	ldi	r24, 0x00	; 0
    3600:	90 e0       	ldi	r25, 0x00	; 0
    3602:	0e 94 9f 0b 	call	0x173e	; 0x173e <LCD_12864_Decode_UTF8>
	LCD_12864_Decode_UTF8(0, 2, 0, start_time, Frame_buffer);
    3606:	2a ec       	ldi	r18, 0xCA	; 202
    3608:	33 e0       	ldi	r19, 0x03	; 3
    360a:	40 e0       	ldi	r20, 0x00	; 0
    360c:	62 e0       	ldi	r22, 0x02	; 2
    360e:	80 e0       	ldi	r24, 0x00	; 0
    3610:	90 e0       	ldi	r25, 0x00	; 0
    3612:	0e 94 9f 0b 	call	0x173e	; 0x173e <LCD_12864_Decode_UTF8>
	//LCD_12864_Decode_UTF8(0, 3, 0, "Уличный передатчик:", Frame_buffer);
	LCD_12864_Decode_UTF8(0, 3, 0, "Время посл.приема:", Frame_buffer);
    3616:	28 eb       	ldi	r18, 0xB8	; 184
    3618:	32 e0       	ldi	r19, 0x02	; 2
    361a:	40 e0       	ldi	r20, 0x00	; 0
    361c:	63 e0       	ldi	r22, 0x03	; 3
    361e:	80 e0       	ldi	r24, 0x00	; 0
    3620:	90 e0       	ldi	r25, 0x00	; 0
    3622:	0e 94 9f 0b 	call	0x173e	; 0x173e <LCD_12864_Decode_UTF8>
	LCD_12864_Decode_UTF8(0, 4, 0, receive_time, Frame_buffer);
    3626:	27 e1       	ldi	r18, 0x17	; 23
    3628:	31 e0       	ldi	r19, 0x01	; 1
    362a:	40 e0       	ldi	r20, 0x00	; 0
    362c:	64 e0       	ldi	r22, 0x04	; 4
    362e:	80 e0       	ldi	r24, 0x00	; 0
    3630:	90 e0       	ldi	r25, 0x00	; 0
    3632:	0e 94 9f 0b 	call	0x173e	; 0x173e <LCD_12864_Decode_UTF8>
	LCD_12864_Decode_UTF8(0, 5, 0, "Время отправки в БД:", Frame_buffer);
    3636:	2b ec       	ldi	r18, 0xCB	; 203
    3638:	32 e0       	ldi	r19, 0x02	; 2
    363a:	40 e0       	ldi	r20, 0x00	; 0
    363c:	65 e0       	ldi	r22, 0x05	; 5
    363e:	80 e0       	ldi	r24, 0x00	; 0
    3640:	90 e0       	ldi	r25, 0x00	; 0
    3642:	0e 94 9f 0b 	call	0x173e	; 0x173e <LCD_12864_Decode_UTF8>
	LCD_12864_Decode_UTF8(0, 6, 0, send_time, Frame_buffer);
    3646:	23 e0       	ldi	r18, 0x03	; 3
    3648:	31 e0       	ldi	r19, 0x01	; 1
    364a:	40 e0       	ldi	r20, 0x00	; 0
    364c:	66 e0       	ldi	r22, 0x06	; 6
    364e:	80 e0       	ldi	r24, 0x00	; 0
    3650:	90 e0       	ldi	r25, 0x00	; 0
    3652:	0e 94 9f 0b 	call	0x173e	; 0x173e <LCD_12864_Decode_UTF8>
	
	LCD_12864_Decode_UTF8(25, 7, 1, "Назад в МЕНЮ", Frame_buffer);
    3656:	28 e8       	ldi	r18, 0x88	; 136
    3658:	32 e0       	ldi	r19, 0x02	; 2
    365a:	41 e0       	ldi	r20, 0x01	; 1
    365c:	67 e0       	ldi	r22, 0x07	; 7
    365e:	89 e1       	ldi	r24, 0x19	; 25
    3660:	90 e0       	ldi	r25, 0x00	; 0
    3662:	0e 94 9f 0b 	call	0x173e	; 0x173e <LCD_12864_Decode_UTF8>
	
	LCD_12864_Draw_bitmap(Frame_buffer);
    3666:	c7 01       	movw	r24, r14
    3668:	0e 94 1d 08 	call	0x103a	; 0x103a <LCD_12864_Draw_bitmap>
	LCD_12864_GrapnicMode(0);
    366c:	80 e0       	ldi	r24, 0x00	; 0
    366e:	0e 94 fe 07 	call	0xffc	; 0xffc <LCD_12864_GrapnicMode>
}
    3672:	dc 5f       	subi	r29, 0xFC	; 252
    3674:	0f b6       	in	r0, 0x3f	; 63
    3676:	f8 94       	cli
    3678:	de bf       	out	0x3e, r29	; 62
    367a:	0f be       	out	0x3f, r0	; 63
    367c:	cd bf       	out	0x3d, r28	; 61
    367e:	df 91       	pop	r29
    3680:	cf 91       	pop	r28
    3682:	1f 91       	pop	r17
    3684:	0f 91       	pop	r16
    3686:	ff 90       	pop	r15
    3688:	ef 90       	pop	r14
    368a:	08 95       	ret

0000368c <DrawSun>:
//-----------Графика вспомогательная для главного окна------//
void DrawSun(uint8_t *Frame_buffer)
{
    368c:	0f 93       	push	r16
    368e:	1f 93       	push	r17
    3690:	cf 93       	push	r28
    3692:	df 93       	push	r29
    3694:	ec 01       	movw	r28, r24
	LCD_12864_Draw_circle_filled(110, 53, 5, Frame_buffer);
    3696:	9c 01       	movw	r18, r24
    3698:	45 e0       	ldi	r20, 0x05	; 5
    369a:	50 e0       	ldi	r21, 0x00	; 0
    369c:	65 e3       	ldi	r22, 0x35	; 53
    369e:	70 e0       	ldi	r23, 0x00	; 0
    36a0:	8e e6       	ldi	r24, 0x6E	; 110
    36a2:	90 e0       	ldi	r25, 0x00	; 0
    36a4:	0e 94 28 0e 	call	0x1c50	; 0x1c50 <LCD_12864_Draw_circle_filled>
	LCD_12864_Draw_line(110, 45, 110, 43, Frame_buffer);
    36a8:	8e 01       	movw	r16, r28
    36aa:	2b e2       	ldi	r18, 0x2B	; 43
    36ac:	4e e6       	ldi	r20, 0x6E	; 110
    36ae:	6d e2       	ldi	r22, 0x2D	; 45
    36b0:	8e e6       	ldi	r24, 0x6E	; 110
    36b2:	0e 94 8e 0c 	call	0x191c	; 0x191c <LCD_12864_Draw_line>
	LCD_12864_Draw_line(118, 53, 120, 53, Frame_buffer);
    36b6:	25 e3       	ldi	r18, 0x35	; 53
    36b8:	48 e7       	ldi	r20, 0x78	; 120
    36ba:	65 e3       	ldi	r22, 0x35	; 53
    36bc:	86 e7       	ldi	r24, 0x76	; 118
    36be:	0e 94 8e 0c 	call	0x191c	; 0x191c <LCD_12864_Draw_line>
	LCD_12864_Draw_line(102, 53, 100, 53, Frame_buffer);
    36c2:	25 e3       	ldi	r18, 0x35	; 53
    36c4:	44 e6       	ldi	r20, 0x64	; 100
    36c6:	65 e3       	ldi	r22, 0x35	; 53
    36c8:	86 e6       	ldi	r24, 0x66	; 102
    36ca:	0e 94 8e 0c 	call	0x191c	; 0x191c <LCD_12864_Draw_line>
	LCD_12864_Draw_line(110, 61, 110, 63, Frame_buffer);
    36ce:	2f e3       	ldi	r18, 0x3F	; 63
    36d0:	4e e6       	ldi	r20, 0x6E	; 110
    36d2:	6d e3       	ldi	r22, 0x3D	; 61
    36d4:	8e e6       	ldi	r24, 0x6E	; 110
    36d6:	0e 94 8e 0c 	call	0x191c	; 0x191c <LCD_12864_Draw_line>
	LCD_12864_Draw_line(104, 48, 102, 46, Frame_buffer);
    36da:	2e e2       	ldi	r18, 0x2E	; 46
    36dc:	46 e6       	ldi	r20, 0x66	; 102
    36de:	60 e3       	ldi	r22, 0x30	; 48
    36e0:	88 e6       	ldi	r24, 0x68	; 104
    36e2:	0e 94 8e 0c 	call	0x191c	; 0x191c <LCD_12864_Draw_line>
	LCD_12864_Draw_line(116, 48, 118, 46, Frame_buffer);
    36e6:	2e e2       	ldi	r18, 0x2E	; 46
    36e8:	46 e7       	ldi	r20, 0x76	; 118
    36ea:	60 e3       	ldi	r22, 0x30	; 48
    36ec:	84 e7       	ldi	r24, 0x74	; 116
    36ee:	0e 94 8e 0c 	call	0x191c	; 0x191c <LCD_12864_Draw_line>
	LCD_12864_Draw_line(116, 58, 118, 60, Frame_buffer);
    36f2:	2c e3       	ldi	r18, 0x3C	; 60
    36f4:	46 e7       	ldi	r20, 0x76	; 118
    36f6:	6a e3       	ldi	r22, 0x3A	; 58
    36f8:	84 e7       	ldi	r24, 0x74	; 116
    36fa:	0e 94 8e 0c 	call	0x191c	; 0x191c <LCD_12864_Draw_line>
	LCD_12864_Draw_line(104, 58, 102, 60, Frame_buffer);
    36fe:	2c e3       	ldi	r18, 0x3C	; 60
    3700:	46 e6       	ldi	r20, 0x66	; 102
    3702:	6a e3       	ldi	r22, 0x3A	; 58
    3704:	88 e6       	ldi	r24, 0x68	; 104
    3706:	0e 94 8e 0c 	call	0x191c	; 0x191c <LCD_12864_Draw_line>
}
    370a:	df 91       	pop	r29
    370c:	cf 91       	pop	r28
    370e:	1f 91       	pop	r17
    3710:	0f 91       	pop	r16
    3712:	08 95       	ret

00003714 <DrawSunWithClouds>:
void DrawSunWithClouds(uint8_t *Frame_buffer)
{
    3714:	0f 93       	push	r16
    3716:	1f 93       	push	r17
    3718:	cf 93       	push	r28
    371a:	df 93       	push	r29
    371c:	ec 01       	movw	r28, r24
	//солнце
	LCD_12864_Draw_circle(110, 53, 5, Frame_buffer);
    371e:	9c 01       	movw	r18, r24
    3720:	45 e0       	ldi	r20, 0x05	; 5
    3722:	65 e3       	ldi	r22, 0x35	; 53
    3724:	8e e6       	ldi	r24, 0x6E	; 110
    3726:	0e 94 89 0d 	call	0x1b12	; 0x1b12 <LCD_12864_Draw_circle>
	LCD_12864_Draw_line(110, 45, 110, 43, Frame_buffer);
    372a:	8e 01       	movw	r16, r28
    372c:	2b e2       	ldi	r18, 0x2B	; 43
    372e:	4e e6       	ldi	r20, 0x6E	; 110
    3730:	6d e2       	ldi	r22, 0x2D	; 45
    3732:	8e e6       	ldi	r24, 0x6E	; 110
    3734:	0e 94 8e 0c 	call	0x191c	; 0x191c <LCD_12864_Draw_line>
	LCD_12864_Draw_line(118, 53, 120, 53, Frame_buffer);
    3738:	25 e3       	ldi	r18, 0x35	; 53
    373a:	48 e7       	ldi	r20, 0x78	; 120
    373c:	65 e3       	ldi	r22, 0x35	; 53
    373e:	86 e7       	ldi	r24, 0x76	; 118
    3740:	0e 94 8e 0c 	call	0x191c	; 0x191c <LCD_12864_Draw_line>
	LCD_12864_Draw_line(110, 61, 110, 63, Frame_buffer);
    3744:	2f e3       	ldi	r18, 0x3F	; 63
    3746:	4e e6       	ldi	r20, 0x6E	; 110
    3748:	6d e3       	ldi	r22, 0x3D	; 61
    374a:	8e e6       	ldi	r24, 0x6E	; 110
    374c:	0e 94 8e 0c 	call	0x191c	; 0x191c <LCD_12864_Draw_line>
	LCD_12864_Draw_line(116, 48, 118, 46, Frame_buffer);
    3750:	2e e2       	ldi	r18, 0x2E	; 46
    3752:	46 e7       	ldi	r20, 0x76	; 118
    3754:	60 e3       	ldi	r22, 0x30	; 48
    3756:	84 e7       	ldi	r24, 0x74	; 116
    3758:	0e 94 8e 0c 	call	0x191c	; 0x191c <LCD_12864_Draw_line>
	LCD_12864_Draw_line(116, 58, 118, 60, Frame_buffer);
    375c:	2c e3       	ldi	r18, 0x3C	; 60
    375e:	46 e7       	ldi	r20, 0x76	; 118
    3760:	6a e3       	ldi	r22, 0x3A	; 58
    3762:	84 e7       	ldi	r24, 0x74	; 116
    3764:	0e 94 8e 0c 	call	0x191c	; 0x191c <LCD_12864_Draw_line>
	//облако
	LCD_12864_Draw_line(90, 57, 106, 57, Frame_buffer);
    3768:	29 e3       	ldi	r18, 0x39	; 57
    376a:	4a e6       	ldi	r20, 0x6A	; 106
    376c:	69 e3       	ldi	r22, 0x39	; 57
    376e:	8a e5       	ldi	r24, 0x5A	; 90
    3770:	0e 94 8e 0c 	call	0x191c	; 0x191c <LCD_12864_Draw_line>
	LCD_12864_Draw_pixel(89, 56, Frame_buffer);
    3774:	ae 01       	movw	r20, r28
    3776:	68 e3       	ldi	r22, 0x38	; 56
    3778:	89 e5       	ldi	r24, 0x59	; 89
    377a:	0e 94 fb 06 	call	0xdf6	; 0xdf6 <LCD_12864_Draw_pixel>
	LCD_12864_Draw_pixel(88, 55, Frame_buffer);
    377e:	ae 01       	movw	r20, r28
    3780:	67 e3       	ldi	r22, 0x37	; 55
    3782:	88 e5       	ldi	r24, 0x58	; 88
    3784:	0e 94 fb 06 	call	0xdf6	; 0xdf6 <LCD_12864_Draw_pixel>
	LCD_12864_Draw_line(87, 52, 87, 54, Frame_buffer);
    3788:	26 e3       	ldi	r18, 0x36	; 54
    378a:	47 e5       	ldi	r20, 0x57	; 87
    378c:	64 e3       	ldi	r22, 0x34	; 52
    378e:	87 e5       	ldi	r24, 0x57	; 87
    3790:	0e 94 8e 0c 	call	0x191c	; 0x191c <LCD_12864_Draw_line>
	/*LCD_12864_Draw_pixel(87, 54, Frame_buffer);
	LCD_12864_Draw_pixel(87, 53, Frame_buffer);
	LCD_12864_Draw_pixel(87, 52, Frame_buffer);*/
	LCD_12864_Draw_pixel(88, 51, Frame_buffer);
    3794:	ae 01       	movw	r20, r28
    3796:	63 e3       	ldi	r22, 0x33	; 51
    3798:	88 e5       	ldi	r24, 0x58	; 88
    379a:	0e 94 fb 06 	call	0xdf6	; 0xdf6 <LCD_12864_Draw_pixel>
	LCD_12864_Draw_line(89, 50, 93, 50, Frame_buffer);
    379e:	22 e3       	ldi	r18, 0x32	; 50
    37a0:	4d e5       	ldi	r20, 0x5D	; 93
    37a2:	62 e3       	ldi	r22, 0x32	; 50
    37a4:	89 e5       	ldi	r24, 0x59	; 89
    37a6:	0e 94 8e 0c 	call	0x191c	; 0x191c <LCD_12864_Draw_line>
	/*LCD_12864_Draw_pixel(89, 50, Frame_buffer);
	LCD_12864_Draw_pixel(90, 50, Frame_buffer);
	LCD_12864_Draw_pixel(91, 50, Frame_buffer);
	LCD_12864_Draw_pixel(92, 50, Frame_buffer);
	LCD_12864_Draw_pixel(93, 50, Frame_buffer);*/
	LCD_12864_Draw_pixel(94, 51, Frame_buffer);
    37aa:	ae 01       	movw	r20, r28
    37ac:	63 e3       	ldi	r22, 0x33	; 51
    37ae:	8e e5       	ldi	r24, 0x5E	; 94
    37b0:	0e 94 fb 06 	call	0xdf6	; 0xdf6 <LCD_12864_Draw_pixel>
	LCD_12864_Draw_line(92, 46, 92, 49, Frame_buffer);
    37b4:	21 e3       	ldi	r18, 0x31	; 49
    37b6:	4c e5       	ldi	r20, 0x5C	; 92
    37b8:	6e e2       	ldi	r22, 0x2E	; 46
    37ba:	8c e5       	ldi	r24, 0x5C	; 92
    37bc:	0e 94 8e 0c 	call	0x191c	; 0x191c <LCD_12864_Draw_line>
	/*LCD_12864_Draw_pixel(92, 49, Frame_buffer);
	LCD_12864_Draw_pixel(92, 48, Frame_buffer);
	LCD_12864_Draw_pixel(92, 47, Frame_buffer);
	LCD_12864_Draw_pixel(92, 46, Frame_buffer);*/
	LCD_12864_Draw_pixel(93, 45, Frame_buffer);
    37c0:	ae 01       	movw	r20, r28
    37c2:	6d e2       	ldi	r22, 0x2D	; 45
    37c4:	8d e5       	ldi	r24, 0x5D	; 93
    37c6:	0e 94 fb 06 	call	0xdf6	; 0xdf6 <LCD_12864_Draw_pixel>
	LCD_12864_Draw_line(94, 44, 100, 44, Frame_buffer);
    37ca:	2c e2       	ldi	r18, 0x2C	; 44
    37cc:	44 e6       	ldi	r20, 0x64	; 100
    37ce:	6c e2       	ldi	r22, 0x2C	; 44
    37d0:	8e e5       	ldi	r24, 0x5E	; 94
    37d2:	0e 94 8e 0c 	call	0x191c	; 0x191c <LCD_12864_Draw_line>
	LCD_12864_Draw_pixel(97, 44, Frame_buffer);
	LCD_12864_Draw_pixel(98, 44, Frame_buffer);
	LCD_12864_Draw_pixel(99, 44, Frame_buffer);
	LCD_12864_Draw_pixel(100, 44, Frame_buffer);*/
	
	LCD_12864_Draw_pixel(101, 45, Frame_buffer);
    37d6:	ae 01       	movw	r20, r28
    37d8:	6d e2       	ldi	r22, 0x2D	; 45
    37da:	85 e6       	ldi	r24, 0x65	; 101
    37dc:	0e 94 fb 06 	call	0xdf6	; 0xdf6 <LCD_12864_Draw_pixel>
	LCD_12864_Draw_line(102, 46, 102, 48, Frame_buffer);
    37e0:	20 e3       	ldi	r18, 0x30	; 48
    37e2:	46 e6       	ldi	r20, 0x66	; 102
    37e4:	6e e2       	ldi	r22, 0x2E	; 46
    37e6:	86 e6       	ldi	r24, 0x66	; 102
    37e8:	0e 94 8e 0c 	call	0x191c	; 0x191c <LCD_12864_Draw_line>
	/*LCD_12864_Draw_pixel(102, 46, Frame_buffer);
	LCD_12864_Draw_pixel(102, 47, Frame_buffer);
	LCD_12864_Draw_pixel(102, 48, Frame_buffer);*/
	LCD_12864_Draw_pixel(101, 49, Frame_buffer);
    37ec:	ae 01       	movw	r20, r28
    37ee:	61 e3       	ldi	r22, 0x31	; 49
    37f0:	85 e6       	ldi	r24, 0x65	; 101
    37f2:	0e 94 fb 06 	call	0xdf6	; 0xdf6 <LCD_12864_Draw_pixel>
	LCD_12864_Draw_line(102, 48, 106, 48, Frame_buffer);
    37f6:	20 e3       	ldi	r18, 0x30	; 48
    37f8:	4a e6       	ldi	r20, 0x6A	; 106
    37fa:	60 e3       	ldi	r22, 0x30	; 48
    37fc:	86 e6       	ldi	r24, 0x66	; 102
    37fe:	0e 94 8e 0c 	call	0x191c	; 0x191c <LCD_12864_Draw_line>
	LCD_12864_Draw_pixel(103, 48, Frame_buffer);
	LCD_12864_Draw_pixel(104, 48, Frame_buffer);
	LCD_12864_Draw_pixel(105, 48, Frame_buffer);
	LCD_12864_Draw_pixel(106, 48, Frame_buffer);*/
	
	LCD_12864_Draw_pixel(107, 56, Frame_buffer);
    3802:	ae 01       	movw	r20, r28
    3804:	68 e3       	ldi	r22, 0x38	; 56
    3806:	8b e6       	ldi	r24, 0x6B	; 107
    3808:	0e 94 fb 06 	call	0xdf6	; 0xdf6 <LCD_12864_Draw_pixel>
	LCD_12864_Draw_pixel(108, 55, Frame_buffer);
    380c:	ae 01       	movw	r20, r28
    380e:	67 e3       	ldi	r22, 0x37	; 55
    3810:	8c e6       	ldi	r24, 0x6C	; 108
    3812:	0e 94 fb 06 	call	0xdf6	; 0xdf6 <LCD_12864_Draw_pixel>
	LCD_12864_Draw_line(109, 51, 109, 54, Frame_buffer);
    3816:	26 e3       	ldi	r18, 0x36	; 54
    3818:	4d e6       	ldi	r20, 0x6D	; 109
    381a:	63 e3       	ldi	r22, 0x33	; 51
    381c:	8d e6       	ldi	r24, 0x6D	; 109
    381e:	0e 94 8e 0c 	call	0x191c	; 0x191c <LCD_12864_Draw_line>
	/*LCD_12864_Draw_pixel(109, 54, Frame_buffer);
	LCD_12864_Draw_pixel(109, 53, Frame_buffer);
	LCD_12864_Draw_pixel(109, 52, Frame_buffer);
	LCD_12864_Draw_pixel(109, 51, Frame_buffer);*/
	LCD_12864_Draw_pixel(108, 50, Frame_buffer);
    3822:	ae 01       	movw	r20, r28
    3824:	62 e3       	ldi	r22, 0x32	; 50
    3826:	8c e6       	ldi	r24, 0x6C	; 108
    3828:	0e 94 fb 06 	call	0xdf6	; 0xdf6 <LCD_12864_Draw_pixel>
	LCD_12864_Draw_pixel(107, 49, Frame_buffer);
    382c:	ae 01       	movw	r20, r28
    382e:	61 e3       	ldi	r22, 0x31	; 49
    3830:	8b e6       	ldi	r24, 0x6B	; 107
    3832:	0e 94 fb 06 	call	0xdf6	; 0xdf6 <LCD_12864_Draw_pixel>
	//очистка куска солнца
	LCD_12864_Clean_pixel(106, 50, Frame_buffer);
    3836:	ae 01       	movw	r20, r28
    3838:	62 e3       	ldi	r22, 0x32	; 50
    383a:	8a e6       	ldi	r24, 0x6A	; 106
    383c:	0e 94 1c 07 	call	0xe38	; 0xe38 <LCD_12864_Clean_pixel>
	for(uint8_t i = 51; i <= 55;i++)
    3840:	13 e3       	ldi	r17, 0x33	; 51
    3842:	06 c0       	rjmp	.+12     	; 0x3850 <DrawSunWithClouds+0x13c>
	{
		LCD_12864_Clean_pixel(105, i, Frame_buffer);
    3844:	ae 01       	movw	r20, r28
    3846:	61 2f       	mov	r22, r17
    3848:	89 e6       	ldi	r24, 0x69	; 105
    384a:	0e 94 1c 07 	call	0xe38	; 0xe38 <LCD_12864_Clean_pixel>
	LCD_12864_Draw_pixel(109, 51, Frame_buffer);*/
	LCD_12864_Draw_pixel(108, 50, Frame_buffer);
	LCD_12864_Draw_pixel(107, 49, Frame_buffer);
	//очистка куска солнца
	LCD_12864_Clean_pixel(106, 50, Frame_buffer);
	for(uint8_t i = 51; i <= 55;i++)
    384e:	1f 5f       	subi	r17, 0xFF	; 255
    3850:	18 33       	cpi	r17, 0x38	; 56
    3852:	c0 f3       	brcs	.-16     	; 0x3844 <DrawSunWithClouds+0x130>
	/*LCD_12864_Clean_pixel(105, 51, Frame_buffer);
	LCD_12864_Clean_pixel(105, 52, Frame_buffer);
	LCD_12864_Clean_pixel(105, 53, Frame_buffer);
	LCD_12864_Clean_pixel(105, 54, Frame_buffer);
	LCD_12864_Clean_pixel(105, 55, Frame_buffer);*/
	LCD_12864_Clean_pixel(106, 56, Frame_buffer);
    3854:	ae 01       	movw	r20, r28
    3856:	68 e3       	ldi	r22, 0x38	; 56
    3858:	8a e6       	ldi	r24, 0x6A	; 106
    385a:	0e 94 1c 07 	call	0xe38	; 0xe38 <LCD_12864_Clean_pixel>
	LCD_12864_Draw_pixel(106, 48, Frame_buffer);
    385e:	ae 01       	movw	r20, r28
    3860:	60 e3       	ldi	r22, 0x30	; 48
    3862:	8a e6       	ldi	r24, 0x6A	; 106
    3864:	0e 94 fb 06 	call	0xdf6	; 0xdf6 <LCD_12864_Draw_pixel>
	LCD_12864_Draw_pixel(105, 48, Frame_buffer);
    3868:	ae 01       	movw	r20, r28
    386a:	60 e3       	ldi	r22, 0x30	; 48
    386c:	89 e6       	ldi	r24, 0x69	; 105
    386e:	0e 94 fb 06 	call	0xdf6	; 0xdf6 <LCD_12864_Draw_pixel>
	//закраска солнца
	LCD_12864_Draw_line(108, 49, 113, 49, Frame_buffer);
    3872:	8e 01       	movw	r16, r28
    3874:	21 e3       	ldi	r18, 0x31	; 49
    3876:	41 e7       	ldi	r20, 0x71	; 113
    3878:	61 e3       	ldi	r22, 0x31	; 49
    387a:	8c e6       	ldi	r24, 0x6C	; 108
    387c:	0e 94 8e 0c 	call	0x191c	; 0x191c <LCD_12864_Draw_line>
	LCD_12864_Draw_line(109, 50, 114, 50, Frame_buffer);
    3880:	22 e3       	ldi	r18, 0x32	; 50
    3882:	42 e7       	ldi	r20, 0x72	; 114
    3884:	62 e3       	ldi	r22, 0x32	; 50
    3886:	8d e6       	ldi	r24, 0x6D	; 109
    3888:	0e 94 8e 0c 	call	0x191c	; 0x191c <LCD_12864_Draw_line>
	LCD_12864_Draw_line(110, 51, 115, 51, Frame_buffer);
    388c:	23 e3       	ldi	r18, 0x33	; 51
    388e:	43 e7       	ldi	r20, 0x73	; 115
    3890:	63 e3       	ldi	r22, 0x33	; 51
    3892:	8e e6       	ldi	r24, 0x6E	; 110
    3894:	0e 94 8e 0c 	call	0x191c	; 0x191c <LCD_12864_Draw_line>
	LCD_12864_Draw_line(110, 52, 115, 52, Frame_buffer);
    3898:	24 e3       	ldi	r18, 0x34	; 52
    389a:	43 e7       	ldi	r20, 0x73	; 115
    389c:	64 e3       	ldi	r22, 0x34	; 52
    389e:	8e e6       	ldi	r24, 0x6E	; 110
    38a0:	0e 94 8e 0c 	call	0x191c	; 0x191c <LCD_12864_Draw_line>
	LCD_12864_Draw_line(110, 53, 115, 53, Frame_buffer);
    38a4:	25 e3       	ldi	r18, 0x35	; 53
    38a6:	43 e7       	ldi	r20, 0x73	; 115
    38a8:	65 e3       	ldi	r22, 0x35	; 53
    38aa:	8e e6       	ldi	r24, 0x6E	; 110
    38ac:	0e 94 8e 0c 	call	0x191c	; 0x191c <LCD_12864_Draw_line>
	LCD_12864_Draw_line(110, 54, 115, 54, Frame_buffer);
    38b0:	26 e3       	ldi	r18, 0x36	; 54
    38b2:	43 e7       	ldi	r20, 0x73	; 115
    38b4:	66 e3       	ldi	r22, 0x36	; 54
    38b6:	8e e6       	ldi	r24, 0x6E	; 110
    38b8:	0e 94 8e 0c 	call	0x191c	; 0x191c <LCD_12864_Draw_line>
	LCD_12864_Draw_line(109, 55, 114, 55, Frame_buffer);
    38bc:	27 e3       	ldi	r18, 0x37	; 55
    38be:	42 e7       	ldi	r20, 0x72	; 114
    38c0:	67 e3       	ldi	r22, 0x37	; 55
    38c2:	8d e6       	ldi	r24, 0x6D	; 109
    38c4:	0e 94 8e 0c 	call	0x191c	; 0x191c <LCD_12864_Draw_line>
	LCD_12864_Draw_line(108, 56, 113, 56, Frame_buffer);
    38c8:	28 e3       	ldi	r18, 0x38	; 56
    38ca:	41 e7       	ldi	r20, 0x71	; 113
    38cc:	68 e3       	ldi	r22, 0x38	; 56
    38ce:	8c e6       	ldi	r24, 0x6C	; 108
    38d0:	0e 94 8e 0c 	call	0x191c	; 0x191c <LCD_12864_Draw_line>
	LCD_12864_Draw_line(107, 57, 112, 57, Frame_buffer);
    38d4:	29 e3       	ldi	r18, 0x39	; 57
    38d6:	40 e7       	ldi	r20, 0x70	; 112
    38d8:	69 e3       	ldi	r22, 0x39	; 57
    38da:	8b e6       	ldi	r24, 0x6B	; 107
    38dc:	0e 94 8e 0c 	call	0x191c	; 0x191c <LCD_12864_Draw_line>
}
    38e0:	df 91       	pop	r29
    38e2:	cf 91       	pop	r28
    38e4:	1f 91       	pop	r17
    38e6:	0f 91       	pop	r16
    38e8:	08 95       	ret

000038ea <DrawClouds>:
void DrawClouds(uint8_t *Frame_buffer)
{
    38ea:	0f 93       	push	r16
    38ec:	1f 93       	push	r17
    38ee:	cf 93       	push	r28
    38f0:	df 93       	push	r29
    38f2:	ec 01       	movw	r28, r24
	//облако№1
	LCD_12864_Draw_line(90, 57, 106, 57, Frame_buffer);
    38f4:	8c 01       	movw	r16, r24
    38f6:	29 e3       	ldi	r18, 0x39	; 57
    38f8:	4a e6       	ldi	r20, 0x6A	; 106
    38fa:	69 e3       	ldi	r22, 0x39	; 57
    38fc:	8a e5       	ldi	r24, 0x5A	; 90
    38fe:	0e 94 8e 0c 	call	0x191c	; 0x191c <LCD_12864_Draw_line>
	LCD_12864_Draw_pixel(89, 56, Frame_buffer);
    3902:	ae 01       	movw	r20, r28
    3904:	68 e3       	ldi	r22, 0x38	; 56
    3906:	89 e5       	ldi	r24, 0x59	; 89
    3908:	0e 94 fb 06 	call	0xdf6	; 0xdf6 <LCD_12864_Draw_pixel>
	LCD_12864_Draw_pixel(88, 55, Frame_buffer);
    390c:	ae 01       	movw	r20, r28
    390e:	67 e3       	ldi	r22, 0x37	; 55
    3910:	88 e5       	ldi	r24, 0x58	; 88
    3912:	0e 94 fb 06 	call	0xdf6	; 0xdf6 <LCD_12864_Draw_pixel>
	LCD_12864_Draw_line(87, 52, 87, 54, Frame_buffer);
    3916:	26 e3       	ldi	r18, 0x36	; 54
    3918:	47 e5       	ldi	r20, 0x57	; 87
    391a:	64 e3       	ldi	r22, 0x34	; 52
    391c:	87 e5       	ldi	r24, 0x57	; 87
    391e:	0e 94 8e 0c 	call	0x191c	; 0x191c <LCD_12864_Draw_line>
	/*LCD_12864_Draw_pixel(87, 54, Frame_buffer);
	LCD_12864_Draw_pixel(87, 53, Frame_buffer);
	LCD_12864_Draw_pixel(87, 52, Frame_buffer);*/
	LCD_12864_Draw_pixel(88, 51, Frame_buffer);
    3922:	ae 01       	movw	r20, r28
    3924:	63 e3       	ldi	r22, 0x33	; 51
    3926:	88 e5       	ldi	r24, 0x58	; 88
    3928:	0e 94 fb 06 	call	0xdf6	; 0xdf6 <LCD_12864_Draw_pixel>
	LCD_12864_Draw_line(89, 50, 93, 50, Frame_buffer);
    392c:	22 e3       	ldi	r18, 0x32	; 50
    392e:	4d e5       	ldi	r20, 0x5D	; 93
    3930:	62 e3       	ldi	r22, 0x32	; 50
    3932:	89 e5       	ldi	r24, 0x59	; 89
    3934:	0e 94 8e 0c 	call	0x191c	; 0x191c <LCD_12864_Draw_line>
	/*LCD_12864_Draw_pixel(89, 50, Frame_buffer);
	LCD_12864_Draw_pixel(90, 50, Frame_buffer);
	LCD_12864_Draw_pixel(91, 50, Frame_buffer);
	LCD_12864_Draw_pixel(92, 50, Frame_buffer);
	LCD_12864_Draw_pixel(93, 50, Frame_buffer);*/
	LCD_12864_Draw_pixel(94, 51, Frame_buffer);
    3938:	ae 01       	movw	r20, r28
    393a:	63 e3       	ldi	r22, 0x33	; 51
    393c:	8e e5       	ldi	r24, 0x5E	; 94
    393e:	0e 94 fb 06 	call	0xdf6	; 0xdf6 <LCD_12864_Draw_pixel>
	LCD_12864_Draw_line(92, 46, 92, 49, Frame_buffer);
    3942:	21 e3       	ldi	r18, 0x31	; 49
    3944:	4c e5       	ldi	r20, 0x5C	; 92
    3946:	6e e2       	ldi	r22, 0x2E	; 46
    3948:	8c e5       	ldi	r24, 0x5C	; 92
    394a:	0e 94 8e 0c 	call	0x191c	; 0x191c <LCD_12864_Draw_line>
	/*LCD_12864_Draw_pixel(92, 49, Frame_buffer);
	LCD_12864_Draw_pixel(92, 48, Frame_buffer);
	LCD_12864_Draw_pixel(92, 47, Frame_buffer);
	LCD_12864_Draw_pixel(92, 46, Frame_buffer);*/
	LCD_12864_Draw_pixel(93, 45, Frame_buffer);
    394e:	ae 01       	movw	r20, r28
    3950:	6d e2       	ldi	r22, 0x2D	; 45
    3952:	8d e5       	ldi	r24, 0x5D	; 93
    3954:	0e 94 fb 06 	call	0xdf6	; 0xdf6 <LCD_12864_Draw_pixel>
	LCD_12864_Draw_line(94, 44, 100, 44, Frame_buffer);
    3958:	2c e2       	ldi	r18, 0x2C	; 44
    395a:	44 e6       	ldi	r20, 0x64	; 100
    395c:	6c e2       	ldi	r22, 0x2C	; 44
    395e:	8e e5       	ldi	r24, 0x5E	; 94
    3960:	0e 94 8e 0c 	call	0x191c	; 0x191c <LCD_12864_Draw_line>
	LCD_12864_Draw_pixel(96, 44, Frame_buffer);
	LCD_12864_Draw_pixel(97, 44, Frame_buffer);
	LCD_12864_Draw_pixel(98, 44, Frame_buffer);
	LCD_12864_Draw_pixel(99, 44, Frame_buffer);
	LCD_12864_Draw_pixel(100, 44, Frame_buffer);*/
	LCD_12864_Draw_pixel(101, 45, Frame_buffer);
    3964:	ae 01       	movw	r20, r28
    3966:	6d e2       	ldi	r22, 0x2D	; 45
    3968:	85 e6       	ldi	r24, 0x65	; 101
    396a:	0e 94 fb 06 	call	0xdf6	; 0xdf6 <LCD_12864_Draw_pixel>
	LCD_12864_Draw_line(102, 46, 102, 48, Frame_buffer);
    396e:	20 e3       	ldi	r18, 0x30	; 48
    3970:	46 e6       	ldi	r20, 0x66	; 102
    3972:	6e e2       	ldi	r22, 0x2E	; 46
    3974:	86 e6       	ldi	r24, 0x66	; 102
    3976:	0e 94 8e 0c 	call	0x191c	; 0x191c <LCD_12864_Draw_line>
	/*LCD_12864_Draw_pixel(102, 46, Frame_buffer);
	LCD_12864_Draw_pixel(102, 47, Frame_buffer);
	LCD_12864_Draw_pixel(102, 48, Frame_buffer);*/
	LCD_12864_Draw_pixel(101, 49, Frame_buffer);
    397a:	ae 01       	movw	r20, r28
    397c:	61 e3       	ldi	r22, 0x31	; 49
    397e:	85 e6       	ldi	r24, 0x65	; 101
    3980:	0e 94 fb 06 	call	0xdf6	; 0xdf6 <LCD_12864_Draw_pixel>
	LCD_12864_Draw_line(102, 48, 106, 48, Frame_buffer);
    3984:	20 e3       	ldi	r18, 0x30	; 48
    3986:	4a e6       	ldi	r20, 0x6A	; 106
    3988:	60 e3       	ldi	r22, 0x30	; 48
    398a:	86 e6       	ldi	r24, 0x66	; 102
    398c:	0e 94 8e 0c 	call	0x191c	; 0x191c <LCD_12864_Draw_line>
	/*LCD_12864_Draw_pixel(102, 48, Frame_buffer);
	LCD_12864_Draw_pixel(103, 48, Frame_buffer);
	LCD_12864_Draw_pixel(104, 48, Frame_buffer);
	LCD_12864_Draw_pixel(105, 48, Frame_buffer);
	LCD_12864_Draw_pixel(106, 48, Frame_buffer);*/
	LCD_12864_Draw_pixel(107, 56, Frame_buffer);
    3990:	ae 01       	movw	r20, r28
    3992:	68 e3       	ldi	r22, 0x38	; 56
    3994:	8b e6       	ldi	r24, 0x6B	; 107
    3996:	0e 94 fb 06 	call	0xdf6	; 0xdf6 <LCD_12864_Draw_pixel>
	LCD_12864_Draw_pixel(108, 55, Frame_buffer);
    399a:	ae 01       	movw	r20, r28
    399c:	67 e3       	ldi	r22, 0x37	; 55
    399e:	8c e6       	ldi	r24, 0x6C	; 108
    39a0:	0e 94 fb 06 	call	0xdf6	; 0xdf6 <LCD_12864_Draw_pixel>
	LCD_12864_Draw_line(109, 51, 109, 54, Frame_buffer);
    39a4:	26 e3       	ldi	r18, 0x36	; 54
    39a6:	4d e6       	ldi	r20, 0x6D	; 109
    39a8:	63 e3       	ldi	r22, 0x33	; 51
    39aa:	8d e6       	ldi	r24, 0x6D	; 109
    39ac:	0e 94 8e 0c 	call	0x191c	; 0x191c <LCD_12864_Draw_line>
	/*LCD_12864_Draw_pixel(109, 54, Frame_buffer);
	LCD_12864_Draw_pixel(109, 53, Frame_buffer);
	LCD_12864_Draw_pixel(109, 52, Frame_buffer);
	LCD_12864_Draw_pixel(109, 51, Frame_buffer);*/
	LCD_12864_Draw_pixel(108, 50, Frame_buffer);
    39b0:	ae 01       	movw	r20, r28
    39b2:	62 e3       	ldi	r22, 0x32	; 50
    39b4:	8c e6       	ldi	r24, 0x6C	; 108
    39b6:	0e 94 fb 06 	call	0xdf6	; 0xdf6 <LCD_12864_Draw_pixel>
	LCD_12864_Draw_pixel(107, 49, Frame_buffer);
    39ba:	ae 01       	movw	r20, r28
    39bc:	61 e3       	ldi	r22, 0x31	; 49
    39be:	8b e6       	ldi	r24, 0x6B	; 107
    39c0:	0e 94 fb 06 	call	0xdf6	; 0xdf6 <LCD_12864_Draw_pixel>
	//облако№2
	LCD_12864_Draw_line(110, 55, 121, 55, Frame_buffer);
    39c4:	27 e3       	ldi	r18, 0x37	; 55
    39c6:	49 e7       	ldi	r20, 0x79	; 121
    39c8:	67 e3       	ldi	r22, 0x37	; 55
    39ca:	8e e6       	ldi	r24, 0x6E	; 110
    39cc:	0e 94 8e 0c 	call	0x191c	; 0x191c <LCD_12864_Draw_line>
	LCD_12864_Draw_line(122, 51, 122, 54, Frame_buffer);
    39d0:	26 e3       	ldi	r18, 0x36	; 54
    39d2:	4a e7       	ldi	r20, 0x7A	; 122
    39d4:	63 e3       	ldi	r22, 0x33	; 51
    39d6:	8a e7       	ldi	r24, 0x7A	; 122
    39d8:	0e 94 8e 0c 	call	0x191c	; 0x191c <LCD_12864_Draw_line>
	/*LCD_12864_Draw_pixel(122, 54, Frame_buffer);
	LCD_12864_Draw_pixel(122, 53, Frame_buffer);
	LCD_12864_Draw_pixel(122, 52, Frame_buffer);
	LCD_12864_Draw_pixel(122, 51, Frame_buffer);*/
	LCD_12864_Draw_pixel(121, 50, Frame_buffer);
    39dc:	ae 01       	movw	r20, r28
    39de:	62 e3       	ldi	r22, 0x32	; 50
    39e0:	89 e7       	ldi	r24, 0x79	; 121
    39e2:	0e 94 fb 06 	call	0xdf6	; 0xdf6 <LCD_12864_Draw_pixel>
	LCD_12864_Draw_line(118, 49, 120, 49, Frame_buffer);
    39e6:	21 e3       	ldi	r18, 0x31	; 49
    39e8:	48 e7       	ldi	r20, 0x78	; 120
    39ea:	61 e3       	ldi	r22, 0x31	; 49
    39ec:	86 e7       	ldi	r24, 0x76	; 118
    39ee:	0e 94 8e 0c 	call	0x191c	; 0x191c <LCD_12864_Draw_line>
	/*LCD_12864_Draw_pixel(120, 49, Frame_buffer);
	LCD_12864_Draw_pixel(119, 49, Frame_buffer);
	LCD_12864_Draw_pixel(118, 49, Frame_buffer);*/
	LCD_12864_Draw_pixel(117, 50, Frame_buffer);
    39f2:	ae 01       	movw	r20, r28
    39f4:	62 e3       	ldi	r22, 0x32	; 50
    39f6:	85 e7       	ldi	r24, 0x75	; 117
    39f8:	0e 94 fb 06 	call	0xdf6	; 0xdf6 <LCD_12864_Draw_pixel>
	LCD_12864_Draw_line(118, 47, 118, 48, Frame_buffer);
    39fc:	20 e3       	ldi	r18, 0x30	; 48
    39fe:	46 e7       	ldi	r20, 0x76	; 118
    3a00:	6f e2       	ldi	r22, 0x2F	; 47
    3a02:	86 e7       	ldi	r24, 0x76	; 118
    3a04:	0e 94 8e 0c 	call	0x191c	; 0x191c <LCD_12864_Draw_line>
	/*LCD_12864_Draw_pixel(118, 48, Frame_buffer);
	LCD_12864_Draw_pixel(118, 47, Frame_buffer);*/
	LCD_12864_Draw_line(114, 46, 117, 46, Frame_buffer);
    3a08:	2e e2       	ldi	r18, 0x2E	; 46
    3a0a:	45 e7       	ldi	r20, 0x75	; 117
    3a0c:	6e e2       	ldi	r22, 0x2E	; 46
    3a0e:	82 e7       	ldi	r24, 0x72	; 114
    3a10:	0e 94 8e 0c 	call	0x191c	; 0x191c <LCD_12864_Draw_line>
	/*LCD_12864_Draw_pixel(117, 46, Frame_buffer);
	LCD_12864_Draw_pixel(116, 46, Frame_buffer);
	LCD_12864_Draw_pixel(115, 46, Frame_buffer);
	LCD_12864_Draw_pixel(114, 46, Frame_buffer);*/
	LCD_12864_Draw_line(113, 47, 113, 49, Frame_buffer);
    3a14:	21 e3       	ldi	r18, 0x31	; 49
    3a16:	41 e7       	ldi	r20, 0x71	; 113
    3a18:	6f e2       	ldi	r22, 0x2F	; 47
    3a1a:	81 e7       	ldi	r24, 0x71	; 113
    3a1c:	0e 94 8e 0c 	call	0x191c	; 0x191c <LCD_12864_Draw_line>
	/*LCD_12864_Draw_pixel(113, 47, Frame_buffer);
	LCD_12864_Draw_pixel(113, 48, Frame_buffer);
	LCD_12864_Draw_pixel(113, 49, Frame_buffer);*/
	LCD_12864_Draw_pixel(114, 50, Frame_buffer);
    3a20:	ae 01       	movw	r20, r28
    3a22:	62 e3       	ldi	r22, 0x32	; 50
    3a24:	82 e7       	ldi	r24, 0x72	; 114
    3a26:	0e 94 fb 06 	call	0xdf6	; 0xdf6 <LCD_12864_Draw_pixel>
	LCD_12864_Draw_line(111, 49, 112, 49, Frame_buffer);
    3a2a:	21 e3       	ldi	r18, 0x31	; 49
    3a2c:	40 e7       	ldi	r20, 0x70	; 112
    3a2e:	61 e3       	ldi	r22, 0x31	; 49
    3a30:	8f e6       	ldi	r24, 0x6F	; 111
    3a32:	0e 94 8e 0c 	call	0x191c	; 0x191c <LCD_12864_Draw_line>
	/*LCD_12864_Draw_pixel(112, 49, Frame_buffer);
	LCD_12864_Draw_pixel(111, 49, Frame_buffer);*/
	LCD_12864_Draw_pixel(110, 50, Frame_buffer);
    3a36:	ae 01       	movw	r20, r28
    3a38:	62 e3       	ldi	r22, 0x32	; 50
    3a3a:	8e e6       	ldi	r24, 0x6E	; 110
    3a3c:	0e 94 fb 06 	call	0xdf6	; 0xdf6 <LCD_12864_Draw_pixel>
}
    3a40:	df 91       	pop	r29
    3a42:	cf 91       	pop	r28
    3a44:	1f 91       	pop	r17
    3a46:	0f 91       	pop	r16
    3a48:	08 95       	ret

00003a4a <DrawCloudsWithRain>:
void DrawCloudsWithRain(uint8_t *Frame_buffer)
{
    3a4a:	0f 93       	push	r16
    3a4c:	1f 93       	push	r17
    3a4e:	cf 93       	push	r28
    3a50:	df 93       	push	r29
    3a52:	ec 01       	movw	r28, r24
	DrawClouds(Frame_buffer);
    3a54:	0e 94 75 1c 	call	0x38ea	; 0x38ea <DrawClouds>

	LCD_12864_Draw_line(91, 59, 89, 61, Frame_buffer);
    3a58:	8e 01       	movw	r16, r28
    3a5a:	2d e3       	ldi	r18, 0x3D	; 61
    3a5c:	49 e5       	ldi	r20, 0x59	; 89
    3a5e:	6b e3       	ldi	r22, 0x3B	; 59
    3a60:	8b e5       	ldi	r24, 0x5B	; 91
    3a62:	0e 94 8e 0c 	call	0x191c	; 0x191c <LCD_12864_Draw_line>
	LCD_12864_Draw_line(94, 59, 92, 61, Frame_buffer);
    3a66:	2d e3       	ldi	r18, 0x3D	; 61
    3a68:	4c e5       	ldi	r20, 0x5C	; 92
    3a6a:	6b e3       	ldi	r22, 0x3B	; 59
    3a6c:	8e e5       	ldi	r24, 0x5E	; 94
    3a6e:	0e 94 8e 0c 	call	0x191c	; 0x191c <LCD_12864_Draw_line>
	LCD_12864_Draw_line(97, 59, 95, 61, Frame_buffer);
    3a72:	2d e3       	ldi	r18, 0x3D	; 61
    3a74:	4f e5       	ldi	r20, 0x5F	; 95
    3a76:	6b e3       	ldi	r22, 0x3B	; 59
    3a78:	81 e6       	ldi	r24, 0x61	; 97
    3a7a:	0e 94 8e 0c 	call	0x191c	; 0x191c <LCD_12864_Draw_line>
	LCD_12864_Draw_line(100, 59, 98, 61, Frame_buffer);
    3a7e:	2d e3       	ldi	r18, 0x3D	; 61
    3a80:	42 e6       	ldi	r20, 0x62	; 98
    3a82:	6b e3       	ldi	r22, 0x3B	; 59
    3a84:	84 e6       	ldi	r24, 0x64	; 100
    3a86:	0e 94 8e 0c 	call	0x191c	; 0x191c <LCD_12864_Draw_line>
	LCD_12864_Draw_line(103, 59, 101, 61, Frame_buffer);
    3a8a:	2d e3       	ldi	r18, 0x3D	; 61
    3a8c:	45 e6       	ldi	r20, 0x65	; 101
    3a8e:	6b e3       	ldi	r22, 0x3B	; 59
    3a90:	87 e6       	ldi	r24, 0x67	; 103
    3a92:	0e 94 8e 0c 	call	0x191c	; 0x191c <LCD_12864_Draw_line>
	LCD_12864_Draw_line(106, 59, 104, 61, Frame_buffer);
    3a96:	2d e3       	ldi	r18, 0x3D	; 61
    3a98:	48 e6       	ldi	r20, 0x68	; 104
    3a9a:	6b e3       	ldi	r22, 0x3B	; 59
    3a9c:	8a e6       	ldi	r24, 0x6A	; 106
    3a9e:	0e 94 8e 0c 	call	0x191c	; 0x191c <LCD_12864_Draw_line>
	
	LCD_12864_Draw_line(111, 57, 110, 58, Frame_buffer);
    3aa2:	2a e3       	ldi	r18, 0x3A	; 58
    3aa4:	4e e6       	ldi	r20, 0x6E	; 110
    3aa6:	69 e3       	ldi	r22, 0x39	; 57
    3aa8:	8f e6       	ldi	r24, 0x6F	; 111
    3aaa:	0e 94 8e 0c 	call	0x191c	; 0x191c <LCD_12864_Draw_line>
	LCD_12864_Draw_line(114, 57, 113, 58, Frame_buffer);
    3aae:	2a e3       	ldi	r18, 0x3A	; 58
    3ab0:	41 e7       	ldi	r20, 0x71	; 113
    3ab2:	69 e3       	ldi	r22, 0x39	; 57
    3ab4:	82 e7       	ldi	r24, 0x72	; 114
    3ab6:	0e 94 8e 0c 	call	0x191c	; 0x191c <LCD_12864_Draw_line>
	LCD_12864_Draw_line(117, 57, 116, 58, Frame_buffer);
    3aba:	2a e3       	ldi	r18, 0x3A	; 58
    3abc:	44 e7       	ldi	r20, 0x74	; 116
    3abe:	69 e3       	ldi	r22, 0x39	; 57
    3ac0:	85 e7       	ldi	r24, 0x75	; 117
    3ac2:	0e 94 8e 0c 	call	0x191c	; 0x191c <LCD_12864_Draw_line>
	LCD_12864_Draw_line(120, 57, 119, 58, Frame_buffer);
    3ac6:	2a e3       	ldi	r18, 0x3A	; 58
    3ac8:	47 e7       	ldi	r20, 0x77	; 119
    3aca:	69 e3       	ldi	r22, 0x39	; 57
    3acc:	88 e7       	ldi	r24, 0x78	; 120
    3ace:	0e 94 8e 0c 	call	0x191c	; 0x191c <LCD_12864_Draw_line>
}
    3ad2:	df 91       	pop	r29
    3ad4:	cf 91       	pop	r28
    3ad6:	1f 91       	pop	r17
    3ad8:	0f 91       	pop	r16
    3ada:	08 95       	ret

00003adc <DrawWeatherVane>:
void DrawWeatherVane(uint8_t *Frame_buffer)
{
    3adc:	0f 93       	push	r16
    3ade:	1f 93       	push	r17
    3ae0:	cf 93       	push	r28
    3ae2:	df 93       	push	r29
    3ae4:	ec 01       	movw	r28, r24
	uint8_t i = 0, k = 0;
	LCD_12864_Draw_circle(11, 52, 9, Frame_buffer);
    3ae6:	9c 01       	movw	r18, r24
    3ae8:	49 e0       	ldi	r20, 0x09	; 9
    3aea:	64 e3       	ldi	r22, 0x34	; 52
    3aec:	8b e0       	ldi	r24, 0x0B	; 11
    3aee:	0e 94 89 0d 	call	0x1b12	; 0x1b12 <LCD_12864_Draw_circle>
	//вывод букв N S W E
	for(i = 8; i <= 14; i++)
    3af2:	18 e0       	ldi	r17, 0x08	; 8
    3af4:	0b c0       	rjmp	.+22     	; 0x3b0c <DrawWeatherVane+0x30>
	{
		LCD_12864_Clean_pixel(i, 44, Frame_buffer);
    3af6:	ae 01       	movw	r20, r28
    3af8:	6c e2       	ldi	r22, 0x2C	; 44
    3afa:	81 2f       	mov	r24, r17
    3afc:	0e 94 1c 07 	call	0xe38	; 0xe38 <LCD_12864_Clean_pixel>
		LCD_12864_Clean_pixel(i, 61, Frame_buffer);
    3b00:	ae 01       	movw	r20, r28
    3b02:	6d e3       	ldi	r22, 0x3D	; 61
    3b04:	81 2f       	mov	r24, r17
    3b06:	0e 94 1c 07 	call	0xe38	; 0xe38 <LCD_12864_Clean_pixel>
void DrawWeatherVane(uint8_t *Frame_buffer)
{
	uint8_t i = 0, k = 0;
	LCD_12864_Draw_circle(11, 52, 9, Frame_buffer);
	//вывод букв N S W E
	for(i = 8; i <= 14; i++)
    3b0a:	1f 5f       	subi	r17, 0xFF	; 255
    3b0c:	1f 30       	cpi	r17, 0x0F	; 15
    3b0e:	98 f3       	brcs	.-26     	; 0x3af6 <DrawWeatherVane+0x1a>
    3b10:	19 e2       	ldi	r17, 0x29	; 41
    3b12:	0b c0       	rjmp	.+22     	; 0x3b2a <DrawWeatherVane+0x4e>
		LCD_12864_Clean_pixel(i, 44, Frame_buffer);
		LCD_12864_Clean_pixel(i, 61, Frame_buffer);
	}
	for(i = 41; i <= 45; i++)
	{
		LCD_12864_Draw_pixel(9, i, Frame_buffer);
    3b14:	ae 01       	movw	r20, r28
    3b16:	61 2f       	mov	r22, r17
    3b18:	89 e0       	ldi	r24, 0x09	; 9
    3b1a:	0e 94 fb 06 	call	0xdf6	; 0xdf6 <LCD_12864_Draw_pixel>
		LCD_12864_Draw_pixel(13, i, Frame_buffer);
    3b1e:	ae 01       	movw	r20, r28
    3b20:	61 2f       	mov	r22, r17
    3b22:	8d e0       	ldi	r24, 0x0D	; 13
    3b24:	0e 94 fb 06 	call	0xdf6	; 0xdf6 <LCD_12864_Draw_pixel>
	for(i = 8; i <= 14; i++)
	{
		LCD_12864_Clean_pixel(i, 44, Frame_buffer);
		LCD_12864_Clean_pixel(i, 61, Frame_buffer);
	}
	for(i = 41; i <= 45; i++)
    3b28:	1f 5f       	subi	r17, 0xFF	; 255
    3b2a:	1e 32       	cpi	r17, 0x2E	; 46
    3b2c:	98 f3       	brcs	.-26     	; 0x3b14 <DrawWeatherVane+0x38>
	{
		LCD_12864_Draw_pixel(9, i, Frame_buffer);
		LCD_12864_Draw_pixel(13, i, Frame_buffer);
	}
	LCD_12864_Draw_pixel(10, 42, Frame_buffer);
    3b2e:	ae 01       	movw	r20, r28
    3b30:	6a e2       	ldi	r22, 0x2A	; 42
    3b32:	8a e0       	ldi	r24, 0x0A	; 10
    3b34:	0e 94 fb 06 	call	0xdf6	; 0xdf6 <LCD_12864_Draw_pixel>
	LCD_12864_Draw_pixel(11, 43, Frame_buffer);
    3b38:	ae 01       	movw	r20, r28
    3b3a:	6b e2       	ldi	r22, 0x2B	; 43
    3b3c:	8b e0       	ldi	r24, 0x0B	; 11
    3b3e:	0e 94 fb 06 	call	0xdf6	; 0xdf6 <LCD_12864_Draw_pixel>
	LCD_12864_Draw_pixel(12, 44, Frame_buffer);
    3b42:	ae 01       	movw	r20, r28
    3b44:	6c e2       	ldi	r22, 0x2C	; 44
    3b46:	8c e0       	ldi	r24, 0x0C	; 12
    3b48:	0e 94 fb 06 	call	0xdf6	; 0xdf6 <LCD_12864_Draw_pixel>
	LCD_12864_Draw_pixel(9, 60, Frame_buffer);
    3b4c:	ae 01       	movw	r20, r28
    3b4e:	6c e3       	ldi	r22, 0x3C	; 60
    3b50:	89 e0       	ldi	r24, 0x09	; 9
    3b52:	0e 94 fb 06 	call	0xdf6	; 0xdf6 <LCD_12864_Draw_pixel>
	LCD_12864_Draw_pixel(9, 63, Frame_buffer);
    3b56:	ae 01       	movw	r20, r28
    3b58:	6f e3       	ldi	r22, 0x3F	; 63
    3b5a:	89 e0       	ldi	r24, 0x09	; 9
    3b5c:	0e 94 fb 06 	call	0xdf6	; 0xdf6 <LCD_12864_Draw_pixel>
	for (k = 10; k <= 12; k++)
    3b60:	0a e0       	ldi	r16, 0x0A	; 10
    3b62:	0b c0       	rjmp	.+22     	; 0x3b7a <DrawWeatherVane+0x9e>
	{
		for (i = 59; i <= 63; i += 2)
		{
			LCD_12864_Draw_pixel(k, i, Frame_buffer);
    3b64:	ae 01       	movw	r20, r28
    3b66:	61 2f       	mov	r22, r17
    3b68:	80 2f       	mov	r24, r16
    3b6a:	0e 94 fb 06 	call	0xdf6	; 0xdf6 <LCD_12864_Draw_pixel>
	LCD_12864_Draw_pixel(12, 44, Frame_buffer);
	LCD_12864_Draw_pixel(9, 60, Frame_buffer);
	LCD_12864_Draw_pixel(9, 63, Frame_buffer);
	for (k = 10; k <= 12; k++)
	{
		for (i = 59; i <= 63; i += 2)
    3b6e:	1e 5f       	subi	r17, 0xFE	; 254
    3b70:	01 c0       	rjmp	.+2      	; 0x3b74 <DrawWeatherVane+0x98>
    3b72:	1b e3       	ldi	r17, 0x3B	; 59
    3b74:	10 34       	cpi	r17, 0x40	; 64
    3b76:	b0 f3       	brcs	.-20     	; 0x3b64 <DrawWeatherVane+0x88>
	LCD_12864_Draw_pixel(10, 42, Frame_buffer);
	LCD_12864_Draw_pixel(11, 43, Frame_buffer);
	LCD_12864_Draw_pixel(12, 44, Frame_buffer);
	LCD_12864_Draw_pixel(9, 60, Frame_buffer);
	LCD_12864_Draw_pixel(9, 63, Frame_buffer);
	for (k = 10; k <= 12; k++)
    3b78:	0f 5f       	subi	r16, 0xFF	; 255
    3b7a:	0d 30       	cpi	r16, 0x0D	; 13
    3b7c:	d0 f3       	brcs	.-12     	; 0x3b72 <DrawWeatherVane+0x96>
		for (i = 59; i <= 63; i += 2)
		{
			LCD_12864_Draw_pixel(k, i, Frame_buffer);
		}
	}
	LCD_12864_Draw_pixel(13, 62, Frame_buffer);
    3b7e:	ae 01       	movw	r20, r28
    3b80:	6e e3       	ldi	r22, 0x3E	; 62
    3b82:	8d e0       	ldi	r24, 0x0D	; 13
    3b84:	0e 94 fb 06 	call	0xdf6	; 0xdf6 <LCD_12864_Draw_pixel>
	LCD_12864_Draw_pixel(13, 59, Frame_buffer);
    3b88:	ae 01       	movw	r20, r28
    3b8a:	6b e3       	ldi	r22, 0x3B	; 59
    3b8c:	8d e0       	ldi	r24, 0x0D	; 13
    3b8e:	0e 94 fb 06 	call	0xdf6	; 0xdf6 <LCD_12864_Draw_pixel>
	for(i = 50; i <= 54; i++)
    3b92:	12 e3       	ldi	r17, 0x32	; 50
    3b94:	10 c0       	rjmp	.+32     	; 0x3bb6 <DrawWeatherVane+0xda>
	{
		LCD_12864_Clean_pixel(20, i, Frame_buffer);
    3b96:	ae 01       	movw	r20, r28
    3b98:	61 2f       	mov	r22, r17
    3b9a:	84 e1       	ldi	r24, 0x14	; 20
    3b9c:	0e 94 1c 07 	call	0xe38	; 0xe38 <LCD_12864_Clean_pixel>
		LCD_12864_Draw_pixel(18, i, Frame_buffer);
    3ba0:	ae 01       	movw	r20, r28
    3ba2:	61 2f       	mov	r22, r17
    3ba4:	82 e1       	ldi	r24, 0x12	; 18
    3ba6:	0e 94 fb 06 	call	0xdf6	; 0xdf6 <LCD_12864_Draw_pixel>
		LCD_12864_Clean_pixel(2, i, Frame_buffer);
    3baa:	ae 01       	movw	r20, r28
    3bac:	61 2f       	mov	r22, r17
    3bae:	82 e0       	ldi	r24, 0x02	; 2
    3bb0:	0e 94 1c 07 	call	0xe38	; 0xe38 <LCD_12864_Clean_pixel>
			LCD_12864_Draw_pixel(k, i, Frame_buffer);
		}
	}
	LCD_12864_Draw_pixel(13, 62, Frame_buffer);
	LCD_12864_Draw_pixel(13, 59, Frame_buffer);
	for(i = 50; i <= 54; i++)
    3bb4:	1f 5f       	subi	r17, 0xFF	; 255
    3bb6:	17 33       	cpi	r17, 0x37	; 55
    3bb8:	70 f3       	brcs	.-36     	; 0x3b96 <DrawWeatherVane+0xba>
	{
		LCD_12864_Clean_pixel(20, i, Frame_buffer);
		LCD_12864_Draw_pixel(18, i, Frame_buffer);
		LCD_12864_Clean_pixel(2, i, Frame_buffer);
	}
	LCD_12864_Clean_pixel(19, 55, Frame_buffer);
    3bba:	ae 01       	movw	r20, r28
    3bbc:	67 e3       	ldi	r22, 0x37	; 55
    3bbe:	83 e1       	ldi	r24, 0x13	; 19
    3bc0:	0e 94 1c 07 	call	0xe38	; 0xe38 <LCD_12864_Clean_pixel>
	LCD_12864_Draw_pixel(19, 48, Frame_buffer);
    3bc4:	ae 01       	movw	r20, r28
    3bc6:	60 e3       	ldi	r22, 0x30	; 48
    3bc8:	83 e1       	ldi	r24, 0x13	; 19
    3bca:	0e 94 fb 06 	call	0xdf6	; 0xdf6 <LCD_12864_Draw_pixel>
	for (k = 19; k <= 22; k++)
    3bce:	03 e1       	ldi	r16, 0x13	; 19
    3bd0:	0b c0       	rjmp	.+22     	; 0x3be8 <DrawWeatherVane+0x10c>
	{
		for (i = 50; i <= 54; i += 2)
		{
			LCD_12864_Draw_pixel(k, i, Frame_buffer);
    3bd2:	ae 01       	movw	r20, r28
    3bd4:	61 2f       	mov	r22, r17
    3bd6:	80 2f       	mov	r24, r16
    3bd8:	0e 94 fb 06 	call	0xdf6	; 0xdf6 <LCD_12864_Draw_pixel>
	}
	LCD_12864_Clean_pixel(19, 55, Frame_buffer);
	LCD_12864_Draw_pixel(19, 48, Frame_buffer);
	for (k = 19; k <= 22; k++)
	{
		for (i = 50; i <= 54; i += 2)
    3bdc:	1e 5f       	subi	r17, 0xFE	; 254
    3bde:	01 c0       	rjmp	.+2      	; 0x3be2 <DrawWeatherVane+0x106>
    3be0:	12 e3       	ldi	r17, 0x32	; 50
    3be2:	17 33       	cpi	r17, 0x37	; 55
    3be4:	b0 f3       	brcs	.-20     	; 0x3bd2 <DrawWeatherVane+0xf6>
		LCD_12864_Draw_pixel(18, i, Frame_buffer);
		LCD_12864_Clean_pixel(2, i, Frame_buffer);
	}
	LCD_12864_Clean_pixel(19, 55, Frame_buffer);
	LCD_12864_Draw_pixel(19, 48, Frame_buffer);
	for (k = 19; k <= 22; k++)
    3be6:	0f 5f       	subi	r16, 0xFF	; 255
    3be8:	07 31       	cpi	r16, 0x17	; 23
    3bea:	d0 f3       	brcs	.-12     	; 0x3be0 <DrawWeatherVane+0x104>
		for (i = 50; i <= 54; i += 2)
		{
			LCD_12864_Draw_pixel(k, i, Frame_buffer);
		}
	}
	LCD_12864_Clean_pixel(3, 55, Frame_buffer);
    3bec:	ae 01       	movw	r20, r28
    3bee:	67 e3       	ldi	r22, 0x37	; 55
    3bf0:	83 e0       	ldi	r24, 0x03	; 3
    3bf2:	0e 94 1c 07 	call	0xe38	; 0xe38 <LCD_12864_Clean_pixel>
	LCD_12864_Draw_pixel(3, 48, Frame_buffer);
    3bf6:	ae 01       	movw	r20, r28
    3bf8:	60 e3       	ldi	r22, 0x30	; 48
    3bfa:	83 e0       	ldi	r24, 0x03	; 3
    3bfc:	0e 94 fb 06 	call	0xdf6	; 0xdf6 <LCD_12864_Draw_pixel>
	LCD_12864_Draw_line(2, 52, 2, 53, Frame_buffer);
    3c00:	8e 01       	movw	r16, r28
    3c02:	25 e3       	ldi	r18, 0x35	; 53
    3c04:	42 e0       	ldi	r20, 0x02	; 2
    3c06:	64 e3       	ldi	r22, 0x34	; 52
    3c08:	82 e0       	ldi	r24, 0x02	; 2
    3c0a:	0e 94 8e 0c 	call	0x191c	; 0x191c <LCD_12864_Draw_line>
	/*LCD_12864_Draw_pixel(2, 52, Frame_buffer);
	LCD_12864_Draw_pixel(2, 53, Frame_buffer);*/
	LCD_12864_Draw_pixel(3, 54, Frame_buffer);
    3c0e:	ae 01       	movw	r20, r28
    3c10:	66 e3       	ldi	r22, 0x36	; 54
    3c12:	83 e0       	ldi	r24, 0x03	; 3
    3c14:	0e 94 fb 06 	call	0xdf6	; 0xdf6 <LCD_12864_Draw_pixel>
	for(i = 50; i <= 53; i++)
    3c18:	12 e3       	ldi	r17, 0x32	; 50
    3c1a:	0b c0       	rjmp	.+22     	; 0x3c32 <DrawWeatherVane+0x156>
	{
		LCD_12864_Draw_pixel(4, i, Frame_buffer);
    3c1c:	ae 01       	movw	r20, r28
    3c1e:	61 2f       	mov	r22, r17
    3c20:	84 e0       	ldi	r24, 0x04	; 4
    3c22:	0e 94 fb 06 	call	0xdf6	; 0xdf6 <LCD_12864_Draw_pixel>
		LCD_12864_Draw_pixel(0, i, Frame_buffer);
    3c26:	ae 01       	movw	r20, r28
    3c28:	61 2f       	mov	r22, r17
    3c2a:	80 e0       	ldi	r24, 0x00	; 0
    3c2c:	0e 94 fb 06 	call	0xdf6	; 0xdf6 <LCD_12864_Draw_pixel>
	LCD_12864_Draw_pixel(3, 48, Frame_buffer);
	LCD_12864_Draw_line(2, 52, 2, 53, Frame_buffer);
	/*LCD_12864_Draw_pixel(2, 52, Frame_buffer);
	LCD_12864_Draw_pixel(2, 53, Frame_buffer);*/
	LCD_12864_Draw_pixel(3, 54, Frame_buffer);
	for(i = 50; i <= 53; i++)
    3c30:	1f 5f       	subi	r17, 0xFF	; 255
    3c32:	16 33       	cpi	r17, 0x36	; 54
    3c34:	98 f3       	brcs	.-26     	; 0x3c1c <DrawWeatherVane+0x140>
	{
		LCD_12864_Draw_pixel(4, i, Frame_buffer);
		LCD_12864_Draw_pixel(0, i, Frame_buffer);
	}
	LCD_12864_Draw_pixel(1, 54, Frame_buffer);
    3c36:	ae 01       	movw	r20, r28
    3c38:	66 e3       	ldi	r22, 0x36	; 54
    3c3a:	81 e0       	ldi	r24, 0x01	; 1
    3c3c:	0e 94 fb 06 	call	0xdf6	; 0xdf6 <LCD_12864_Draw_pixel>
	//---------Стрелка-----------------
	//--точка в центре---
	LCD_12864_Draw_pixel(11, 52, Frame_buffer);
    3c40:	ae 01       	movw	r20, r28
    3c42:	64 e3       	ldi	r22, 0x34	; 52
    3c44:	8b e0       	ldi	r24, 0x0B	; 11
    3c46:	0e 94 fb 06 	call	0xdf6	; 0xdf6 <LCD_12864_Draw_pixel>
	if (!strcmp(wind_direction, "N"))
    3c4a:	60 ee       	ldi	r22, 0xE0	; 224
    3c4c:	72 e0       	ldi	r23, 0x02	; 2
    3c4e:	81 e3       	ldi	r24, 0x31	; 49
    3c50:	94 e0       	ldi	r25, 0x04	; 4
    3c52:	0e 94 98 2a 	call	0x5530	; 0x5530 <strcmp>
    3c56:	89 2b       	or	r24, r25
    3c58:	41 f0       	breq	.+16     	; 0x3c6a <DrawWeatherVane+0x18e>
    3c5a:	2e c0       	rjmp	.+92     	; 0x3cb8 <DrawWeatherVane+0x1dc>
	{
		for(i = 46; i <= 51; i++)
		{
			LCD_12864_Draw_pixel(11, i, Frame_buffer);
    3c5c:	ae 01       	movw	r20, r28
    3c5e:	61 2f       	mov	r22, r17
    3c60:	8b e0       	ldi	r24, 0x0B	; 11
    3c62:	0e 94 fb 06 	call	0xdf6	; 0xdf6 <LCD_12864_Draw_pixel>
	//---------Стрелка-----------------
	//--точка в центре---
	LCD_12864_Draw_pixel(11, 52, Frame_buffer);
	if (!strcmp(wind_direction, "N"))
	{
		for(i = 46; i <= 51; i++)
    3c66:	1f 5f       	subi	r17, 0xFF	; 255
    3c68:	01 c0       	rjmp	.+2      	; 0x3c6c <DrawWeatherVane+0x190>
    3c6a:	1e e2       	ldi	r17, 0x2E	; 46
    3c6c:	14 33       	cpi	r17, 0x34	; 52
    3c6e:	b0 f3       	brcs	.-20     	; 0x3c5c <DrawWeatherVane+0x180>
		{
			LCD_12864_Draw_pixel(11, i, Frame_buffer);
		}
		LCD_12864_Draw_line(10, 53, 10, 54, Frame_buffer);
    3c70:	8e 01       	movw	r16, r28
    3c72:	26 e3       	ldi	r18, 0x36	; 54
    3c74:	4a e0       	ldi	r20, 0x0A	; 10
    3c76:	65 e3       	ldi	r22, 0x35	; 53
    3c78:	8a e0       	ldi	r24, 0x0A	; 10
    3c7a:	0e 94 8e 0c 	call	0x191c	; 0x191c <LCD_12864_Draw_line>
		/*LCD_12864_Draw_pixel(10, 53, Frame_buffer);
		LCD_12864_Draw_pixel(10, 54, Frame_buffer);*/
		LCD_12864_Draw_line(12, 53, 12, 54, Frame_buffer);
    3c7e:	26 e3       	ldi	r18, 0x36	; 54
    3c80:	4c e0       	ldi	r20, 0x0C	; 12
    3c82:	65 e3       	ldi	r22, 0x35	; 53
    3c84:	8c e0       	ldi	r24, 0x0C	; 12
    3c86:	0e 94 8e 0c 	call	0x191c	; 0x191c <LCD_12864_Draw_line>
		LCD_12864_Draw_pixel(11, 50, Frame_buffer);
		LCD_12864_Draw_pixel(11, 49, Frame_buffer);
		LCD_12864_Draw_pixel(11, 48, Frame_buffer);
		LCD_12864_Draw_pixel(11, 47, Frame_buffer);
		LCD_12864_Draw_pixel(11, 46, Frame_buffer);*/
		LCD_12864_Draw_pixel(10, 47, Frame_buffer);
    3c8a:	ae 01       	movw	r20, r28
    3c8c:	6f e2       	ldi	r22, 0x2F	; 47
    3c8e:	8a e0       	ldi	r24, 0x0A	; 10
    3c90:	0e 94 fb 06 	call	0xdf6	; 0xdf6 <LCD_12864_Draw_pixel>
		LCD_12864_Draw_pixel(12, 47, Frame_buffer);
    3c94:	ae 01       	movw	r20, r28
    3c96:	6f e2       	ldi	r22, 0x2F	; 47
    3c98:	8c e0       	ldi	r24, 0x0C	; 12
    3c9a:	0e 94 fb 06 	call	0xdf6	; 0xdf6 <LCD_12864_Draw_pixel>
		LCD_12864_Draw_line(9, 48, 10, 48, Frame_buffer);
    3c9e:	20 e3       	ldi	r18, 0x30	; 48
    3ca0:	4a e0       	ldi	r20, 0x0A	; 10
    3ca2:	60 e3       	ldi	r22, 0x30	; 48
    3ca4:	89 e0       	ldi	r24, 0x09	; 9
    3ca6:	0e 94 8e 0c 	call	0x191c	; 0x191c <LCD_12864_Draw_line>
		LCD_12864_Draw_line(12, 48, 13, 48, Frame_buffer);
    3caa:	20 e3       	ldi	r18, 0x30	; 48
    3cac:	4d e0       	ldi	r20, 0x0D	; 13
    3cae:	60 e3       	ldi	r22, 0x30	; 48
    3cb0:	8c e0       	ldi	r24, 0x0C	; 12
    3cb2:	0e 94 8e 0c 	call	0x191c	; 0x191c <LCD_12864_Draw_line>
    3cb6:	96 c1       	rjmp	.+812    	; 0x3fe4 <DrawWeatherVane+0x508>
		/*LCD_12864_Draw_pixel(10, 48, Frame_buffer);
		LCD_12864_Draw_pixel(9, 48, Frame_buffer);
		LCD_12864_Draw_pixel(12, 48, Frame_buffer);
		LCD_12864_Draw_pixel(13, 48, Frame_buffer);*/
	}
	else if (!strcmp(wind_direction, "S"))
    3cb8:	62 ee       	ldi	r22, 0xE2	; 226
    3cba:	72 e0       	ldi	r23, 0x02	; 2
    3cbc:	81 e3       	ldi	r24, 0x31	; 49
    3cbe:	94 e0       	ldi	r25, 0x04	; 4
    3cc0:	0e 94 98 2a 	call	0x5530	; 0x5530 <strcmp>
    3cc4:	89 2b       	or	r24, r25
    3cc6:	79 f5       	brne	.+94     	; 0x3d26 <DrawWeatherVane+0x24a>
	{
		LCD_12864_Draw_line(10, 50, 10, 51, Frame_buffer);
    3cc8:	8e 01       	movw	r16, r28
    3cca:	23 e3       	ldi	r18, 0x33	; 51
    3ccc:	4a e0       	ldi	r20, 0x0A	; 10
    3cce:	62 e3       	ldi	r22, 0x32	; 50
    3cd0:	8a e0       	ldi	r24, 0x0A	; 10
    3cd2:	0e 94 8e 0c 	call	0x191c	; 0x191c <LCD_12864_Draw_line>
		/*LCD_12864_Draw_pixel(10, 50, Frame_buffer);
		LCD_12864_Draw_pixel(10, 51, Frame_buffer);*/
		LCD_12864_Draw_line(12, 50, 12, 51, Frame_buffer);
    3cd6:	23 e3       	ldi	r18, 0x33	; 51
    3cd8:	4c e0       	ldi	r20, 0x0C	; 12
    3cda:	62 e3       	ldi	r22, 0x32	; 50
    3cdc:	8c e0       	ldi	r24, 0x0C	; 12
    3cde:	0e 94 8e 0c 	call	0x191c	; 0x191c <LCD_12864_Draw_line>
		/*LCD_12864_Draw_pixel(12, 50, Frame_buffer);
		LCD_12864_Draw_pixel(12, 51, Frame_buffer);*/
		for(i = 53; i <= 58; i++)
    3ce2:	15 e3       	ldi	r17, 0x35	; 53
    3ce4:	06 c0       	rjmp	.+12     	; 0x3cf2 <DrawWeatherVane+0x216>
		{
			LCD_12864_Draw_pixel(11, i, Frame_buffer);
    3ce6:	ae 01       	movw	r20, r28
    3ce8:	61 2f       	mov	r22, r17
    3cea:	8b e0       	ldi	r24, 0x0B	; 11
    3cec:	0e 94 fb 06 	call	0xdf6	; 0xdf6 <LCD_12864_Draw_pixel>
		/*LCD_12864_Draw_pixel(10, 50, Frame_buffer);
		LCD_12864_Draw_pixel(10, 51, Frame_buffer);*/
		LCD_12864_Draw_line(12, 50, 12, 51, Frame_buffer);
		/*LCD_12864_Draw_pixel(12, 50, Frame_buffer);
		LCD_12864_Draw_pixel(12, 51, Frame_buffer);*/
		for(i = 53; i <= 58; i++)
    3cf0:	1f 5f       	subi	r17, 0xFF	; 255
    3cf2:	1b 33       	cpi	r17, 0x3B	; 59
    3cf4:	c0 f3       	brcs	.-16     	; 0x3ce6 <DrawWeatherVane+0x20a>
		LCD_12864_Draw_pixel(11, 54, Frame_buffer);
		LCD_12864_Draw_pixel(11, 55, Frame_buffer);
		LCD_12864_Draw_pixel(11, 56, Frame_buffer);
		LCD_12864_Draw_pixel(11, 57, Frame_buffer);
		LCD_12864_Draw_pixel(11, 58, Frame_buffer);*/
		LCD_12864_Draw_line(10, 56, 10, 57, Frame_buffer);
    3cf6:	8e 01       	movw	r16, r28
    3cf8:	29 e3       	ldi	r18, 0x39	; 57
    3cfa:	4a e0       	ldi	r20, 0x0A	; 10
    3cfc:	68 e3       	ldi	r22, 0x38	; 56
    3cfe:	8a e0       	ldi	r24, 0x0A	; 10
    3d00:	0e 94 8e 0c 	call	0x191c	; 0x191c <LCD_12864_Draw_line>
		//LCD_12864_Draw_pixel(10, 57, Frame_buffer);
		LCD_12864_Draw_pixel(12, 57, Frame_buffer);
    3d04:	ae 01       	movw	r20, r28
    3d06:	69 e3       	ldi	r22, 0x39	; 57
    3d08:	8c e0       	ldi	r24, 0x0C	; 12
    3d0a:	0e 94 fb 06 	call	0xdf6	; 0xdf6 <LCD_12864_Draw_pixel>
		//LCD_12864_Draw_pixel(10, 56, Frame_buffer);
		LCD_12864_Draw_pixel(9, 56, Frame_buffer);
    3d0e:	ae 01       	movw	r20, r28
    3d10:	68 e3       	ldi	r22, 0x38	; 56
    3d12:	89 e0       	ldi	r24, 0x09	; 9
    3d14:	0e 94 fb 06 	call	0xdf6	; 0xdf6 <LCD_12864_Draw_pixel>
		LCD_12864_Draw_line(12, 56, 13, 56, Frame_buffer);
    3d18:	28 e3       	ldi	r18, 0x38	; 56
    3d1a:	4d e0       	ldi	r20, 0x0D	; 13
    3d1c:	68 e3       	ldi	r22, 0x38	; 56
    3d1e:	8c e0       	ldi	r24, 0x0C	; 12
    3d20:	0e 94 8e 0c 	call	0x191c	; 0x191c <LCD_12864_Draw_line>
    3d24:	5f c1       	rjmp	.+702    	; 0x3fe4 <DrawWeatherVane+0x508>
		//LCD_12864_Draw_pixel(12, 56, Frame_buffer);
		//LCD_12864_Draw_pixel(13, 56, Frame_buffer);
	}
	else if (!strcmp(wind_direction, "E"))
    3d26:	66 ee       	ldi	r22, 0xE6	; 230
    3d28:	72 e0       	ldi	r23, 0x02	; 2
    3d2a:	81 e3       	ldi	r24, 0x31	; 49
    3d2c:	94 e0       	ldi	r25, 0x04	; 4
    3d2e:	0e 94 98 2a 	call	0x5530	; 0x5530 <strcmp>
    3d32:	89 2b       	or	r24, r25
    3d34:	79 f5       	brne	.+94     	; 0x3d94 <DrawWeatherVane+0x2b8>
	{
		LCD_12864_Draw_line(9, 51, 10, 51, Frame_buffer);
    3d36:	8e 01       	movw	r16, r28
    3d38:	23 e3       	ldi	r18, 0x33	; 51
    3d3a:	4a e0       	ldi	r20, 0x0A	; 10
    3d3c:	63 e3       	ldi	r22, 0x33	; 51
    3d3e:	89 e0       	ldi	r24, 0x09	; 9
    3d40:	0e 94 8e 0c 	call	0x191c	; 0x191c <LCD_12864_Draw_line>
		LCD_12864_Draw_line(9, 53, 10, 53, Frame_buffer);
    3d44:	25 e3       	ldi	r18, 0x35	; 53
    3d46:	4a e0       	ldi	r20, 0x0A	; 10
    3d48:	65 e3       	ldi	r22, 0x35	; 53
    3d4a:	89 e0       	ldi	r24, 0x09	; 9
    3d4c:	0e 94 8e 0c 	call	0x191c	; 0x191c <LCD_12864_Draw_line>
		/*LCD_12864_Draw_pixel(9, 51, Frame_buffer);
		LCD_12864_Draw_pixel(10, 51, Frame_buffer);
		LCD_12864_Draw_pixel(9, 53, Frame_buffer);
		LCD_12864_Draw_pixel(10, 53, Frame_buffer);*/
		for(i = 12; i <= 17; i++)
    3d50:	1c e0       	ldi	r17, 0x0C	; 12
    3d52:	06 c0       	rjmp	.+12     	; 0x3d60 <DrawWeatherVane+0x284>
		{
			LCD_12864_Draw_pixel(i, 52, Frame_buffer);
    3d54:	ae 01       	movw	r20, r28
    3d56:	64 e3       	ldi	r22, 0x34	; 52
    3d58:	81 2f       	mov	r24, r17
    3d5a:	0e 94 fb 06 	call	0xdf6	; 0xdf6 <LCD_12864_Draw_pixel>
		LCD_12864_Draw_line(9, 53, 10, 53, Frame_buffer);
		/*LCD_12864_Draw_pixel(9, 51, Frame_buffer);
		LCD_12864_Draw_pixel(10, 51, Frame_buffer);
		LCD_12864_Draw_pixel(9, 53, Frame_buffer);
		LCD_12864_Draw_pixel(10, 53, Frame_buffer);*/
		for(i = 12; i <= 17; i++)
    3d5e:	1f 5f       	subi	r17, 0xFF	; 255
    3d60:	12 31       	cpi	r17, 0x12	; 18
    3d62:	c0 f3       	brcs	.-16     	; 0x3d54 <DrawWeatherVane+0x278>
		LCD_12864_Draw_pixel(13, 52, Frame_buffer);
		LCD_12864_Draw_pixel(14, 52, Frame_buffer);
		LCD_12864_Draw_pixel(15, 52, Frame_buffer);
		LCD_12864_Draw_pixel(16, 52, Frame_buffer);
		LCD_12864_Draw_pixel(17, 52, Frame_buffer);*/
		LCD_12864_Draw_pixel(16, 51, Frame_buffer);
    3d64:	ae 01       	movw	r20, r28
    3d66:	63 e3       	ldi	r22, 0x33	; 51
    3d68:	80 e1       	ldi	r24, 0x10	; 16
    3d6a:	0e 94 fb 06 	call	0xdf6	; 0xdf6 <LCD_12864_Draw_pixel>
		LCD_12864_Draw_line(15, 53, 16, 53, Frame_buffer);
    3d6e:	8e 01       	movw	r16, r28
    3d70:	25 e3       	ldi	r18, 0x35	; 53
    3d72:	40 e1       	ldi	r20, 0x10	; 16
    3d74:	65 e3       	ldi	r22, 0x35	; 53
    3d76:	8f e0       	ldi	r24, 0x0F	; 15
    3d78:	0e 94 8e 0c 	call	0x191c	; 0x191c <LCD_12864_Draw_line>
		//LCD_12864_Draw_pixel(16, 53, Frame_buffer);
		//LCD_12864_Draw_pixel(15, 53, Frame_buffer);
		LCD_12864_Draw_pixel(15, 54, Frame_buffer);
    3d7c:	ae 01       	movw	r20, r28
    3d7e:	66 e3       	ldi	r22, 0x36	; 54
    3d80:	8f e0       	ldi	r24, 0x0F	; 15
    3d82:	0e 94 fb 06 	call	0xdf6	; 0xdf6 <LCD_12864_Draw_pixel>
		LCD_12864_Draw_line(15, 50, 15, 51, Frame_buffer);
    3d86:	23 e3       	ldi	r18, 0x33	; 51
    3d88:	4f e0       	ldi	r20, 0x0F	; 15
    3d8a:	62 e3       	ldi	r22, 0x32	; 50
    3d8c:	8f e0       	ldi	r24, 0x0F	; 15
    3d8e:	0e 94 8e 0c 	call	0x191c	; 0x191c <LCD_12864_Draw_line>
    3d92:	28 c1       	rjmp	.+592    	; 0x3fe4 <DrawWeatherVane+0x508>
		//LCD_12864_Draw_pixel(15, 51, Frame_buffer);
		//LCD_12864_Draw_pixel(15, 50, Frame_buffer);
	}
	else if (!strcmp(wind_direction, "W"))
    3d94:	6a ee       	ldi	r22, 0xEA	; 234
    3d96:	72 e0       	ldi	r23, 0x02	; 2
    3d98:	81 e3       	ldi	r24, 0x31	; 49
    3d9a:	94 e0       	ldi	r25, 0x04	; 4
    3d9c:	0e 94 98 2a 	call	0x5530	; 0x5530 <strcmp>
    3da0:	89 2b       	or	r24, r25
    3da2:	79 f5       	brne	.+94     	; 0x3e02 <DrawWeatherVane+0x326>
	{
		LCD_12864_Draw_line(12, 51, 13, 51, Frame_buffer);
    3da4:	8e 01       	movw	r16, r28
    3da6:	23 e3       	ldi	r18, 0x33	; 51
    3da8:	4d e0       	ldi	r20, 0x0D	; 13
    3daa:	63 e3       	ldi	r22, 0x33	; 51
    3dac:	8c e0       	ldi	r24, 0x0C	; 12
    3dae:	0e 94 8e 0c 	call	0x191c	; 0x191c <LCD_12864_Draw_line>
		LCD_12864_Draw_line(12, 53, 13, 53, Frame_buffer);
    3db2:	25 e3       	ldi	r18, 0x35	; 53
    3db4:	4d e0       	ldi	r20, 0x0D	; 13
    3db6:	65 e3       	ldi	r22, 0x35	; 53
    3db8:	8c e0       	ldi	r24, 0x0C	; 12
    3dba:	0e 94 8e 0c 	call	0x191c	; 0x191c <LCD_12864_Draw_line>
		/*LCD_12864_Draw_pixel(13, 51, Frame_buffer);
		LCD_12864_Draw_pixel(12, 51, Frame_buffer);
		LCD_12864_Draw_pixel(13, 53, Frame_buffer);
		LCD_12864_Draw_pixel(12, 53, Frame_buffer);*/
		for(i = 5; i <= 10; i++)
    3dbe:	15 e0       	ldi	r17, 0x05	; 5
    3dc0:	06 c0       	rjmp	.+12     	; 0x3dce <DrawWeatherVane+0x2f2>
		{
			LCD_12864_Draw_pixel(i, 52, Frame_buffer);
    3dc2:	ae 01       	movw	r20, r28
    3dc4:	64 e3       	ldi	r22, 0x34	; 52
    3dc6:	81 2f       	mov	r24, r17
    3dc8:	0e 94 fb 06 	call	0xdf6	; 0xdf6 <LCD_12864_Draw_pixel>
		LCD_12864_Draw_line(12, 53, 13, 53, Frame_buffer);
		/*LCD_12864_Draw_pixel(13, 51, Frame_buffer);
		LCD_12864_Draw_pixel(12, 51, Frame_buffer);
		LCD_12864_Draw_pixel(13, 53, Frame_buffer);
		LCD_12864_Draw_pixel(12, 53, Frame_buffer);*/
		for(i = 5; i <= 10; i++)
    3dcc:	1f 5f       	subi	r17, 0xFF	; 255
    3dce:	1b 30       	cpi	r17, 0x0B	; 11
    3dd0:	c0 f3       	brcs	.-16     	; 0x3dc2 <DrawWeatherVane+0x2e6>
		LCD_12864_Draw_pixel(9, 52, Frame_buffer);
		LCD_12864_Draw_pixel(8, 52, Frame_buffer);
		LCD_12864_Draw_pixel(7, 52, Frame_buffer);
		LCD_12864_Draw_pixel(6, 52, Frame_buffer);
		LCD_12864_Draw_pixel(5, 52, Frame_buffer);*/
		LCD_12864_Draw_pixel(6, 51, Frame_buffer);
    3dd2:	ae 01       	movw	r20, r28
    3dd4:	63 e3       	ldi	r22, 0x33	; 51
    3dd6:	86 e0       	ldi	r24, 0x06	; 6
    3dd8:	0e 94 fb 06 	call	0xdf6	; 0xdf6 <LCD_12864_Draw_pixel>
		LCD_12864_Draw_line(6, 53, 7, 53, Frame_buffer);
    3ddc:	8e 01       	movw	r16, r28
    3dde:	25 e3       	ldi	r18, 0x35	; 53
    3de0:	47 e0       	ldi	r20, 0x07	; 7
    3de2:	65 e3       	ldi	r22, 0x35	; 53
    3de4:	86 e0       	ldi	r24, 0x06	; 6
    3de6:	0e 94 8e 0c 	call	0x191c	; 0x191c <LCD_12864_Draw_line>
		//LCD_12864_Draw_pixel(6, 53, Frame_buffer);
		//LCD_12864_Draw_pixel(7, 53, Frame_buffer);
		LCD_12864_Draw_pixel(7, 54, Frame_buffer);
    3dea:	ae 01       	movw	r20, r28
    3dec:	66 e3       	ldi	r22, 0x36	; 54
    3dee:	87 e0       	ldi	r24, 0x07	; 7
    3df0:	0e 94 fb 06 	call	0xdf6	; 0xdf6 <LCD_12864_Draw_pixel>
		LCD_12864_Draw_line(7, 50, 7, 51, Frame_buffer);
    3df4:	23 e3       	ldi	r18, 0x33	; 51
    3df6:	47 e0       	ldi	r20, 0x07	; 7
    3df8:	62 e3       	ldi	r22, 0x32	; 50
    3dfa:	87 e0       	ldi	r24, 0x07	; 7
    3dfc:	0e 94 8e 0c 	call	0x191c	; 0x191c <LCD_12864_Draw_line>
    3e00:	f1 c0       	rjmp	.+482    	; 0x3fe4 <DrawWeatherVane+0x508>
		//LCD_12864_Draw_pixel(7, 51, Frame_buffer);
		//LCD_12864_Draw_pixel(7, 50, Frame_buffer);
	}
	else if (!strcmp(wind_direction, "N-E"))
    3e02:	64 ee       	ldi	r22, 0xE4	; 228
    3e04:	72 e0       	ldi	r23, 0x02	; 2
    3e06:	81 e3       	ldi	r24, 0x31	; 49
    3e08:	94 e0       	ldi	r25, 0x04	; 4
    3e0a:	0e 94 98 2a 	call	0x5530	; 0x5530 <strcmp>
    3e0e:	89 2b       	or	r24, r25
    3e10:	b9 f5       	brne	.+110    	; 0x3e80 <DrawWeatherVane+0x3a4>
	{
		LCD_12864_Draw_pixel(10, 51, Frame_buffer);
    3e12:	ae 01       	movw	r20, r28
    3e14:	63 e3       	ldi	r22, 0x33	; 51
    3e16:	8a e0       	ldi	r24, 0x0A	; 10
    3e18:	0e 94 fb 06 	call	0xdf6	; 0xdf6 <LCD_12864_Draw_pixel>
		LCD_12864_Draw_pixel(9, 52, Frame_buffer);
    3e1c:	ae 01       	movw	r20, r28
    3e1e:	64 e3       	ldi	r22, 0x34	; 52
    3e20:	89 e0       	ldi	r24, 0x09	; 9
    3e22:	0e 94 fb 06 	call	0xdf6	; 0xdf6 <LCD_12864_Draw_pixel>
		LCD_12864_Draw_pixel(12, 53, Frame_buffer);
    3e26:	ae 01       	movw	r20, r28
    3e28:	65 e3       	ldi	r22, 0x35	; 53
    3e2a:	8c e0       	ldi	r24, 0x0C	; 12
    3e2c:	0e 94 fb 06 	call	0xdf6	; 0xdf6 <LCD_12864_Draw_pixel>
		LCD_12864_Draw_pixel(11, 54, Frame_buffer);
    3e30:	ae 01       	movw	r20, r28
    3e32:	66 e3       	ldi	r22, 0x36	; 54
    3e34:	8b e0       	ldi	r24, 0x0B	; 11
    3e36:	0e 94 fb 06 	call	0xdf6	; 0xdf6 <LCD_12864_Draw_pixel>
		LCD_12864_Draw_line(11, 52, 16, 47, Frame_buffer);
    3e3a:	8e 01       	movw	r16, r28
    3e3c:	2f e2       	ldi	r18, 0x2F	; 47
    3e3e:	40 e1       	ldi	r20, 0x10	; 16
    3e40:	64 e3       	ldi	r22, 0x34	; 52
    3e42:	8b e0       	ldi	r24, 0x0B	; 11
    3e44:	0e 94 8e 0c 	call	0x191c	; 0x191c <LCD_12864_Draw_line>
		LCD_12864_Draw_line(13, 47, 15, 47, Frame_buffer);
    3e48:	2f e2       	ldi	r18, 0x2F	; 47
    3e4a:	4f e0       	ldi	r20, 0x0F	; 15
    3e4c:	6f e2       	ldi	r22, 0x2F	; 47
    3e4e:	8d e0       	ldi	r24, 0x0D	; 13
    3e50:	0e 94 8e 0c 	call	0x191c	; 0x191c <LCD_12864_Draw_line>
		/*LCD_12864_Draw_pixel(15, 47, Frame_buffer);
		LCD_12864_Draw_pixel(14, 47, Frame_buffer);
		LCD_12864_Draw_pixel(13, 47, Frame_buffer);*/
		LCD_12864_Draw_pixel(14, 48, Frame_buffer);
    3e54:	ae 01       	movw	r20, r28
    3e56:	60 e3       	ldi	r22, 0x30	; 48
    3e58:	8e e0       	ldi	r24, 0x0E	; 14
    3e5a:	0e 94 fb 06 	call	0xdf6	; 0xdf6 <LCD_12864_Draw_pixel>
		LCD_12864_Draw_pixel(16, 48, Frame_buffer);
    3e5e:	ae 01       	movw	r20, r28
    3e60:	60 e3       	ldi	r22, 0x30	; 48
    3e62:	80 e1       	ldi	r24, 0x10	; 16
    3e64:	0e 94 fb 06 	call	0xdf6	; 0xdf6 <LCD_12864_Draw_pixel>
		LCD_12864_Draw_line(15, 49, 16, 49, Frame_buffer);
    3e68:	21 e3       	ldi	r18, 0x31	; 49
    3e6a:	40 e1       	ldi	r20, 0x10	; 16
    3e6c:	61 e3       	ldi	r22, 0x31	; 49
    3e6e:	8f e0       	ldi	r24, 0x0F	; 15
    3e70:	0e 94 8e 0c 	call	0x191c	; 0x191c <LCD_12864_Draw_line>
		//LCD_12864_Draw_pixel(16, 49, Frame_buffer);
		//LCD_12864_Draw_pixel(15, 49, Frame_buffer);
		LCD_12864_Draw_pixel(16, 50, Frame_buffer);
    3e74:	ae 01       	movw	r20, r28
    3e76:	62 e3       	ldi	r22, 0x32	; 50
    3e78:	80 e1       	ldi	r24, 0x10	; 16
    3e7a:	0e 94 fb 06 	call	0xdf6	; 0xdf6 <LCD_12864_Draw_pixel>
    3e7e:	b2 c0       	rjmp	.+356    	; 0x3fe4 <DrawWeatherVane+0x508>
	}
	else if (!strcmp(wind_direction, "N-W"))
    3e80:	68 ee       	ldi	r22, 0xE8	; 232
    3e82:	72 e0       	ldi	r23, 0x02	; 2
    3e84:	81 e3       	ldi	r24, 0x31	; 49
    3e86:	94 e0       	ldi	r25, 0x04	; 4
    3e88:	0e 94 98 2a 	call	0x5530	; 0x5530 <strcmp>
    3e8c:	89 2b       	or	r24, r25
    3e8e:	91 f5       	brne	.+100    	; 0x3ef4 <DrawWeatherVane+0x418>
	{
		LCD_12864_Draw_pixel(12, 51, Frame_buffer);
    3e90:	ae 01       	movw	r20, r28
    3e92:	63 e3       	ldi	r22, 0x33	; 51
    3e94:	8c e0       	ldi	r24, 0x0C	; 12
    3e96:	0e 94 fb 06 	call	0xdf6	; 0xdf6 <LCD_12864_Draw_pixel>
		LCD_12864_Draw_pixel(13, 52, Frame_buffer);
    3e9a:	ae 01       	movw	r20, r28
    3e9c:	64 e3       	ldi	r22, 0x34	; 52
    3e9e:	8d e0       	ldi	r24, 0x0D	; 13
    3ea0:	0e 94 fb 06 	call	0xdf6	; 0xdf6 <LCD_12864_Draw_pixel>
		LCD_12864_Draw_pixel(10, 53, Frame_buffer);
    3ea4:	ae 01       	movw	r20, r28
    3ea6:	65 e3       	ldi	r22, 0x35	; 53
    3ea8:	8a e0       	ldi	r24, 0x0A	; 10
    3eaa:	0e 94 fb 06 	call	0xdf6	; 0xdf6 <LCD_12864_Draw_pixel>
		LCD_12864_Draw_pixel(11, 54, Frame_buffer);
    3eae:	ae 01       	movw	r20, r28
    3eb0:	66 e3       	ldi	r22, 0x36	; 54
    3eb2:	8b e0       	ldi	r24, 0x0B	; 11
    3eb4:	0e 94 fb 06 	call	0xdf6	; 0xdf6 <LCD_12864_Draw_pixel>
		LCD_12864_Draw_line(11, 52, 6, 47, Frame_buffer);
    3eb8:	8e 01       	movw	r16, r28
    3eba:	2f e2       	ldi	r18, 0x2F	; 47
    3ebc:	46 e0       	ldi	r20, 0x06	; 6
    3ebe:	64 e3       	ldi	r22, 0x34	; 52
    3ec0:	8b e0       	ldi	r24, 0x0B	; 11
    3ec2:	0e 94 8e 0c 	call	0x191c	; 0x191c <LCD_12864_Draw_line>
		LCD_12864_Draw_line(7, 47, 9, 47, Frame_buffer);
    3ec6:	2f e2       	ldi	r18, 0x2F	; 47
    3ec8:	49 e0       	ldi	r20, 0x09	; 9
    3eca:	6f e2       	ldi	r22, 0x2F	; 47
    3ecc:	87 e0       	ldi	r24, 0x07	; 7
    3ece:	0e 94 8e 0c 	call	0x191c	; 0x191c <LCD_12864_Draw_line>
		/*LCD_12864_Draw_pixel(7, 47, Frame_buffer);
		LCD_12864_Draw_pixel(8, 47, Frame_buffer);
		LCD_12864_Draw_pixel(9, 47, Frame_buffer);*/
		LCD_12864_Draw_pixel(8, 48, Frame_buffer);
    3ed2:	ae 01       	movw	r20, r28
    3ed4:	60 e3       	ldi	r22, 0x30	; 48
    3ed6:	88 e0       	ldi	r24, 0x08	; 8
    3ed8:	0e 94 fb 06 	call	0xdf6	; 0xdf6 <LCD_12864_Draw_pixel>
		LCD_12864_Draw_line(6, 48, 6, 50, Frame_buffer);
    3edc:	22 e3       	ldi	r18, 0x32	; 50
    3ede:	46 e0       	ldi	r20, 0x06	; 6
    3ee0:	60 e3       	ldi	r22, 0x30	; 48
    3ee2:	86 e0       	ldi	r24, 0x06	; 6
    3ee4:	0e 94 8e 0c 	call	0x191c	; 0x191c <LCD_12864_Draw_line>
		/*LCD_12864_Draw_pixel(6, 48, Frame_buffer);
		LCD_12864_Draw_pixel(6, 49, Frame_buffer);
		LCD_12864_Draw_pixel(6, 50, Frame_buffer);*/
		LCD_12864_Draw_pixel(7, 49, Frame_buffer);
    3ee8:	ae 01       	movw	r20, r28
    3eea:	61 e3       	ldi	r22, 0x31	; 49
    3eec:	87 e0       	ldi	r24, 0x07	; 7
    3eee:	0e 94 fb 06 	call	0xdf6	; 0xdf6 <LCD_12864_Draw_pixel>
    3ef2:	78 c0       	rjmp	.+240    	; 0x3fe4 <DrawWeatherVane+0x508>
	}
	else if (!strcmp(wind_direction, "S-E"))
    3ef4:	6c ee       	ldi	r22, 0xEC	; 236
    3ef6:	72 e0       	ldi	r23, 0x02	; 2
    3ef8:	81 e3       	ldi	r24, 0x31	; 49
    3efa:	94 e0       	ldi	r25, 0x04	; 4
    3efc:	0e 94 98 2a 	call	0x5530	; 0x5530 <strcmp>
    3f00:	89 2b       	or	r24, r25
    3f02:	b9 f5       	brne	.+110    	; 0x3f72 <DrawWeatherVane+0x496>
	{
		LCD_12864_Draw_pixel(11, 50, Frame_buffer);
    3f04:	ae 01       	movw	r20, r28
    3f06:	62 e3       	ldi	r22, 0x32	; 50
    3f08:	8b e0       	ldi	r24, 0x0B	; 11
    3f0a:	0e 94 fb 06 	call	0xdf6	; 0xdf6 <LCD_12864_Draw_pixel>
		LCD_12864_Draw_pixel(12, 51, Frame_buffer);
    3f0e:	ae 01       	movw	r20, r28
    3f10:	63 e3       	ldi	r22, 0x33	; 51
    3f12:	8c e0       	ldi	r24, 0x0C	; 12
    3f14:	0e 94 fb 06 	call	0xdf6	; 0xdf6 <LCD_12864_Draw_pixel>
		LCD_12864_Draw_pixel(10, 53, Frame_buffer);
    3f18:	ae 01       	movw	r20, r28
    3f1a:	65 e3       	ldi	r22, 0x35	; 53
    3f1c:	8a e0       	ldi	r24, 0x0A	; 10
    3f1e:	0e 94 fb 06 	call	0xdf6	; 0xdf6 <LCD_12864_Draw_pixel>
		LCD_12864_Draw_pixel(9, 52, Frame_buffer);
    3f22:	ae 01       	movw	r20, r28
    3f24:	64 e3       	ldi	r22, 0x34	; 52
    3f26:	89 e0       	ldi	r24, 0x09	; 9
    3f28:	0e 94 fb 06 	call	0xdf6	; 0xdf6 <LCD_12864_Draw_pixel>
		LCD_12864_Draw_line(11, 52, 16, 57, Frame_buffer);
    3f2c:	8e 01       	movw	r16, r28
    3f2e:	29 e3       	ldi	r18, 0x39	; 57
    3f30:	40 e1       	ldi	r20, 0x10	; 16
    3f32:	64 e3       	ldi	r22, 0x34	; 52
    3f34:	8b e0       	ldi	r24, 0x0B	; 11
    3f36:	0e 94 8e 0c 	call	0x191c	; 0x191c <LCD_12864_Draw_line>
		//LCD_12864_Draw_pixel(16, 56, Frame_buffer);
		LCD_12864_Draw_pixel(15, 57, Frame_buffer);
    3f3a:	ae 01       	movw	r20, r28
    3f3c:	69 e3       	ldi	r22, 0x39	; 57
    3f3e:	8f e0       	ldi	r24, 0x0F	; 15
    3f40:	0e 94 fb 06 	call	0xdf6	; 0xdf6 <LCD_12864_Draw_pixel>
		LCD_12864_Draw_pixel(15, 55, Frame_buffer);
    3f44:	ae 01       	movw	r20, r28
    3f46:	67 e3       	ldi	r22, 0x37	; 55
    3f48:	8f e0       	ldi	r24, 0x0F	; 15
    3f4a:	0e 94 fb 06 	call	0xdf6	; 0xdf6 <LCD_12864_Draw_pixel>
		LCD_12864_Draw_line(16, 54, 16, 56, Frame_buffer);
    3f4e:	28 e3       	ldi	r18, 0x38	; 56
    3f50:	40 e1       	ldi	r20, 0x10	; 16
    3f52:	66 e3       	ldi	r22, 0x36	; 54
    3f54:	80 e1       	ldi	r24, 0x10	; 16
    3f56:	0e 94 8e 0c 	call	0x191c	; 0x191c <LCD_12864_Draw_line>
		//LCD_12864_Draw_pixel(16, 55, Frame_buffer);
		//LCD_12864_Draw_pixel(16, 54, Frame_buffer);
		LCD_12864_Draw_line(14, 56, 14, 57, Frame_buffer);
    3f5a:	29 e3       	ldi	r18, 0x39	; 57
    3f5c:	4e e0       	ldi	r20, 0x0E	; 14
    3f5e:	68 e3       	ldi	r22, 0x38	; 56
    3f60:	8e e0       	ldi	r24, 0x0E	; 14
    3f62:	0e 94 8e 0c 	call	0x191c	; 0x191c <LCD_12864_Draw_line>
		/*LCD_12864_Draw_pixel(14, 56, Frame_buffer);
		LCD_12864_Draw_pixel(14, 57, Frame_buffer);*/
		LCD_12864_Draw_pixel(13, 57, Frame_buffer);
    3f66:	ae 01       	movw	r20, r28
    3f68:	69 e3       	ldi	r22, 0x39	; 57
    3f6a:	8d e0       	ldi	r24, 0x0D	; 13
    3f6c:	0e 94 fb 06 	call	0xdf6	; 0xdf6 <LCD_12864_Draw_pixel>
    3f70:	39 c0       	rjmp	.+114    	; 0x3fe4 <DrawWeatherVane+0x508>
	}
	else if (!strcmp(wind_direction, "S-W"))
    3f72:	60 ef       	ldi	r22, 0xF0	; 240
    3f74:	72 e0       	ldi	r23, 0x02	; 2
    3f76:	81 e3       	ldi	r24, 0x31	; 49
    3f78:	94 e0       	ldi	r25, 0x04	; 4
    3f7a:	0e 94 98 2a 	call	0x5530	; 0x5530 <strcmp>
    3f7e:	89 2b       	or	r24, r25
    3f80:	89 f5       	brne	.+98     	; 0x3fe4 <DrawWeatherVane+0x508>
	{
		LCD_12864_Draw_pixel(11, 50, Frame_buffer);
    3f82:	ae 01       	movw	r20, r28
    3f84:	62 e3       	ldi	r22, 0x32	; 50
    3f86:	8b e0       	ldi	r24, 0x0B	; 11
    3f88:	0e 94 fb 06 	call	0xdf6	; 0xdf6 <LCD_12864_Draw_pixel>
		LCD_12864_Draw_pixel(10, 51, Frame_buffer);
    3f8c:	ae 01       	movw	r20, r28
    3f8e:	63 e3       	ldi	r22, 0x33	; 51
    3f90:	8a e0       	ldi	r24, 0x0A	; 10
    3f92:	0e 94 fb 06 	call	0xdf6	; 0xdf6 <LCD_12864_Draw_pixel>
		LCD_12864_Draw_pixel(13, 52, Frame_buffer);
    3f96:	ae 01       	movw	r20, r28
    3f98:	64 e3       	ldi	r22, 0x34	; 52
    3f9a:	8d e0       	ldi	r24, 0x0D	; 13
    3f9c:	0e 94 fb 06 	call	0xdf6	; 0xdf6 <LCD_12864_Draw_pixel>
		LCD_12864_Draw_pixel(12, 53, Frame_buffer);
    3fa0:	ae 01       	movw	r20, r28
    3fa2:	65 e3       	ldi	r22, 0x35	; 53
    3fa4:	8c e0       	ldi	r24, 0x0C	; 12
    3fa6:	0e 94 fb 06 	call	0xdf6	; 0xdf6 <LCD_12864_Draw_pixel>
		LCD_12864_Draw_line(11, 52, 6, 57, Frame_buffer);
    3faa:	8e 01       	movw	r16, r28
    3fac:	29 e3       	ldi	r18, 0x39	; 57
    3fae:	46 e0       	ldi	r20, 0x06	; 6
    3fb0:	64 e3       	ldi	r22, 0x34	; 52
    3fb2:	8b e0       	ldi	r24, 0x0B	; 11
    3fb4:	0e 94 8e 0c 	call	0x191c	; 0x191c <LCD_12864_Draw_line>
		LCD_12864_Draw_line(6, 54, 6, 56, Frame_buffer);
    3fb8:	28 e3       	ldi	r18, 0x38	; 56
    3fba:	46 e0       	ldi	r20, 0x06	; 6
    3fbc:	66 e3       	ldi	r22, 0x36	; 54
    3fbe:	86 e0       	ldi	r24, 0x06	; 6
    3fc0:	0e 94 8e 0c 	call	0x191c	; 0x191c <LCD_12864_Draw_line>
		//LCD_12864_Draw_pixel(6, 56, Frame_buffer);
		//LCD_12864_Draw_pixel(6, 55, Frame_buffer);
		LCD_12864_Draw_pixel(7, 55, Frame_buffer);
    3fc4:	ae 01       	movw	r20, r28
    3fc6:	67 e3       	ldi	r22, 0x37	; 55
    3fc8:	87 e0       	ldi	r24, 0x07	; 7
    3fca:	0e 94 fb 06 	call	0xdf6	; 0xdf6 <LCD_12864_Draw_pixel>
		//LCD_12864_Draw_pixel(6, 54, Frame_buffer);
		LCD_12864_Draw_line(7, 57, 9, 57, Frame_buffer);
    3fce:	29 e3       	ldi	r18, 0x39	; 57
    3fd0:	49 e0       	ldi	r20, 0x09	; 9
    3fd2:	69 e3       	ldi	r22, 0x39	; 57
    3fd4:	87 e0       	ldi	r24, 0x07	; 7
    3fd6:	0e 94 8e 0c 	call	0x191c	; 0x191c <LCD_12864_Draw_line>
		//LCD_12864_Draw_pixel(7, 57, Frame_buffer);
		//LCD_12864_Draw_pixel(8, 57, Frame_buffer);
		LCD_12864_Draw_pixel(8, 56, Frame_buffer);
    3fda:	ae 01       	movw	r20, r28
    3fdc:	68 e3       	ldi	r22, 0x38	; 56
    3fde:	88 e0       	ldi	r24, 0x08	; 8
    3fe0:	0e 94 fb 06 	call	0xdf6	; 0xdf6 <LCD_12864_Draw_pixel>
		//LCD_12864_Draw_pixel(9, 57, Frame_buffer);
	}
}
    3fe4:	df 91       	pop	r29
    3fe6:	cf 91       	pop	r28
    3fe8:	1f 91       	pop	r17
    3fea:	0f 91       	pop	r16
    3fec:	08 95       	ret

00003fee <Convert_to_string_Clock>:
	
	Convert_to_string_Clock();
}
void Convert_to_string_Clock(void)
{
	if ((sec >= 0) && (sec <= 9)) {
    3fee:	80 91 19 04 	lds	r24, 0x0419	; 0x800419 <sec>
    3ff2:	8a 30       	cpi	r24, 0x0A	; 10
    3ff4:	98 f4       	brcc	.+38     	; 0x401c <Convert_to_string_Clock+0x2e>
		sprintf(T_Param.seconds,"0%d",sec);
    3ff6:	1f 92       	push	r1
    3ff8:	8f 93       	push	r24
    3ffa:	84 ef       	ldi	r24, 0xF4	; 244
    3ffc:	92 e0       	ldi	r25, 0x02	; 2
    3ffe:	9f 93       	push	r25
    4000:	8f 93       	push	r24
    4002:	8f e4       	ldi	r24, 0x4F	; 79
    4004:	94 e0       	ldi	r25, 0x04	; 4
    4006:	9f 93       	push	r25
    4008:	8f 93       	push	r24
    400a:	0e 94 a1 2a 	call	0x5542	; 0x5542 <sprintf>
    400e:	0f 90       	pop	r0
    4010:	0f 90       	pop	r0
    4012:	0f 90       	pop	r0
    4014:	0f 90       	pop	r0
    4016:	0f 90       	pop	r0
    4018:	0f 90       	pop	r0
    401a:	12 c0       	rjmp	.+36     	; 0x4040 <Convert_to_string_Clock+0x52>
	}
	else {
		sprintf(T_Param.seconds,"%d",sec);
    401c:	1f 92       	push	r1
    401e:	8f 93       	push	r24
    4020:	89 e7       	ldi	r24, 0x79	; 121
    4022:	91 e0       	ldi	r25, 0x01	; 1
    4024:	9f 93       	push	r25
    4026:	8f 93       	push	r24
    4028:	8f e4       	ldi	r24, 0x4F	; 79
    402a:	94 e0       	ldi	r25, 0x04	; 4
    402c:	9f 93       	push	r25
    402e:	8f 93       	push	r24
    4030:	0e 94 a1 2a 	call	0x5542	; 0x5542 <sprintf>
    4034:	0f 90       	pop	r0
    4036:	0f 90       	pop	r0
    4038:	0f 90       	pop	r0
    403a:	0f 90       	pop	r0
    403c:	0f 90       	pop	r0
    403e:	0f 90       	pop	r0
	}
	if ((min >= 0) && (min <= 9)) {
    4040:	80 91 17 04 	lds	r24, 0x0417	; 0x800417 <min>
    4044:	8a 30       	cpi	r24, 0x0A	; 10
    4046:	98 f4       	brcc	.+38     	; 0x406e <Convert_to_string_Clock+0x80>
		sprintf(T_Param.minutes,"0%d",min);
    4048:	1f 92       	push	r1
    404a:	8f 93       	push	r24
    404c:	84 ef       	ldi	r24, 0xF4	; 244
    404e:	92 e0       	ldi	r25, 0x02	; 2
    4050:	9f 93       	push	r25
    4052:	8f 93       	push	r24
    4054:	8b e4       	ldi	r24, 0x4B	; 75
    4056:	94 e0       	ldi	r25, 0x04	; 4
    4058:	9f 93       	push	r25
    405a:	8f 93       	push	r24
    405c:	0e 94 a1 2a 	call	0x5542	; 0x5542 <sprintf>
    4060:	0f 90       	pop	r0
    4062:	0f 90       	pop	r0
    4064:	0f 90       	pop	r0
    4066:	0f 90       	pop	r0
    4068:	0f 90       	pop	r0
    406a:	0f 90       	pop	r0
    406c:	12 c0       	rjmp	.+36     	; 0x4092 <Convert_to_string_Clock+0xa4>
	}
	else {
		sprintf(T_Param.minutes,"%d",min);
    406e:	1f 92       	push	r1
    4070:	8f 93       	push	r24
    4072:	89 e7       	ldi	r24, 0x79	; 121
    4074:	91 e0       	ldi	r25, 0x01	; 1
    4076:	9f 93       	push	r25
    4078:	8f 93       	push	r24
    407a:	8b e4       	ldi	r24, 0x4B	; 75
    407c:	94 e0       	ldi	r25, 0x04	; 4
    407e:	9f 93       	push	r25
    4080:	8f 93       	push	r24
    4082:	0e 94 a1 2a 	call	0x5542	; 0x5542 <sprintf>
    4086:	0f 90       	pop	r0
    4088:	0f 90       	pop	r0
    408a:	0f 90       	pop	r0
    408c:	0f 90       	pop	r0
    408e:	0f 90       	pop	r0
    4090:	0f 90       	pop	r0
	}
	if ((hour >= 0) && (hour <= 9)) {
    4092:	80 91 15 04 	lds	r24, 0x0415	; 0x800415 <hour>
    4096:	8a 30       	cpi	r24, 0x0A	; 10
    4098:	98 f4       	brcc	.+38     	; 0x40c0 <Convert_to_string_Clock+0xd2>
		sprintf(T_Param.hours,"0%d",hour);
    409a:	1f 92       	push	r1
    409c:	8f 93       	push	r24
    409e:	84 ef       	ldi	r24, 0xF4	; 244
    40a0:	92 e0       	ldi	r25, 0x02	; 2
    40a2:	9f 93       	push	r25
    40a4:	8f 93       	push	r24
    40a6:	87 e4       	ldi	r24, 0x47	; 71
    40a8:	94 e0       	ldi	r25, 0x04	; 4
    40aa:	9f 93       	push	r25
    40ac:	8f 93       	push	r24
    40ae:	0e 94 a1 2a 	call	0x5542	; 0x5542 <sprintf>
    40b2:	0f 90       	pop	r0
    40b4:	0f 90       	pop	r0
    40b6:	0f 90       	pop	r0
    40b8:	0f 90       	pop	r0
    40ba:	0f 90       	pop	r0
    40bc:	0f 90       	pop	r0
    40be:	12 c0       	rjmp	.+36     	; 0x40e4 <Convert_to_string_Clock+0xf6>
	}
	else {
		sprintf(T_Param.hours,"%d",hour);
    40c0:	1f 92       	push	r1
    40c2:	8f 93       	push	r24
    40c4:	89 e7       	ldi	r24, 0x79	; 121
    40c6:	91 e0       	ldi	r25, 0x01	; 1
    40c8:	9f 93       	push	r25
    40ca:	8f 93       	push	r24
    40cc:	87 e4       	ldi	r24, 0x47	; 71
    40ce:	94 e0       	ldi	r25, 0x04	; 4
    40d0:	9f 93       	push	r25
    40d2:	8f 93       	push	r24
    40d4:	0e 94 a1 2a 	call	0x5542	; 0x5542 <sprintf>
    40d8:	0f 90       	pop	r0
    40da:	0f 90       	pop	r0
    40dc:	0f 90       	pop	r0
    40de:	0f 90       	pop	r0
    40e0:	0f 90       	pop	r0
    40e2:	0f 90       	pop	r0
	}
	if ((date >= 0) && (date <= 9)) {
    40e4:	80 91 1c 04 	lds	r24, 0x041C	; 0x80041c <date>
    40e8:	8a 30       	cpi	r24, 0x0A	; 10
    40ea:	98 f4       	brcc	.+38     	; 0x4112 <Convert_to_string_Clock+0x124>
		sprintf(T_Param.mounthday,"0%d",date);
    40ec:	1f 92       	push	r1
    40ee:	8f 93       	push	r24
    40f0:	84 ef       	ldi	r24, 0xF4	; 244
    40f2:	92 e0       	ldi	r25, 0x02	; 2
    40f4:	9f 93       	push	r25
    40f6:	8f 93       	push	r24
    40f8:	87 e5       	ldi	r24, 0x57	; 87
    40fa:	94 e0       	ldi	r25, 0x04	; 4
    40fc:	9f 93       	push	r25
    40fe:	8f 93       	push	r24
    4100:	0e 94 a1 2a 	call	0x5542	; 0x5542 <sprintf>
    4104:	0f 90       	pop	r0
    4106:	0f 90       	pop	r0
    4108:	0f 90       	pop	r0
    410a:	0f 90       	pop	r0
    410c:	0f 90       	pop	r0
    410e:	0f 90       	pop	r0
    4110:	12 c0       	rjmp	.+36     	; 0x4136 <Convert_to_string_Clock+0x148>
	}
	else {
		sprintf(T_Param.mounthday,"%d",date);
    4112:	1f 92       	push	r1
    4114:	8f 93       	push	r24
    4116:	89 e7       	ldi	r24, 0x79	; 121
    4118:	91 e0       	ldi	r25, 0x01	; 1
    411a:	9f 93       	push	r25
    411c:	8f 93       	push	r24
    411e:	87 e5       	ldi	r24, 0x57	; 87
    4120:	94 e0       	ldi	r25, 0x04	; 4
    4122:	9f 93       	push	r25
    4124:	8f 93       	push	r24
    4126:	0e 94 a1 2a 	call	0x5542	; 0x5542 <sprintf>
    412a:	0f 90       	pop	r0
    412c:	0f 90       	pop	r0
    412e:	0f 90       	pop	r0
    4130:	0f 90       	pop	r0
    4132:	0f 90       	pop	r0
    4134:	0f 90       	pop	r0
	}
	if ((year >= 0) && (year <= 9)) {
    4136:	80 91 18 04 	lds	r24, 0x0418	; 0x800418 <year>
    413a:	8a 30       	cpi	r24, 0x0A	; 10
    413c:	98 f4       	brcc	.+38     	; 0x4164 <Convert_to_string_Clock+0x176>
		sprintf(T_Param.Year,"0%d",year);
    413e:	1f 92       	push	r1
    4140:	8f 93       	push	r24
    4142:	84 ef       	ldi	r24, 0xF4	; 244
    4144:	92 e0       	ldi	r25, 0x02	; 2
    4146:	9f 93       	push	r25
    4148:	8f 93       	push	r24
    414a:	8f e5       	ldi	r24, 0x5F	; 95
    414c:	94 e0       	ldi	r25, 0x04	; 4
    414e:	9f 93       	push	r25
    4150:	8f 93       	push	r24
    4152:	0e 94 a1 2a 	call	0x5542	; 0x5542 <sprintf>
    4156:	0f 90       	pop	r0
    4158:	0f 90       	pop	r0
    415a:	0f 90       	pop	r0
    415c:	0f 90       	pop	r0
    415e:	0f 90       	pop	r0
    4160:	0f 90       	pop	r0
    4162:	12 c0       	rjmp	.+36     	; 0x4188 <Convert_to_string_Clock+0x19a>
	}
	else {
		sprintf(T_Param.Year,"%d",year);
    4164:	1f 92       	push	r1
    4166:	8f 93       	push	r24
    4168:	89 e7       	ldi	r24, 0x79	; 121
    416a:	91 e0       	ldi	r25, 0x01	; 1
    416c:	9f 93       	push	r25
    416e:	8f 93       	push	r24
    4170:	8f e5       	ldi	r24, 0x5F	; 95
    4172:	94 e0       	ldi	r25, 0x04	; 4
    4174:	9f 93       	push	r25
    4176:	8f 93       	push	r24
    4178:	0e 94 a1 2a 	call	0x5542	; 0x5542 <sprintf>
    417c:	0f 90       	pop	r0
    417e:	0f 90       	pop	r0
    4180:	0f 90       	pop	r0
    4182:	0f 90       	pop	r0
    4184:	0f 90       	pop	r0
    4186:	0f 90       	pop	r0
	}
	switch (day)
    4188:	e0 91 1a 04 	lds	r30, 0x041A	; 0x80041a <day>
    418c:	8e 2f       	mov	r24, r30
    418e:	90 e0       	ldi	r25, 0x00	; 0
    4190:	fc 01       	movw	r30, r24
    4192:	31 97       	sbiw	r30, 0x01	; 1
    4194:	e7 30       	cpi	r30, 0x07	; 7
    4196:	f1 05       	cpc	r31, r1
    4198:	d8 f5       	brcc	.+118    	; 0x4210 <Convert_to_string_Clock+0x222>
    419a:	e5 5c       	subi	r30, 0xC5	; 197
    419c:	ff 4f       	sbci	r31, 0xFF	; 255
    419e:	0c 94 4a 2a 	jmp	0x5494	; 0x5494 <__tablejump2__>
	{
		case 1:
		sprintf(T_Param.weakday,"Пн");
    41a2:	e3 e5       	ldi	r30, 0x53	; 83
    41a4:	f4 e0       	ldi	r31, 0x04	; 4
    41a6:	8f ec       	ldi	r24, 0xCF	; 207
    41a8:	9d ee       	ldi	r25, 0xED	; 237
    41aa:	91 83       	std	Z+1, r25	; 0x01
    41ac:	80 83       	st	Z, r24
    41ae:	12 82       	std	Z+2, r1	; 0x02
		break;
    41b0:	2f c0       	rjmp	.+94     	; 0x4210 <Convert_to_string_Clock+0x222>
		case 2:
		sprintf(T_Param.weakday,"Вт");
    41b2:	e3 e5       	ldi	r30, 0x53	; 83
    41b4:	f4 e0       	ldi	r31, 0x04	; 4
    41b6:	82 ec       	ldi	r24, 0xC2	; 194
    41b8:	92 ef       	ldi	r25, 0xF2	; 242
    41ba:	91 83       	std	Z+1, r25	; 0x01
    41bc:	80 83       	st	Z, r24
    41be:	12 82       	std	Z+2, r1	; 0x02
		break;
    41c0:	27 c0       	rjmp	.+78     	; 0x4210 <Convert_to_string_Clock+0x222>
		case 3:
		sprintf(T_Param.weakday,"Ср");
    41c2:	e3 e5       	ldi	r30, 0x53	; 83
    41c4:	f4 e0       	ldi	r31, 0x04	; 4
    41c6:	81 ed       	ldi	r24, 0xD1	; 209
    41c8:	90 ef       	ldi	r25, 0xF0	; 240
    41ca:	91 83       	std	Z+1, r25	; 0x01
    41cc:	80 83       	st	Z, r24
    41ce:	12 82       	std	Z+2, r1	; 0x02
		break;
    41d0:	1f c0       	rjmp	.+62     	; 0x4210 <Convert_to_string_Clock+0x222>
		case 4:
		sprintf(T_Param.weakday,"Чт");
    41d2:	e3 e5       	ldi	r30, 0x53	; 83
    41d4:	f4 e0       	ldi	r31, 0x04	; 4
    41d6:	87 ed       	ldi	r24, 0xD7	; 215
    41d8:	92 ef       	ldi	r25, 0xF2	; 242
    41da:	91 83       	std	Z+1, r25	; 0x01
    41dc:	80 83       	st	Z, r24
    41de:	12 82       	std	Z+2, r1	; 0x02
		break;
    41e0:	17 c0       	rjmp	.+46     	; 0x4210 <Convert_to_string_Clock+0x222>
		case 5:
		sprintf(T_Param.weakday,"Пт");
    41e2:	e3 e5       	ldi	r30, 0x53	; 83
    41e4:	f4 e0       	ldi	r31, 0x04	; 4
    41e6:	8f ec       	ldi	r24, 0xCF	; 207
    41e8:	92 ef       	ldi	r25, 0xF2	; 242
    41ea:	91 83       	std	Z+1, r25	; 0x01
    41ec:	80 83       	st	Z, r24
    41ee:	12 82       	std	Z+2, r1	; 0x02
		break;
    41f0:	0f c0       	rjmp	.+30     	; 0x4210 <Convert_to_string_Clock+0x222>
		case 6:
		sprintf(T_Param.weakday,"Сб");
    41f2:	e3 e5       	ldi	r30, 0x53	; 83
    41f4:	f4 e0       	ldi	r31, 0x04	; 4
    41f6:	81 ed       	ldi	r24, 0xD1	; 209
    41f8:	91 ee       	ldi	r25, 0xE1	; 225
    41fa:	91 83       	std	Z+1, r25	; 0x01
    41fc:	80 83       	st	Z, r24
    41fe:	12 82       	std	Z+2, r1	; 0x02
		break;
    4200:	07 c0       	rjmp	.+14     	; 0x4210 <Convert_to_string_Clock+0x222>
		case 7:
		sprintf(T_Param.weakday,"Вс");
    4202:	e3 e5       	ldi	r30, 0x53	; 83
    4204:	f4 e0       	ldi	r31, 0x04	; 4
    4206:	82 ec       	ldi	r24, 0xC2	; 194
    4208:	91 ef       	ldi	r25, 0xF1	; 241
    420a:	91 83       	std	Z+1, r25	; 0x01
    420c:	80 83       	st	Z, r24
    420e:	12 82       	std	Z+2, r1	; 0x02
		break;
		default:
		break;
	}
	switch (month)
    4210:	e0 91 14 04 	lds	r30, 0x0414	; 0x800414 <month>
    4214:	8e 2f       	mov	r24, r30
    4216:	90 e0       	ldi	r25, 0x00	; 0
    4218:	fc 01       	movw	r30, r24
    421a:	31 97       	sbiw	r30, 0x01	; 1
    421c:	ec 30       	cpi	r30, 0x0C	; 12
    421e:	f1 05       	cpc	r31, r1
    4220:	08 f0       	brcs	.+2      	; 0x4224 <Convert_to_string_Clock+0x236>
    4222:	87 c0       	rjmp	.+270    	; 0x4332 <Convert_to_string_Clock+0x344>
    4224:	ee 5b       	subi	r30, 0xBE	; 190
    4226:	ff 4f       	sbci	r31, 0xFF	; 255
    4228:	0c 94 4a 2a 	jmp	0x5494	; 0x5494 <__tablejump2__>
	{
		case 1:
		sprintf(T_Param.Mounth,"Янв");
    422c:	e7 e4       	ldi	r30, 0x47	; 71
    422e:	f4 e0       	ldi	r31, 0x04	; 4
    4230:	8f ed       	ldi	r24, 0xDF	; 223
    4232:	9d ee       	ldi	r25, 0xED	; 237
    4234:	95 8b       	std	Z+21, r25	; 0x15
    4236:	84 8b       	std	Z+20, r24	; 0x14
    4238:	82 ee       	ldi	r24, 0xE2	; 226
    423a:	90 e0       	ldi	r25, 0x00	; 0
    423c:	97 8b       	std	Z+23, r25	; 0x17
    423e:	86 8b       	std	Z+22, r24	; 0x16
		break;
    4240:	08 95       	ret
		case 2:
		sprintf(T_Param.Mounth,"Фев");
    4242:	e7 e4       	ldi	r30, 0x47	; 71
    4244:	f4 e0       	ldi	r31, 0x04	; 4
    4246:	84 ed       	ldi	r24, 0xD4	; 212
    4248:	95 ee       	ldi	r25, 0xE5	; 229
    424a:	95 8b       	std	Z+21, r25	; 0x15
    424c:	84 8b       	std	Z+20, r24	; 0x14
    424e:	82 ee       	ldi	r24, 0xE2	; 226
    4250:	90 e0       	ldi	r25, 0x00	; 0
    4252:	97 8b       	std	Z+23, r25	; 0x17
    4254:	86 8b       	std	Z+22, r24	; 0x16
		break;
    4256:	08 95       	ret
		case 3:
		sprintf(T_Param.Mounth,"Мар");
    4258:	e7 e4       	ldi	r30, 0x47	; 71
    425a:	f4 e0       	ldi	r31, 0x04	; 4
    425c:	8c ec       	ldi	r24, 0xCC	; 204
    425e:	90 ee       	ldi	r25, 0xE0	; 224
    4260:	95 8b       	std	Z+21, r25	; 0x15
    4262:	84 8b       	std	Z+20, r24	; 0x14
    4264:	80 ef       	ldi	r24, 0xF0	; 240
    4266:	90 e0       	ldi	r25, 0x00	; 0
    4268:	97 8b       	std	Z+23, r25	; 0x17
    426a:	86 8b       	std	Z+22, r24	; 0x16
		break;
    426c:	08 95       	ret
		case 4:
		sprintf(T_Param.Mounth,"Апр");
    426e:	e7 e4       	ldi	r30, 0x47	; 71
    4270:	f4 e0       	ldi	r31, 0x04	; 4
    4272:	80 ec       	ldi	r24, 0xC0	; 192
    4274:	9f ee       	ldi	r25, 0xEF	; 239
    4276:	95 8b       	std	Z+21, r25	; 0x15
    4278:	84 8b       	std	Z+20, r24	; 0x14
    427a:	80 ef       	ldi	r24, 0xF0	; 240
    427c:	90 e0       	ldi	r25, 0x00	; 0
    427e:	97 8b       	std	Z+23, r25	; 0x17
    4280:	86 8b       	std	Z+22, r24	; 0x16
		break;
    4282:	08 95       	ret
		case 5:
		sprintf(T_Param.Mounth,"Май");
    4284:	e7 e4       	ldi	r30, 0x47	; 71
    4286:	f4 e0       	ldi	r31, 0x04	; 4
    4288:	8c ec       	ldi	r24, 0xCC	; 204
    428a:	90 ee       	ldi	r25, 0xE0	; 224
    428c:	95 8b       	std	Z+21, r25	; 0x15
    428e:	84 8b       	std	Z+20, r24	; 0x14
    4290:	89 ee       	ldi	r24, 0xE9	; 233
    4292:	90 e0       	ldi	r25, 0x00	; 0
    4294:	97 8b       	std	Z+23, r25	; 0x17
    4296:	86 8b       	std	Z+22, r24	; 0x16
		break;
    4298:	08 95       	ret
		case 6:
		sprintf(T_Param.Mounth,"Июн");
    429a:	e7 e4       	ldi	r30, 0x47	; 71
    429c:	f4 e0       	ldi	r31, 0x04	; 4
    429e:	88 ec       	ldi	r24, 0xC8	; 200
    42a0:	9e ef       	ldi	r25, 0xFE	; 254
    42a2:	95 8b       	std	Z+21, r25	; 0x15
    42a4:	84 8b       	std	Z+20, r24	; 0x14
    42a6:	8d ee       	ldi	r24, 0xED	; 237
    42a8:	90 e0       	ldi	r25, 0x00	; 0
    42aa:	97 8b       	std	Z+23, r25	; 0x17
    42ac:	86 8b       	std	Z+22, r24	; 0x16
		break;
    42ae:	08 95       	ret
		case 7:
		sprintf(T_Param.Mounth,"Июл");
    42b0:	e7 e4       	ldi	r30, 0x47	; 71
    42b2:	f4 e0       	ldi	r31, 0x04	; 4
    42b4:	88 ec       	ldi	r24, 0xC8	; 200
    42b6:	9e ef       	ldi	r25, 0xFE	; 254
    42b8:	95 8b       	std	Z+21, r25	; 0x15
    42ba:	84 8b       	std	Z+20, r24	; 0x14
    42bc:	8b ee       	ldi	r24, 0xEB	; 235
    42be:	90 e0       	ldi	r25, 0x00	; 0
    42c0:	97 8b       	std	Z+23, r25	; 0x17
    42c2:	86 8b       	std	Z+22, r24	; 0x16
		break;
    42c4:	08 95       	ret
		case 8:
		sprintf(T_Param.Mounth,"Авг");
    42c6:	e7 e4       	ldi	r30, 0x47	; 71
    42c8:	f4 e0       	ldi	r31, 0x04	; 4
    42ca:	80 ec       	ldi	r24, 0xC0	; 192
    42cc:	92 ee       	ldi	r25, 0xE2	; 226
    42ce:	95 8b       	std	Z+21, r25	; 0x15
    42d0:	84 8b       	std	Z+20, r24	; 0x14
    42d2:	83 ee       	ldi	r24, 0xE3	; 227
    42d4:	90 e0       	ldi	r25, 0x00	; 0
    42d6:	97 8b       	std	Z+23, r25	; 0x17
    42d8:	86 8b       	std	Z+22, r24	; 0x16
		break;
    42da:	08 95       	ret
		case 9:
		sprintf(T_Param.Mounth,"Сен");
    42dc:	e7 e4       	ldi	r30, 0x47	; 71
    42de:	f4 e0       	ldi	r31, 0x04	; 4
    42e0:	81 ed       	ldi	r24, 0xD1	; 209
    42e2:	95 ee       	ldi	r25, 0xE5	; 229
    42e4:	95 8b       	std	Z+21, r25	; 0x15
    42e6:	84 8b       	std	Z+20, r24	; 0x14
    42e8:	8d ee       	ldi	r24, 0xED	; 237
    42ea:	90 e0       	ldi	r25, 0x00	; 0
    42ec:	97 8b       	std	Z+23, r25	; 0x17
    42ee:	86 8b       	std	Z+22, r24	; 0x16
		break;
    42f0:	08 95       	ret
		case 10:
		sprintf(T_Param.Mounth,"Окт");
    42f2:	e7 e4       	ldi	r30, 0x47	; 71
    42f4:	f4 e0       	ldi	r31, 0x04	; 4
    42f6:	8e ec       	ldi	r24, 0xCE	; 206
    42f8:	9a ee       	ldi	r25, 0xEA	; 234
    42fa:	95 8b       	std	Z+21, r25	; 0x15
    42fc:	84 8b       	std	Z+20, r24	; 0x14
    42fe:	82 ef       	ldi	r24, 0xF2	; 242
    4300:	90 e0       	ldi	r25, 0x00	; 0
    4302:	97 8b       	std	Z+23, r25	; 0x17
    4304:	86 8b       	std	Z+22, r24	; 0x16
		break;
    4306:	08 95       	ret
		case 11:
		sprintf(T_Param.Mounth,"Ноя");
    4308:	e7 e4       	ldi	r30, 0x47	; 71
    430a:	f4 e0       	ldi	r31, 0x04	; 4
    430c:	8d ec       	ldi	r24, 0xCD	; 205
    430e:	9e ee       	ldi	r25, 0xEE	; 238
    4310:	95 8b       	std	Z+21, r25	; 0x15
    4312:	84 8b       	std	Z+20, r24	; 0x14
    4314:	8f ef       	ldi	r24, 0xFF	; 255
    4316:	90 e0       	ldi	r25, 0x00	; 0
    4318:	97 8b       	std	Z+23, r25	; 0x17
    431a:	86 8b       	std	Z+22, r24	; 0x16
		break;
    431c:	08 95       	ret
		case 12:
		sprintf(T_Param.Mounth,"Дек");
    431e:	e7 e4       	ldi	r30, 0x47	; 71
    4320:	f4 e0       	ldi	r31, 0x04	; 4
    4322:	84 ec       	ldi	r24, 0xC4	; 196
    4324:	95 ee       	ldi	r25, 0xE5	; 229
    4326:	95 8b       	std	Z+21, r25	; 0x15
    4328:	84 8b       	std	Z+20, r24	; 0x14
    432a:	8a ee       	ldi	r24, 0xEA	; 234
    432c:	90 e0       	ldi	r25, 0x00	; 0
    432e:	97 8b       	std	Z+23, r25	; 0x17
    4330:	86 8b       	std	Z+22, r24	; 0x16
    4332:	08 95       	ret

00004334 <Print_Page_Clock_Settings>:
	LCD_12864_Draw_bitmap(Frame_buffer);
	LCD_12864_GrapnicMode(0);
}
//Окно настроек времени
void Print_Page_Clock_Settings()
{
    4334:	0f 93       	push	r16
    4336:	1f 93       	push	r17
    4338:	cf 93       	push	r28
    433a:	df 93       	push	r29
    433c:	cd b7       	in	r28, 0x3d	; 61
    433e:	de b7       	in	r29, 0x3e	; 62
    4340:	d4 50       	subi	r29, 0x04	; 4
    4342:	0f b6       	in	r0, 0x3f	; 63
    4344:	f8 94       	cli
    4346:	de bf       	out	0x3e, r29	; 62
    4348:	0f be       	out	0x3f, r0	; 63
    434a:	cd bf       	out	0x3d, r28	; 61
	uint8_t Frame_buffer[1024] = { 0 }; //Буфер кадра
    434c:	8e 01       	movw	r16, r28
    434e:	0f 5f       	subi	r16, 0xFF	; 255
    4350:	1f 4f       	sbci	r17, 0xFF	; 255
    4352:	80 e0       	ldi	r24, 0x00	; 0
    4354:	94 e0       	ldi	r25, 0x04	; 4
    4356:	f8 01       	movw	r30, r16
    4358:	9c 01       	movw	r18, r24
    435a:	11 92       	st	Z+, r1
    435c:	21 50       	subi	r18, 0x01	; 1
    435e:	30 40       	sbci	r19, 0x00	; 0
    4360:	e1 f7       	brne	.-8      	; 0x435a <Print_Page_Clock_Settings+0x26>
	Convert_to_string_Clock();
    4362:	0e 94 f7 1f 	call	0x3fee	; 0x3fee <Convert_to_string_Clock>
	LCD_12864_GrapnicMode(1);
    4366:	81 e0       	ldi	r24, 0x01	; 1
    4368:	0e 94 fe 07 	call	0xffc	; 0xffc <LCD_12864_GrapnicMode>
	LCD_12864_Clean_Frame_buffer(Frame_buffer);
    436c:	c8 01       	movw	r24, r16
    436e:	0e 94 8a 0c 	call	0x1914	; 0x1914 <LCD_12864_Clean_Frame_buffer>
	
	LCD_12864_Decode_UTF8(15, 0, 1, "НАСТРОЙКА ВРЕМЕНИ", Frame_buffer);
    4372:	28 ef       	ldi	r18, 0xF8	; 248
    4374:	32 e0       	ldi	r19, 0x02	; 2
    4376:	41 e0       	ldi	r20, 0x01	; 1
    4378:	60 e0       	ldi	r22, 0x00	; 0
    437a:	8f e0       	ldi	r24, 0x0F	; 15
    437c:	90 e0       	ldi	r25, 0x00	; 0
    437e:	0e 94 9f 0b 	call	0x173e	; 0x173e <LCD_12864_Decode_UTF8>
	switch (cnt%7)
    4382:	90 91 13 04 	lds	r25, 0x0413	; 0x800413 <cnt>
    4386:	83 e9       	ldi	r24, 0x93	; 147
    4388:	98 02       	muls	r25, r24
    438a:	81 2d       	mov	r24, r1
    438c:	11 24       	eor	r1, r1
    438e:	89 0f       	add	r24, r25
    4390:	85 95       	asr	r24
    4392:	85 95       	asr	r24
    4394:	e8 2f       	mov	r30, r24
    4396:	97 fd       	sbrc	r25, 7
    4398:	e3 95       	inc	r30
    439a:	8e 2f       	mov	r24, r30
    439c:	88 0f       	add	r24, r24
    439e:	88 0f       	add	r24, r24
    43a0:	88 0f       	add	r24, r24
    43a2:	8e 1b       	sub	r24, r30
    43a4:	e9 2f       	mov	r30, r25
    43a6:	e8 1b       	sub	r30, r24
    43a8:	8e 2f       	mov	r24, r30
    43aa:	ee 0f       	add	r30, r30
    43ac:	99 0b       	sbc	r25, r25
    43ae:	aa 0b       	sbc	r26, r26
    43b0:	bb 0b       	sbc	r27, r27
    43b2:	87 30       	cpi	r24, 0x07	; 7
    43b4:	91 05       	cpc	r25, r1
    43b6:	08 f0       	brcs	.+2      	; 0x43ba <Print_Page_Clock_Settings+0x86>
    43b8:	d8 c1       	rjmp	.+944    	; 0x476a <Print_Page_Clock_Settings+0x436>
    43ba:	fc 01       	movw	r30, r24
    43bc:	e2 5b       	subi	r30, 0xB2	; 178
    43be:	ff 4f       	sbci	r31, 0xFF	; 255
    43c0:	0c 94 4a 2a 	jmp	0x5494	; 0x5494 <__tablejump2__>
	{
		case 0:	if(change_flag)
    43c4:	80 91 78 03 	lds	r24, 0x0378	; 0x800378 <change_flag>
    43c8:	88 23       	and	r24, r24
    43ca:	21 f0       	breq	.+8      	; 0x43d4 <Print_Page_Clock_Settings+0xa0>
				{
					hour = add_cnt;
    43cc:	80 91 12 04 	lds	r24, 0x0412	; 0x800412 <add_cnt>
    43d0:	80 93 15 04 	sts	0x0415, r24	; 0x800415 <hour>
				}
				LCD_12864_Print_11_16(32, 2, 1, T_Param.hours, Frame_buffer);
    43d4:	8e 01       	movw	r16, r28
    43d6:	0f 5f       	subi	r16, 0xFF	; 255
    43d8:	1f 4f       	sbci	r17, 0xFF	; 255
    43da:	27 e4       	ldi	r18, 0x47	; 71
    43dc:	34 e0       	ldi	r19, 0x04	; 4
    43de:	41 e0       	ldi	r20, 0x01	; 1
    43e0:	62 e0       	ldi	r22, 0x02	; 2
    43e2:	80 e2       	ldi	r24, 0x20	; 32
    43e4:	90 e0       	ldi	r25, 0x00	; 0
    43e6:	0e 94 5d 0b 	call	0x16ba	; 0x16ba <LCD_12864_Print_11_16>
				LCD_12864_Print_11_16(62, 2, 0, T_Param.minutes, Frame_buffer);
    43ea:	2b e4       	ldi	r18, 0x4B	; 75
    43ec:	34 e0       	ldi	r19, 0x04	; 4
    43ee:	40 e0       	ldi	r20, 0x00	; 0
    43f0:	62 e0       	ldi	r22, 0x02	; 2
    43f2:	8e e3       	ldi	r24, 0x3E	; 62
    43f4:	90 e0       	ldi	r25, 0x00	; 0
    43f6:	0e 94 5d 0b 	call	0x16ba	; 0x16ba <LCD_12864_Print_11_16>
				LCD_12864_Decode_UTF8(28, 5, 0, T_Param.weakday, Frame_buffer);
    43fa:	23 e5       	ldi	r18, 0x53	; 83
    43fc:	34 e0       	ldi	r19, 0x04	; 4
    43fe:	40 e0       	ldi	r20, 0x00	; 0
    4400:	65 e0       	ldi	r22, 0x05	; 5
    4402:	8c e1       	ldi	r24, 0x1C	; 28
    4404:	90 e0       	ldi	r25, 0x00	; 0
    4406:	0e 94 9f 0b 	call	0x173e	; 0x173e <LCD_12864_Decode_UTF8>
				LCD_12864_Decode_UTF8(49, 5, 0, T_Param.mounthday, Frame_buffer);
    440a:	27 e5       	ldi	r18, 0x57	; 87
    440c:	34 e0       	ldi	r19, 0x04	; 4
    440e:	40 e0       	ldi	r20, 0x00	; 0
    4410:	65 e0       	ldi	r22, 0x05	; 5
    4412:	81 e3       	ldi	r24, 0x31	; 49
    4414:	90 e0       	ldi	r25, 0x00	; 0
    4416:	0e 94 9f 0b 	call	0x173e	; 0x173e <LCD_12864_Decode_UTF8>
				LCD_12864_Decode_UTF8(70, 5, 0, T_Param.Mounth, Frame_buffer);
    441a:	2b e5       	ldi	r18, 0x5B	; 91
    441c:	34 e0       	ldi	r19, 0x04	; 4
    441e:	40 e0       	ldi	r20, 0x00	; 0
    4420:	65 e0       	ldi	r22, 0x05	; 5
    4422:	86 e4       	ldi	r24, 0x46	; 70
    4424:	90 e0       	ldi	r25, 0x00	; 0
    4426:	0e 94 9f 0b 	call	0x173e	; 0x173e <LCD_12864_Decode_UTF8>
				LCD_12864_Decode_UTF8(95, 5, 0, T_Param.Year, Frame_buffer);
    442a:	2f e5       	ldi	r18, 0x5F	; 95
    442c:	34 e0       	ldi	r19, 0x04	; 4
    442e:	40 e0       	ldi	r20, 0x00	; 0
    4430:	65 e0       	ldi	r22, 0x05	; 5
    4432:	8f e5       	ldi	r24, 0x5F	; 95
    4434:	90 e0       	ldi	r25, 0x00	; 0
    4436:	0e 94 9f 0b 	call	0x173e	; 0x173e <LCD_12864_Decode_UTF8>
				LCD_12864_Decode_UTF8(25, 7, 0, "Назад в МЕНЮ", Frame_buffer);
    443a:	28 e8       	ldi	r18, 0x88	; 136
    443c:	32 e0       	ldi	r19, 0x02	; 2
    443e:	40 e0       	ldi	r20, 0x00	; 0
    4440:	67 e0       	ldi	r22, 0x07	; 7
    4442:	89 e1       	ldi	r24, 0x19	; 25
    4444:	90 e0       	ldi	r25, 0x00	; 0
    4446:	0e 94 9f 0b 	call	0x173e	; 0x173e <LCD_12864_Decode_UTF8>
				break;	
    444a:	8f c1       	rjmp	.+798    	; 0x476a <Print_Page_Clock_Settings+0x436>
		case 1: if(change_flag)
    444c:	80 91 78 03 	lds	r24, 0x0378	; 0x800378 <change_flag>
    4450:	88 23       	and	r24, r24
    4452:	21 f0       	breq	.+8      	; 0x445c <Print_Page_Clock_Settings+0x128>
				{
					min = add_cnt;
    4454:	80 91 12 04 	lds	r24, 0x0412	; 0x800412 <add_cnt>
    4458:	80 93 17 04 	sts	0x0417, r24	; 0x800417 <min>
				}
				LCD_12864_Print_11_16(32, 2, 0, T_Param.hours, Frame_buffer);
    445c:	8e 01       	movw	r16, r28
    445e:	0f 5f       	subi	r16, 0xFF	; 255
    4460:	1f 4f       	sbci	r17, 0xFF	; 255
    4462:	27 e4       	ldi	r18, 0x47	; 71
    4464:	34 e0       	ldi	r19, 0x04	; 4
    4466:	40 e0       	ldi	r20, 0x00	; 0
    4468:	62 e0       	ldi	r22, 0x02	; 2
    446a:	80 e2       	ldi	r24, 0x20	; 32
    446c:	90 e0       	ldi	r25, 0x00	; 0
    446e:	0e 94 5d 0b 	call	0x16ba	; 0x16ba <LCD_12864_Print_11_16>
				LCD_12864_Print_11_16(62, 2, 1, T_Param.minutes, Frame_buffer);
    4472:	2b e4       	ldi	r18, 0x4B	; 75
    4474:	34 e0       	ldi	r19, 0x04	; 4
    4476:	41 e0       	ldi	r20, 0x01	; 1
    4478:	62 e0       	ldi	r22, 0x02	; 2
    447a:	8e e3       	ldi	r24, 0x3E	; 62
    447c:	90 e0       	ldi	r25, 0x00	; 0
    447e:	0e 94 5d 0b 	call	0x16ba	; 0x16ba <LCD_12864_Print_11_16>
				LCD_12864_Decode_UTF8(28, 5, 0, T_Param.weakday, Frame_buffer);
    4482:	23 e5       	ldi	r18, 0x53	; 83
    4484:	34 e0       	ldi	r19, 0x04	; 4
    4486:	40 e0       	ldi	r20, 0x00	; 0
    4488:	65 e0       	ldi	r22, 0x05	; 5
    448a:	8c e1       	ldi	r24, 0x1C	; 28
    448c:	90 e0       	ldi	r25, 0x00	; 0
    448e:	0e 94 9f 0b 	call	0x173e	; 0x173e <LCD_12864_Decode_UTF8>
				LCD_12864_Decode_UTF8(49, 5, 0, T_Param.mounthday, Frame_buffer);
    4492:	27 e5       	ldi	r18, 0x57	; 87
    4494:	34 e0       	ldi	r19, 0x04	; 4
    4496:	40 e0       	ldi	r20, 0x00	; 0
    4498:	65 e0       	ldi	r22, 0x05	; 5
    449a:	81 e3       	ldi	r24, 0x31	; 49
    449c:	90 e0       	ldi	r25, 0x00	; 0
    449e:	0e 94 9f 0b 	call	0x173e	; 0x173e <LCD_12864_Decode_UTF8>
				LCD_12864_Decode_UTF8(70, 5, 0, T_Param.Mounth, Frame_buffer);
    44a2:	2b e5       	ldi	r18, 0x5B	; 91
    44a4:	34 e0       	ldi	r19, 0x04	; 4
    44a6:	40 e0       	ldi	r20, 0x00	; 0
    44a8:	65 e0       	ldi	r22, 0x05	; 5
    44aa:	86 e4       	ldi	r24, 0x46	; 70
    44ac:	90 e0       	ldi	r25, 0x00	; 0
    44ae:	0e 94 9f 0b 	call	0x173e	; 0x173e <LCD_12864_Decode_UTF8>
				LCD_12864_Decode_UTF8(95, 5, 0, T_Param.Year, Frame_buffer);
    44b2:	2f e5       	ldi	r18, 0x5F	; 95
    44b4:	34 e0       	ldi	r19, 0x04	; 4
    44b6:	40 e0       	ldi	r20, 0x00	; 0
    44b8:	65 e0       	ldi	r22, 0x05	; 5
    44ba:	8f e5       	ldi	r24, 0x5F	; 95
    44bc:	90 e0       	ldi	r25, 0x00	; 0
    44be:	0e 94 9f 0b 	call	0x173e	; 0x173e <LCD_12864_Decode_UTF8>
				LCD_12864_Decode_UTF8(25, 7, 0, "Назад в МЕНЮ", Frame_buffer);
    44c2:	28 e8       	ldi	r18, 0x88	; 136
    44c4:	32 e0       	ldi	r19, 0x02	; 2
    44c6:	40 e0       	ldi	r20, 0x00	; 0
    44c8:	67 e0       	ldi	r22, 0x07	; 7
    44ca:	89 e1       	ldi	r24, 0x19	; 25
    44cc:	90 e0       	ldi	r25, 0x00	; 0
    44ce:	0e 94 9f 0b 	call	0x173e	; 0x173e <LCD_12864_Decode_UTF8>
				break;
    44d2:	4b c1       	rjmp	.+662    	; 0x476a <Print_Page_Clock_Settings+0x436>
		case 2: if(change_flag)
    44d4:	80 91 78 03 	lds	r24, 0x0378	; 0x800378 <change_flag>
    44d8:	88 23       	and	r24, r24
    44da:	21 f0       	breq	.+8      	; 0x44e4 <Print_Page_Clock_Settings+0x1b0>
				{
					day = add_cnt;
    44dc:	80 91 12 04 	lds	r24, 0x0412	; 0x800412 <add_cnt>
    44e0:	80 93 1a 04 	sts	0x041A, r24	; 0x80041a <day>
				}
				LCD_12864_Print_11_16(32, 2, 0, T_Param.hours, Frame_buffer);
    44e4:	8e 01       	movw	r16, r28
    44e6:	0f 5f       	subi	r16, 0xFF	; 255
    44e8:	1f 4f       	sbci	r17, 0xFF	; 255
    44ea:	27 e4       	ldi	r18, 0x47	; 71
    44ec:	34 e0       	ldi	r19, 0x04	; 4
    44ee:	40 e0       	ldi	r20, 0x00	; 0
    44f0:	62 e0       	ldi	r22, 0x02	; 2
    44f2:	80 e2       	ldi	r24, 0x20	; 32
    44f4:	90 e0       	ldi	r25, 0x00	; 0
    44f6:	0e 94 5d 0b 	call	0x16ba	; 0x16ba <LCD_12864_Print_11_16>
				LCD_12864_Print_11_16(62, 2, 0, T_Param.minutes, Frame_buffer);
    44fa:	2b e4       	ldi	r18, 0x4B	; 75
    44fc:	34 e0       	ldi	r19, 0x04	; 4
    44fe:	40 e0       	ldi	r20, 0x00	; 0
    4500:	62 e0       	ldi	r22, 0x02	; 2
    4502:	8e e3       	ldi	r24, 0x3E	; 62
    4504:	90 e0       	ldi	r25, 0x00	; 0
    4506:	0e 94 5d 0b 	call	0x16ba	; 0x16ba <LCD_12864_Print_11_16>
				LCD_12864_Decode_UTF8(28, 5, 1, T_Param.weakday, Frame_buffer);
    450a:	23 e5       	ldi	r18, 0x53	; 83
    450c:	34 e0       	ldi	r19, 0x04	; 4
    450e:	41 e0       	ldi	r20, 0x01	; 1
    4510:	65 e0       	ldi	r22, 0x05	; 5
    4512:	8c e1       	ldi	r24, 0x1C	; 28
    4514:	90 e0       	ldi	r25, 0x00	; 0
    4516:	0e 94 9f 0b 	call	0x173e	; 0x173e <LCD_12864_Decode_UTF8>
				LCD_12864_Decode_UTF8(49, 5, 0, T_Param.mounthday, Frame_buffer);
    451a:	27 e5       	ldi	r18, 0x57	; 87
    451c:	34 e0       	ldi	r19, 0x04	; 4
    451e:	40 e0       	ldi	r20, 0x00	; 0
    4520:	65 e0       	ldi	r22, 0x05	; 5
    4522:	81 e3       	ldi	r24, 0x31	; 49
    4524:	90 e0       	ldi	r25, 0x00	; 0
    4526:	0e 94 9f 0b 	call	0x173e	; 0x173e <LCD_12864_Decode_UTF8>
				LCD_12864_Decode_UTF8(70, 5, 0, T_Param.Mounth, Frame_buffer);
    452a:	2b e5       	ldi	r18, 0x5B	; 91
    452c:	34 e0       	ldi	r19, 0x04	; 4
    452e:	40 e0       	ldi	r20, 0x00	; 0
    4530:	65 e0       	ldi	r22, 0x05	; 5
    4532:	86 e4       	ldi	r24, 0x46	; 70
    4534:	90 e0       	ldi	r25, 0x00	; 0
    4536:	0e 94 9f 0b 	call	0x173e	; 0x173e <LCD_12864_Decode_UTF8>
				LCD_12864_Decode_UTF8(95, 5, 0, T_Param.Year, Frame_buffer);
    453a:	2f e5       	ldi	r18, 0x5F	; 95
    453c:	34 e0       	ldi	r19, 0x04	; 4
    453e:	40 e0       	ldi	r20, 0x00	; 0
    4540:	65 e0       	ldi	r22, 0x05	; 5
    4542:	8f e5       	ldi	r24, 0x5F	; 95
    4544:	90 e0       	ldi	r25, 0x00	; 0
    4546:	0e 94 9f 0b 	call	0x173e	; 0x173e <LCD_12864_Decode_UTF8>
				LCD_12864_Decode_UTF8(25, 7, 0, "Назад в МЕНЮ", Frame_buffer);
    454a:	28 e8       	ldi	r18, 0x88	; 136
    454c:	32 e0       	ldi	r19, 0x02	; 2
    454e:	40 e0       	ldi	r20, 0x00	; 0
    4550:	67 e0       	ldi	r22, 0x07	; 7
    4552:	89 e1       	ldi	r24, 0x19	; 25
    4554:	90 e0       	ldi	r25, 0x00	; 0
    4556:	0e 94 9f 0b 	call	0x173e	; 0x173e <LCD_12864_Decode_UTF8>
				break;
    455a:	07 c1       	rjmp	.+526    	; 0x476a <Print_Page_Clock_Settings+0x436>
		case 3: if(change_flag)
    455c:	80 91 78 03 	lds	r24, 0x0378	; 0x800378 <change_flag>
    4560:	88 23       	and	r24, r24
    4562:	21 f0       	breq	.+8      	; 0x456c <Print_Page_Clock_Settings+0x238>
				{
					date = add_cnt;
    4564:	80 91 12 04 	lds	r24, 0x0412	; 0x800412 <add_cnt>
    4568:	80 93 1c 04 	sts	0x041C, r24	; 0x80041c <date>
				}
				LCD_12864_Print_11_16(32, 2, 0, T_Param.hours, Frame_buffer);
    456c:	8e 01       	movw	r16, r28
    456e:	0f 5f       	subi	r16, 0xFF	; 255
    4570:	1f 4f       	sbci	r17, 0xFF	; 255
    4572:	27 e4       	ldi	r18, 0x47	; 71
    4574:	34 e0       	ldi	r19, 0x04	; 4
    4576:	40 e0       	ldi	r20, 0x00	; 0
    4578:	62 e0       	ldi	r22, 0x02	; 2
    457a:	80 e2       	ldi	r24, 0x20	; 32
    457c:	90 e0       	ldi	r25, 0x00	; 0
    457e:	0e 94 5d 0b 	call	0x16ba	; 0x16ba <LCD_12864_Print_11_16>
				LCD_12864_Print_11_16(62, 2, 0, T_Param.minutes, Frame_buffer);
    4582:	2b e4       	ldi	r18, 0x4B	; 75
    4584:	34 e0       	ldi	r19, 0x04	; 4
    4586:	40 e0       	ldi	r20, 0x00	; 0
    4588:	62 e0       	ldi	r22, 0x02	; 2
    458a:	8e e3       	ldi	r24, 0x3E	; 62
    458c:	90 e0       	ldi	r25, 0x00	; 0
    458e:	0e 94 5d 0b 	call	0x16ba	; 0x16ba <LCD_12864_Print_11_16>
				LCD_12864_Decode_UTF8(28, 5, 0, T_Param.weakday, Frame_buffer);
    4592:	23 e5       	ldi	r18, 0x53	; 83
    4594:	34 e0       	ldi	r19, 0x04	; 4
    4596:	40 e0       	ldi	r20, 0x00	; 0
    4598:	65 e0       	ldi	r22, 0x05	; 5
    459a:	8c e1       	ldi	r24, 0x1C	; 28
    459c:	90 e0       	ldi	r25, 0x00	; 0
    459e:	0e 94 9f 0b 	call	0x173e	; 0x173e <LCD_12864_Decode_UTF8>
				LCD_12864_Decode_UTF8(49, 5, 1, T_Param.mounthday, Frame_buffer);
    45a2:	27 e5       	ldi	r18, 0x57	; 87
    45a4:	34 e0       	ldi	r19, 0x04	; 4
    45a6:	41 e0       	ldi	r20, 0x01	; 1
    45a8:	65 e0       	ldi	r22, 0x05	; 5
    45aa:	81 e3       	ldi	r24, 0x31	; 49
    45ac:	90 e0       	ldi	r25, 0x00	; 0
    45ae:	0e 94 9f 0b 	call	0x173e	; 0x173e <LCD_12864_Decode_UTF8>
				LCD_12864_Decode_UTF8(70, 5, 0, T_Param.Mounth, Frame_buffer);
    45b2:	2b e5       	ldi	r18, 0x5B	; 91
    45b4:	34 e0       	ldi	r19, 0x04	; 4
    45b6:	40 e0       	ldi	r20, 0x00	; 0
    45b8:	65 e0       	ldi	r22, 0x05	; 5
    45ba:	86 e4       	ldi	r24, 0x46	; 70
    45bc:	90 e0       	ldi	r25, 0x00	; 0
    45be:	0e 94 9f 0b 	call	0x173e	; 0x173e <LCD_12864_Decode_UTF8>
				LCD_12864_Decode_UTF8(95, 5, 0, T_Param.Year, Frame_buffer);
    45c2:	2f e5       	ldi	r18, 0x5F	; 95
    45c4:	34 e0       	ldi	r19, 0x04	; 4
    45c6:	40 e0       	ldi	r20, 0x00	; 0
    45c8:	65 e0       	ldi	r22, 0x05	; 5
    45ca:	8f e5       	ldi	r24, 0x5F	; 95
    45cc:	90 e0       	ldi	r25, 0x00	; 0
    45ce:	0e 94 9f 0b 	call	0x173e	; 0x173e <LCD_12864_Decode_UTF8>
				LCD_12864_Decode_UTF8(25, 7, 0, "Назад в МЕНЮ", Frame_buffer);
    45d2:	28 e8       	ldi	r18, 0x88	; 136
    45d4:	32 e0       	ldi	r19, 0x02	; 2
    45d6:	40 e0       	ldi	r20, 0x00	; 0
    45d8:	67 e0       	ldi	r22, 0x07	; 7
    45da:	89 e1       	ldi	r24, 0x19	; 25
    45dc:	90 e0       	ldi	r25, 0x00	; 0
    45de:	0e 94 9f 0b 	call	0x173e	; 0x173e <LCD_12864_Decode_UTF8>
				break;
    45e2:	c3 c0       	rjmp	.+390    	; 0x476a <Print_Page_Clock_Settings+0x436>
		case 4: if(change_flag)
    45e4:	80 91 78 03 	lds	r24, 0x0378	; 0x800378 <change_flag>
    45e8:	88 23       	and	r24, r24
    45ea:	21 f0       	breq	.+8      	; 0x45f4 <Print_Page_Clock_Settings+0x2c0>
				{
					month = add_cnt;
    45ec:	80 91 12 04 	lds	r24, 0x0412	; 0x800412 <add_cnt>
    45f0:	80 93 14 04 	sts	0x0414, r24	; 0x800414 <month>
				}
				LCD_12864_Print_11_16(32, 2, 0, T_Param.hours, Frame_buffer);
    45f4:	8e 01       	movw	r16, r28
    45f6:	0f 5f       	subi	r16, 0xFF	; 255
    45f8:	1f 4f       	sbci	r17, 0xFF	; 255
    45fa:	27 e4       	ldi	r18, 0x47	; 71
    45fc:	34 e0       	ldi	r19, 0x04	; 4
    45fe:	40 e0       	ldi	r20, 0x00	; 0
    4600:	62 e0       	ldi	r22, 0x02	; 2
    4602:	80 e2       	ldi	r24, 0x20	; 32
    4604:	90 e0       	ldi	r25, 0x00	; 0
    4606:	0e 94 5d 0b 	call	0x16ba	; 0x16ba <LCD_12864_Print_11_16>
				LCD_12864_Print_11_16(62, 2, 0, T_Param.minutes, Frame_buffer);
    460a:	2b e4       	ldi	r18, 0x4B	; 75
    460c:	34 e0       	ldi	r19, 0x04	; 4
    460e:	40 e0       	ldi	r20, 0x00	; 0
    4610:	62 e0       	ldi	r22, 0x02	; 2
    4612:	8e e3       	ldi	r24, 0x3E	; 62
    4614:	90 e0       	ldi	r25, 0x00	; 0
    4616:	0e 94 5d 0b 	call	0x16ba	; 0x16ba <LCD_12864_Print_11_16>
				LCD_12864_Decode_UTF8(28, 5, 0, T_Param.weakday, Frame_buffer);
    461a:	23 e5       	ldi	r18, 0x53	; 83
    461c:	34 e0       	ldi	r19, 0x04	; 4
    461e:	40 e0       	ldi	r20, 0x00	; 0
    4620:	65 e0       	ldi	r22, 0x05	; 5
    4622:	8c e1       	ldi	r24, 0x1C	; 28
    4624:	90 e0       	ldi	r25, 0x00	; 0
    4626:	0e 94 9f 0b 	call	0x173e	; 0x173e <LCD_12864_Decode_UTF8>
				LCD_12864_Decode_UTF8(49, 5, 0, T_Param.mounthday, Frame_buffer);
    462a:	27 e5       	ldi	r18, 0x57	; 87
    462c:	34 e0       	ldi	r19, 0x04	; 4
    462e:	40 e0       	ldi	r20, 0x00	; 0
    4630:	65 e0       	ldi	r22, 0x05	; 5
    4632:	81 e3       	ldi	r24, 0x31	; 49
    4634:	90 e0       	ldi	r25, 0x00	; 0
    4636:	0e 94 9f 0b 	call	0x173e	; 0x173e <LCD_12864_Decode_UTF8>
				LCD_12864_Decode_UTF8(70, 5, 1, T_Param.Mounth, Frame_buffer);
    463a:	2b e5       	ldi	r18, 0x5B	; 91
    463c:	34 e0       	ldi	r19, 0x04	; 4
    463e:	41 e0       	ldi	r20, 0x01	; 1
    4640:	65 e0       	ldi	r22, 0x05	; 5
    4642:	86 e4       	ldi	r24, 0x46	; 70
    4644:	90 e0       	ldi	r25, 0x00	; 0
    4646:	0e 94 9f 0b 	call	0x173e	; 0x173e <LCD_12864_Decode_UTF8>
				LCD_12864_Decode_UTF8(95, 5, 0, T_Param.Year, Frame_buffer);
    464a:	2f e5       	ldi	r18, 0x5F	; 95
    464c:	34 e0       	ldi	r19, 0x04	; 4
    464e:	40 e0       	ldi	r20, 0x00	; 0
    4650:	65 e0       	ldi	r22, 0x05	; 5
    4652:	8f e5       	ldi	r24, 0x5F	; 95
    4654:	90 e0       	ldi	r25, 0x00	; 0
    4656:	0e 94 9f 0b 	call	0x173e	; 0x173e <LCD_12864_Decode_UTF8>
				LCD_12864_Decode_UTF8(25, 7, 0, "Назад в МЕНЮ", Frame_buffer);
    465a:	28 e8       	ldi	r18, 0x88	; 136
    465c:	32 e0       	ldi	r19, 0x02	; 2
    465e:	40 e0       	ldi	r20, 0x00	; 0
    4660:	67 e0       	ldi	r22, 0x07	; 7
    4662:	89 e1       	ldi	r24, 0x19	; 25
    4664:	90 e0       	ldi	r25, 0x00	; 0
    4666:	0e 94 9f 0b 	call	0x173e	; 0x173e <LCD_12864_Decode_UTF8>
				break;
    466a:	7f c0       	rjmp	.+254    	; 0x476a <Print_Page_Clock_Settings+0x436>
		case 5: if(change_flag)
    466c:	80 91 78 03 	lds	r24, 0x0378	; 0x800378 <change_flag>
    4670:	88 23       	and	r24, r24
    4672:	21 f0       	breq	.+8      	; 0x467c <Print_Page_Clock_Settings+0x348>
				{
					year = add_cnt;
    4674:	80 91 12 04 	lds	r24, 0x0412	; 0x800412 <add_cnt>
    4678:	80 93 18 04 	sts	0x0418, r24	; 0x800418 <year>
				}
				LCD_12864_Print_11_16(32, 2, 0, T_Param.hours, Frame_buffer);
    467c:	8e 01       	movw	r16, r28
    467e:	0f 5f       	subi	r16, 0xFF	; 255
    4680:	1f 4f       	sbci	r17, 0xFF	; 255
    4682:	27 e4       	ldi	r18, 0x47	; 71
    4684:	34 e0       	ldi	r19, 0x04	; 4
    4686:	40 e0       	ldi	r20, 0x00	; 0
    4688:	62 e0       	ldi	r22, 0x02	; 2
    468a:	80 e2       	ldi	r24, 0x20	; 32
    468c:	90 e0       	ldi	r25, 0x00	; 0
    468e:	0e 94 5d 0b 	call	0x16ba	; 0x16ba <LCD_12864_Print_11_16>
				LCD_12864_Print_11_16(62, 2, 0, T_Param.minutes, Frame_buffer);
    4692:	2b e4       	ldi	r18, 0x4B	; 75
    4694:	34 e0       	ldi	r19, 0x04	; 4
    4696:	40 e0       	ldi	r20, 0x00	; 0
    4698:	62 e0       	ldi	r22, 0x02	; 2
    469a:	8e e3       	ldi	r24, 0x3E	; 62
    469c:	90 e0       	ldi	r25, 0x00	; 0
    469e:	0e 94 5d 0b 	call	0x16ba	; 0x16ba <LCD_12864_Print_11_16>
				LCD_12864_Decode_UTF8(28, 5, 0, T_Param.weakday, Frame_buffer);
    46a2:	23 e5       	ldi	r18, 0x53	; 83
    46a4:	34 e0       	ldi	r19, 0x04	; 4
    46a6:	40 e0       	ldi	r20, 0x00	; 0
    46a8:	65 e0       	ldi	r22, 0x05	; 5
    46aa:	8c e1       	ldi	r24, 0x1C	; 28
    46ac:	90 e0       	ldi	r25, 0x00	; 0
    46ae:	0e 94 9f 0b 	call	0x173e	; 0x173e <LCD_12864_Decode_UTF8>
				LCD_12864_Decode_UTF8(49, 5, 0, T_Param.mounthday, Frame_buffer);
    46b2:	27 e5       	ldi	r18, 0x57	; 87
    46b4:	34 e0       	ldi	r19, 0x04	; 4
    46b6:	40 e0       	ldi	r20, 0x00	; 0
    46b8:	65 e0       	ldi	r22, 0x05	; 5
    46ba:	81 e3       	ldi	r24, 0x31	; 49
    46bc:	90 e0       	ldi	r25, 0x00	; 0
    46be:	0e 94 9f 0b 	call	0x173e	; 0x173e <LCD_12864_Decode_UTF8>
				LCD_12864_Decode_UTF8(70, 5, 0, T_Param.Mounth, Frame_buffer);
    46c2:	2b e5       	ldi	r18, 0x5B	; 91
    46c4:	34 e0       	ldi	r19, 0x04	; 4
    46c6:	40 e0       	ldi	r20, 0x00	; 0
    46c8:	65 e0       	ldi	r22, 0x05	; 5
    46ca:	86 e4       	ldi	r24, 0x46	; 70
    46cc:	90 e0       	ldi	r25, 0x00	; 0
    46ce:	0e 94 9f 0b 	call	0x173e	; 0x173e <LCD_12864_Decode_UTF8>
				LCD_12864_Decode_UTF8(95, 5, 1, T_Param.Year, Frame_buffer);
    46d2:	2f e5       	ldi	r18, 0x5F	; 95
    46d4:	34 e0       	ldi	r19, 0x04	; 4
    46d6:	41 e0       	ldi	r20, 0x01	; 1
    46d8:	65 e0       	ldi	r22, 0x05	; 5
    46da:	8f e5       	ldi	r24, 0x5F	; 95
    46dc:	90 e0       	ldi	r25, 0x00	; 0
    46de:	0e 94 9f 0b 	call	0x173e	; 0x173e <LCD_12864_Decode_UTF8>
				LCD_12864_Decode_UTF8(25, 7, 0, "Назад в МЕНЮ", Frame_buffer);
    46e2:	28 e8       	ldi	r18, 0x88	; 136
    46e4:	32 e0       	ldi	r19, 0x02	; 2
    46e6:	40 e0       	ldi	r20, 0x00	; 0
    46e8:	67 e0       	ldi	r22, 0x07	; 7
    46ea:	89 e1       	ldi	r24, 0x19	; 25
    46ec:	90 e0       	ldi	r25, 0x00	; 0
    46ee:	0e 94 9f 0b 	call	0x173e	; 0x173e <LCD_12864_Decode_UTF8>
				break;
    46f2:	3b c0       	rjmp	.+118    	; 0x476a <Print_Page_Clock_Settings+0x436>
		case 6:
				LCD_12864_Print_11_16(32, 2, 0, T_Param.hours, Frame_buffer);
    46f4:	8e 01       	movw	r16, r28
    46f6:	0f 5f       	subi	r16, 0xFF	; 255
    46f8:	1f 4f       	sbci	r17, 0xFF	; 255
    46fa:	27 e4       	ldi	r18, 0x47	; 71
    46fc:	34 e0       	ldi	r19, 0x04	; 4
    46fe:	40 e0       	ldi	r20, 0x00	; 0
    4700:	62 e0       	ldi	r22, 0x02	; 2
    4702:	80 e2       	ldi	r24, 0x20	; 32
    4704:	90 e0       	ldi	r25, 0x00	; 0
    4706:	0e 94 5d 0b 	call	0x16ba	; 0x16ba <LCD_12864_Print_11_16>
				LCD_12864_Print_11_16(62, 2, 0, T_Param.minutes, Frame_buffer);
    470a:	2b e4       	ldi	r18, 0x4B	; 75
    470c:	34 e0       	ldi	r19, 0x04	; 4
    470e:	40 e0       	ldi	r20, 0x00	; 0
    4710:	62 e0       	ldi	r22, 0x02	; 2
    4712:	8e e3       	ldi	r24, 0x3E	; 62
    4714:	90 e0       	ldi	r25, 0x00	; 0
    4716:	0e 94 5d 0b 	call	0x16ba	; 0x16ba <LCD_12864_Print_11_16>
				LCD_12864_Decode_UTF8(28, 5, 0, T_Param.weakday, Frame_buffer);
    471a:	23 e5       	ldi	r18, 0x53	; 83
    471c:	34 e0       	ldi	r19, 0x04	; 4
    471e:	40 e0       	ldi	r20, 0x00	; 0
    4720:	65 e0       	ldi	r22, 0x05	; 5
    4722:	8c e1       	ldi	r24, 0x1C	; 28
    4724:	90 e0       	ldi	r25, 0x00	; 0
    4726:	0e 94 9f 0b 	call	0x173e	; 0x173e <LCD_12864_Decode_UTF8>
				LCD_12864_Decode_UTF8(49, 5, 0, T_Param.mounthday, Frame_buffer);
    472a:	27 e5       	ldi	r18, 0x57	; 87
    472c:	34 e0       	ldi	r19, 0x04	; 4
    472e:	40 e0       	ldi	r20, 0x00	; 0
    4730:	65 e0       	ldi	r22, 0x05	; 5
    4732:	81 e3       	ldi	r24, 0x31	; 49
    4734:	90 e0       	ldi	r25, 0x00	; 0
    4736:	0e 94 9f 0b 	call	0x173e	; 0x173e <LCD_12864_Decode_UTF8>
				LCD_12864_Decode_UTF8(70, 5, 0, T_Param.Mounth, Frame_buffer);
    473a:	2b e5       	ldi	r18, 0x5B	; 91
    473c:	34 e0       	ldi	r19, 0x04	; 4
    473e:	40 e0       	ldi	r20, 0x00	; 0
    4740:	65 e0       	ldi	r22, 0x05	; 5
    4742:	86 e4       	ldi	r24, 0x46	; 70
    4744:	90 e0       	ldi	r25, 0x00	; 0
    4746:	0e 94 9f 0b 	call	0x173e	; 0x173e <LCD_12864_Decode_UTF8>
				LCD_12864_Decode_UTF8(95, 5, 0, T_Param.Year, Frame_buffer);
    474a:	2f e5       	ldi	r18, 0x5F	; 95
    474c:	34 e0       	ldi	r19, 0x04	; 4
    474e:	40 e0       	ldi	r20, 0x00	; 0
    4750:	65 e0       	ldi	r22, 0x05	; 5
    4752:	8f e5       	ldi	r24, 0x5F	; 95
    4754:	90 e0       	ldi	r25, 0x00	; 0
    4756:	0e 94 9f 0b 	call	0x173e	; 0x173e <LCD_12864_Decode_UTF8>
				LCD_12864_Decode_UTF8(25, 7, 1, "Назад в МЕНЮ", Frame_buffer);
    475a:	28 e8       	ldi	r18, 0x88	; 136
    475c:	32 e0       	ldi	r19, 0x02	; 2
    475e:	41 e0       	ldi	r20, 0x01	; 1
    4760:	67 e0       	ldi	r22, 0x07	; 7
    4762:	89 e1       	ldi	r24, 0x19	; 25
    4764:	90 e0       	ldi	r25, 0x00	; 0
    4766:	0e 94 9f 0b 	call	0x173e	; 0x173e <LCD_12864_Decode_UTF8>
				break;
	}
	LCD_12864_Decode_UTF8(55, 3, 0, "ч", Frame_buffer);
    476a:	8e 01       	movw	r16, r28
    476c:	0f 5f       	subi	r16, 0xFF	; 255
    476e:	1f 4f       	sbci	r17, 0xFF	; 255
    4770:	2a e0       	ldi	r18, 0x0A	; 10
    4772:	33 e0       	ldi	r19, 0x03	; 3
    4774:	40 e0       	ldi	r20, 0x00	; 0
    4776:	63 e0       	ldi	r22, 0x03	; 3
    4778:	87 e3       	ldi	r24, 0x37	; 55
    477a:	90 e0       	ldi	r25, 0x00	; 0
    477c:	0e 94 9f 0b 	call	0x173e	; 0x173e <LCD_12864_Decode_UTF8>
	LCD_12864_Decode_UTF8(85, 3, 0, "мин", Frame_buffer);
    4780:	2c e0       	ldi	r18, 0x0C	; 12
    4782:	33 e0       	ldi	r19, 0x03	; 3
    4784:	40 e0       	ldi	r20, 0x00	; 0
    4786:	63 e0       	ldi	r22, 0x03	; 3
    4788:	85 e5       	ldi	r24, 0x55	; 85
    478a:	90 e0       	ldi	r25, 0x00	; 0
    478c:	0e 94 9f 0b 	call	0x173e	; 0x173e <LCD_12864_Decode_UTF8>
	LCD_12864_Decode_UTF8(42, 5, 0, ",", Frame_buffer);
    4790:	20 e1       	ldi	r18, 0x10	; 16
    4792:	33 e0       	ldi	r19, 0x03	; 3
    4794:	40 e0       	ldi	r20, 0x00	; 0
    4796:	65 e0       	ldi	r22, 0x05	; 5
    4798:	8a e2       	ldi	r24, 0x2A	; 42
    479a:	90 e0       	ldi	r25, 0x00	; 0
    479c:	0e 94 9f 0b 	call	0x173e	; 0x173e <LCD_12864_Decode_UTF8>
	LCD_12864_Decode_UTF8(63, 5, 0, "/", Frame_buffer);
    47a0:	22 e1       	ldi	r18, 0x12	; 18
    47a2:	33 e0       	ldi	r19, 0x03	; 3
    47a4:	40 e0       	ldi	r20, 0x00	; 0
    47a6:	65 e0       	ldi	r22, 0x05	; 5
    47a8:	8f e3       	ldi	r24, 0x3F	; 63
    47aa:	90 e0       	ldi	r25, 0x00	; 0
    47ac:	0e 94 9f 0b 	call	0x173e	; 0x173e <LCD_12864_Decode_UTF8>
	LCD_12864_Decode_UTF8(89, 5, 0, "/", Frame_buffer);
    47b0:	22 e1       	ldi	r18, 0x12	; 18
    47b2:	33 e0       	ldi	r19, 0x03	; 3
    47b4:	40 e0       	ldi	r20, 0x00	; 0
    47b6:	65 e0       	ldi	r22, 0x05	; 5
    47b8:	89 e5       	ldi	r24, 0x59	; 89
    47ba:	90 e0       	ldi	r25, 0x00	; 0
    47bc:	0e 94 9f 0b 	call	0x173e	; 0x173e <LCD_12864_Decode_UTF8>

	
	LCD_12864_Draw_bitmap(Frame_buffer);
    47c0:	c8 01       	movw	r24, r16
    47c2:	0e 94 1d 08 	call	0x103a	; 0x103a <LCD_12864_Draw_bitmap>
	LCD_12864_GrapnicMode(0);
    47c6:	80 e0       	ldi	r24, 0x00	; 0
    47c8:	0e 94 fe 07 	call	0xffc	; 0xffc <LCD_12864_GrapnicMode>
}
    47cc:	dc 5f       	subi	r29, 0xFC	; 252
    47ce:	0f b6       	in	r0, 0x3f	; 63
    47d0:	f8 94       	cli
    47d2:	de bf       	out	0x3e, r29	; 62
    47d4:	0f be       	out	0x3f, r0	; 63
    47d6:	cd bf       	out	0x3d, r28	; 61
    47d8:	df 91       	pop	r29
    47da:	cf 91       	pop	r28
    47dc:	1f 91       	pop	r17
    47de:	0f 91       	pop	r16
    47e0:	08 95       	ret

000047e2 <Clock>:
	}
}
void Clock (void)
{		
	//Читаем время (для DS3231) - по сути функция RTC_read_time
	I2C_StartCondition();               // запуск i2c
    47e2:	0e 94 6e 18 	call	0x30dc	; 0x30dc <I2C_StartCondition>
	I2C_SendByte(0b11010000);			// передача адреса устройства, режим записи
    47e6:	80 ed       	ldi	r24, 0xD0	; 208
    47e8:	0e 94 7a 18 	call	0x30f4	; 0x30f4 <I2C_SendByte>
	I2C_SendByte(0x00);				    // передача адреса памяти
    47ec:	80 e0       	ldi	r24, 0x00	; 0
    47ee:	0e 94 7a 18 	call	0x30f4	; 0x30f4 <I2C_SendByte>
	I2C_StopCondition();                // остановка i2c
    47f2:	0e 94 76 18 	call	0x30ec	; 0x30ec <I2C_StopCondition>
	
	I2C_StartCondition();               // запуск i2c
    47f6:	0e 94 6e 18 	call	0x30dc	; 0x30dc <I2C_StartCondition>
	I2C_SendByte(0b11010001);			// передача адреса устройства, режим чтения
    47fa:	81 ed       	ldi	r24, 0xD1	; 209
    47fc:	0e 94 7a 18 	call	0x30f4	; 0x30f4 <I2C_SendByte>
	sec = RTC_ConvertFromDec(I2C_ReadByte());     // чтение секунд, ACK
    4800:	0e 94 84 18 	call	0x3108	; 0x3108 <I2C_ReadByte>
    4804:	0e 94 7e 17 	call	0x2efc	; 0x2efc <RTC_ConvertFromDec>
    4808:	80 93 19 04 	sts	0x0419, r24	; 0x800419 <sec>
	min = RTC_ConvertFromDec(I2C_ReadByte());     // чтение минут, ACK
    480c:	0e 94 84 18 	call	0x3108	; 0x3108 <I2C_ReadByte>
    4810:	0e 94 7e 17 	call	0x2efc	; 0x2efc <RTC_ConvertFromDec>
    4814:	80 93 17 04 	sts	0x0417, r24	; 0x800417 <min>
	hour = RTC_ConvertFromDec(I2C_ReadByte());    // чтение часов, ACK
    4818:	0e 94 84 18 	call	0x3108	; 0x3108 <I2C_ReadByte>
    481c:	0e 94 7e 17 	call	0x2efc	; 0x2efc <RTC_ConvertFromDec>
    4820:	80 93 15 04 	sts	0x0415, r24	; 0x800415 <hour>
	day = RTC_ConvertFromDec(I2C_ReadByte());     // чтение день недели, ACK
    4824:	0e 94 84 18 	call	0x3108	; 0x3108 <I2C_ReadByte>
    4828:	0e 94 7e 17 	call	0x2efc	; 0x2efc <RTC_ConvertFromDec>
    482c:	80 93 1a 04 	sts	0x041A, r24	; 0x80041a <day>
	date = RTC_ConvertFromDec(I2C_ReadByte());    // чтение число, ACK
    4830:	0e 94 84 18 	call	0x3108	; 0x3108 <I2C_ReadByte>
    4834:	0e 94 7e 17 	call	0x2efc	; 0x2efc <RTC_ConvertFromDec>
    4838:	80 93 1c 04 	sts	0x041C, r24	; 0x80041c <date>
	month = RTC_ConvertFromDec(I2C_ReadByte());   // чтение месяц, ACK
    483c:	0e 94 84 18 	call	0x3108	; 0x3108 <I2C_ReadByte>
    4840:	0e 94 7e 17 	call	0x2efc	; 0x2efc <RTC_ConvertFromDec>
    4844:	80 93 14 04 	sts	0x0414, r24	; 0x800414 <month>
	year = RTC_ConvertFromDec(I2C_ReadLastByte());// чтение год, NACK
    4848:	0e 94 8e 18 	call	0x311c	; 0x311c <I2C_ReadLastByte>
    484c:	0e 94 7e 17 	call	0x2efc	; 0x2efc <RTC_ConvertFromDec>
    4850:	80 93 18 04 	sts	0x0418, r24	; 0x800418 <year>
	I2C_StopCondition();                // остановка i2c
    4854:	0e 94 76 18 	call	0x30ec	; 0x30ec <I2C_StopCondition>
	
	Convert_to_string_Clock();
    4858:	0e 94 f7 1f 	call	0x3fee	; 0x3fee <Convert_to_string_Clock>
    485c:	08 95       	ret

0000485e <RAIN_AMOUNT>:
		break;
	}
}
//Вычисление кол-ва осадков
int RAIN_AMOUNT(char *adc_value)
{
    485e:	cf 93       	push	r28
    4860:	df 93       	push	r29
    4862:	00 d0       	rcall	.+0      	; 0x4864 <RAIN_AMOUNT+0x6>
    4864:	cd b7       	in	r28, 0x3d	; 61
    4866:	de b7       	in	r29, 0x3e	; 62
	int RAIN;
	int R;
	if (strlen(adc_value) != 0)
    4868:	fc 01       	movw	r30, r24
    486a:	20 81       	ld	r18, Z
    486c:	22 23       	and	r18, r18
    486e:	a1 f0       	breq	.+40     	; 0x4898 <RAIN_AMOUNT+0x3a>
	{
		sscanf(adc_value, "%d", &R);
    4870:	9e 01       	movw	r18, r28
    4872:	2f 5f       	subi	r18, 0xFF	; 255
    4874:	3f 4f       	sbci	r19, 0xFF	; 255
    4876:	3f 93       	push	r19
    4878:	2f 93       	push	r18
    487a:	29 e7       	ldi	r18, 0x79	; 121
    487c:	31 e0       	ldi	r19, 0x01	; 1
    487e:	3f 93       	push	r19
    4880:	2f 93       	push	r18
    4882:	9f 93       	push	r25
    4884:	8f 93       	push	r24
    4886:	0e 94 c3 2a 	call	0x5586	; 0x5586 <sscanf>
    488a:	0f 90       	pop	r0
    488c:	0f 90       	pop	r0
    488e:	0f 90       	pop	r0
    4890:	0f 90       	pop	r0
    4892:	0f 90       	pop	r0
    4894:	0f 90       	pop	r0
    4896:	02 c0       	rjmp	.+4      	; 0x489c <RAIN_AMOUNT+0x3e>
	}
	else
	{
		R = 0;
    4898:	1a 82       	std	Y+2, r1	; 0x02
    489a:	19 82       	std	Y+1, r1	; 0x01
	}
	RAIN = R*0.144;
    489c:	69 81       	ldd	r22, Y+1	; 0x01
    489e:	7a 81       	ldd	r23, Y+2	; 0x02
    48a0:	07 2e       	mov	r0, r23
    48a2:	00 0c       	add	r0, r0
    48a4:	88 0b       	sbc	r24, r24
    48a6:	99 0b       	sbc	r25, r25
    48a8:	0e 94 ec 28 	call	0x51d8	; 0x51d8 <__floatsisf>
    48ac:	2c eb       	ldi	r18, 0xBC	; 188
    48ae:	34 e7       	ldi	r19, 0x74	; 116
    48b0:	43 e1       	ldi	r20, 0x13	; 19
    48b2:	5e e3       	ldi	r21, 0x3E	; 62
    48b4:	0e 94 50 29 	call	0x52a0	; 0x52a0 <__mulsf3>
    48b8:	0e 94 b4 28 	call	0x5168	; 0x5168 <__fixsfsi>
	
	return RAIN;
}
    48bc:	cb 01       	movw	r24, r22
    48be:	0f 90       	pop	r0
    48c0:	0f 90       	pop	r0
    48c2:	df 91       	pop	r29
    48c4:	cf 91       	pop	r28
    48c6:	08 95       	ret

000048c8 <V_BAT>:
//Вычисление уровня заряда АКБ
int V_BAT (char *adc_value)
{
    48c8:	cf 93       	push	r28
    48ca:	df 93       	push	r29
    48cc:	00 d0       	rcall	.+0      	; 0x48ce <V_BAT+0x6>
    48ce:	cd b7       	in	r28, 0x3d	; 61
    48d0:	de b7       	in	r29, 0x3e	; 62
	int VBAT;
	int V;
	if (strlen(adc_value) != 0)
    48d2:	fc 01       	movw	r30, r24
    48d4:	20 81       	ld	r18, Z
    48d6:	22 23       	and	r18, r18
    48d8:	a1 f0       	breq	.+40     	; 0x4902 <V_BAT+0x3a>
	{
		sscanf(adc_value, "%d", &V);
    48da:	9e 01       	movw	r18, r28
    48dc:	2f 5f       	subi	r18, 0xFF	; 255
    48de:	3f 4f       	sbci	r19, 0xFF	; 255
    48e0:	3f 93       	push	r19
    48e2:	2f 93       	push	r18
    48e4:	29 e7       	ldi	r18, 0x79	; 121
    48e6:	31 e0       	ldi	r19, 0x01	; 1
    48e8:	3f 93       	push	r19
    48ea:	2f 93       	push	r18
    48ec:	9f 93       	push	r25
    48ee:	8f 93       	push	r24
    48f0:	0e 94 c3 2a 	call	0x5586	; 0x5586 <sscanf>
    48f4:	0f 90       	pop	r0
    48f6:	0f 90       	pop	r0
    48f8:	0f 90       	pop	r0
    48fa:	0f 90       	pop	r0
    48fc:	0f 90       	pop	r0
    48fe:	0f 90       	pop	r0
    4900:	02 c0       	rjmp	.+4      	; 0x4906 <V_BAT+0x3e>
	}
	else
	{
		V = 0;
    4902:	1a 82       	std	Y+2, r1	; 0x02
    4904:	19 82       	std	Y+1, r1	; 0x01
	}
	VBAT = V*0.68;
    4906:	69 81       	ldd	r22, Y+1	; 0x01
    4908:	7a 81       	ldd	r23, Y+2	; 0x02
    490a:	07 2e       	mov	r0, r23
    490c:	00 0c       	add	r0, r0
    490e:	88 0b       	sbc	r24, r24
    4910:	99 0b       	sbc	r25, r25
    4912:	0e 94 ec 28 	call	0x51d8	; 0x51d8 <__floatsisf>
    4916:	2b e7       	ldi	r18, 0x7B	; 123
    4918:	34 e1       	ldi	r19, 0x14	; 20
    491a:	4e e2       	ldi	r20, 0x2E	; 46
    491c:	5f e3       	ldi	r21, 0x3F	; 63
    491e:	0e 94 50 29 	call	0x52a0	; 0x52a0 <__mulsf3>
    4922:	0e 94 b4 28 	call	0x5168	; 0x5168 <__fixsfsi>
	
	return VBAT;
}
    4926:	cb 01       	movw	r24, r22
    4928:	0f 90       	pop	r0
    492a:	0f 90       	pop	r0
    492c:	df 91       	pop	r29
    492e:	cf 91       	pop	r28
    4930:	08 95       	ret

00004932 <DrawBattery>:
		LCD_12864_Draw_pixel(8, 56, Frame_buffer);
		//LCD_12864_Draw_pixel(9, 57, Frame_buffer);
	}
}
void DrawBattery(uint8_t *Frame_buffer)
{
    4932:	ef 92       	push	r14
    4934:	ff 92       	push	r15
    4936:	0f 93       	push	r16
    4938:	1f 93       	push	r17
    493a:	cf 93       	push	r28
    493c:	df 93       	push	r29
    493e:	7c 01       	movw	r14, r24
	LCD_12864_Draw_line(34, 28, 40, 28, Frame_buffer);
    4940:	8c 01       	movw	r16, r24
    4942:	2c e1       	ldi	r18, 0x1C	; 28
    4944:	48 e2       	ldi	r20, 0x28	; 40
    4946:	6c e1       	ldi	r22, 0x1C	; 28
    4948:	82 e2       	ldi	r24, 0x22	; 34
    494a:	0e 94 8e 0c 	call	0x191c	; 0x191c <LCD_12864_Draw_line>
	LCD_12864_Draw_line(34, 19, 34, 27, Frame_buffer);
    494e:	2b e1       	ldi	r18, 0x1B	; 27
    4950:	42 e2       	ldi	r20, 0x22	; 34
    4952:	63 e1       	ldi	r22, 0x13	; 19
    4954:	82 e2       	ldi	r24, 0x22	; 34
    4956:	0e 94 8e 0c 	call	0x191c	; 0x191c <LCD_12864_Draw_line>
	LCD_12864_Draw_line(40, 19, 40, 27, Frame_buffer);
    495a:	2b e1       	ldi	r18, 0x1B	; 27
    495c:	48 e2       	ldi	r20, 0x28	; 40
    495e:	63 e1       	ldi	r22, 0x13	; 19
    4960:	88 e2       	ldi	r24, 0x28	; 40
    4962:	0e 94 8e 0c 	call	0x191c	; 0x191c <LCD_12864_Draw_line>
	LCD_12864_Draw_line(34, 19, 36, 19, Frame_buffer);
    4966:	23 e1       	ldi	r18, 0x13	; 19
    4968:	44 e2       	ldi	r20, 0x24	; 36
    496a:	63 e1       	ldi	r22, 0x13	; 19
    496c:	82 e2       	ldi	r24, 0x22	; 34
    496e:	0e 94 8e 0c 	call	0x191c	; 0x191c <LCD_12864_Draw_line>
	LCD_12864_Draw_line(38, 19, 40, 19, Frame_buffer);
    4972:	23 e1       	ldi	r18, 0x13	; 19
    4974:	48 e2       	ldi	r20, 0x28	; 40
    4976:	63 e1       	ldi	r22, 0x13	; 19
    4978:	86 e2       	ldi	r24, 0x26	; 38
    497a:	0e 94 8e 0c 	call	0x191c	; 0x191c <LCD_12864_Draw_line>
	LCD_12864_Draw_line(36, 18, 36, 19, Frame_buffer);
    497e:	23 e1       	ldi	r18, 0x13	; 19
    4980:	44 e2       	ldi	r20, 0x24	; 36
    4982:	62 e1       	ldi	r22, 0x12	; 18
    4984:	84 e2       	ldi	r24, 0x24	; 36
    4986:	0e 94 8e 0c 	call	0x191c	; 0x191c <LCD_12864_Draw_line>
	LCD_12864_Draw_line(38, 18, 38, 19, Frame_buffer);
    498a:	23 e1       	ldi	r18, 0x13	; 19
    498c:	46 e2       	ldi	r20, 0x26	; 38
    498e:	62 e1       	ldi	r22, 0x12	; 18
    4990:	86 e2       	ldi	r24, 0x26	; 38
    4992:	0e 94 8e 0c 	call	0x191c	; 0x191c <LCD_12864_Draw_line>
	LCD_12864_Draw_line(36, 18, 38, 18, Frame_buffer);
    4996:	22 e1       	ldi	r18, 0x12	; 18
    4998:	46 e2       	ldi	r20, 0x26	; 38
    499a:	62 e1       	ldi	r22, 0x12	; 18
    499c:	84 e2       	ldi	r24, 0x24	; 36
    499e:	0e 94 8e 0c 	call	0x191c	; 0x191c <LCD_12864_Draw_line>
	uint8_t v_count;
	if (V_BAT(adc_value1) >= 400) {
    49a2:	8f e1       	ldi	r24, 0x1F	; 31
    49a4:	94 e0       	ldi	r25, 0x04	; 4
    49a6:	0e 94 64 24 	call	0x48c8	; 0x48c8 <V_BAT>
    49aa:	80 39       	cpi	r24, 0x90	; 144
    49ac:	91 40       	sbci	r25, 0x01	; 1
    49ae:	0c f0       	brlt	.+2      	; 0x49b2 <DrawBattery+0x80>
    49b0:	48 c0       	rjmp	.+144    	; 0x4a42 <DrawBattery+0x110>
		LCD_12864_Draw_line(36, 24, 38, 24, Frame_buffer);
		LCD_12864_Draw_line(36, 23, 38, 23, Frame_buffer);
		LCD_12864_Draw_line(36, 22, 38, 22, Frame_buffer);
		LCD_12864_Draw_line(36, 21, 38, 21, Frame_buffer);*/
	}
	else if ((V_BAT(adc_value1) >= 390) && (V_BAT(adc_value1) < 400)) {
    49b2:	8f e1       	ldi	r24, 0x1F	; 31
    49b4:	94 e0       	ldi	r25, 0x04	; 4
    49b6:	0e 94 64 24 	call	0x48c8	; 0x48c8 <V_BAT>
    49ba:	86 38       	cpi	r24, 0x86	; 134
    49bc:	91 40       	sbci	r25, 0x01	; 1
    49be:	3c f0       	brlt	.+14     	; 0x49ce <DrawBattery+0x9c>
    49c0:	8f e1       	ldi	r24, 0x1F	; 31
    49c2:	94 e0       	ldi	r25, 0x04	; 4
    49c4:	0e 94 64 24 	call	0x48c8	; 0x48c8 <V_BAT>
    49c8:	80 39       	cpi	r24, 0x90	; 144
    49ca:	91 40       	sbci	r25, 0x01	; 1
    49cc:	e4 f1       	brlt	.+120    	; 0x4a46 <DrawBattery+0x114>
		LCD_12864_Draw_line(36, 25, 38, 25, Frame_buffer);
		LCD_12864_Draw_line(36, 24, 38, 24, Frame_buffer);
		LCD_12864_Draw_line(36, 23, 38, 23, Frame_buffer);
		LCD_12864_Draw_line(36, 22, 38, 22, Frame_buffer);*/
	}
	else if ((V_BAT(adc_value1) >= 380) && (V_BAT(adc_value1) < 390)) {
    49ce:	8f e1       	ldi	r24, 0x1F	; 31
    49d0:	94 e0       	ldi	r25, 0x04	; 4
    49d2:	0e 94 64 24 	call	0x48c8	; 0x48c8 <V_BAT>
    49d6:	8c 37       	cpi	r24, 0x7C	; 124
    49d8:	91 40       	sbci	r25, 0x01	; 1
    49da:	3c f0       	brlt	.+14     	; 0x49ea <DrawBattery+0xb8>
    49dc:	8f e1       	ldi	r24, 0x1F	; 31
    49de:	94 e0       	ldi	r25, 0x04	; 4
    49e0:	0e 94 64 24 	call	0x48c8	; 0x48c8 <V_BAT>
    49e4:	86 38       	cpi	r24, 0x86	; 134
    49e6:	91 40       	sbci	r25, 0x01	; 1
    49e8:	84 f1       	brlt	.+96     	; 0x4a4a <DrawBattery+0x118>
		/*LCD_12864_Draw_line(36, 26, 38, 26, Frame_buffer);
		LCD_12864_Draw_line(36, 25, 38, 25, Frame_buffer);
		LCD_12864_Draw_line(36, 24, 38, 24, Frame_buffer);
		LCD_12864_Draw_line(36, 23, 38, 23, Frame_buffer);*/
	}
	else if ((V_BAT(adc_value1) >= 370) && (V_BAT(adc_value1) < 380)) {
    49ea:	8f e1       	ldi	r24, 0x1F	; 31
    49ec:	94 e0       	ldi	r25, 0x04	; 4
    49ee:	0e 94 64 24 	call	0x48c8	; 0x48c8 <V_BAT>
    49f2:	82 37       	cpi	r24, 0x72	; 114
    49f4:	91 40       	sbci	r25, 0x01	; 1
    49f6:	3c f0       	brlt	.+14     	; 0x4a06 <DrawBattery+0xd4>
    49f8:	8f e1       	ldi	r24, 0x1F	; 31
    49fa:	94 e0       	ldi	r25, 0x04	; 4
    49fc:	0e 94 64 24 	call	0x48c8	; 0x48c8 <V_BAT>
    4a00:	8c 37       	cpi	r24, 0x7C	; 124
    4a02:	91 40       	sbci	r25, 0x01	; 1
    4a04:	24 f1       	brlt	.+72     	; 0x4a4e <DrawBattery+0x11c>
		v_count = 3;
		//LCD_12864_Draw_line(36, 26, 38, 26, Frame_buffer);
		//LCD_12864_Draw_line(36, 25, 38, 25, Frame_buffer);
		//LCD_12864_Draw_line(36, 24, 38, 24, Frame_buffer);
	}
	else if ((V_BAT(adc_value1) >= 360) && (V_BAT(adc_value1) < 370)) {
    4a06:	8f e1       	ldi	r24, 0x1F	; 31
    4a08:	94 e0       	ldi	r25, 0x04	; 4
    4a0a:	0e 94 64 24 	call	0x48c8	; 0x48c8 <V_BAT>
    4a0e:	88 36       	cpi	r24, 0x68	; 104
    4a10:	91 40       	sbci	r25, 0x01	; 1
    4a12:	3c f0       	brlt	.+14     	; 0x4a22 <DrawBattery+0xf0>
    4a14:	8f e1       	ldi	r24, 0x1F	; 31
    4a16:	94 e0       	ldi	r25, 0x04	; 4
    4a18:	0e 94 64 24 	call	0x48c8	; 0x48c8 <V_BAT>
    4a1c:	82 37       	cpi	r24, 0x72	; 114
    4a1e:	91 40       	sbci	r25, 0x01	; 1
    4a20:	c4 f0       	brlt	.+48     	; 0x4a52 <DrawBattery+0x120>
		v_count = 2;
		//LCD_12864_Draw_line(36, 26, 38, 26, Frame_buffer);
		//LCD_12864_Draw_line(36, 25, 38, 25, Frame_buffer);
	}
	else if ((V_BAT(adc_value1) >= 350) && (V_BAT(adc_value1) < 360)) {
    4a22:	8f e1       	ldi	r24, 0x1F	; 31
    4a24:	94 e0       	ldi	r25, 0x04	; 4
    4a26:	0e 94 64 24 	call	0x48c8	; 0x48c8 <V_BAT>
    4a2a:	8e 35       	cpi	r24, 0x5E	; 94
    4a2c:	91 40       	sbci	r25, 0x01	; 1
    4a2e:	9c f0       	brlt	.+38     	; 0x4a56 <DrawBattery+0x124>
    4a30:	8f e1       	ldi	r24, 0x1F	; 31
    4a32:	94 e0       	ldi	r25, 0x04	; 4
    4a34:	0e 94 64 24 	call	0x48c8	; 0x48c8 <V_BAT>
    4a38:	88 36       	cpi	r24, 0x68	; 104
    4a3a:	91 40       	sbci	r25, 0x01	; 1
    4a3c:	74 f4       	brge	.+28     	; 0x4a5a <DrawBattery+0x128>
		v_count = 1;
    4a3e:	d1 e0       	ldi	r29, 0x01	; 1
    4a40:	0d c0       	rjmp	.+26     	; 0x4a5c <DrawBattery+0x12a>
	LCD_12864_Draw_line(36, 18, 36, 19, Frame_buffer);
	LCD_12864_Draw_line(38, 18, 38, 19, Frame_buffer);
	LCD_12864_Draw_line(36, 18, 38, 18, Frame_buffer);
	uint8_t v_count;
	if (V_BAT(adc_value1) >= 400) {
		v_count = 6;
    4a42:	d6 e0       	ldi	r29, 0x06	; 6
    4a44:	0b c0       	rjmp	.+22     	; 0x4a5c <DrawBattery+0x12a>
		LCD_12864_Draw_line(36, 23, 38, 23, Frame_buffer);
		LCD_12864_Draw_line(36, 22, 38, 22, Frame_buffer);
		LCD_12864_Draw_line(36, 21, 38, 21, Frame_buffer);*/
	}
	else if ((V_BAT(adc_value1) >= 390) && (V_BAT(adc_value1) < 400)) {
		v_count = 5;
    4a46:	d5 e0       	ldi	r29, 0x05	; 5
    4a48:	09 c0       	rjmp	.+18     	; 0x4a5c <DrawBattery+0x12a>
		LCD_12864_Draw_line(36, 24, 38, 24, Frame_buffer);
		LCD_12864_Draw_line(36, 23, 38, 23, Frame_buffer);
		LCD_12864_Draw_line(36, 22, 38, 22, Frame_buffer);*/
	}
	else if ((V_BAT(adc_value1) >= 380) && (V_BAT(adc_value1) < 390)) {
		v_count = 4;
    4a4a:	d4 e0       	ldi	r29, 0x04	; 4
    4a4c:	07 c0       	rjmp	.+14     	; 0x4a5c <DrawBattery+0x12a>
		LCD_12864_Draw_line(36, 25, 38, 25, Frame_buffer);
		LCD_12864_Draw_line(36, 24, 38, 24, Frame_buffer);
		LCD_12864_Draw_line(36, 23, 38, 23, Frame_buffer);*/
	}
	else if ((V_BAT(adc_value1) >= 370) && (V_BAT(adc_value1) < 380)) {
		v_count = 3;
    4a4e:	d3 e0       	ldi	r29, 0x03	; 3
    4a50:	05 c0       	rjmp	.+10     	; 0x4a5c <DrawBattery+0x12a>
		//LCD_12864_Draw_line(36, 26, 38, 26, Frame_buffer);
		//LCD_12864_Draw_line(36, 25, 38, 25, Frame_buffer);
		//LCD_12864_Draw_line(36, 24, 38, 24, Frame_buffer);
	}
	else if ((V_BAT(adc_value1) >= 360) && (V_BAT(adc_value1) < 370)) {
		v_count = 2;
    4a52:	d2 e0       	ldi	r29, 0x02	; 2
    4a54:	03 c0       	rjmp	.+6      	; 0x4a5c <DrawBattery+0x12a>
	}
	else if ((V_BAT(adc_value1) >= 350) && (V_BAT(adc_value1) < 360)) {
		v_count = 1;
		//LCD_12864_Draw_line(36, 26, 38, 26, Frame_buffer);
	}
	else {v_count = 0;}
    4a56:	d0 e0       	ldi	r29, 0x00	; 0
    4a58:	01 c0       	rjmp	.+2      	; 0x4a5c <DrawBattery+0x12a>
    4a5a:	d0 e0       	ldi	r29, 0x00	; 0
	for (uint8_t i = 0; i < v_count; i++)
    4a5c:	c0 e0       	ldi	r28, 0x00	; 0
    4a5e:	09 c0       	rjmp	.+18     	; 0x4a72 <DrawBattery+0x140>
	{
		LCD_12864_Draw_line(36, 26 - i, 38, 26 - i, Frame_buffer);
    4a60:	6a e1       	ldi	r22, 0x1A	; 26
    4a62:	6c 1b       	sub	r22, r28
    4a64:	87 01       	movw	r16, r14
    4a66:	26 2f       	mov	r18, r22
    4a68:	46 e2       	ldi	r20, 0x26	; 38
    4a6a:	84 e2       	ldi	r24, 0x24	; 36
    4a6c:	0e 94 8e 0c 	call	0x191c	; 0x191c <LCD_12864_Draw_line>
	else if ((V_BAT(adc_value1) >= 350) && (V_BAT(adc_value1) < 360)) {
		v_count = 1;
		//LCD_12864_Draw_line(36, 26, 38, 26, Frame_buffer);
	}
	else {v_count = 0;}
	for (uint8_t i = 0; i < v_count; i++)
    4a70:	cf 5f       	subi	r28, 0xFF	; 255
    4a72:	cd 17       	cp	r28, r29
    4a74:	a8 f3       	brcs	.-22     	; 0x4a60 <DrawBattery+0x12e>
	{
		LCD_12864_Draw_line(36, 26 - i, 38, 26 - i, Frame_buffer);
	}
}
    4a76:	df 91       	pop	r29
    4a78:	cf 91       	pop	r28
    4a7a:	1f 91       	pop	r17
    4a7c:	0f 91       	pop	r16
    4a7e:	ff 90       	pop	r15
    4a80:	ef 90       	pop	r14
    4a82:	08 95       	ret

00004a84 <wind_speed>:
	
	return VBAT;
}
//Вычисление скорости ветра
int wind_speed (char *counter)
{
    4a84:	cf 93       	push	r28
    4a86:	df 93       	push	r29
    4a88:	00 d0       	rcall	.+0      	; 0x4a8a <wind_speed+0x6>
    4a8a:	cd b7       	in	r28, 0x3d	; 61
    4a8c:	de b7       	in	r29, 0x3e	; 62
	int speed = 0;
	int n;
	if (strlen(counter) != 0)
    4a8e:	fc 01       	movw	r30, r24
    4a90:	20 81       	ld	r18, Z
    4a92:	22 23       	and	r18, r18
    4a94:	a1 f0       	breq	.+40     	; 0x4abe <wind_speed+0x3a>
	{
		sscanf(counter, "%d", &n);
    4a96:	9e 01       	movw	r18, r28
    4a98:	2f 5f       	subi	r18, 0xFF	; 255
    4a9a:	3f 4f       	sbci	r19, 0xFF	; 255
    4a9c:	3f 93       	push	r19
    4a9e:	2f 93       	push	r18
    4aa0:	29 e7       	ldi	r18, 0x79	; 121
    4aa2:	31 e0       	ldi	r19, 0x01	; 1
    4aa4:	3f 93       	push	r19
    4aa6:	2f 93       	push	r18
    4aa8:	9f 93       	push	r25
    4aaa:	8f 93       	push	r24
    4aac:	0e 94 c3 2a 	call	0x5586	; 0x5586 <sscanf>
    4ab0:	0f 90       	pop	r0
    4ab2:	0f 90       	pop	r0
    4ab4:	0f 90       	pop	r0
    4ab6:	0f 90       	pop	r0
    4ab8:	0f 90       	pop	r0
    4aba:	0f 90       	pop	r0
    4abc:	02 c0       	rjmp	.+4      	; 0x4ac2 <wind_speed+0x3e>
	}
	else
	{
		n = 0;
    4abe:	1a 82       	std	Y+2, r1	; 0x02
    4ac0:	19 82       	std	Y+1, r1	; 0x01
	}
	speed = 2*314*RADIUS*n/4; //период 2 сек+2 магнита
    4ac2:	69 81       	ldd	r22, Y+1	; 0x01
    4ac4:	7a 81       	ldd	r23, Y+2	; 0x02
    4ac6:	07 2e       	mov	r0, r23
    4ac8:	00 0c       	add	r0, r0
    4aca:	88 0b       	sbc	r24, r24
    4acc:	99 0b       	sbc	r25, r25
    4ace:	0e 94 ec 28 	call	0x51d8	; 0x51d8 <__floatsisf>
    4ad2:	2b e7       	ldi	r18, 0x7B	; 123
    4ad4:	34 e1       	ldi	r19, 0x14	; 20
    4ad6:	42 e6       	ldi	r20, 0x62	; 98
    4ad8:	52 e4       	ldi	r21, 0x42	; 66
    4ada:	0e 94 50 29 	call	0x52a0	; 0x52a0 <__mulsf3>
    4ade:	20 e0       	ldi	r18, 0x00	; 0
    4ae0:	30 e0       	ldi	r19, 0x00	; 0
    4ae2:	40 e8       	ldi	r20, 0x80	; 128
    4ae4:	5e e3       	ldi	r21, 0x3E	; 62
    4ae6:	0e 94 50 29 	call	0x52a0	; 0x52a0 <__mulsf3>
    4aea:	0e 94 b4 28 	call	0x5168	; 0x5168 <__fixsfsi>
	
	return speed;
}
    4aee:	cb 01       	movw	r24, r22
    4af0:	0f 90       	pop	r0
    4af2:	0f 90       	pop	r0
    4af4:	df 91       	pop	r29
    4af6:	cf 91       	pop	r28
    4af8:	08 95       	ret

00004afa <Print_Home_Page>:
	}	
	LCD_12864_GrapnicMode(0);
}
//Главное окно
void Print_Home_Page()
{
    4afa:	cf 92       	push	r12
    4afc:	df 92       	push	r13
    4afe:	ef 92       	push	r14
    4b00:	ff 92       	push	r15
    4b02:	0f 93       	push	r16
    4b04:	1f 93       	push	r17
    4b06:	cf 93       	push	r28
    4b08:	df 93       	push	r29
    4b0a:	cd b7       	in	r28, 0x3d	; 61
    4b0c:	de b7       	in	r29, 0x3e	; 62
    4b0e:	ca 50       	subi	r28, 0x0A	; 10
    4b10:	d4 40       	sbci	r29, 0x04	; 4
    4b12:	0f b6       	in	r0, 0x3f	; 63
    4b14:	f8 94       	cli
    4b16:	de bf       	out	0x3e, r29	; 62
    4b18:	0f be       	out	0x3f, r0	; 63
    4b1a:	cd bf       	out	0x3d, r28	; 61
	uint8_t Frame_buffer[1024] = { 0 }; //Буфер кадра
    4b1c:	9e 01       	movw	r18, r28
    4b1e:	2f 5f       	subi	r18, 0xFF	; 255
    4b20:	3f 4f       	sbci	r19, 0xFF	; 255
    4b22:	79 01       	movw	r14, r18
    4b24:	80 e0       	ldi	r24, 0x00	; 0
    4b26:	94 e0       	ldi	r25, 0x04	; 4
    4b28:	f9 01       	movw	r30, r18
    4b2a:	9c 01       	movw	r18, r24
    4b2c:	11 92       	st	Z+, r1
    4b2e:	21 50       	subi	r18, 0x01	; 1
    4b30:	30 40       	sbci	r19, 0x00	; 0
    4b32:	e1 f7       	brne	.-8      	; 0x4b2c <Print_Home_Page+0x32>
	char TIME[10] = {0};
    4b34:	6e 01       	movw	r12, r28
    4b36:	3f ef       	ldi	r19, 0xFF	; 255
    4b38:	c3 1a       	sub	r12, r19
    4b3a:	3b ef       	ldi	r19, 0xFB	; 251
    4b3c:	d3 0a       	sbc	r13, r19
    4b3e:	8a e0       	ldi	r24, 0x0A	; 10
    4b40:	f6 01       	movw	r30, r12
    4b42:	11 92       	st	Z+, r1
    4b44:	8a 95       	dec	r24
    4b46:	e9 f7       	brne	.-6      	; 0x4b42 <Print_Home_Page+0x48>
	
	LCD_12864_GrapnicMode(1);
    4b48:	81 e0       	ldi	r24, 0x01	; 1
    4b4a:	0e 94 fe 07 	call	0xffc	; 0xffc <LCD_12864_GrapnicMode>
	LCD_12864_Clean_Frame_buffer(Frame_buffer);
    4b4e:	c7 01       	movw	r24, r14
    4b50:	0e 94 8a 0c 	call	0x1914	; 0x1914 <LCD_12864_Clean_Frame_buffer>
	//-----------Вывод времени/даты-------------------------------//
	Clock();
    4b54:	0e 94 f1 23 	call	0x47e2	; 0x47e2 <Clock>
	sprintf(TIME,"%s:%s",T_Param.hours, T_Param.minutes);
    4b58:	8b e4       	ldi	r24, 0x4B	; 75
    4b5a:	94 e0       	ldi	r25, 0x04	; 4
    4b5c:	9f 93       	push	r25
    4b5e:	8f 93       	push	r24
    4b60:	87 e4       	ldi	r24, 0x47	; 71
    4b62:	94 e0       	ldi	r25, 0x04	; 4
    4b64:	9f 93       	push	r25
    4b66:	8f 93       	push	r24
    4b68:	84 e1       	ldi	r24, 0x14	; 20
    4b6a:	93 e0       	ldi	r25, 0x03	; 3
    4b6c:	9f 93       	push	r25
    4b6e:	8f 93       	push	r24
    4b70:	df 92       	push	r13
    4b72:	cf 92       	push	r12
    4b74:	0e 94 a1 2a 	call	0x5542	; 0x5542 <sprintf>
	LCD_12864_Print_11_16(2, 0, 0, TIME, Frame_buffer);
    4b78:	87 01       	movw	r16, r14
    4b7a:	96 01       	movw	r18, r12
    4b7c:	40 e0       	ldi	r20, 0x00	; 0
    4b7e:	60 e0       	ldi	r22, 0x00	; 0
    4b80:	82 e0       	ldi	r24, 0x02	; 2
    4b82:	90 e0       	ldi	r25, 0x00	; 0
    4b84:	0e 94 5d 0b 	call	0x16ba	; 0x16ba <LCD_12864_Print_11_16>
	LCD_12864_Decode_UTF8(63, 0, 0, T_Param.seconds, Frame_buffer);
    4b88:	2f e4       	ldi	r18, 0x4F	; 79
    4b8a:	34 e0       	ldi	r19, 0x04	; 4
    4b8c:	40 e0       	ldi	r20, 0x00	; 0
    4b8e:	60 e0       	ldi	r22, 0x00	; 0
    4b90:	8f e3       	ldi	r24, 0x3F	; 63
    4b92:	90 e0       	ldi	r25, 0x00	; 0
    4b94:	0e 94 9f 0b 	call	0x173e	; 0x173e <LCD_12864_Decode_UTF8>
	LCD_12864_Decode_UTF8(61, 1, 0, T_Param.weakday, Frame_buffer);
    4b98:	23 e5       	ldi	r18, 0x53	; 83
    4b9a:	34 e0       	ldi	r19, 0x04	; 4
    4b9c:	40 e0       	ldi	r20, 0x00	; 0
    4b9e:	61 e0       	ldi	r22, 0x01	; 1
    4ba0:	8d e3       	ldi	r24, 0x3D	; 61
    4ba2:	90 e0       	ldi	r25, 0x00	; 0
    4ba4:	0e 94 9f 0b 	call	0x173e	; 0x173e <LCD_12864_Decode_UTF8>
	LCD_12864_Decode_UTF8(73, 1, 0, ",", Frame_buffer);
    4ba8:	20 e1       	ldi	r18, 0x10	; 16
    4baa:	33 e0       	ldi	r19, 0x03	; 3
    4bac:	40 e0       	ldi	r20, 0x00	; 0
    4bae:	61 e0       	ldi	r22, 0x01	; 1
    4bb0:	89 e4       	ldi	r24, 0x49	; 73
    4bb2:	90 e0       	ldi	r25, 0x00	; 0
    4bb4:	0e 94 9f 0b 	call	0x173e	; 0x173e <LCD_12864_Decode_UTF8>
	LCD_12864_Decode_UTF8(76, 1, 0, T_Param.mounthday, Frame_buffer);
    4bb8:	27 e5       	ldi	r18, 0x57	; 87
    4bba:	34 e0       	ldi	r19, 0x04	; 4
    4bbc:	40 e0       	ldi	r20, 0x00	; 0
    4bbe:	61 e0       	ldi	r22, 0x01	; 1
    4bc0:	8c e4       	ldi	r24, 0x4C	; 76
    4bc2:	90 e0       	ldi	r25, 0x00	; 0
    4bc4:	0e 94 9f 0b 	call	0x173e	; 0x173e <LCD_12864_Decode_UTF8>
	LCD_12864_Decode_UTF8(88, 1, 0, "/", Frame_buffer);
    4bc8:	22 e1       	ldi	r18, 0x12	; 18
    4bca:	33 e0       	ldi	r19, 0x03	; 3
    4bcc:	40 e0       	ldi	r20, 0x00	; 0
    4bce:	61 e0       	ldi	r22, 0x01	; 1
    4bd0:	88 e5       	ldi	r24, 0x58	; 88
    4bd2:	90 e0       	ldi	r25, 0x00	; 0
    4bd4:	0e 94 9f 0b 	call	0x173e	; 0x173e <LCD_12864_Decode_UTF8>
	LCD_12864_Decode_UTF8(93, 1, 0, T_Param.Mounth, Frame_buffer);
    4bd8:	2b e5       	ldi	r18, 0x5B	; 91
    4bda:	34 e0       	ldi	r19, 0x04	; 4
    4bdc:	40 e0       	ldi	r20, 0x00	; 0
    4bde:	61 e0       	ldi	r22, 0x01	; 1
    4be0:	8d e5       	ldi	r24, 0x5D	; 93
    4be2:	90 e0       	ldi	r25, 0x00	; 0
    4be4:	0e 94 9f 0b 	call	0x173e	; 0x173e <LCD_12864_Decode_UTF8>
	LCD_12864_Decode_UTF8(111, 1, 0, "/", Frame_buffer);
    4be8:	22 e1       	ldi	r18, 0x12	; 18
    4bea:	33 e0       	ldi	r19, 0x03	; 3
    4bec:	40 e0       	ldi	r20, 0x00	; 0
    4bee:	61 e0       	ldi	r22, 0x01	; 1
    4bf0:	8f e6       	ldi	r24, 0x6F	; 111
    4bf2:	90 e0       	ldi	r25, 0x00	; 0
    4bf4:	0e 94 9f 0b 	call	0x173e	; 0x173e <LCD_12864_Decode_UTF8>
	LCD_12864_Decode_UTF8(116, 1, 0, T_Param.Year, Frame_buffer);
    4bf8:	2f e5       	ldi	r18, 0x5F	; 95
    4bfa:	34 e0       	ldi	r19, 0x04	; 4
    4bfc:	40 e0       	ldi	r20, 0x00	; 0
    4bfe:	61 e0       	ldi	r22, 0x01	; 1
    4c00:	84 e7       	ldi	r24, 0x74	; 116
    4c02:	90 e0       	ldi	r25, 0x00	; 0
    4c04:	0e 94 9f 0b 	call	0x173e	; 0x173e <LCD_12864_Decode_UTF8>
	//-----------Вывод индикатора WiFi-------------------------------//
	if (WiFi_Flag == 1)
    4c08:	80 91 00 01 	lds	r24, 0x0100	; 0x800100 <__DATA_REGION_ORIGIN__>
    4c0c:	0f b6       	in	r0, 0x3f	; 63
    4c0e:	f8 94       	cli
    4c10:	de bf       	out	0x3e, r29	; 62
    4c12:	0f be       	out	0x3f, r0	; 63
    4c14:	cd bf       	out	0x3d, r28	; 61
    4c16:	81 30       	cpi	r24, 0x01	; 1
    4c18:	49 f4       	brne	.+18     	; 0x4c2c <Print_Home_Page+0x132>
	{
		LCD_12864_Decode_UTF8(100, 0, 0, "Wi-Fi", Frame_buffer);
    4c1a:	87 01       	movw	r16, r14
    4c1c:	2a e1       	ldi	r18, 0x1A	; 26
    4c1e:	33 e0       	ldi	r19, 0x03	; 3
    4c20:	40 e0       	ldi	r20, 0x00	; 0
    4c22:	60 e0       	ldi	r22, 0x00	; 0
    4c24:	84 e6       	ldi	r24, 0x64	; 100
    4c26:	90 e0       	ldi	r25, 0x00	; 0
    4c28:	0e 94 9f 0b 	call	0x173e	; 0x173e <LCD_12864_Decode_UTF8>
	}
	//-----------Вывод уровня приема сигнала----------------------//
	LCD_12864_Draw_line(82, 6, 82, 0, Frame_buffer);
    4c2c:	8e 01       	movw	r16, r28
    4c2e:	0f 5f       	subi	r16, 0xFF	; 255
    4c30:	1f 4f       	sbci	r17, 0xFF	; 255
    4c32:	20 e0       	ldi	r18, 0x00	; 0
    4c34:	42 e5       	ldi	r20, 0x52	; 82
    4c36:	66 e0       	ldi	r22, 0x06	; 6
    4c38:	82 e5       	ldi	r24, 0x52	; 82
    4c3a:	0e 94 8e 0c 	call	0x191c	; 0x191c <LCD_12864_Draw_line>
	LCD_12864_Draw_line(79, 0, 85, 0, Frame_buffer);
    4c3e:	20 e0       	ldi	r18, 0x00	; 0
    4c40:	45 e5       	ldi	r20, 0x55	; 85
    4c42:	60 e0       	ldi	r22, 0x00	; 0
    4c44:	8f e4       	ldi	r24, 0x4F	; 79
    4c46:	0e 94 8e 0c 	call	0x191c	; 0x191c <LCD_12864_Draw_line>
	LCD_12864_Draw_pixel(80, 1, Frame_buffer);
    4c4a:	a8 01       	movw	r20, r16
    4c4c:	61 e0       	ldi	r22, 0x01	; 1
    4c4e:	80 e5       	ldi	r24, 0x50	; 80
    4c50:	0e 94 fb 06 	call	0xdf6	; 0xdf6 <LCD_12864_Draw_pixel>
	LCD_12864_Draw_pixel(81, 2, Frame_buffer);
    4c54:	a8 01       	movw	r20, r16
    4c56:	62 e0       	ldi	r22, 0x02	; 2
    4c58:	81 e5       	ldi	r24, 0x51	; 81
    4c5a:	0e 94 fb 06 	call	0xdf6	; 0xdf6 <LCD_12864_Draw_pixel>
	LCD_12864_Draw_pixel(82, 3, Frame_buffer);
    4c5e:	a8 01       	movw	r20, r16
    4c60:	63 e0       	ldi	r22, 0x03	; 3
    4c62:	82 e5       	ldi	r24, 0x52	; 82
    4c64:	0e 94 fb 06 	call	0xdf6	; 0xdf6 <LCD_12864_Draw_pixel>
	LCD_12864_Draw_pixel(84, 1, Frame_buffer);
    4c68:	a8 01       	movw	r20, r16
    4c6a:	61 e0       	ldi	r22, 0x01	; 1
    4c6c:	84 e5       	ldi	r24, 0x54	; 84
    4c6e:	0e 94 fb 06 	call	0xdf6	; 0xdf6 <LCD_12864_Draw_pixel>
	LCD_12864_Draw_pixel(83, 2, Frame_buffer);
    4c72:	a8 01       	movw	r20, r16
    4c74:	62 e0       	ldi	r22, 0x02	; 2
    4c76:	83 e5       	ldi	r24, 0x53	; 83
    4c78:	0e 94 fb 06 	call	0xdf6	; 0xdf6 <LCD_12864_Draw_pixel>
	//if (receive_counter == 6)
	//{
		for (uint8_t k = 1; k < receive_counter+1; k++)
    4c7c:	ff 24       	eor	r15, r15
    4c7e:	f3 94       	inc	r15
    4c80:	0c c0       	rjmp	.+24     	; 0x4c9a <Print_Home_Page+0x1a0>
		{
			LCD_12864_Draw_line(82 + 2*k, 6, 82 + 2*k, 7-k, Frame_buffer);
    4c82:	89 96       	adiw	r24, 0x29	; 41
    4c84:	88 0f       	add	r24, r24
    4c86:	27 e0       	ldi	r18, 0x07	; 7
    4c88:	2f 19       	sub	r18, r15
    4c8a:	8e 01       	movw	r16, r28
    4c8c:	0f 5f       	subi	r16, 0xFF	; 255
    4c8e:	1f 4f       	sbci	r17, 0xFF	; 255
    4c90:	48 2f       	mov	r20, r24
    4c92:	66 e0       	ldi	r22, 0x06	; 6
    4c94:	0e 94 8e 0c 	call	0x191c	; 0x191c <LCD_12864_Draw_line>
	LCD_12864_Draw_pixel(82, 3, Frame_buffer);
	LCD_12864_Draw_pixel(84, 1, Frame_buffer);
	LCD_12864_Draw_pixel(83, 2, Frame_buffer);
	//if (receive_counter == 6)
	//{
		for (uint8_t k = 1; k < receive_counter+1; k++)
    4c98:	f3 94       	inc	r15
    4c9a:	8f 2d       	mov	r24, r15
    4c9c:	90 e0       	ldi	r25, 0x00	; 0
    4c9e:	20 91 1e 04 	lds	r18, 0x041E	; 0x80041e <receive_counter>
    4ca2:	30 e0       	ldi	r19, 0x00	; 0
    4ca4:	2f 5f       	subi	r18, 0xFF	; 255
    4ca6:	3f 4f       	sbci	r19, 0xFF	; 255
    4ca8:	82 17       	cp	r24, r18
    4caa:	93 07       	cpc	r25, r19
    4cac:	54 f3       	brlt	.-44     	; 0x4c82 <Print_Home_Page+0x188>
			LCD_12864_Draw_line(82 + 2*k, 6, 82 + 2*k, 7-k, Frame_buffer);
		}
	//}
	//-----------Вывод уличных показателей-----------------------//
	//sprintf(Weath_Param.Rain,"%d",RAIN_AMOUNT(adc_value2));
	LCD_12864_Decode_UTF8(30, 4, 0, "°C", Frame_buffer);
    4cae:	8e 01       	movw	r16, r28
    4cb0:	0f 5f       	subi	r16, 0xFF	; 255
    4cb2:	1f 4f       	sbci	r17, 0xFF	; 255
    4cb4:	20 e2       	ldi	r18, 0x20	; 32
    4cb6:	33 e0       	ldi	r19, 0x03	; 3
    4cb8:	40 e0       	ldi	r20, 0x00	; 0
    4cba:	64 e0       	ldi	r22, 0x04	; 4
    4cbc:	8e e1       	ldi	r24, 0x1E	; 30
    4cbe:	90 e0       	ldi	r25, 0x00	; 0
    4cc0:	0e 94 9f 0b 	call	0x173e	; 0x173e <LCD_12864_Decode_UTF8>
	LCD_12864_Decode_UTF8(57, 4, 0, "%", Frame_buffer);
    4cc4:	23 e2       	ldi	r18, 0x23	; 35
    4cc6:	33 e0       	ldi	r19, 0x03	; 3
    4cc8:	40 e0       	ldi	r20, 0x00	; 0
    4cca:	64 e0       	ldi	r22, 0x04	; 4
    4ccc:	89 e3       	ldi	r24, 0x39	; 57
    4cce:	90 e0       	ldi	r25, 0x00	; 0
    4cd0:	0e 94 9f 0b 	call	0x173e	; 0x173e <LCD_12864_Decode_UTF8>
	LCD_12864_Print_5_8(46, 4, 0, hum_street, Frame_buffer);
    4cd4:	23 e7       	ldi	r18, 0x73	; 115
    4cd6:	34 e0       	ldi	r19, 0x04	; 4
    4cd8:	40 e0       	ldi	r20, 0x00	; 0
    4cda:	50 e0       	ldi	r21, 0x00	; 0
    4cdc:	64 e0       	ldi	r22, 0x04	; 4
    4cde:	70 e0       	ldi	r23, 0x00	; 0
    4ce0:	8e e2       	ldi	r24, 0x2E	; 46
    4ce2:	90 e0       	ldi	r25, 0x00	; 0
    4ce4:	0e 94 ee 0a 	call	0x15dc	; 0x15dc <LCD_12864_Print_5_8>
	if (strchr(temp_street,'-') != 0) {LCD_12864_Print_5_8(0, 4, 0, temp_street, Frame_buffer);}
    4ce8:	6d e2       	ldi	r22, 0x2D	; 45
    4cea:	70 e0       	ldi	r23, 0x00	; 0
    4cec:	8e e7       	ldi	r24, 0x7E	; 126
    4cee:	94 e0       	ldi	r25, 0x04	; 4
    4cf0:	0e 94 8d 2a 	call	0x551a	; 0x551a <strchr>
    4cf4:	89 2b       	or	r24, r25
    4cf6:	59 f0       	breq	.+22     	; 0x4d0e <Print_Home_Page+0x214>
    4cf8:	2e e7       	ldi	r18, 0x7E	; 126
    4cfa:	34 e0       	ldi	r19, 0x04	; 4
    4cfc:	40 e0       	ldi	r20, 0x00	; 0
    4cfe:	50 e0       	ldi	r21, 0x00	; 0
    4d00:	64 e0       	ldi	r22, 0x04	; 4
    4d02:	70 e0       	ldi	r23, 0x00	; 0
    4d04:	80 e0       	ldi	r24, 0x00	; 0
    4d06:	90 e0       	ldi	r25, 0x00	; 0
    4d08:	0e 94 ee 0a 	call	0x15dc	; 0x15dc <LCD_12864_Print_5_8>
    4d0c:	0d c0       	rjmp	.+26     	; 0x4d28 <Print_Home_Page+0x22e>
	else {LCD_12864_Print_5_8(7, 4, 0, temp_street, Frame_buffer);}
    4d0e:	8e 01       	movw	r16, r28
    4d10:	0f 5f       	subi	r16, 0xFF	; 255
    4d12:	1f 4f       	sbci	r17, 0xFF	; 255
    4d14:	2e e7       	ldi	r18, 0x7E	; 126
    4d16:	34 e0       	ldi	r19, 0x04	; 4
    4d18:	40 e0       	ldi	r20, 0x00	; 0
    4d1a:	50 e0       	ldi	r21, 0x00	; 0
    4d1c:	64 e0       	ldi	r22, 0x04	; 4
    4d1e:	70 e0       	ldi	r23, 0x00	; 0
    4d20:	87 e0       	ldi	r24, 0x07	; 7
    4d22:	90 e0       	ldi	r25, 0x00	; 0
    4d24:	0e 94 ee 0a 	call	0x15dc	; 0x15dc <LCD_12864_Print_5_8>
	//sprintf(Weath_Param.Vbat,"%d",V_BAT(adc_value1));
	LCD_12864_Print_4_6(44, 2, 0, Vbat, Frame_buffer);
    4d28:	8e 01       	movw	r16, r28
    4d2a:	0f 5f       	subi	r16, 0xFF	; 255
    4d2c:	1f 4f       	sbci	r17, 0xFF	; 255
    4d2e:	29 e6       	ldi	r18, 0x69	; 105
    4d30:	34 e0       	ldi	r19, 0x04	; 4
    4d32:	40 e0       	ldi	r20, 0x00	; 0
    4d34:	62 e0       	ldi	r22, 0x02	; 2
    4d36:	8c e2       	ldi	r24, 0x2C	; 44
    4d38:	90 e0       	ldi	r25, 0x00	; 0
    4d3a:	0e 94 96 0a 	call	0x152c	; 0x152c <LCD_12864_Print_4_6>
	//sprintf(Weath_Param.WIND_speed,"%d", wind_speed (HALL_counter));
	LCD_12864_Print_4_6(26, 5, 0, WIND_speed, Frame_buffer);
    4d3e:	24 e9       	ldi	r18, 0x94	; 148
    4d40:	34 e0       	ldi	r19, 0x04	; 4
    4d42:	40 e0       	ldi	r20, 0x00	; 0
    4d44:	65 e0       	ldi	r22, 0x05	; 5
    4d46:	8a e1       	ldi	r24, 0x1A	; 26
    4d48:	90 e0       	ldi	r25, 0x00	; 0
    4d4a:	0e 94 96 0a 	call	0x152c	; 0x152c <LCD_12864_Print_4_6>
	LCD_12864_Decode_UTF8(45, 5, 0, "м/с", Frame_buffer);
    4d4e:	25 e2       	ldi	r18, 0x25	; 37
    4d50:	33 e0       	ldi	r19, 0x03	; 3
    4d52:	40 e0       	ldi	r20, 0x00	; 0
    4d54:	65 e0       	ldi	r22, 0x05	; 5
    4d56:	8d e2       	ldi	r24, 0x2D	; 45
    4d58:	90 e0       	ldi	r25, 0x00	; 0
    4d5a:	0e 94 9f 0b 	call	0x173e	; 0x173e <LCD_12864_Decode_UTF8>
	LCD_12864_Decode_UTF8(30, 6, 0, "осадки", Frame_buffer);
    4d5e:	29 e2       	ldi	r18, 0x29	; 41
    4d60:	33 e0       	ldi	r19, 0x03	; 3
    4d62:	40 e0       	ldi	r20, 0x00	; 0
    4d64:	66 e0       	ldi	r22, 0x06	; 6
    4d66:	8e e1       	ldi	r24, 0x1E	; 30
    4d68:	90 e0       	ldi	r25, 0x00	; 0
    4d6a:	0e 94 9f 0b 	call	0x173e	; 0x173e <LCD_12864_Decode_UTF8>
	LCD_12864_Draw_line(27, 52, 24, 52, Frame_buffer);
    4d6e:	24 e3       	ldi	r18, 0x34	; 52
    4d70:	48 e1       	ldi	r20, 0x18	; 24
    4d72:	64 e3       	ldi	r22, 0x34	; 52
    4d74:	8b e1       	ldi	r24, 0x1B	; 27
    4d76:	0e 94 8e 0c 	call	0x191c	; 0x191c <LCD_12864_Draw_line>
	LCD_12864_Draw_line(24, 52, 24, 59, Frame_buffer);
    4d7a:	2b e3       	ldi	r18, 0x3B	; 59
    4d7c:	48 e1       	ldi	r20, 0x18	; 24
    4d7e:	64 e3       	ldi	r22, 0x34	; 52
    4d80:	88 e1       	ldi	r24, 0x18	; 24
    4d82:	0e 94 8e 0c 	call	0x191c	; 0x191c <LCD_12864_Draw_line>
	LCD_12864_Draw_line(24, 59, 28, 59, Frame_buffer);
    4d86:	2b e3       	ldi	r18, 0x3B	; 59
    4d88:	4c e1       	ldi	r20, 0x1C	; 28
    4d8a:	6b e3       	ldi	r22, 0x3B	; 59
    4d8c:	88 e1       	ldi	r24, 0x18	; 24
    4d8e:	0e 94 8e 0c 	call	0x191c	; 0x191c <LCD_12864_Draw_line>
	LCD_12864_Draw_pixel(27, 58, Frame_buffer);
    4d92:	a8 01       	movw	r20, r16
    4d94:	6a e3       	ldi	r22, 0x3A	; 58
    4d96:	8b e1       	ldi	r24, 0x1B	; 27
    4d98:	0e 94 fb 06 	call	0xdf6	; 0xdf6 <LCD_12864_Draw_pixel>
	LCD_12864_Draw_pixel(27, 60, Frame_buffer);
    4d9c:	a8 01       	movw	r20, r16
    4d9e:	6c e3       	ldi	r22, 0x3C	; 60
    4da0:	8b e1       	ldi	r24, 0x1B	; 27
    4da2:	0e 94 fb 06 	call	0xdf6	; 0xdf6 <LCD_12864_Draw_pixel>
	LCD_12864_Draw_pixel(26, 57, Frame_buffer);
    4da6:	a8 01       	movw	r20, r16
    4da8:	69 e3       	ldi	r22, 0x39	; 57
    4daa:	8a e1       	ldi	r24, 0x1A	; 26
    4dac:	0e 94 fb 06 	call	0xdf6	; 0xdf6 <LCD_12864_Draw_pixel>
	LCD_12864_Draw_pixel(26, 61, Frame_buffer);
    4db0:	a8 01       	movw	r20, r16
    4db2:	6d e3       	ldi	r22, 0x3D	; 61
    4db4:	8a e1       	ldi	r24, 0x1A	; 26
    4db6:	0e 94 fb 06 	call	0xdf6	; 0xdf6 <LCD_12864_Draw_pixel>
	if (RAIN_AMOUNT(adc_value2) >= 90)  {LCD_12864_Decode_UTF8(30, 7, 0, "отсутств.", Frame_buffer);}
    4dba:	85 e2       	ldi	r24, 0x25	; 37
    4dbc:	94 e0       	ldi	r25, 0x04	; 4
    4dbe:	0e 94 2f 24 	call	0x485e	; 0x485e <RAIN_AMOUNT>
    4dc2:	8a 35       	cpi	r24, 0x5A	; 90
    4dc4:	91 05       	cpc	r25, r1
    4dc6:	4c f0       	brlt	.+18     	; 0x4dda <Print_Home_Page+0x2e0>
    4dc8:	20 e3       	ldi	r18, 0x30	; 48
    4dca:	33 e0       	ldi	r19, 0x03	; 3
    4dcc:	40 e0       	ldi	r20, 0x00	; 0
    4dce:	67 e0       	ldi	r22, 0x07	; 7
    4dd0:	8e e1       	ldi	r24, 0x1E	; 30
    4dd2:	90 e0       	ldi	r25, 0x00	; 0
    4dd4:	0e 94 9f 0b 	call	0x173e	; 0x173e <LCD_12864_Decode_UTF8>
    4dd8:	55 c0       	rjmp	.+170    	; 0x4e84 <Print_Home_Page+0x38a>
	else if ((RAIN_AMOUNT(adc_value2) < 90) && (RAIN_AMOUNT(adc_value2) >= 50))  {LCD_12864_Decode_UTF8(30, 7, 0, "слабые", Frame_buffer);}
    4dda:	85 e2       	ldi	r24, 0x25	; 37
    4ddc:	94 e0       	ldi	r25, 0x04	; 4
    4dde:	0e 94 2f 24 	call	0x485e	; 0x485e <RAIN_AMOUNT>
    4de2:	8a 35       	cpi	r24, 0x5A	; 90
    4de4:	91 05       	cpc	r25, r1
    4de6:	94 f4       	brge	.+36     	; 0x4e0c <Print_Home_Page+0x312>
    4de8:	85 e2       	ldi	r24, 0x25	; 37
    4dea:	94 e0       	ldi	r25, 0x04	; 4
    4dec:	0e 94 2f 24 	call	0x485e	; 0x485e <RAIN_AMOUNT>
    4df0:	c2 97       	sbiw	r24, 0x32	; 50
    4df2:	64 f0       	brlt	.+24     	; 0x4e0c <Print_Home_Page+0x312>
    4df4:	8e 01       	movw	r16, r28
    4df6:	0f 5f       	subi	r16, 0xFF	; 255
    4df8:	1f 4f       	sbci	r17, 0xFF	; 255
    4dfa:	2a e3       	ldi	r18, 0x3A	; 58
    4dfc:	33 e0       	ldi	r19, 0x03	; 3
    4dfe:	40 e0       	ldi	r20, 0x00	; 0
    4e00:	67 e0       	ldi	r22, 0x07	; 7
    4e02:	8e e1       	ldi	r24, 0x1E	; 30
    4e04:	90 e0       	ldi	r25, 0x00	; 0
    4e06:	0e 94 9f 0b 	call	0x173e	; 0x173e <LCD_12864_Decode_UTF8>
    4e0a:	3c c0       	rjmp	.+120    	; 0x4e84 <Print_Home_Page+0x38a>
    else if ((RAIN_AMOUNT(adc_value2) < 50) && (RAIN_AMOUNT(adc_value2) >= 25)) { LCD_12864_Decode_UTF8(30, 7, 0, "умеренные", Frame_buffer);}
    4e0c:	85 e2       	ldi	r24, 0x25	; 37
    4e0e:	94 e0       	ldi	r25, 0x04	; 4
    4e10:	0e 94 2f 24 	call	0x485e	; 0x485e <RAIN_AMOUNT>
    4e14:	c2 97       	sbiw	r24, 0x32	; 50
    4e16:	94 f4       	brge	.+36     	; 0x4e3c <Print_Home_Page+0x342>
    4e18:	85 e2       	ldi	r24, 0x25	; 37
    4e1a:	94 e0       	ldi	r25, 0x04	; 4
    4e1c:	0e 94 2f 24 	call	0x485e	; 0x485e <RAIN_AMOUNT>
    4e20:	49 97       	sbiw	r24, 0x19	; 25
    4e22:	64 f0       	brlt	.+24     	; 0x4e3c <Print_Home_Page+0x342>
    4e24:	8e 01       	movw	r16, r28
    4e26:	0f 5f       	subi	r16, 0xFF	; 255
    4e28:	1f 4f       	sbci	r17, 0xFF	; 255
    4e2a:	21 e4       	ldi	r18, 0x41	; 65
    4e2c:	33 e0       	ldi	r19, 0x03	; 3
    4e2e:	40 e0       	ldi	r20, 0x00	; 0
    4e30:	67 e0       	ldi	r22, 0x07	; 7
    4e32:	8e e1       	ldi	r24, 0x1E	; 30
    4e34:	90 e0       	ldi	r25, 0x00	; 0
    4e36:	0e 94 9f 0b 	call	0x173e	; 0x173e <LCD_12864_Decode_UTF8>
    4e3a:	24 c0       	rjmp	.+72     	; 0x4e84 <Print_Home_Page+0x38a>
	else if ((RAIN_AMOUNT(adc_value2) < 25) && (RAIN_AMOUNT(adc_value2) > 0))  {LCD_12864_Decode_UTF8(30, 7, 0, "сильные", Frame_buffer);}
    4e3c:	85 e2       	ldi	r24, 0x25	; 37
    4e3e:	94 e0       	ldi	r25, 0x04	; 4
    4e40:	0e 94 2f 24 	call	0x485e	; 0x485e <RAIN_AMOUNT>
    4e44:	49 97       	sbiw	r24, 0x19	; 25
    4e46:	9c f4       	brge	.+38     	; 0x4e6e <Print_Home_Page+0x374>
    4e48:	85 e2       	ldi	r24, 0x25	; 37
    4e4a:	94 e0       	ldi	r25, 0x04	; 4
    4e4c:	0e 94 2f 24 	call	0x485e	; 0x485e <RAIN_AMOUNT>
    4e50:	18 16       	cp	r1, r24
    4e52:	19 06       	cpc	r1, r25
    4e54:	64 f4       	brge	.+24     	; 0x4e6e <Print_Home_Page+0x374>
    4e56:	8e 01       	movw	r16, r28
    4e58:	0f 5f       	subi	r16, 0xFF	; 255
    4e5a:	1f 4f       	sbci	r17, 0xFF	; 255
    4e5c:	2b e4       	ldi	r18, 0x4B	; 75
    4e5e:	33 e0       	ldi	r19, 0x03	; 3
    4e60:	40 e0       	ldi	r20, 0x00	; 0
    4e62:	67 e0       	ldi	r22, 0x07	; 7
    4e64:	8e e1       	ldi	r24, 0x1E	; 30
    4e66:	90 e0       	ldi	r25, 0x00	; 0
    4e68:	0e 94 9f 0b 	call	0x173e	; 0x173e <LCD_12864_Decode_UTF8>
    4e6c:	0b c0       	rjmp	.+22     	; 0x4e84 <Print_Home_Page+0x38a>
	else {LCD_12864_Decode_UTF8(30, 7, 0, "нет данных", Frame_buffer);}
    4e6e:	8e 01       	movw	r16, r28
    4e70:	0f 5f       	subi	r16, 0xFF	; 255
    4e72:	1f 4f       	sbci	r17, 0xFF	; 255
    4e74:	23 e5       	ldi	r18, 0x53	; 83
    4e76:	33 e0       	ldi	r19, 0x03	; 3
    4e78:	40 e0       	ldi	r20, 0x00	; 0
    4e7a:	67 e0       	ldi	r22, 0x07	; 7
    4e7c:	8e e1       	ldi	r24, 0x1E	; 30
    4e7e:	90 e0       	ldi	r25, 0x00	; 0
    4e80:	0e 94 9f 0b 	call	0x173e	; 0x173e <LCD_12864_Decode_UTF8>
	}
	sprintf(Weath_Param.temp_home,"%d",home_temp);
	sprintf(Weath_Param.hum_home,"%d",home_hum);
	pressure_home = BMP180_calculation()*0.0075;
	sprintf(Weath_Param.Press_home,"%d",pressure_home);*/
	LCD_12864_Decode_UTF8(95, 4, 0, "°C", Frame_buffer);
    4e84:	8e 01       	movw	r16, r28
    4e86:	0f 5f       	subi	r16, 0xFF	; 255
    4e88:	1f 4f       	sbci	r17, 0xFF	; 255
    4e8a:	20 e2       	ldi	r18, 0x20	; 32
    4e8c:	33 e0       	ldi	r19, 0x03	; 3
    4e8e:	40 e0       	ldi	r20, 0x00	; 0
    4e90:	64 e0       	ldi	r22, 0x04	; 4
    4e92:	8f e5       	ldi	r24, 0x5F	; 95
    4e94:	90 e0       	ldi	r25, 0x00	; 0
    4e96:	0e 94 9f 0b 	call	0x173e	; 0x173e <LCD_12864_Decode_UTF8>
	if (strchr(temp_home,'-') != 0) {LCD_12864_Print_5_8(65, 4, 0, temp_home, Frame_buffer);}
    4e9a:	6d e2       	ldi	r22, 0x2D	; 45
    4e9c:	70 e0       	ldi	r23, 0x00	; 0
    4e9e:	8b e2       	ldi	r24, 0x2B	; 43
    4ea0:	94 e0       	ldi	r25, 0x04	; 4
    4ea2:	0e 94 8d 2a 	call	0x551a	; 0x551a <strchr>
    4ea6:	89 2b       	or	r24, r25
    4ea8:	59 f0       	breq	.+22     	; 0x4ec0 <Print_Home_Page+0x3c6>
    4eaa:	2b e2       	ldi	r18, 0x2B	; 43
    4eac:	34 e0       	ldi	r19, 0x04	; 4
    4eae:	40 e0       	ldi	r20, 0x00	; 0
    4eb0:	50 e0       	ldi	r21, 0x00	; 0
    4eb2:	64 e0       	ldi	r22, 0x04	; 4
    4eb4:	70 e0       	ldi	r23, 0x00	; 0
    4eb6:	81 e4       	ldi	r24, 0x41	; 65
    4eb8:	90 e0       	ldi	r25, 0x00	; 0
    4eba:	0e 94 ee 0a 	call	0x15dc	; 0x15dc <LCD_12864_Print_5_8>
    4ebe:	0d c0       	rjmp	.+26     	; 0x4eda <Print_Home_Page+0x3e0>
	else {LCD_12864_Print_5_8(72, 4, 0, temp_home, Frame_buffer);}
    4ec0:	8e 01       	movw	r16, r28
    4ec2:	0f 5f       	subi	r16, 0xFF	; 255
    4ec4:	1f 4f       	sbci	r17, 0xFF	; 255
    4ec6:	2b e2       	ldi	r18, 0x2B	; 43
    4ec8:	34 e0       	ldi	r19, 0x04	; 4
    4eca:	40 e0       	ldi	r20, 0x00	; 0
    4ecc:	50 e0       	ldi	r21, 0x00	; 0
    4ece:	64 e0       	ldi	r22, 0x04	; 4
    4ed0:	70 e0       	ldi	r23, 0x00	; 0
    4ed2:	88 e4       	ldi	r24, 0x48	; 72
    4ed4:	90 e0       	ldi	r25, 0x00	; 0
    4ed6:	0e 94 ee 0a 	call	0x15dc	; 0x15dc <LCD_12864_Print_5_8>
	LCD_12864_Decode_UTF8(122, 4, 0, "%", Frame_buffer);
    4eda:	8e 01       	movw	r16, r28
    4edc:	0f 5f       	subi	r16, 0xFF	; 255
    4ede:	1f 4f       	sbci	r17, 0xFF	; 255
    4ee0:	23 e2       	ldi	r18, 0x23	; 35
    4ee2:	33 e0       	ldi	r19, 0x03	; 3
    4ee4:	40 e0       	ldi	r20, 0x00	; 0
    4ee6:	64 e0       	ldi	r22, 0x04	; 4
    4ee8:	8a e7       	ldi	r24, 0x7A	; 122
    4eea:	90 e0       	ldi	r25, 0x00	; 0
    4eec:	0e 94 9f 0b 	call	0x173e	; 0x173e <LCD_12864_Decode_UTF8>
	LCD_12864_Print_5_8(111, 4, 0, hum_home, Frame_buffer);
    4ef0:	2e e6       	ldi	r18, 0x6E	; 110
    4ef2:	34 e0       	ldi	r19, 0x04	; 4
    4ef4:	40 e0       	ldi	r20, 0x00	; 0
    4ef6:	50 e0       	ldi	r21, 0x00	; 0
    4ef8:	64 e0       	ldi	r22, 0x04	; 4
    4efa:	70 e0       	ldi	r23, 0x00	; 0
    4efc:	8f e6       	ldi	r24, 0x6F	; 111
    4efe:	90 e0       	ldi	r25, 0x00	; 0
    4f00:	0e 94 ee 0a 	call	0x15dc	; 0x15dc <LCD_12864_Print_5_8>
	LCD_12864_Print_4_6(86, 2, 0, Press_home, Frame_buffer);
    4f04:	28 e7       	ldi	r18, 0x78	; 120
    4f06:	34 e0       	ldi	r19, 0x04	; 4
    4f08:	40 e0       	ldi	r20, 0x00	; 0
    4f0a:	62 e0       	ldi	r22, 0x02	; 2
    4f0c:	86 e5       	ldi	r24, 0x56	; 86
    4f0e:	90 e0       	ldi	r25, 0x00	; 0
    4f10:	0e 94 96 0a 	call	0x152c	; 0x152c <LCD_12864_Print_4_6>
	LCD_12864_Decode_UTF8(101, 2, 0, "мм", Frame_buffer);
    4f14:	2e e5       	ldi	r18, 0x5E	; 94
    4f16:	33 e0       	ldi	r19, 0x03	; 3
    4f18:	40 e0       	ldi	r20, 0x00	; 0
    4f1a:	62 e0       	ldi	r22, 0x02	; 2
    4f1c:	85 e6       	ldi	r24, 0x65	; 101
    4f1e:	90 e0       	ldi	r25, 0x00	; 0
    4f20:	0e 94 9f 0b 	call	0x173e	; 0x173e <LCD_12864_Decode_UTF8>
	LCD_12864_Decode_UTF8(114, 2, 0, "Hg", Frame_buffer);
    4f24:	21 e6       	ldi	r18, 0x61	; 97
    4f26:	33 e0       	ldi	r19, 0x03	; 3
    4f28:	40 e0       	ldi	r20, 0x00	; 0
    4f2a:	62 e0       	ldi	r22, 0x02	; 2
    4f2c:	82 e7       	ldi	r24, 0x72	; 114
    4f2e:	90 e0       	ldi	r25, 0x00	; 0
    4f30:	0e 94 9f 0b 	call	0x173e	; 0x173e <LCD_12864_Decode_UTF8>
	
	//-----------Вывод разделительных линий-----------------------//
	LCD_12864_Decode_UTF8(2, 2, 0, "улица", Frame_buffer);
    4f34:	24 e6       	ldi	r18, 0x64	; 100
    4f36:	33 e0       	ldi	r19, 0x03	; 3
    4f38:	40 e0       	ldi	r20, 0x00	; 0
    4f3a:	62 e0       	ldi	r22, 0x02	; 2
    4f3c:	82 e0       	ldi	r24, 0x02	; 2
    4f3e:	90 e0       	ldi	r25, 0x00	; 0
    4f40:	0e 94 9f 0b 	call	0x173e	; 0x173e <LCD_12864_Decode_UTF8>
	LCD_12864_Decode_UTF8(65, 2, 0, "дом", Frame_buffer);
    4f44:	2a e6       	ldi	r18, 0x6A	; 106
    4f46:	33 e0       	ldi	r19, 0x03	; 3
    4f48:	40 e0       	ldi	r20, 0x00	; 0
    4f4a:	62 e0       	ldi	r22, 0x02	; 2
    4f4c:	81 e4       	ldi	r24, 0x41	; 65
    4f4e:	90 e0       	ldi	r25, 0x00	; 0
    4f50:	0e 94 9f 0b 	call	0x173e	; 0x173e <LCD_12864_Decode_UTF8>
	LCD_12864_Draw_line(0, 16, 128, 16, Frame_buffer);
    4f54:	20 e1       	ldi	r18, 0x10	; 16
    4f56:	40 e8       	ldi	r20, 0x80	; 128
    4f58:	60 e1       	ldi	r22, 0x10	; 16
    4f5a:	80 e0       	ldi	r24, 0x00	; 0
    4f5c:	0e 94 8e 0c 	call	0x191c	; 0x191c <LCD_12864_Draw_line>
	LCD_12864_Draw_line(0, 24, 32, 24, Frame_buffer);
    4f60:	28 e1       	ldi	r18, 0x18	; 24
    4f62:	40 e2       	ldi	r20, 0x20	; 32
    4f64:	68 e1       	ldi	r22, 0x18	; 24
    4f66:	80 e0       	ldi	r24, 0x00	; 0
    4f68:	0e 94 8e 0c 	call	0x191c	; 0x191c <LCD_12864_Draw_line>
	LCD_12864_Draw_line(32, 17, 32, 24, Frame_buffer);
    4f6c:	28 e1       	ldi	r18, 0x18	; 24
    4f6e:	40 e2       	ldi	r20, 0x20	; 32
    4f70:	61 e1       	ldi	r22, 0x11	; 17
    4f72:	80 e2       	ldi	r24, 0x20	; 32
    4f74:	0e 94 8e 0c 	call	0x191c	; 0x191c <LCD_12864_Draw_line>
	LCD_12864_Draw_line(0, 17, 0, 24, Frame_buffer);
    4f78:	28 e1       	ldi	r18, 0x18	; 24
    4f7a:	40 e0       	ldi	r20, 0x00	; 0
    4f7c:	61 e1       	ldi	r22, 0x11	; 17
    4f7e:	80 e0       	ldi	r24, 0x00	; 0
    4f80:	0e 94 8e 0c 	call	0x191c	; 0x191c <LCD_12864_Draw_line>
	LCD_12864_Draw_line(64, 24, 83, 24, Frame_buffer);
    4f84:	28 e1       	ldi	r18, 0x18	; 24
    4f86:	43 e5       	ldi	r20, 0x53	; 83
    4f88:	68 e1       	ldi	r22, 0x18	; 24
    4f8a:	80 e4       	ldi	r24, 0x40	; 64
    4f8c:	0e 94 8e 0c 	call	0x191c	; 0x191c <LCD_12864_Draw_line>
	LCD_12864_Draw_line(83, 17, 83, 24, Frame_buffer);
    4f90:	28 e1       	ldi	r18, 0x18	; 24
    4f92:	43 e5       	ldi	r20, 0x53	; 83
    4f94:	61 e1       	ldi	r22, 0x11	; 17
    4f96:	83 e5       	ldi	r24, 0x53	; 83
    4f98:	0e 94 8e 0c 	call	0x191c	; 0x191c <LCD_12864_Draw_line>
	LCD_12864_Draw_line(63, 17, 63, 41, Frame_buffer);
    4f9c:	29 e2       	ldi	r18, 0x29	; 41
    4f9e:	4f e3       	ldi	r20, 0x3F	; 63
    4fa0:	61 e1       	ldi	r22, 0x11	; 17
    4fa2:	8f e3       	ldi	r24, 0x3F	; 63
    4fa4:	0e 94 8e 0c 	call	0x191c	; 0x191c <LCD_12864_Draw_line>
	LCD_12864_Draw_line(63, 41, 128, 41, Frame_buffer);
    4fa8:	29 e2       	ldi	r18, 0x29	; 41
    4faa:	40 e8       	ldi	r20, 0x80	; 128
    4fac:	69 e2       	ldi	r22, 0x29	; 41
    4fae:	8f e3       	ldi	r24, 0x3F	; 63
    4fb0:	0e 94 8e 0c 	call	0x191c	; 0x191c <LCD_12864_Draw_line>
	//-----------Вывод индикатора АКБ-----------------------//
	DrawBattery(Frame_buffer);
    4fb4:	c8 01       	movw	r24, r16
    4fb6:	0e 94 99 24 	call	0x4932	; 0x4932 <DrawBattery>
	//-----------Вывод индикатора флюгера-----------------------//
	DrawWeatherVane(Frame_buffer);
    4fba:	c8 01       	movw	r24, r16
    4fbc:	0e 94 6e 1d 	call	0x3adc	; 0x3adc <DrawWeatherVane>
	//-----------Вывод прогноза погоды-----------------------//
	if ((wind_speed (HALL_counter) == 0) && (RAIN_AMOUNT(adc_value2) >= 90))
    4fc0:	8f ed       	ldi	r24, 0xDF	; 223
    4fc2:	93 e0       	ldi	r25, 0x03	; 3
    4fc4:	0e 94 42 25 	call	0x4a84	; 0x4a84 <wind_speed>
    4fc8:	89 2b       	or	r24, r25
    4fca:	59 f4       	brne	.+22     	; 0x4fe2 <Print_Home_Page+0x4e8>
    4fcc:	85 e2       	ldi	r24, 0x25	; 37
    4fce:	94 e0       	ldi	r25, 0x04	; 4
    4fd0:	0e 94 2f 24 	call	0x485e	; 0x485e <RAIN_AMOUNT>
    4fd4:	8a 35       	cpi	r24, 0x5A	; 90
    4fd6:	91 05       	cpc	r25, r1
    4fd8:	24 f0       	brlt	.+8      	; 0x4fe2 <Print_Home_Page+0x4e8>
	{
		DrawSun(Frame_buffer);
    4fda:	c8 01       	movw	r24, r16
    4fdc:	0e 94 46 1b 	call	0x368c	; 0x368c <DrawSun>
    4fe0:	36 c0       	rjmp	.+108    	; 0x504e <Print_Home_Page+0x554>
	}
	else if ((wind_speed (HALL_counter) > 1000))
    4fe2:	8f ed       	ldi	r24, 0xDF	; 223
    4fe4:	93 e0       	ldi	r25, 0x03	; 3
    4fe6:	0e 94 42 25 	call	0x4a84	; 0x4a84 <wind_speed>
    4fea:	89 3e       	cpi	r24, 0xE9	; 233
    4fec:	93 40       	sbci	r25, 0x03	; 3
    4fee:	2c f0       	brlt	.+10     	; 0x4ffa <Print_Home_Page+0x500>
	{
		DrawClouds(Frame_buffer);
    4ff0:	ce 01       	movw	r24, r28
    4ff2:	01 96       	adiw	r24, 0x01	; 1
    4ff4:	0e 94 75 1c 	call	0x38ea	; 0x38ea <DrawClouds>
    4ff8:	2a c0       	rjmp	.+84     	; 0x504e <Print_Home_Page+0x554>
	}
	else if ((wind_speed (HALL_counter) > 0) && (RAIN_AMOUNT(adc_value2) >= 90))
    4ffa:	8f ed       	ldi	r24, 0xDF	; 223
    4ffc:	93 e0       	ldi	r25, 0x03	; 3
    4ffe:	0e 94 42 25 	call	0x4a84	; 0x4a84 <wind_speed>
    5002:	18 16       	cp	r1, r24
    5004:	19 06       	cpc	r1, r25
    5006:	64 f4       	brge	.+24     	; 0x5020 <Print_Home_Page+0x526>
    5008:	85 e2       	ldi	r24, 0x25	; 37
    500a:	94 e0       	ldi	r25, 0x04	; 4
    500c:	0e 94 2f 24 	call	0x485e	; 0x485e <RAIN_AMOUNT>
    5010:	8a 35       	cpi	r24, 0x5A	; 90
    5012:	91 05       	cpc	r25, r1
    5014:	2c f0       	brlt	.+10     	; 0x5020 <Print_Home_Page+0x526>
	{
		DrawSunWithClouds(Frame_buffer);
    5016:	ce 01       	movw	r24, r28
    5018:	01 96       	adiw	r24, 0x01	; 1
    501a:	0e 94 8a 1b 	call	0x3714	; 0x3714 <DrawSunWithClouds>
    501e:	17 c0       	rjmp	.+46     	; 0x504e <Print_Home_Page+0x554>
	}
	else if ((RAIN_AMOUNT(adc_value2) < 85) && (RAIN_AMOUNT(adc_value2) > 0))
    5020:	85 e2       	ldi	r24, 0x25	; 37
    5022:	94 e0       	ldi	r25, 0x04	; 4
    5024:	0e 94 2f 24 	call	0x485e	; 0x485e <RAIN_AMOUNT>
    5028:	85 35       	cpi	r24, 0x55	; 85
    502a:	91 05       	cpc	r25, r1
    502c:	64 f4       	brge	.+24     	; 0x5046 <Print_Home_Page+0x54c>
    502e:	85 e2       	ldi	r24, 0x25	; 37
    5030:	94 e0       	ldi	r25, 0x04	; 4
    5032:	0e 94 2f 24 	call	0x485e	; 0x485e <RAIN_AMOUNT>
    5036:	18 16       	cp	r1, r24
    5038:	19 06       	cpc	r1, r25
    503a:	2c f4       	brge	.+10     	; 0x5046 <Print_Home_Page+0x54c>
	{
		DrawCloudsWithRain(Frame_buffer);
    503c:	ce 01       	movw	r24, r28
    503e:	01 96       	adiw	r24, 0x01	; 1
    5040:	0e 94 25 1d 	call	0x3a4a	; 0x3a4a <DrawCloudsWithRain>
    5044:	04 c0       	rjmp	.+8      	; 0x504e <Print_Home_Page+0x554>
	}
	else
	{
		DrawSun(Frame_buffer);
    5046:	ce 01       	movw	r24, r28
    5048:	01 96       	adiw	r24, 0x01	; 1
    504a:	0e 94 46 1b 	call	0x368c	; 0x368c <DrawSun>
	}
	LCD_12864_Draw_bitmap(Frame_buffer);
    504e:	ce 01       	movw	r24, r28
    5050:	01 96       	adiw	r24, 0x01	; 1
    5052:	0e 94 1d 08 	call	0x103a	; 0x103a <LCD_12864_Draw_bitmap>
	LCD_12864_GrapnicMode(0);
    5056:	80 e0       	ldi	r24, 0x00	; 0
    5058:	0e 94 fe 07 	call	0xffc	; 0xffc <LCD_12864_GrapnicMode>
}
    505c:	c6 5f       	subi	r28, 0xF6	; 246
    505e:	db 4f       	sbci	r29, 0xFB	; 251
    5060:	0f b6       	in	r0, 0x3f	; 63
    5062:	f8 94       	cli
    5064:	de bf       	out	0x3e, r29	; 62
    5066:	0f be       	out	0x3f, r0	; 63
    5068:	cd bf       	out	0x3d, r28	; 61
    506a:	df 91       	pop	r29
    506c:	cf 91       	pop	r28
    506e:	1f 91       	pop	r17
    5070:	0f 91       	pop	r16
    5072:	ff 90       	pop	r15
    5074:	ef 90       	pop	r14
    5076:	df 90       	pop	r13
    5078:	cf 90       	pop	r12
    507a:	08 95       	ret

0000507c <sprintf_HOME_Weath_Param>:
	speed = 2*314*RADIUS*n/4; //период 2 сек+2 магнита
	
	return speed;
}
void sprintf_HOME_Weath_Param(void)
{
    507c:	0f 93       	push	r16
    507e:	1f 93       	push	r17
    5080:	cf 93       	push	r28
    5082:	df 93       	push	r29
	int home_temp, home_hum;
	/*sprintf(Weath_Param.Rain,"%d",RAIN_AMOUNT(adc_value2));
	sprintf(Weath_Param.Vbat,"%d",V_BAT(adc_value1));
	sprintf(Weath_Param.WIND_speed,"%d", wind_speed (HALL_counter));*/
	if (dht22_GetData(data))
    5084:	8b ee       	ldi	r24, 0xEB	; 235
    5086:	93 e0       	ldi	r25, 0x03	; 3
    5088:	0e 94 9a 06 	call	0xd34	; 0xd34 <dht22_GetData>
    508c:	88 23       	and	r24, r24
    508e:	d9 f0       	breq	.+54     	; 0x50c6 <sprintf_HOME_Weath_Param+0x4a>
	{
		//data[1]-младший бит температуры
		//data[2]-старший бит температуры
		//data[3]-младший бит влажности
		//data[4]-старший бит влажности
		home_temp = ((data[2]<<8)|data[1]);
    5090:	eb ee       	ldi	r30, 0xEB	; 235
    5092:	f3 e0       	ldi	r31, 0x03	; 3
    5094:	c2 81       	ldd	r28, Z+2	; 0x02
    5096:	d0 e0       	ldi	r29, 0x00	; 0
    5098:	dc 2f       	mov	r29, r28
    509a:	cc 27       	eor	r28, r28
    509c:	81 81       	ldd	r24, Z+1	; 0x01
    509e:	c8 2b       	or	r28, r24
		if ((home_temp & 0x8000) == 0x8000) home_temp = ~(home_temp & 0x7FFF);
    50a0:	dd 23       	and	r29, r29
    50a2:	1c f4       	brge	.+6      	; 0x50aa <sprintf_HOME_Weath_Param+0x2e>
    50a4:	df 77       	andi	r29, 0x7F	; 127
    50a6:	c0 95       	com	r28
    50a8:	d0 95       	com	r29
		home_hum = ((data[4]<<8)|data[3]) / 10;
    50aa:	eb ee       	ldi	r30, 0xEB	; 235
    50ac:	f3 e0       	ldi	r31, 0x03	; 3
    50ae:	84 81       	ldd	r24, Z+4	; 0x04
    50b0:	90 e0       	ldi	r25, 0x00	; 0
    50b2:	98 2f       	mov	r25, r24
    50b4:	88 27       	eor	r24, r24
    50b6:	23 81       	ldd	r18, Z+3	; 0x03
    50b8:	82 2b       	or	r24, r18
    50ba:	6a e0       	ldi	r22, 0x0A	; 10
    50bc:	70 e0       	ldi	r23, 0x00	; 0
    50be:	0e 94 f5 29 	call	0x53ea	; 0x53ea <__divmodhi4>
    50c2:	16 2f       	mov	r17, r22
    50c4:	07 2f       	mov	r16, r23
	}
	sprintf(temp_home,"%d.%d",home_temp/10, abs(home_temp)%10);
    50c6:	ce 01       	movw	r24, r28
    50c8:	dd 23       	and	r29, r29
    50ca:	24 f4       	brge	.+8      	; 0x50d4 <sprintf_HOME_Weath_Param+0x58>
    50cc:	88 27       	eor	r24, r24
    50ce:	99 27       	eor	r25, r25
    50d0:	8c 1b       	sub	r24, r28
    50d2:	9d 0b       	sbc	r25, r29
    50d4:	2a e0       	ldi	r18, 0x0A	; 10
    50d6:	30 e0       	ldi	r19, 0x00	; 0
    50d8:	b9 01       	movw	r22, r18
    50da:	0e 94 f5 29 	call	0x53ea	; 0x53ea <__divmodhi4>
    50de:	9f 93       	push	r25
    50e0:	8f 93       	push	r24
    50e2:	ce 01       	movw	r24, r28
    50e4:	b9 01       	movw	r22, r18
    50e6:	0e 94 f5 29 	call	0x53ea	; 0x53ea <__divmodhi4>
    50ea:	7f 93       	push	r23
    50ec:	6f 93       	push	r22
    50ee:	86 e7       	ldi	r24, 0x76	; 118
    50f0:	91 e0       	ldi	r25, 0x01	; 1
    50f2:	9f 93       	push	r25
    50f4:	8f 93       	push	r24
    50f6:	8b e2       	ldi	r24, 0x2B	; 43
    50f8:	94 e0       	ldi	r25, 0x04	; 4
    50fa:	9f 93       	push	r25
    50fc:	8f 93       	push	r24
    50fe:	0e 94 a1 2a 	call	0x5542	; 0x5542 <sprintf>
	sprintf(hum_home,"%d",home_hum);
    5102:	0f 93       	push	r16
    5104:	1f 93       	push	r17
    5106:	c9 e7       	ldi	r28, 0x79	; 121
    5108:	d1 e0       	ldi	r29, 0x01	; 1
    510a:	df 93       	push	r29
    510c:	cf 93       	push	r28
    510e:	8e e6       	ldi	r24, 0x6E	; 110
    5110:	94 e0       	ldi	r25, 0x04	; 4
    5112:	9f 93       	push	r25
    5114:	8f 93       	push	r24
    5116:	0e 94 a1 2a 	call	0x5542	; 0x5542 <sprintf>
	pressure_home = BMP180_calculation()*0.0075;
    511a:	0e 94 19 05 	call	0xa32	; 0xa32 <BMP180_calculation>
    511e:	0e 94 ec 28 	call	0x51d8	; 0x51d8 <__floatsisf>
    5122:	2f e8       	ldi	r18, 0x8F	; 143
    5124:	32 ec       	ldi	r19, 0xC2	; 194
    5126:	45 ef       	ldi	r20, 0xF5	; 245
    5128:	5b e3       	ldi	r21, 0x3B	; 59
    512a:	0e 94 50 29 	call	0x52a0	; 0x52a0 <__mulsf3>
    512e:	0e 94 b4 28 	call	0x5168	; 0x5168 <__fixsfsi>
    5132:	60 93 e9 03 	sts	0x03E9, r22	; 0x8003e9 <pressure_home>
    5136:	70 93 ea 03 	sts	0x03EA, r23	; 0x8003ea <pressure_home+0x1>
	sprintf(Press_home,"%d",pressure_home);
    513a:	7f 93       	push	r23
    513c:	6f 93       	push	r22
    513e:	df 93       	push	r29
    5140:	cf 93       	push	r28
    5142:	88 e7       	ldi	r24, 0x78	; 120
    5144:	94 e0       	ldi	r25, 0x04	; 4
    5146:	9f 93       	push	r25
    5148:	8f 93       	push	r24
    514a:	0e 94 a1 2a 	call	0x5542	; 0x5542 <sprintf>
    514e:	8d b7       	in	r24, 0x3d	; 61
    5150:	9e b7       	in	r25, 0x3e	; 62
    5152:	44 96       	adiw	r24, 0x14	; 20
    5154:	0f b6       	in	r0, 0x3f	; 63
    5156:	f8 94       	cli
    5158:	9e bf       	out	0x3e, r25	; 62
    515a:	0f be       	out	0x3f, r0	; 63
    515c:	8d bf       	out	0x3d, r24	; 61
    515e:	df 91       	pop	r29
    5160:	cf 91       	pop	r28
    5162:	1f 91       	pop	r17
    5164:	0f 91       	pop	r16
    5166:	08 95       	ret

00005168 <__fixsfsi>:
    5168:	0e 94 bb 28 	call	0x5176	; 0x5176 <__fixunssfsi>
    516c:	68 94       	set
    516e:	b1 11       	cpse	r27, r1
    5170:	0c 94 4a 29 	jmp	0x5294	; 0x5294 <__fp_szero>
    5174:	08 95       	ret

00005176 <__fixunssfsi>:
    5176:	0e 94 2f 29 	call	0x525e	; 0x525e <__fp_splitA>
    517a:	88 f0       	brcs	.+34     	; 0x519e <__fixunssfsi+0x28>
    517c:	9f 57       	subi	r25, 0x7F	; 127
    517e:	98 f0       	brcs	.+38     	; 0x51a6 <__fixunssfsi+0x30>
    5180:	b9 2f       	mov	r27, r25
    5182:	99 27       	eor	r25, r25
    5184:	b7 51       	subi	r27, 0x17	; 23
    5186:	b0 f0       	brcs	.+44     	; 0x51b4 <__fixunssfsi+0x3e>
    5188:	e1 f0       	breq	.+56     	; 0x51c2 <__fixunssfsi+0x4c>
    518a:	66 0f       	add	r22, r22
    518c:	77 1f       	adc	r23, r23
    518e:	88 1f       	adc	r24, r24
    5190:	99 1f       	adc	r25, r25
    5192:	1a f0       	brmi	.+6      	; 0x519a <__fixunssfsi+0x24>
    5194:	ba 95       	dec	r27
    5196:	c9 f7       	brne	.-14     	; 0x518a <__fixunssfsi+0x14>
    5198:	14 c0       	rjmp	.+40     	; 0x51c2 <__fixunssfsi+0x4c>
    519a:	b1 30       	cpi	r27, 0x01	; 1
    519c:	91 f0       	breq	.+36     	; 0x51c2 <__fixunssfsi+0x4c>
    519e:	0e 94 49 29 	call	0x5292	; 0x5292 <__fp_zero>
    51a2:	b1 e0       	ldi	r27, 0x01	; 1
    51a4:	08 95       	ret
    51a6:	0c 94 49 29 	jmp	0x5292	; 0x5292 <__fp_zero>
    51aa:	67 2f       	mov	r22, r23
    51ac:	78 2f       	mov	r23, r24
    51ae:	88 27       	eor	r24, r24
    51b0:	b8 5f       	subi	r27, 0xF8	; 248
    51b2:	39 f0       	breq	.+14     	; 0x51c2 <__fixunssfsi+0x4c>
    51b4:	b9 3f       	cpi	r27, 0xF9	; 249
    51b6:	cc f3       	brlt	.-14     	; 0x51aa <__fixunssfsi+0x34>
    51b8:	86 95       	lsr	r24
    51ba:	77 95       	ror	r23
    51bc:	67 95       	ror	r22
    51be:	b3 95       	inc	r27
    51c0:	d9 f7       	brne	.-10     	; 0x51b8 <__fixunssfsi+0x42>
    51c2:	3e f4       	brtc	.+14     	; 0x51d2 <__fixunssfsi+0x5c>
    51c4:	90 95       	com	r25
    51c6:	80 95       	com	r24
    51c8:	70 95       	com	r23
    51ca:	61 95       	neg	r22
    51cc:	7f 4f       	sbci	r23, 0xFF	; 255
    51ce:	8f 4f       	sbci	r24, 0xFF	; 255
    51d0:	9f 4f       	sbci	r25, 0xFF	; 255
    51d2:	08 95       	ret

000051d4 <__floatunsisf>:
    51d4:	e8 94       	clt
    51d6:	09 c0       	rjmp	.+18     	; 0x51ea <__floatsisf+0x12>

000051d8 <__floatsisf>:
    51d8:	97 fb       	bst	r25, 7
    51da:	3e f4       	brtc	.+14     	; 0x51ea <__floatsisf+0x12>
    51dc:	90 95       	com	r25
    51de:	80 95       	com	r24
    51e0:	70 95       	com	r23
    51e2:	61 95       	neg	r22
    51e4:	7f 4f       	sbci	r23, 0xFF	; 255
    51e6:	8f 4f       	sbci	r24, 0xFF	; 255
    51e8:	9f 4f       	sbci	r25, 0xFF	; 255
    51ea:	99 23       	and	r25, r25
    51ec:	a9 f0       	breq	.+42     	; 0x5218 <__floatsisf+0x40>
    51ee:	f9 2f       	mov	r31, r25
    51f0:	96 e9       	ldi	r25, 0x96	; 150
    51f2:	bb 27       	eor	r27, r27
    51f4:	93 95       	inc	r25
    51f6:	f6 95       	lsr	r31
    51f8:	87 95       	ror	r24
    51fa:	77 95       	ror	r23
    51fc:	67 95       	ror	r22
    51fe:	b7 95       	ror	r27
    5200:	f1 11       	cpse	r31, r1
    5202:	f8 cf       	rjmp	.-16     	; 0x51f4 <__floatsisf+0x1c>
    5204:	fa f4       	brpl	.+62     	; 0x5244 <__floatsisf+0x6c>
    5206:	bb 0f       	add	r27, r27
    5208:	11 f4       	brne	.+4      	; 0x520e <__floatsisf+0x36>
    520a:	60 ff       	sbrs	r22, 0
    520c:	1b c0       	rjmp	.+54     	; 0x5244 <__floatsisf+0x6c>
    520e:	6f 5f       	subi	r22, 0xFF	; 255
    5210:	7f 4f       	sbci	r23, 0xFF	; 255
    5212:	8f 4f       	sbci	r24, 0xFF	; 255
    5214:	9f 4f       	sbci	r25, 0xFF	; 255
    5216:	16 c0       	rjmp	.+44     	; 0x5244 <__floatsisf+0x6c>
    5218:	88 23       	and	r24, r24
    521a:	11 f0       	breq	.+4      	; 0x5220 <__floatsisf+0x48>
    521c:	96 e9       	ldi	r25, 0x96	; 150
    521e:	11 c0       	rjmp	.+34     	; 0x5242 <__floatsisf+0x6a>
    5220:	77 23       	and	r23, r23
    5222:	21 f0       	breq	.+8      	; 0x522c <__floatsisf+0x54>
    5224:	9e e8       	ldi	r25, 0x8E	; 142
    5226:	87 2f       	mov	r24, r23
    5228:	76 2f       	mov	r23, r22
    522a:	05 c0       	rjmp	.+10     	; 0x5236 <__floatsisf+0x5e>
    522c:	66 23       	and	r22, r22
    522e:	71 f0       	breq	.+28     	; 0x524c <__floatsisf+0x74>
    5230:	96 e8       	ldi	r25, 0x86	; 134
    5232:	86 2f       	mov	r24, r22
    5234:	70 e0       	ldi	r23, 0x00	; 0
    5236:	60 e0       	ldi	r22, 0x00	; 0
    5238:	2a f0       	brmi	.+10     	; 0x5244 <__floatsisf+0x6c>
    523a:	9a 95       	dec	r25
    523c:	66 0f       	add	r22, r22
    523e:	77 1f       	adc	r23, r23
    5240:	88 1f       	adc	r24, r24
    5242:	da f7       	brpl	.-10     	; 0x523a <__floatsisf+0x62>
    5244:	88 0f       	add	r24, r24
    5246:	96 95       	lsr	r25
    5248:	87 95       	ror	r24
    524a:	97 f9       	bld	r25, 7
    524c:	08 95       	ret

0000524e <__fp_split3>:
    524e:	57 fd       	sbrc	r21, 7
    5250:	90 58       	subi	r25, 0x80	; 128
    5252:	44 0f       	add	r20, r20
    5254:	55 1f       	adc	r21, r21
    5256:	59 f0       	breq	.+22     	; 0x526e <__fp_splitA+0x10>
    5258:	5f 3f       	cpi	r21, 0xFF	; 255
    525a:	71 f0       	breq	.+28     	; 0x5278 <__fp_splitA+0x1a>
    525c:	47 95       	ror	r20

0000525e <__fp_splitA>:
    525e:	88 0f       	add	r24, r24
    5260:	97 fb       	bst	r25, 7
    5262:	99 1f       	adc	r25, r25
    5264:	61 f0       	breq	.+24     	; 0x527e <__fp_splitA+0x20>
    5266:	9f 3f       	cpi	r25, 0xFF	; 255
    5268:	79 f0       	breq	.+30     	; 0x5288 <__fp_splitA+0x2a>
    526a:	87 95       	ror	r24
    526c:	08 95       	ret
    526e:	12 16       	cp	r1, r18
    5270:	13 06       	cpc	r1, r19
    5272:	14 06       	cpc	r1, r20
    5274:	55 1f       	adc	r21, r21
    5276:	f2 cf       	rjmp	.-28     	; 0x525c <__fp_split3+0xe>
    5278:	46 95       	lsr	r20
    527a:	f1 df       	rcall	.-30     	; 0x525e <__fp_splitA>
    527c:	08 c0       	rjmp	.+16     	; 0x528e <__fp_splitA+0x30>
    527e:	16 16       	cp	r1, r22
    5280:	17 06       	cpc	r1, r23
    5282:	18 06       	cpc	r1, r24
    5284:	99 1f       	adc	r25, r25
    5286:	f1 cf       	rjmp	.-30     	; 0x526a <__fp_splitA+0xc>
    5288:	86 95       	lsr	r24
    528a:	71 05       	cpc	r23, r1
    528c:	61 05       	cpc	r22, r1
    528e:	08 94       	sec
    5290:	08 95       	ret

00005292 <__fp_zero>:
    5292:	e8 94       	clt

00005294 <__fp_szero>:
    5294:	bb 27       	eor	r27, r27
    5296:	66 27       	eor	r22, r22
    5298:	77 27       	eor	r23, r23
    529a:	cb 01       	movw	r24, r22
    529c:	97 f9       	bld	r25, 7
    529e:	08 95       	ret

000052a0 <__mulsf3>:
    52a0:	0e 94 63 29 	call	0x52c6	; 0x52c6 <__mulsf3x>
    52a4:	0c 94 d4 29 	jmp	0x53a8	; 0x53a8 <__fp_round>
    52a8:	0e 94 c6 29 	call	0x538c	; 0x538c <__fp_pscA>
    52ac:	38 f0       	brcs	.+14     	; 0x52bc <__mulsf3+0x1c>
    52ae:	0e 94 cd 29 	call	0x539a	; 0x539a <__fp_pscB>
    52b2:	20 f0       	brcs	.+8      	; 0x52bc <__mulsf3+0x1c>
    52b4:	95 23       	and	r25, r21
    52b6:	11 f0       	breq	.+4      	; 0x52bc <__mulsf3+0x1c>
    52b8:	0c 94 bd 29 	jmp	0x537a	; 0x537a <__fp_inf>
    52bc:	0c 94 c3 29 	jmp	0x5386	; 0x5386 <__fp_nan>
    52c0:	11 24       	eor	r1, r1
    52c2:	0c 94 4a 29 	jmp	0x5294	; 0x5294 <__fp_szero>

000052c6 <__mulsf3x>:
    52c6:	0e 94 27 29 	call	0x524e	; 0x524e <__fp_split3>
    52ca:	70 f3       	brcs	.-36     	; 0x52a8 <__mulsf3+0x8>

000052cc <__mulsf3_pse>:
    52cc:	95 9f       	mul	r25, r21
    52ce:	c1 f3       	breq	.-16     	; 0x52c0 <__mulsf3+0x20>
    52d0:	95 0f       	add	r25, r21
    52d2:	50 e0       	ldi	r21, 0x00	; 0
    52d4:	55 1f       	adc	r21, r21
    52d6:	62 9f       	mul	r22, r18
    52d8:	f0 01       	movw	r30, r0
    52da:	72 9f       	mul	r23, r18
    52dc:	bb 27       	eor	r27, r27
    52de:	f0 0d       	add	r31, r0
    52e0:	b1 1d       	adc	r27, r1
    52e2:	63 9f       	mul	r22, r19
    52e4:	aa 27       	eor	r26, r26
    52e6:	f0 0d       	add	r31, r0
    52e8:	b1 1d       	adc	r27, r1
    52ea:	aa 1f       	adc	r26, r26
    52ec:	64 9f       	mul	r22, r20
    52ee:	66 27       	eor	r22, r22
    52f0:	b0 0d       	add	r27, r0
    52f2:	a1 1d       	adc	r26, r1
    52f4:	66 1f       	adc	r22, r22
    52f6:	82 9f       	mul	r24, r18
    52f8:	22 27       	eor	r18, r18
    52fa:	b0 0d       	add	r27, r0
    52fc:	a1 1d       	adc	r26, r1
    52fe:	62 1f       	adc	r22, r18
    5300:	73 9f       	mul	r23, r19
    5302:	b0 0d       	add	r27, r0
    5304:	a1 1d       	adc	r26, r1
    5306:	62 1f       	adc	r22, r18
    5308:	83 9f       	mul	r24, r19
    530a:	a0 0d       	add	r26, r0
    530c:	61 1d       	adc	r22, r1
    530e:	22 1f       	adc	r18, r18
    5310:	74 9f       	mul	r23, r20
    5312:	33 27       	eor	r19, r19
    5314:	a0 0d       	add	r26, r0
    5316:	61 1d       	adc	r22, r1
    5318:	23 1f       	adc	r18, r19
    531a:	84 9f       	mul	r24, r20
    531c:	60 0d       	add	r22, r0
    531e:	21 1d       	adc	r18, r1
    5320:	82 2f       	mov	r24, r18
    5322:	76 2f       	mov	r23, r22
    5324:	6a 2f       	mov	r22, r26
    5326:	11 24       	eor	r1, r1
    5328:	9f 57       	subi	r25, 0x7F	; 127
    532a:	50 40       	sbci	r21, 0x00	; 0
    532c:	9a f0       	brmi	.+38     	; 0x5354 <__mulsf3_pse+0x88>
    532e:	f1 f0       	breq	.+60     	; 0x536c <__mulsf3_pse+0xa0>
    5330:	88 23       	and	r24, r24
    5332:	4a f0       	brmi	.+18     	; 0x5346 <__mulsf3_pse+0x7a>
    5334:	ee 0f       	add	r30, r30
    5336:	ff 1f       	adc	r31, r31
    5338:	bb 1f       	adc	r27, r27
    533a:	66 1f       	adc	r22, r22
    533c:	77 1f       	adc	r23, r23
    533e:	88 1f       	adc	r24, r24
    5340:	91 50       	subi	r25, 0x01	; 1
    5342:	50 40       	sbci	r21, 0x00	; 0
    5344:	a9 f7       	brne	.-22     	; 0x5330 <__mulsf3_pse+0x64>
    5346:	9e 3f       	cpi	r25, 0xFE	; 254
    5348:	51 05       	cpc	r21, r1
    534a:	80 f0       	brcs	.+32     	; 0x536c <__mulsf3_pse+0xa0>
    534c:	0c 94 bd 29 	jmp	0x537a	; 0x537a <__fp_inf>
    5350:	0c 94 4a 29 	jmp	0x5294	; 0x5294 <__fp_szero>
    5354:	5f 3f       	cpi	r21, 0xFF	; 255
    5356:	e4 f3       	brlt	.-8      	; 0x5350 <__mulsf3_pse+0x84>
    5358:	98 3e       	cpi	r25, 0xE8	; 232
    535a:	d4 f3       	brlt	.-12     	; 0x5350 <__mulsf3_pse+0x84>
    535c:	86 95       	lsr	r24
    535e:	77 95       	ror	r23
    5360:	67 95       	ror	r22
    5362:	b7 95       	ror	r27
    5364:	f7 95       	ror	r31
    5366:	e7 95       	ror	r30
    5368:	9f 5f       	subi	r25, 0xFF	; 255
    536a:	c1 f7       	brne	.-16     	; 0x535c <__mulsf3_pse+0x90>
    536c:	fe 2b       	or	r31, r30
    536e:	88 0f       	add	r24, r24
    5370:	91 1d       	adc	r25, r1
    5372:	96 95       	lsr	r25
    5374:	87 95       	ror	r24
    5376:	97 f9       	bld	r25, 7
    5378:	08 95       	ret

0000537a <__fp_inf>:
    537a:	97 f9       	bld	r25, 7
    537c:	9f 67       	ori	r25, 0x7F	; 127
    537e:	80 e8       	ldi	r24, 0x80	; 128
    5380:	70 e0       	ldi	r23, 0x00	; 0
    5382:	60 e0       	ldi	r22, 0x00	; 0
    5384:	08 95       	ret

00005386 <__fp_nan>:
    5386:	9f ef       	ldi	r25, 0xFF	; 255
    5388:	80 ec       	ldi	r24, 0xC0	; 192
    538a:	08 95       	ret

0000538c <__fp_pscA>:
    538c:	00 24       	eor	r0, r0
    538e:	0a 94       	dec	r0
    5390:	16 16       	cp	r1, r22
    5392:	17 06       	cpc	r1, r23
    5394:	18 06       	cpc	r1, r24
    5396:	09 06       	cpc	r0, r25
    5398:	08 95       	ret

0000539a <__fp_pscB>:
    539a:	00 24       	eor	r0, r0
    539c:	0a 94       	dec	r0
    539e:	12 16       	cp	r1, r18
    53a0:	13 06       	cpc	r1, r19
    53a2:	14 06       	cpc	r1, r20
    53a4:	05 06       	cpc	r0, r21
    53a6:	08 95       	ret

000053a8 <__fp_round>:
    53a8:	09 2e       	mov	r0, r25
    53aa:	03 94       	inc	r0
    53ac:	00 0c       	add	r0, r0
    53ae:	11 f4       	brne	.+4      	; 0x53b4 <__fp_round+0xc>
    53b0:	88 23       	and	r24, r24
    53b2:	52 f0       	brmi	.+20     	; 0x53c8 <__fp_round+0x20>
    53b4:	bb 0f       	add	r27, r27
    53b6:	40 f4       	brcc	.+16     	; 0x53c8 <__fp_round+0x20>
    53b8:	bf 2b       	or	r27, r31
    53ba:	11 f4       	brne	.+4      	; 0x53c0 <__fp_round+0x18>
    53bc:	60 ff       	sbrs	r22, 0
    53be:	04 c0       	rjmp	.+8      	; 0x53c8 <__fp_round+0x20>
    53c0:	6f 5f       	subi	r22, 0xFF	; 255
    53c2:	7f 4f       	sbci	r23, 0xFF	; 255
    53c4:	8f 4f       	sbci	r24, 0xFF	; 255
    53c6:	9f 4f       	sbci	r25, 0xFF	; 255
    53c8:	08 95       	ret

000053ca <__mulsi3>:
    53ca:	db 01       	movw	r26, r22
    53cc:	8f 93       	push	r24
    53ce:	9f 93       	push	r25
    53d0:	0e 94 50 2a 	call	0x54a0	; 0x54a0 <__muluhisi3>
    53d4:	bf 91       	pop	r27
    53d6:	af 91       	pop	r26
    53d8:	a2 9f       	mul	r26, r18
    53da:	80 0d       	add	r24, r0
    53dc:	91 1d       	adc	r25, r1
    53de:	a3 9f       	mul	r26, r19
    53e0:	90 0d       	add	r25, r0
    53e2:	b2 9f       	mul	r27, r18
    53e4:	90 0d       	add	r25, r0
    53e6:	11 24       	eor	r1, r1
    53e8:	08 95       	ret

000053ea <__divmodhi4>:
    53ea:	97 fb       	bst	r25, 7
    53ec:	07 2e       	mov	r0, r23
    53ee:	16 f4       	brtc	.+4      	; 0x53f4 <__divmodhi4+0xa>
    53f0:	00 94       	com	r0
    53f2:	07 d0       	rcall	.+14     	; 0x5402 <__divmodhi4_neg1>
    53f4:	77 fd       	sbrc	r23, 7
    53f6:	09 d0       	rcall	.+18     	; 0x540a <__divmodhi4_neg2>
    53f8:	0e 94 63 2a 	call	0x54c6	; 0x54c6 <__udivmodhi4>
    53fc:	07 fc       	sbrc	r0, 7
    53fe:	05 d0       	rcall	.+10     	; 0x540a <__divmodhi4_neg2>
    5400:	3e f4       	brtc	.+14     	; 0x5410 <__divmodhi4_exit>

00005402 <__divmodhi4_neg1>:
    5402:	90 95       	com	r25
    5404:	81 95       	neg	r24
    5406:	9f 4f       	sbci	r25, 0xFF	; 255
    5408:	08 95       	ret

0000540a <__divmodhi4_neg2>:
    540a:	70 95       	com	r23
    540c:	61 95       	neg	r22
    540e:	7f 4f       	sbci	r23, 0xFF	; 255

00005410 <__divmodhi4_exit>:
    5410:	08 95       	ret

00005412 <__udivmodsi4>:
    5412:	a1 e2       	ldi	r26, 0x21	; 33
    5414:	1a 2e       	mov	r1, r26
    5416:	aa 1b       	sub	r26, r26
    5418:	bb 1b       	sub	r27, r27
    541a:	fd 01       	movw	r30, r26
    541c:	0d c0       	rjmp	.+26     	; 0x5438 <__udivmodsi4_ep>

0000541e <__udivmodsi4_loop>:
    541e:	aa 1f       	adc	r26, r26
    5420:	bb 1f       	adc	r27, r27
    5422:	ee 1f       	adc	r30, r30
    5424:	ff 1f       	adc	r31, r31
    5426:	a2 17       	cp	r26, r18
    5428:	b3 07       	cpc	r27, r19
    542a:	e4 07       	cpc	r30, r20
    542c:	f5 07       	cpc	r31, r21
    542e:	20 f0       	brcs	.+8      	; 0x5438 <__udivmodsi4_ep>
    5430:	a2 1b       	sub	r26, r18
    5432:	b3 0b       	sbc	r27, r19
    5434:	e4 0b       	sbc	r30, r20
    5436:	f5 0b       	sbc	r31, r21

00005438 <__udivmodsi4_ep>:
    5438:	66 1f       	adc	r22, r22
    543a:	77 1f       	adc	r23, r23
    543c:	88 1f       	adc	r24, r24
    543e:	99 1f       	adc	r25, r25
    5440:	1a 94       	dec	r1
    5442:	69 f7       	brne	.-38     	; 0x541e <__udivmodsi4_loop>
    5444:	60 95       	com	r22
    5446:	70 95       	com	r23
    5448:	80 95       	com	r24
    544a:	90 95       	com	r25
    544c:	9b 01       	movw	r18, r22
    544e:	ac 01       	movw	r20, r24
    5450:	bd 01       	movw	r22, r26
    5452:	cf 01       	movw	r24, r30
    5454:	08 95       	ret

00005456 <__divmodsi4>:
    5456:	05 2e       	mov	r0, r21
    5458:	97 fb       	bst	r25, 7
    545a:	1e f4       	brtc	.+6      	; 0x5462 <__divmodsi4+0xc>
    545c:	00 94       	com	r0
    545e:	0e 94 42 2a 	call	0x5484	; 0x5484 <__negsi2>
    5462:	57 fd       	sbrc	r21, 7
    5464:	07 d0       	rcall	.+14     	; 0x5474 <__divmodsi4_neg2>
    5466:	0e 94 09 2a 	call	0x5412	; 0x5412 <__udivmodsi4>
    546a:	07 fc       	sbrc	r0, 7
    546c:	03 d0       	rcall	.+6      	; 0x5474 <__divmodsi4_neg2>
    546e:	4e f4       	brtc	.+18     	; 0x5482 <__divmodsi4_exit>
    5470:	0c 94 42 2a 	jmp	0x5484	; 0x5484 <__negsi2>

00005474 <__divmodsi4_neg2>:
    5474:	50 95       	com	r21
    5476:	40 95       	com	r20
    5478:	30 95       	com	r19
    547a:	21 95       	neg	r18
    547c:	3f 4f       	sbci	r19, 0xFF	; 255
    547e:	4f 4f       	sbci	r20, 0xFF	; 255
    5480:	5f 4f       	sbci	r21, 0xFF	; 255

00005482 <__divmodsi4_exit>:
    5482:	08 95       	ret

00005484 <__negsi2>:
    5484:	90 95       	com	r25
    5486:	80 95       	com	r24
    5488:	70 95       	com	r23
    548a:	61 95       	neg	r22
    548c:	7f 4f       	sbci	r23, 0xFF	; 255
    548e:	8f 4f       	sbci	r24, 0xFF	; 255
    5490:	9f 4f       	sbci	r25, 0xFF	; 255
    5492:	08 95       	ret

00005494 <__tablejump2__>:
    5494:	ee 0f       	add	r30, r30
    5496:	ff 1f       	adc	r31, r31
    5498:	05 90       	lpm	r0, Z+
    549a:	f4 91       	lpm	r31, Z
    549c:	e0 2d       	mov	r30, r0
    549e:	09 94       	ijmp

000054a0 <__muluhisi3>:
    54a0:	0e 94 77 2a 	call	0x54ee	; 0x54ee <__umulhisi3>
    54a4:	a5 9f       	mul	r26, r21
    54a6:	90 0d       	add	r25, r0
    54a8:	b4 9f       	mul	r27, r20
    54aa:	90 0d       	add	r25, r0
    54ac:	a4 9f       	mul	r26, r20
    54ae:	80 0d       	add	r24, r0
    54b0:	91 1d       	adc	r25, r1
    54b2:	11 24       	eor	r1, r1
    54b4:	08 95       	ret

000054b6 <__mulshisi3>:
    54b6:	b7 ff       	sbrs	r27, 7
    54b8:	0c 94 50 2a 	jmp	0x54a0	; 0x54a0 <__muluhisi3>

000054bc <__mulohisi3>:
    54bc:	0e 94 50 2a 	call	0x54a0	; 0x54a0 <__muluhisi3>
    54c0:	82 1b       	sub	r24, r18
    54c2:	93 0b       	sbc	r25, r19
    54c4:	08 95       	ret

000054c6 <__udivmodhi4>:
    54c6:	aa 1b       	sub	r26, r26
    54c8:	bb 1b       	sub	r27, r27
    54ca:	51 e1       	ldi	r21, 0x11	; 17
    54cc:	07 c0       	rjmp	.+14     	; 0x54dc <__udivmodhi4_ep>

000054ce <__udivmodhi4_loop>:
    54ce:	aa 1f       	adc	r26, r26
    54d0:	bb 1f       	adc	r27, r27
    54d2:	a6 17       	cp	r26, r22
    54d4:	b7 07       	cpc	r27, r23
    54d6:	10 f0       	brcs	.+4      	; 0x54dc <__udivmodhi4_ep>
    54d8:	a6 1b       	sub	r26, r22
    54da:	b7 0b       	sbc	r27, r23

000054dc <__udivmodhi4_ep>:
    54dc:	88 1f       	adc	r24, r24
    54de:	99 1f       	adc	r25, r25
    54e0:	5a 95       	dec	r21
    54e2:	a9 f7       	brne	.-22     	; 0x54ce <__udivmodhi4_loop>
    54e4:	80 95       	com	r24
    54e6:	90 95       	com	r25
    54e8:	bc 01       	movw	r22, r24
    54ea:	cd 01       	movw	r24, r26
    54ec:	08 95       	ret

000054ee <__umulhisi3>:
    54ee:	a2 9f       	mul	r26, r18
    54f0:	b0 01       	movw	r22, r0
    54f2:	b3 9f       	mul	r27, r19
    54f4:	c0 01       	movw	r24, r0
    54f6:	a3 9f       	mul	r26, r19
    54f8:	70 0d       	add	r23, r0
    54fa:	81 1d       	adc	r24, r1
    54fc:	11 24       	eor	r1, r1
    54fe:	91 1d       	adc	r25, r1
    5500:	b2 9f       	mul	r27, r18
    5502:	70 0d       	add	r23, r0
    5504:	81 1d       	adc	r24, r1
    5506:	11 24       	eor	r1, r1
    5508:	91 1d       	adc	r25, r1
    550a:	08 95       	ret

0000550c <memset>:
    550c:	dc 01       	movw	r26, r24
    550e:	01 c0       	rjmp	.+2      	; 0x5512 <memset+0x6>
    5510:	6d 93       	st	X+, r22
    5512:	41 50       	subi	r20, 0x01	; 1
    5514:	50 40       	sbci	r21, 0x00	; 0
    5516:	e0 f7       	brcc	.-8      	; 0x5510 <memset+0x4>
    5518:	08 95       	ret

0000551a <strchr>:
    551a:	fc 01       	movw	r30, r24
    551c:	81 91       	ld	r24, Z+
    551e:	86 17       	cp	r24, r22
    5520:	21 f0       	breq	.+8      	; 0x552a <strchr+0x10>
    5522:	88 23       	and	r24, r24
    5524:	d9 f7       	brne	.-10     	; 0x551c <strchr+0x2>
    5526:	99 27       	eor	r25, r25
    5528:	08 95       	ret
    552a:	31 97       	sbiw	r30, 0x01	; 1
    552c:	cf 01       	movw	r24, r30
    552e:	08 95       	ret

00005530 <strcmp>:
    5530:	fb 01       	movw	r30, r22
    5532:	dc 01       	movw	r26, r24
    5534:	8d 91       	ld	r24, X+
    5536:	01 90       	ld	r0, Z+
    5538:	80 19       	sub	r24, r0
    553a:	01 10       	cpse	r0, r1
    553c:	d9 f3       	breq	.-10     	; 0x5534 <strcmp+0x4>
    553e:	99 0b       	sbc	r25, r25
    5540:	08 95       	ret

00005542 <sprintf>:
    5542:	ae e0       	ldi	r26, 0x0E	; 14
    5544:	b0 e0       	ldi	r27, 0x00	; 0
    5546:	e7 ea       	ldi	r30, 0xA7	; 167
    5548:	fa e2       	ldi	r31, 0x2A	; 42
    554a:	0c 94 96 30 	jmp	0x612c	; 0x612c <__prologue_saves__+0x1c>
    554e:	0d 89       	ldd	r16, Y+21	; 0x15
    5550:	1e 89       	ldd	r17, Y+22	; 0x16
    5552:	86 e0       	ldi	r24, 0x06	; 6
    5554:	8c 83       	std	Y+4, r24	; 0x04
    5556:	1a 83       	std	Y+2, r17	; 0x02
    5558:	09 83       	std	Y+1, r16	; 0x01
    555a:	8f ef       	ldi	r24, 0xFF	; 255
    555c:	9f e7       	ldi	r25, 0x7F	; 127
    555e:	9e 83       	std	Y+6, r25	; 0x06
    5560:	8d 83       	std	Y+5, r24	; 0x05
    5562:	ae 01       	movw	r20, r28
    5564:	47 5e       	subi	r20, 0xE7	; 231
    5566:	5f 4f       	sbci	r21, 0xFF	; 255
    5568:	6f 89       	ldd	r22, Y+23	; 0x17
    556a:	78 8d       	ldd	r23, Y+24	; 0x18
    556c:	ce 01       	movw	r24, r28
    556e:	01 96       	adiw	r24, 0x01	; 1
    5570:	0e 94 dc 2a 	call	0x55b8	; 0x55b8 <vfprintf>
    5574:	ef 81       	ldd	r30, Y+7	; 0x07
    5576:	f8 85       	ldd	r31, Y+8	; 0x08
    5578:	e0 0f       	add	r30, r16
    557a:	f1 1f       	adc	r31, r17
    557c:	10 82       	st	Z, r1
    557e:	2e 96       	adiw	r28, 0x0e	; 14
    5580:	e4 e0       	ldi	r30, 0x04	; 4
    5582:	0c 94 b2 30 	jmp	0x6164	; 0x6164 <__epilogue_restores__+0x1c>

00005586 <sscanf>:
    5586:	ae e0       	ldi	r26, 0x0E	; 14
    5588:	b0 e0       	ldi	r27, 0x00	; 0
    558a:	e9 ec       	ldi	r30, 0xC9	; 201
    558c:	fa e2       	ldi	r31, 0x2A	; 42
    558e:	0c 94 98 30 	jmp	0x6130	; 0x6130 <__prologue_saves__+0x20>
    5592:	85 e0       	ldi	r24, 0x05	; 5
    5594:	8c 83       	std	Y+4, r24	; 0x04
    5596:	8b 89       	ldd	r24, Y+19	; 0x13
    5598:	9c 89       	ldd	r25, Y+20	; 0x14
    559a:	9a 83       	std	Y+2, r25	; 0x02
    559c:	89 83       	std	Y+1, r24	; 0x01
    559e:	ae 01       	movw	r20, r28
    55a0:	49 5e       	subi	r20, 0xE9	; 233
    55a2:	5f 4f       	sbci	r21, 0xFF	; 255
    55a4:	6d 89       	ldd	r22, Y+21	; 0x15
    55a6:	7e 89       	ldd	r23, Y+22	; 0x16
    55a8:	ce 01       	movw	r24, r28
    55aa:	01 96       	adiw	r24, 0x01	; 1
    55ac:	0e 94 59 2e 	call	0x5cb2	; 0x5cb2 <vfscanf>
    55b0:	2e 96       	adiw	r28, 0x0e	; 14
    55b2:	e2 e0       	ldi	r30, 0x02	; 2
    55b4:	0c 94 b4 30 	jmp	0x6168	; 0x6168 <__epilogue_restores__+0x20>

000055b8 <vfprintf>:
    55b8:	ab e0       	ldi	r26, 0x0B	; 11
    55ba:	b0 e0       	ldi	r27, 0x00	; 0
    55bc:	e2 ee       	ldi	r30, 0xE2	; 226
    55be:	fa e2       	ldi	r31, 0x2A	; 42
    55c0:	0c 94 88 30 	jmp	0x6110	; 0x6110 <__prologue_saves__>
    55c4:	6c 01       	movw	r12, r24
    55c6:	7b 01       	movw	r14, r22
    55c8:	8a 01       	movw	r16, r20
    55ca:	fc 01       	movw	r30, r24
    55cc:	17 82       	std	Z+7, r1	; 0x07
    55ce:	16 82       	std	Z+6, r1	; 0x06
    55d0:	83 81       	ldd	r24, Z+3	; 0x03
    55d2:	81 ff       	sbrs	r24, 1
    55d4:	cc c1       	rjmp	.+920    	; 0x596e <vfprintf+0x3b6>
    55d6:	ce 01       	movw	r24, r28
    55d8:	01 96       	adiw	r24, 0x01	; 1
    55da:	3c 01       	movw	r6, r24
    55dc:	f6 01       	movw	r30, r12
    55de:	93 81       	ldd	r25, Z+3	; 0x03
    55e0:	f7 01       	movw	r30, r14
    55e2:	93 fd       	sbrc	r25, 3
    55e4:	85 91       	lpm	r24, Z+
    55e6:	93 ff       	sbrs	r25, 3
    55e8:	81 91       	ld	r24, Z+
    55ea:	7f 01       	movw	r14, r30
    55ec:	88 23       	and	r24, r24
    55ee:	09 f4       	brne	.+2      	; 0x55f2 <vfprintf+0x3a>
    55f0:	ba c1       	rjmp	.+884    	; 0x5966 <vfprintf+0x3ae>
    55f2:	85 32       	cpi	r24, 0x25	; 37
    55f4:	39 f4       	brne	.+14     	; 0x5604 <vfprintf+0x4c>
    55f6:	93 fd       	sbrc	r25, 3
    55f8:	85 91       	lpm	r24, Z+
    55fa:	93 ff       	sbrs	r25, 3
    55fc:	81 91       	ld	r24, Z+
    55fe:	7f 01       	movw	r14, r30
    5600:	85 32       	cpi	r24, 0x25	; 37
    5602:	29 f4       	brne	.+10     	; 0x560e <vfprintf+0x56>
    5604:	b6 01       	movw	r22, r12
    5606:	90 e0       	ldi	r25, 0x00	; 0
    5608:	0e 94 d2 2f 	call	0x5fa4	; 0x5fa4 <fputc>
    560c:	e7 cf       	rjmp	.-50     	; 0x55dc <vfprintf+0x24>
    560e:	91 2c       	mov	r9, r1
    5610:	21 2c       	mov	r2, r1
    5612:	31 2c       	mov	r3, r1
    5614:	ff e1       	ldi	r31, 0x1F	; 31
    5616:	f3 15       	cp	r31, r3
    5618:	d8 f0       	brcs	.+54     	; 0x5650 <vfprintf+0x98>
    561a:	8b 32       	cpi	r24, 0x2B	; 43
    561c:	79 f0       	breq	.+30     	; 0x563c <vfprintf+0x84>
    561e:	38 f4       	brcc	.+14     	; 0x562e <vfprintf+0x76>
    5620:	80 32       	cpi	r24, 0x20	; 32
    5622:	79 f0       	breq	.+30     	; 0x5642 <vfprintf+0x8a>
    5624:	83 32       	cpi	r24, 0x23	; 35
    5626:	a1 f4       	brne	.+40     	; 0x5650 <vfprintf+0x98>
    5628:	23 2d       	mov	r18, r3
    562a:	20 61       	ori	r18, 0x10	; 16
    562c:	1d c0       	rjmp	.+58     	; 0x5668 <vfprintf+0xb0>
    562e:	8d 32       	cpi	r24, 0x2D	; 45
    5630:	61 f0       	breq	.+24     	; 0x564a <vfprintf+0x92>
    5632:	80 33       	cpi	r24, 0x30	; 48
    5634:	69 f4       	brne	.+26     	; 0x5650 <vfprintf+0x98>
    5636:	23 2d       	mov	r18, r3
    5638:	21 60       	ori	r18, 0x01	; 1
    563a:	16 c0       	rjmp	.+44     	; 0x5668 <vfprintf+0xb0>
    563c:	83 2d       	mov	r24, r3
    563e:	82 60       	ori	r24, 0x02	; 2
    5640:	38 2e       	mov	r3, r24
    5642:	e3 2d       	mov	r30, r3
    5644:	e4 60       	ori	r30, 0x04	; 4
    5646:	3e 2e       	mov	r3, r30
    5648:	2a c0       	rjmp	.+84     	; 0x569e <vfprintf+0xe6>
    564a:	f3 2d       	mov	r31, r3
    564c:	f8 60       	ori	r31, 0x08	; 8
    564e:	1d c0       	rjmp	.+58     	; 0x568a <vfprintf+0xd2>
    5650:	37 fc       	sbrc	r3, 7
    5652:	2d c0       	rjmp	.+90     	; 0x56ae <vfprintf+0xf6>
    5654:	20 ed       	ldi	r18, 0xD0	; 208
    5656:	28 0f       	add	r18, r24
    5658:	2a 30       	cpi	r18, 0x0A	; 10
    565a:	40 f0       	brcs	.+16     	; 0x566c <vfprintf+0xb4>
    565c:	8e 32       	cpi	r24, 0x2E	; 46
    565e:	b9 f4       	brne	.+46     	; 0x568e <vfprintf+0xd6>
    5660:	36 fc       	sbrc	r3, 6
    5662:	81 c1       	rjmp	.+770    	; 0x5966 <vfprintf+0x3ae>
    5664:	23 2d       	mov	r18, r3
    5666:	20 64       	ori	r18, 0x40	; 64
    5668:	32 2e       	mov	r3, r18
    566a:	19 c0       	rjmp	.+50     	; 0x569e <vfprintf+0xe6>
    566c:	36 fe       	sbrs	r3, 6
    566e:	06 c0       	rjmp	.+12     	; 0x567c <vfprintf+0xc4>
    5670:	8a e0       	ldi	r24, 0x0A	; 10
    5672:	98 9e       	mul	r9, r24
    5674:	20 0d       	add	r18, r0
    5676:	11 24       	eor	r1, r1
    5678:	92 2e       	mov	r9, r18
    567a:	11 c0       	rjmp	.+34     	; 0x569e <vfprintf+0xe6>
    567c:	ea e0       	ldi	r30, 0x0A	; 10
    567e:	2e 9e       	mul	r2, r30
    5680:	20 0d       	add	r18, r0
    5682:	11 24       	eor	r1, r1
    5684:	22 2e       	mov	r2, r18
    5686:	f3 2d       	mov	r31, r3
    5688:	f0 62       	ori	r31, 0x20	; 32
    568a:	3f 2e       	mov	r3, r31
    568c:	08 c0       	rjmp	.+16     	; 0x569e <vfprintf+0xe6>
    568e:	8c 36       	cpi	r24, 0x6C	; 108
    5690:	21 f4       	brne	.+8      	; 0x569a <vfprintf+0xe2>
    5692:	83 2d       	mov	r24, r3
    5694:	80 68       	ori	r24, 0x80	; 128
    5696:	38 2e       	mov	r3, r24
    5698:	02 c0       	rjmp	.+4      	; 0x569e <vfprintf+0xe6>
    569a:	88 36       	cpi	r24, 0x68	; 104
    569c:	41 f4       	brne	.+16     	; 0x56ae <vfprintf+0xf6>
    569e:	f7 01       	movw	r30, r14
    56a0:	93 fd       	sbrc	r25, 3
    56a2:	85 91       	lpm	r24, Z+
    56a4:	93 ff       	sbrs	r25, 3
    56a6:	81 91       	ld	r24, Z+
    56a8:	7f 01       	movw	r14, r30
    56aa:	81 11       	cpse	r24, r1
    56ac:	b3 cf       	rjmp	.-154    	; 0x5614 <vfprintf+0x5c>
    56ae:	98 2f       	mov	r25, r24
    56b0:	9f 7d       	andi	r25, 0xDF	; 223
    56b2:	95 54       	subi	r25, 0x45	; 69
    56b4:	93 30       	cpi	r25, 0x03	; 3
    56b6:	28 f4       	brcc	.+10     	; 0x56c2 <vfprintf+0x10a>
    56b8:	0c 5f       	subi	r16, 0xFC	; 252
    56ba:	1f 4f       	sbci	r17, 0xFF	; 255
    56bc:	9f e3       	ldi	r25, 0x3F	; 63
    56be:	99 83       	std	Y+1, r25	; 0x01
    56c0:	0d c0       	rjmp	.+26     	; 0x56dc <vfprintf+0x124>
    56c2:	83 36       	cpi	r24, 0x63	; 99
    56c4:	31 f0       	breq	.+12     	; 0x56d2 <vfprintf+0x11a>
    56c6:	83 37       	cpi	r24, 0x73	; 115
    56c8:	71 f0       	breq	.+28     	; 0x56e6 <vfprintf+0x12e>
    56ca:	83 35       	cpi	r24, 0x53	; 83
    56cc:	09 f0       	breq	.+2      	; 0x56d0 <vfprintf+0x118>
    56ce:	59 c0       	rjmp	.+178    	; 0x5782 <vfprintf+0x1ca>
    56d0:	21 c0       	rjmp	.+66     	; 0x5714 <vfprintf+0x15c>
    56d2:	f8 01       	movw	r30, r16
    56d4:	80 81       	ld	r24, Z
    56d6:	89 83       	std	Y+1, r24	; 0x01
    56d8:	0e 5f       	subi	r16, 0xFE	; 254
    56da:	1f 4f       	sbci	r17, 0xFF	; 255
    56dc:	88 24       	eor	r8, r8
    56de:	83 94       	inc	r8
    56e0:	91 2c       	mov	r9, r1
    56e2:	53 01       	movw	r10, r6
    56e4:	13 c0       	rjmp	.+38     	; 0x570c <vfprintf+0x154>
    56e6:	28 01       	movw	r4, r16
    56e8:	f2 e0       	ldi	r31, 0x02	; 2
    56ea:	4f 0e       	add	r4, r31
    56ec:	51 1c       	adc	r5, r1
    56ee:	f8 01       	movw	r30, r16
    56f0:	a0 80       	ld	r10, Z
    56f2:	b1 80       	ldd	r11, Z+1	; 0x01
    56f4:	36 fe       	sbrs	r3, 6
    56f6:	03 c0       	rjmp	.+6      	; 0x56fe <vfprintf+0x146>
    56f8:	69 2d       	mov	r22, r9
    56fa:	70 e0       	ldi	r23, 0x00	; 0
    56fc:	02 c0       	rjmp	.+4      	; 0x5702 <vfprintf+0x14a>
    56fe:	6f ef       	ldi	r22, 0xFF	; 255
    5700:	7f ef       	ldi	r23, 0xFF	; 255
    5702:	c5 01       	movw	r24, r10
    5704:	0e 94 89 2f 	call	0x5f12	; 0x5f12 <strnlen>
    5708:	4c 01       	movw	r8, r24
    570a:	82 01       	movw	r16, r4
    570c:	f3 2d       	mov	r31, r3
    570e:	ff 77       	andi	r31, 0x7F	; 127
    5710:	3f 2e       	mov	r3, r31
    5712:	16 c0       	rjmp	.+44     	; 0x5740 <vfprintf+0x188>
    5714:	28 01       	movw	r4, r16
    5716:	22 e0       	ldi	r18, 0x02	; 2
    5718:	42 0e       	add	r4, r18
    571a:	51 1c       	adc	r5, r1
    571c:	f8 01       	movw	r30, r16
    571e:	a0 80       	ld	r10, Z
    5720:	b1 80       	ldd	r11, Z+1	; 0x01
    5722:	36 fe       	sbrs	r3, 6
    5724:	03 c0       	rjmp	.+6      	; 0x572c <vfprintf+0x174>
    5726:	69 2d       	mov	r22, r9
    5728:	70 e0       	ldi	r23, 0x00	; 0
    572a:	02 c0       	rjmp	.+4      	; 0x5730 <vfprintf+0x178>
    572c:	6f ef       	ldi	r22, 0xFF	; 255
    572e:	7f ef       	ldi	r23, 0xFF	; 255
    5730:	c5 01       	movw	r24, r10
    5732:	0e 94 7e 2f 	call	0x5efc	; 0x5efc <strnlen_P>
    5736:	4c 01       	movw	r8, r24
    5738:	f3 2d       	mov	r31, r3
    573a:	f0 68       	ori	r31, 0x80	; 128
    573c:	3f 2e       	mov	r3, r31
    573e:	82 01       	movw	r16, r4
    5740:	33 fc       	sbrc	r3, 3
    5742:	1b c0       	rjmp	.+54     	; 0x577a <vfprintf+0x1c2>
    5744:	82 2d       	mov	r24, r2
    5746:	90 e0       	ldi	r25, 0x00	; 0
    5748:	88 16       	cp	r8, r24
    574a:	99 06       	cpc	r9, r25
    574c:	b0 f4       	brcc	.+44     	; 0x577a <vfprintf+0x1c2>
    574e:	b6 01       	movw	r22, r12
    5750:	80 e2       	ldi	r24, 0x20	; 32
    5752:	90 e0       	ldi	r25, 0x00	; 0
    5754:	0e 94 d2 2f 	call	0x5fa4	; 0x5fa4 <fputc>
    5758:	2a 94       	dec	r2
    575a:	f4 cf       	rjmp	.-24     	; 0x5744 <vfprintf+0x18c>
    575c:	f5 01       	movw	r30, r10
    575e:	37 fc       	sbrc	r3, 7
    5760:	85 91       	lpm	r24, Z+
    5762:	37 fe       	sbrs	r3, 7
    5764:	81 91       	ld	r24, Z+
    5766:	5f 01       	movw	r10, r30
    5768:	b6 01       	movw	r22, r12
    576a:	90 e0       	ldi	r25, 0x00	; 0
    576c:	0e 94 d2 2f 	call	0x5fa4	; 0x5fa4 <fputc>
    5770:	21 10       	cpse	r2, r1
    5772:	2a 94       	dec	r2
    5774:	21 e0       	ldi	r18, 0x01	; 1
    5776:	82 1a       	sub	r8, r18
    5778:	91 08       	sbc	r9, r1
    577a:	81 14       	cp	r8, r1
    577c:	91 04       	cpc	r9, r1
    577e:	71 f7       	brne	.-36     	; 0x575c <vfprintf+0x1a4>
    5780:	e8 c0       	rjmp	.+464    	; 0x5952 <vfprintf+0x39a>
    5782:	84 36       	cpi	r24, 0x64	; 100
    5784:	11 f0       	breq	.+4      	; 0x578a <vfprintf+0x1d2>
    5786:	89 36       	cpi	r24, 0x69	; 105
    5788:	41 f5       	brne	.+80     	; 0x57da <vfprintf+0x222>
    578a:	f8 01       	movw	r30, r16
    578c:	37 fe       	sbrs	r3, 7
    578e:	07 c0       	rjmp	.+14     	; 0x579e <vfprintf+0x1e6>
    5790:	60 81       	ld	r22, Z
    5792:	71 81       	ldd	r23, Z+1	; 0x01
    5794:	82 81       	ldd	r24, Z+2	; 0x02
    5796:	93 81       	ldd	r25, Z+3	; 0x03
    5798:	0c 5f       	subi	r16, 0xFC	; 252
    579a:	1f 4f       	sbci	r17, 0xFF	; 255
    579c:	08 c0       	rjmp	.+16     	; 0x57ae <vfprintf+0x1f6>
    579e:	60 81       	ld	r22, Z
    57a0:	71 81       	ldd	r23, Z+1	; 0x01
    57a2:	07 2e       	mov	r0, r23
    57a4:	00 0c       	add	r0, r0
    57a6:	88 0b       	sbc	r24, r24
    57a8:	99 0b       	sbc	r25, r25
    57aa:	0e 5f       	subi	r16, 0xFE	; 254
    57ac:	1f 4f       	sbci	r17, 0xFF	; 255
    57ae:	f3 2d       	mov	r31, r3
    57b0:	ff 76       	andi	r31, 0x6F	; 111
    57b2:	3f 2e       	mov	r3, r31
    57b4:	97 ff       	sbrs	r25, 7
    57b6:	09 c0       	rjmp	.+18     	; 0x57ca <vfprintf+0x212>
    57b8:	90 95       	com	r25
    57ba:	80 95       	com	r24
    57bc:	70 95       	com	r23
    57be:	61 95       	neg	r22
    57c0:	7f 4f       	sbci	r23, 0xFF	; 255
    57c2:	8f 4f       	sbci	r24, 0xFF	; 255
    57c4:	9f 4f       	sbci	r25, 0xFF	; 255
    57c6:	f0 68       	ori	r31, 0x80	; 128
    57c8:	3f 2e       	mov	r3, r31
    57ca:	2a e0       	ldi	r18, 0x0A	; 10
    57cc:	30 e0       	ldi	r19, 0x00	; 0
    57ce:	a3 01       	movw	r20, r6
    57d0:	0e 94 27 30 	call	0x604e	; 0x604e <__ultoa_invert>
    57d4:	88 2e       	mov	r8, r24
    57d6:	86 18       	sub	r8, r6
    57d8:	45 c0       	rjmp	.+138    	; 0x5864 <vfprintf+0x2ac>
    57da:	85 37       	cpi	r24, 0x75	; 117
    57dc:	31 f4       	brne	.+12     	; 0x57ea <vfprintf+0x232>
    57de:	23 2d       	mov	r18, r3
    57e0:	2f 7e       	andi	r18, 0xEF	; 239
    57e2:	b2 2e       	mov	r11, r18
    57e4:	2a e0       	ldi	r18, 0x0A	; 10
    57e6:	30 e0       	ldi	r19, 0x00	; 0
    57e8:	25 c0       	rjmp	.+74     	; 0x5834 <vfprintf+0x27c>
    57ea:	93 2d       	mov	r25, r3
    57ec:	99 7f       	andi	r25, 0xF9	; 249
    57ee:	b9 2e       	mov	r11, r25
    57f0:	8f 36       	cpi	r24, 0x6F	; 111
    57f2:	c1 f0       	breq	.+48     	; 0x5824 <vfprintf+0x26c>
    57f4:	18 f4       	brcc	.+6      	; 0x57fc <vfprintf+0x244>
    57f6:	88 35       	cpi	r24, 0x58	; 88
    57f8:	79 f0       	breq	.+30     	; 0x5818 <vfprintf+0x260>
    57fa:	b5 c0       	rjmp	.+362    	; 0x5966 <vfprintf+0x3ae>
    57fc:	80 37       	cpi	r24, 0x70	; 112
    57fe:	19 f0       	breq	.+6      	; 0x5806 <vfprintf+0x24e>
    5800:	88 37       	cpi	r24, 0x78	; 120
    5802:	21 f0       	breq	.+8      	; 0x580c <vfprintf+0x254>
    5804:	b0 c0       	rjmp	.+352    	; 0x5966 <vfprintf+0x3ae>
    5806:	e9 2f       	mov	r30, r25
    5808:	e0 61       	ori	r30, 0x10	; 16
    580a:	be 2e       	mov	r11, r30
    580c:	b4 fe       	sbrs	r11, 4
    580e:	0d c0       	rjmp	.+26     	; 0x582a <vfprintf+0x272>
    5810:	fb 2d       	mov	r31, r11
    5812:	f4 60       	ori	r31, 0x04	; 4
    5814:	bf 2e       	mov	r11, r31
    5816:	09 c0       	rjmp	.+18     	; 0x582a <vfprintf+0x272>
    5818:	34 fe       	sbrs	r3, 4
    581a:	0a c0       	rjmp	.+20     	; 0x5830 <vfprintf+0x278>
    581c:	29 2f       	mov	r18, r25
    581e:	26 60       	ori	r18, 0x06	; 6
    5820:	b2 2e       	mov	r11, r18
    5822:	06 c0       	rjmp	.+12     	; 0x5830 <vfprintf+0x278>
    5824:	28 e0       	ldi	r18, 0x08	; 8
    5826:	30 e0       	ldi	r19, 0x00	; 0
    5828:	05 c0       	rjmp	.+10     	; 0x5834 <vfprintf+0x27c>
    582a:	20 e1       	ldi	r18, 0x10	; 16
    582c:	30 e0       	ldi	r19, 0x00	; 0
    582e:	02 c0       	rjmp	.+4      	; 0x5834 <vfprintf+0x27c>
    5830:	20 e1       	ldi	r18, 0x10	; 16
    5832:	32 e0       	ldi	r19, 0x02	; 2
    5834:	f8 01       	movw	r30, r16
    5836:	b7 fe       	sbrs	r11, 7
    5838:	07 c0       	rjmp	.+14     	; 0x5848 <vfprintf+0x290>
    583a:	60 81       	ld	r22, Z
    583c:	71 81       	ldd	r23, Z+1	; 0x01
    583e:	82 81       	ldd	r24, Z+2	; 0x02
    5840:	93 81       	ldd	r25, Z+3	; 0x03
    5842:	0c 5f       	subi	r16, 0xFC	; 252
    5844:	1f 4f       	sbci	r17, 0xFF	; 255
    5846:	06 c0       	rjmp	.+12     	; 0x5854 <vfprintf+0x29c>
    5848:	60 81       	ld	r22, Z
    584a:	71 81       	ldd	r23, Z+1	; 0x01
    584c:	80 e0       	ldi	r24, 0x00	; 0
    584e:	90 e0       	ldi	r25, 0x00	; 0
    5850:	0e 5f       	subi	r16, 0xFE	; 254
    5852:	1f 4f       	sbci	r17, 0xFF	; 255
    5854:	a3 01       	movw	r20, r6
    5856:	0e 94 27 30 	call	0x604e	; 0x604e <__ultoa_invert>
    585a:	88 2e       	mov	r8, r24
    585c:	86 18       	sub	r8, r6
    585e:	fb 2d       	mov	r31, r11
    5860:	ff 77       	andi	r31, 0x7F	; 127
    5862:	3f 2e       	mov	r3, r31
    5864:	36 fe       	sbrs	r3, 6
    5866:	0d c0       	rjmp	.+26     	; 0x5882 <vfprintf+0x2ca>
    5868:	23 2d       	mov	r18, r3
    586a:	2e 7f       	andi	r18, 0xFE	; 254
    586c:	a2 2e       	mov	r10, r18
    586e:	89 14       	cp	r8, r9
    5870:	58 f4       	brcc	.+22     	; 0x5888 <vfprintf+0x2d0>
    5872:	34 fe       	sbrs	r3, 4
    5874:	0b c0       	rjmp	.+22     	; 0x588c <vfprintf+0x2d4>
    5876:	32 fc       	sbrc	r3, 2
    5878:	09 c0       	rjmp	.+18     	; 0x588c <vfprintf+0x2d4>
    587a:	83 2d       	mov	r24, r3
    587c:	8e 7e       	andi	r24, 0xEE	; 238
    587e:	a8 2e       	mov	r10, r24
    5880:	05 c0       	rjmp	.+10     	; 0x588c <vfprintf+0x2d4>
    5882:	b8 2c       	mov	r11, r8
    5884:	a3 2c       	mov	r10, r3
    5886:	03 c0       	rjmp	.+6      	; 0x588e <vfprintf+0x2d6>
    5888:	b8 2c       	mov	r11, r8
    588a:	01 c0       	rjmp	.+2      	; 0x588e <vfprintf+0x2d6>
    588c:	b9 2c       	mov	r11, r9
    588e:	a4 fe       	sbrs	r10, 4
    5890:	0f c0       	rjmp	.+30     	; 0x58b0 <vfprintf+0x2f8>
    5892:	fe 01       	movw	r30, r28
    5894:	e8 0d       	add	r30, r8
    5896:	f1 1d       	adc	r31, r1
    5898:	80 81       	ld	r24, Z
    589a:	80 33       	cpi	r24, 0x30	; 48
    589c:	21 f4       	brne	.+8      	; 0x58a6 <vfprintf+0x2ee>
    589e:	9a 2d       	mov	r25, r10
    58a0:	99 7e       	andi	r25, 0xE9	; 233
    58a2:	a9 2e       	mov	r10, r25
    58a4:	09 c0       	rjmp	.+18     	; 0x58b8 <vfprintf+0x300>
    58a6:	a2 fe       	sbrs	r10, 2
    58a8:	06 c0       	rjmp	.+12     	; 0x58b6 <vfprintf+0x2fe>
    58aa:	b3 94       	inc	r11
    58ac:	b3 94       	inc	r11
    58ae:	04 c0       	rjmp	.+8      	; 0x58b8 <vfprintf+0x300>
    58b0:	8a 2d       	mov	r24, r10
    58b2:	86 78       	andi	r24, 0x86	; 134
    58b4:	09 f0       	breq	.+2      	; 0x58b8 <vfprintf+0x300>
    58b6:	b3 94       	inc	r11
    58b8:	a3 fc       	sbrc	r10, 3
    58ba:	11 c0       	rjmp	.+34     	; 0x58de <vfprintf+0x326>
    58bc:	a0 fe       	sbrs	r10, 0
    58be:	06 c0       	rjmp	.+12     	; 0x58cc <vfprintf+0x314>
    58c0:	b2 14       	cp	r11, r2
    58c2:	88 f4       	brcc	.+34     	; 0x58e6 <vfprintf+0x32e>
    58c4:	28 0c       	add	r2, r8
    58c6:	92 2c       	mov	r9, r2
    58c8:	9b 18       	sub	r9, r11
    58ca:	0e c0       	rjmp	.+28     	; 0x58e8 <vfprintf+0x330>
    58cc:	b2 14       	cp	r11, r2
    58ce:	60 f4       	brcc	.+24     	; 0x58e8 <vfprintf+0x330>
    58d0:	b6 01       	movw	r22, r12
    58d2:	80 e2       	ldi	r24, 0x20	; 32
    58d4:	90 e0       	ldi	r25, 0x00	; 0
    58d6:	0e 94 d2 2f 	call	0x5fa4	; 0x5fa4 <fputc>
    58da:	b3 94       	inc	r11
    58dc:	f7 cf       	rjmp	.-18     	; 0x58cc <vfprintf+0x314>
    58de:	b2 14       	cp	r11, r2
    58e0:	18 f4       	brcc	.+6      	; 0x58e8 <vfprintf+0x330>
    58e2:	2b 18       	sub	r2, r11
    58e4:	02 c0       	rjmp	.+4      	; 0x58ea <vfprintf+0x332>
    58e6:	98 2c       	mov	r9, r8
    58e8:	21 2c       	mov	r2, r1
    58ea:	a4 fe       	sbrs	r10, 4
    58ec:	10 c0       	rjmp	.+32     	; 0x590e <vfprintf+0x356>
    58ee:	b6 01       	movw	r22, r12
    58f0:	80 e3       	ldi	r24, 0x30	; 48
    58f2:	90 e0       	ldi	r25, 0x00	; 0
    58f4:	0e 94 d2 2f 	call	0x5fa4	; 0x5fa4 <fputc>
    58f8:	a2 fe       	sbrs	r10, 2
    58fa:	17 c0       	rjmp	.+46     	; 0x592a <vfprintf+0x372>
    58fc:	a1 fc       	sbrc	r10, 1
    58fe:	03 c0       	rjmp	.+6      	; 0x5906 <vfprintf+0x34e>
    5900:	88 e7       	ldi	r24, 0x78	; 120
    5902:	90 e0       	ldi	r25, 0x00	; 0
    5904:	02 c0       	rjmp	.+4      	; 0x590a <vfprintf+0x352>
    5906:	88 e5       	ldi	r24, 0x58	; 88
    5908:	90 e0       	ldi	r25, 0x00	; 0
    590a:	b6 01       	movw	r22, r12
    590c:	0c c0       	rjmp	.+24     	; 0x5926 <vfprintf+0x36e>
    590e:	8a 2d       	mov	r24, r10
    5910:	86 78       	andi	r24, 0x86	; 134
    5912:	59 f0       	breq	.+22     	; 0x592a <vfprintf+0x372>
    5914:	a1 fe       	sbrs	r10, 1
    5916:	02 c0       	rjmp	.+4      	; 0x591c <vfprintf+0x364>
    5918:	8b e2       	ldi	r24, 0x2B	; 43
    591a:	01 c0       	rjmp	.+2      	; 0x591e <vfprintf+0x366>
    591c:	80 e2       	ldi	r24, 0x20	; 32
    591e:	a7 fc       	sbrc	r10, 7
    5920:	8d e2       	ldi	r24, 0x2D	; 45
    5922:	b6 01       	movw	r22, r12
    5924:	90 e0       	ldi	r25, 0x00	; 0
    5926:	0e 94 d2 2f 	call	0x5fa4	; 0x5fa4 <fputc>
    592a:	89 14       	cp	r8, r9
    592c:	38 f4       	brcc	.+14     	; 0x593c <vfprintf+0x384>
    592e:	b6 01       	movw	r22, r12
    5930:	80 e3       	ldi	r24, 0x30	; 48
    5932:	90 e0       	ldi	r25, 0x00	; 0
    5934:	0e 94 d2 2f 	call	0x5fa4	; 0x5fa4 <fputc>
    5938:	9a 94       	dec	r9
    593a:	f7 cf       	rjmp	.-18     	; 0x592a <vfprintf+0x372>
    593c:	8a 94       	dec	r8
    593e:	f3 01       	movw	r30, r6
    5940:	e8 0d       	add	r30, r8
    5942:	f1 1d       	adc	r31, r1
    5944:	80 81       	ld	r24, Z
    5946:	b6 01       	movw	r22, r12
    5948:	90 e0       	ldi	r25, 0x00	; 0
    594a:	0e 94 d2 2f 	call	0x5fa4	; 0x5fa4 <fputc>
    594e:	81 10       	cpse	r8, r1
    5950:	f5 cf       	rjmp	.-22     	; 0x593c <vfprintf+0x384>
    5952:	22 20       	and	r2, r2
    5954:	09 f4       	brne	.+2      	; 0x5958 <vfprintf+0x3a0>
    5956:	42 ce       	rjmp	.-892    	; 0x55dc <vfprintf+0x24>
    5958:	b6 01       	movw	r22, r12
    595a:	80 e2       	ldi	r24, 0x20	; 32
    595c:	90 e0       	ldi	r25, 0x00	; 0
    595e:	0e 94 d2 2f 	call	0x5fa4	; 0x5fa4 <fputc>
    5962:	2a 94       	dec	r2
    5964:	f6 cf       	rjmp	.-20     	; 0x5952 <vfprintf+0x39a>
    5966:	f6 01       	movw	r30, r12
    5968:	86 81       	ldd	r24, Z+6	; 0x06
    596a:	97 81       	ldd	r25, Z+7	; 0x07
    596c:	02 c0       	rjmp	.+4      	; 0x5972 <vfprintf+0x3ba>
    596e:	8f ef       	ldi	r24, 0xFF	; 255
    5970:	9f ef       	ldi	r25, 0xFF	; 255
    5972:	2b 96       	adiw	r28, 0x0b	; 11
    5974:	e2 e1       	ldi	r30, 0x12	; 18
    5976:	0c 94 a4 30 	jmp	0x6148	; 0x6148 <__epilogue_restores__>

0000597a <putval>:
    597a:	20 fd       	sbrc	r18, 0
    597c:	09 c0       	rjmp	.+18     	; 0x5990 <putval+0x16>
    597e:	fc 01       	movw	r30, r24
    5980:	23 fd       	sbrc	r18, 3
    5982:	05 c0       	rjmp	.+10     	; 0x598e <putval+0x14>
    5984:	22 ff       	sbrs	r18, 2
    5986:	02 c0       	rjmp	.+4      	; 0x598c <putval+0x12>
    5988:	73 83       	std	Z+3, r23	; 0x03
    598a:	62 83       	std	Z+2, r22	; 0x02
    598c:	51 83       	std	Z+1, r21	; 0x01
    598e:	40 83       	st	Z, r20
    5990:	08 95       	ret

00005992 <mulacc>:
    5992:	44 fd       	sbrc	r20, 4
    5994:	17 c0       	rjmp	.+46     	; 0x59c4 <mulacc+0x32>
    5996:	46 fd       	sbrc	r20, 6
    5998:	17 c0       	rjmp	.+46     	; 0x59c8 <mulacc+0x36>
    599a:	ab 01       	movw	r20, r22
    599c:	bc 01       	movw	r22, r24
    599e:	da 01       	movw	r26, r20
    59a0:	fb 01       	movw	r30, r22
    59a2:	aa 0f       	add	r26, r26
    59a4:	bb 1f       	adc	r27, r27
    59a6:	ee 1f       	adc	r30, r30
    59a8:	ff 1f       	adc	r31, r31
    59aa:	10 94       	com	r1
    59ac:	d1 f7       	brne	.-12     	; 0x59a2 <mulacc+0x10>
    59ae:	4a 0f       	add	r20, r26
    59b0:	5b 1f       	adc	r21, r27
    59b2:	6e 1f       	adc	r22, r30
    59b4:	7f 1f       	adc	r23, r31
    59b6:	cb 01       	movw	r24, r22
    59b8:	ba 01       	movw	r22, r20
    59ba:	66 0f       	add	r22, r22
    59bc:	77 1f       	adc	r23, r23
    59be:	88 1f       	adc	r24, r24
    59c0:	99 1f       	adc	r25, r25
    59c2:	09 c0       	rjmp	.+18     	; 0x59d6 <mulacc+0x44>
    59c4:	33 e0       	ldi	r19, 0x03	; 3
    59c6:	01 c0       	rjmp	.+2      	; 0x59ca <mulacc+0x38>
    59c8:	34 e0       	ldi	r19, 0x04	; 4
    59ca:	66 0f       	add	r22, r22
    59cc:	77 1f       	adc	r23, r23
    59ce:	88 1f       	adc	r24, r24
    59d0:	99 1f       	adc	r25, r25
    59d2:	31 50       	subi	r19, 0x01	; 1
    59d4:	d1 f7       	brne	.-12     	; 0x59ca <mulacc+0x38>
    59d6:	62 0f       	add	r22, r18
    59d8:	71 1d       	adc	r23, r1
    59da:	81 1d       	adc	r24, r1
    59dc:	91 1d       	adc	r25, r1
    59de:	08 95       	ret

000059e0 <skip_spaces>:
    59e0:	0f 93       	push	r16
    59e2:	1f 93       	push	r17
    59e4:	cf 93       	push	r28
    59e6:	df 93       	push	r29
    59e8:	8c 01       	movw	r16, r24
    59ea:	c8 01       	movw	r24, r16
    59ec:	0e 94 94 2f 	call	0x5f28	; 0x5f28 <fgetc>
    59f0:	ec 01       	movw	r28, r24
    59f2:	97 fd       	sbrc	r25, 7
    59f4:	08 c0       	rjmp	.+16     	; 0x5a06 <skip_spaces+0x26>
    59f6:	0e 94 6a 2f 	call	0x5ed4	; 0x5ed4 <isspace>
    59fa:	89 2b       	or	r24, r25
    59fc:	b1 f7       	brne	.-20     	; 0x59ea <skip_spaces+0xa>
    59fe:	b8 01       	movw	r22, r16
    5a00:	ce 01       	movw	r24, r28
    5a02:	0e 94 0e 30 	call	0x601c	; 0x601c <ungetc>
    5a06:	ce 01       	movw	r24, r28
    5a08:	df 91       	pop	r29
    5a0a:	cf 91       	pop	r28
    5a0c:	1f 91       	pop	r17
    5a0e:	0f 91       	pop	r16
    5a10:	08 95       	ret

00005a12 <conv_int>:
    5a12:	8f 92       	push	r8
    5a14:	9f 92       	push	r9
    5a16:	af 92       	push	r10
    5a18:	bf 92       	push	r11
    5a1a:	ef 92       	push	r14
    5a1c:	ff 92       	push	r15
    5a1e:	0f 93       	push	r16
    5a20:	1f 93       	push	r17
    5a22:	cf 93       	push	r28
    5a24:	df 93       	push	r29
    5a26:	8c 01       	movw	r16, r24
    5a28:	d6 2f       	mov	r29, r22
    5a2a:	7a 01       	movw	r14, r20
    5a2c:	b2 2e       	mov	r11, r18
    5a2e:	0e 94 94 2f 	call	0x5f28	; 0x5f28 <fgetc>
    5a32:	9c 01       	movw	r18, r24
    5a34:	33 27       	eor	r19, r19
    5a36:	2b 32       	cpi	r18, 0x2B	; 43
    5a38:	31 05       	cpc	r19, r1
    5a3a:	31 f0       	breq	.+12     	; 0x5a48 <conv_int+0x36>
    5a3c:	2d 32       	cpi	r18, 0x2D	; 45
    5a3e:	31 05       	cpc	r19, r1
    5a40:	61 f4       	brne	.+24     	; 0x5a5a <conv_int+0x48>
    5a42:	8b 2d       	mov	r24, r11
    5a44:	80 68       	ori	r24, 0x80	; 128
    5a46:	b8 2e       	mov	r11, r24
    5a48:	d1 50       	subi	r29, 0x01	; 1
    5a4a:	11 f4       	brne	.+4      	; 0x5a50 <conv_int+0x3e>
    5a4c:	80 e0       	ldi	r24, 0x00	; 0
    5a4e:	68 c0       	rjmp	.+208    	; 0x5b20 <conv_int+0x10e>
    5a50:	c8 01       	movw	r24, r16
    5a52:	0e 94 94 2f 	call	0x5f28	; 0x5f28 <fgetc>
    5a56:	97 fd       	sbrc	r25, 7
    5a58:	f9 cf       	rjmp	.-14     	; 0x5a4c <conv_int+0x3a>
    5a5a:	cb 2d       	mov	r28, r11
    5a5c:	cd 7f       	andi	r28, 0xFD	; 253
    5a5e:	2b 2d       	mov	r18, r11
    5a60:	20 73       	andi	r18, 0x30	; 48
    5a62:	09 f5       	brne	.+66     	; 0x5aa6 <conv_int+0x94>
    5a64:	80 33       	cpi	r24, 0x30	; 48
    5a66:	f9 f4       	brne	.+62     	; 0x5aa6 <conv_int+0x94>
    5a68:	aa 24       	eor	r10, r10
    5a6a:	aa 94       	dec	r10
    5a6c:	ad 0e       	add	r10, r29
    5a6e:	09 f4       	brne	.+2      	; 0x5a72 <conv_int+0x60>
    5a70:	43 c0       	rjmp	.+134    	; 0x5af8 <conv_int+0xe6>
    5a72:	c8 01       	movw	r24, r16
    5a74:	0e 94 94 2f 	call	0x5f28	; 0x5f28 <fgetc>
    5a78:	97 fd       	sbrc	r25, 7
    5a7a:	3e c0       	rjmp	.+124    	; 0x5af8 <conv_int+0xe6>
    5a7c:	9c 01       	movw	r18, r24
    5a7e:	2f 7d       	andi	r18, 0xDF	; 223
    5a80:	33 27       	eor	r19, r19
    5a82:	28 35       	cpi	r18, 0x58	; 88
    5a84:	31 05       	cpc	r19, r1
    5a86:	49 f4       	brne	.+18     	; 0x5a9a <conv_int+0x88>
    5a88:	c2 64       	ori	r28, 0x42	; 66
    5a8a:	d2 50       	subi	r29, 0x02	; 2
    5a8c:	a9 f1       	breq	.+106    	; 0x5af8 <conv_int+0xe6>
    5a8e:	c8 01       	movw	r24, r16
    5a90:	0e 94 94 2f 	call	0x5f28	; 0x5f28 <fgetc>
    5a94:	97 ff       	sbrs	r25, 7
    5a96:	07 c0       	rjmp	.+14     	; 0x5aa6 <conv_int+0x94>
    5a98:	2f c0       	rjmp	.+94     	; 0x5af8 <conv_int+0xe6>
    5a9a:	b6 fe       	sbrs	r11, 6
    5a9c:	02 c0       	rjmp	.+4      	; 0x5aa2 <conv_int+0x90>
    5a9e:	c2 60       	ori	r28, 0x02	; 2
    5aa0:	01 c0       	rjmp	.+2      	; 0x5aa4 <conv_int+0x92>
    5aa2:	c2 61       	ori	r28, 0x12	; 18
    5aa4:	da 2d       	mov	r29, r10
    5aa6:	81 2c       	mov	r8, r1
    5aa8:	91 2c       	mov	r9, r1
    5aaa:	54 01       	movw	r10, r8
    5aac:	20 ed       	ldi	r18, 0xD0	; 208
    5aae:	28 0f       	add	r18, r24
    5ab0:	28 30       	cpi	r18, 0x08	; 8
    5ab2:	80 f0       	brcs	.+32     	; 0x5ad4 <conv_int+0xc2>
    5ab4:	c4 ff       	sbrs	r28, 4
    5ab6:	04 c0       	rjmp	.+8      	; 0x5ac0 <conv_int+0xae>
    5ab8:	b8 01       	movw	r22, r16
    5aba:	0e 94 0e 30 	call	0x601c	; 0x601c <ungetc>
    5abe:	19 c0       	rjmp	.+50     	; 0x5af2 <conv_int+0xe0>
    5ac0:	2a 30       	cpi	r18, 0x0A	; 10
    5ac2:	40 f0       	brcs	.+16     	; 0x5ad4 <conv_int+0xc2>
    5ac4:	c6 ff       	sbrs	r28, 6
    5ac6:	f8 cf       	rjmp	.-16     	; 0x5ab8 <conv_int+0xa6>
    5ac8:	2f 7d       	andi	r18, 0xDF	; 223
    5aca:	3f ee       	ldi	r19, 0xEF	; 239
    5acc:	32 0f       	add	r19, r18
    5ace:	36 30       	cpi	r19, 0x06	; 6
    5ad0:	98 f7       	brcc	.-26     	; 0x5ab8 <conv_int+0xa6>
    5ad2:	27 50       	subi	r18, 0x07	; 7
    5ad4:	4c 2f       	mov	r20, r28
    5ad6:	c5 01       	movw	r24, r10
    5ad8:	b4 01       	movw	r22, r8
    5ada:	0e 94 c9 2c 	call	0x5992	; 0x5992 <mulacc>
    5ade:	4b 01       	movw	r8, r22
    5ae0:	5c 01       	movw	r10, r24
    5ae2:	c2 60       	ori	r28, 0x02	; 2
    5ae4:	d1 50       	subi	r29, 0x01	; 1
    5ae6:	59 f0       	breq	.+22     	; 0x5afe <conv_int+0xec>
    5ae8:	c8 01       	movw	r24, r16
    5aea:	0e 94 94 2f 	call	0x5f28	; 0x5f28 <fgetc>
    5aee:	97 ff       	sbrs	r25, 7
    5af0:	dd cf       	rjmp	.-70     	; 0x5aac <conv_int+0x9a>
    5af2:	c1 fd       	sbrc	r28, 1
    5af4:	04 c0       	rjmp	.+8      	; 0x5afe <conv_int+0xec>
    5af6:	aa cf       	rjmp	.-172    	; 0x5a4c <conv_int+0x3a>
    5af8:	81 2c       	mov	r8, r1
    5afa:	91 2c       	mov	r9, r1
    5afc:	54 01       	movw	r10, r8
    5afe:	c7 ff       	sbrs	r28, 7
    5b00:	08 c0       	rjmp	.+16     	; 0x5b12 <conv_int+0x100>
    5b02:	b0 94       	com	r11
    5b04:	a0 94       	com	r10
    5b06:	90 94       	com	r9
    5b08:	80 94       	com	r8
    5b0a:	81 1c       	adc	r8, r1
    5b0c:	91 1c       	adc	r9, r1
    5b0e:	a1 1c       	adc	r10, r1
    5b10:	b1 1c       	adc	r11, r1
    5b12:	2c 2f       	mov	r18, r28
    5b14:	b5 01       	movw	r22, r10
    5b16:	a4 01       	movw	r20, r8
    5b18:	c7 01       	movw	r24, r14
    5b1a:	0e 94 bd 2c 	call	0x597a	; 0x597a <putval>
    5b1e:	81 e0       	ldi	r24, 0x01	; 1
    5b20:	df 91       	pop	r29
    5b22:	cf 91       	pop	r28
    5b24:	1f 91       	pop	r17
    5b26:	0f 91       	pop	r16
    5b28:	ff 90       	pop	r15
    5b2a:	ef 90       	pop	r14
    5b2c:	bf 90       	pop	r11
    5b2e:	af 90       	pop	r10
    5b30:	9f 90       	pop	r9
    5b32:	8f 90       	pop	r8
    5b34:	08 95       	ret

00005b36 <conv_brk>:
    5b36:	a0 e2       	ldi	r26, 0x20	; 32
    5b38:	b0 e0       	ldi	r27, 0x00	; 0
    5b3a:	e1 ea       	ldi	r30, 0xA1	; 161
    5b3c:	fd e2       	ldi	r31, 0x2D	; 45
    5b3e:	0c 94 8b 30 	jmp	0x6116	; 0x6116 <__prologue_saves__+0x6>
    5b42:	5c 01       	movw	r10, r24
    5b44:	96 2e       	mov	r9, r22
    5b46:	7a 01       	movw	r14, r20
    5b48:	f9 01       	movw	r30, r18
    5b4a:	8e 01       	movw	r16, r28
    5b4c:	0f 5f       	subi	r16, 0xFF	; 255
    5b4e:	1f 4f       	sbci	r17, 0xFF	; 255
    5b50:	68 01       	movw	r12, r16
    5b52:	80 e2       	ldi	r24, 0x20	; 32
    5b54:	d8 01       	movw	r26, r16
    5b56:	1d 92       	st	X+, r1
    5b58:	8a 95       	dec	r24
    5b5a:	e9 f7       	brne	.-6      	; 0x5b56 <conv_brk+0x20>
    5b5c:	d5 01       	movw	r26, r10
    5b5e:	13 96       	adiw	r26, 0x03	; 3
    5b60:	8c 90       	ld	r8, X
    5b62:	80 e0       	ldi	r24, 0x00	; 0
    5b64:	90 e0       	ldi	r25, 0x00	; 0
    5b66:	61 2c       	mov	r6, r1
    5b68:	71 2c       	mov	r7, r1
    5b6a:	30 e0       	ldi	r19, 0x00	; 0
    5b6c:	61 e0       	ldi	r22, 0x01	; 1
    5b6e:	70 e0       	ldi	r23, 0x00	; 0
    5b70:	83 fc       	sbrc	r8, 3
    5b72:	25 91       	lpm	r18, Z+
    5b74:	83 fe       	sbrs	r8, 3
    5b76:	21 91       	ld	r18, Z+
    5b78:	8f 01       	movw	r16, r30
    5b7a:	52 2e       	mov	r5, r18
    5b7c:	21 11       	cpse	r18, r1
    5b7e:	03 c0       	rjmp	.+6      	; 0x5b86 <conv_brk+0x50>
    5b80:	80 e0       	ldi	r24, 0x00	; 0
    5b82:	90 e0       	ldi	r25, 0x00	; 0
    5b84:	92 c0       	rjmp	.+292    	; 0x5caa <conv_brk+0x174>
    5b86:	2e 35       	cpi	r18, 0x5E	; 94
    5b88:	11 f4       	brne	.+4      	; 0x5b8e <conv_brk+0x58>
    5b8a:	00 97       	sbiw	r24, 0x00	; 0
    5b8c:	51 f1       	breq	.+84     	; 0x5be2 <conv_brk+0xac>
    5b8e:	43 2f       	mov	r20, r19
    5b90:	50 e0       	ldi	r21, 0x00	; 0
    5b92:	48 17       	cp	r20, r24
    5b94:	59 07       	cpc	r21, r25
    5b96:	3c f4       	brge	.+14     	; 0x5ba6 <conv_brk+0x70>
    5b98:	2d 35       	cpi	r18, 0x5D	; 93
    5b9a:	59 f1       	breq	.+86     	; 0x5bf2 <conv_brk+0xbc>
    5b9c:	2d 32       	cpi	r18, 0x2D	; 45
    5b9e:	19 f4       	brne	.+6      	; 0x5ba6 <conv_brk+0x70>
    5ba0:	77 20       	and	r7, r7
    5ba2:	09 f1       	breq	.+66     	; 0x5be6 <conv_brk+0xb0>
    5ba4:	03 c0       	rjmp	.+6      	; 0x5bac <conv_brk+0x76>
    5ba6:	77 20       	and	r7, r7
    5ba8:	09 f4       	brne	.+2      	; 0x5bac <conv_brk+0x76>
    5baa:	6a c0       	rjmp	.+212    	; 0x5c80 <conv_brk+0x14a>
    5bac:	45 2d       	mov	r20, r5
    5bae:	46 95       	lsr	r20
    5bb0:	46 95       	lsr	r20
    5bb2:	46 95       	lsr	r20
    5bb4:	d6 01       	movw	r26, r12
    5bb6:	a4 0f       	add	r26, r20
    5bb8:	b1 1d       	adc	r27, r1
    5bba:	45 2d       	mov	r20, r5
    5bbc:	47 70       	andi	r20, 0x07	; 7
    5bbe:	8b 01       	movw	r16, r22
    5bc0:	02 c0       	rjmp	.+4      	; 0x5bc6 <conv_brk+0x90>
    5bc2:	00 0f       	add	r16, r16
    5bc4:	11 1f       	adc	r17, r17
    5bc6:	4a 95       	dec	r20
    5bc8:	e2 f7       	brpl	.-8      	; 0x5bc2 <conv_brk+0x8c>
    5bca:	a8 01       	movw	r20, r16
    5bcc:	5c 91       	ld	r21, X
    5bce:	45 2b       	or	r20, r21
    5bd0:	4c 93       	st	X, r20
    5bd2:	65 14       	cp	r6, r5
    5bd4:	59 f0       	breq	.+22     	; 0x5bec <conv_brk+0xb6>
    5bd6:	56 14       	cp	r5, r6
    5bd8:	10 f4       	brcc	.+4      	; 0x5bde <conv_brk+0xa8>
    5bda:	53 94       	inc	r5
    5bdc:	e7 cf       	rjmp	.-50     	; 0x5bac <conv_brk+0x76>
    5bde:	5a 94       	dec	r5
    5be0:	e5 cf       	rjmp	.-54     	; 0x5bac <conv_brk+0x76>
    5be2:	31 e0       	ldi	r19, 0x01	; 1
    5be4:	04 c0       	rjmp	.+8      	; 0x5bee <conv_brk+0xb8>
    5be6:	77 24       	eor	r7, r7
    5be8:	73 94       	inc	r7
    5bea:	01 c0       	rjmp	.+2      	; 0x5bee <conv_brk+0xb8>
    5bec:	71 2c       	mov	r7, r1
    5bee:	01 96       	adiw	r24, 0x01	; 1
    5bf0:	bf cf       	rjmp	.-130    	; 0x5b70 <conv_brk+0x3a>
    5bf2:	77 20       	and	r7, r7
    5bf4:	19 f0       	breq	.+6      	; 0x5bfc <conv_brk+0xc6>
    5bf6:	8e 81       	ldd	r24, Y+6	; 0x06
    5bf8:	80 62       	ori	r24, 0x20	; 32
    5bfa:	8e 83       	std	Y+6, r24	; 0x06
    5bfc:	31 11       	cpse	r19, r1
    5bfe:	03 c0       	rjmp	.+6      	; 0x5c06 <conv_brk+0xd0>
    5c00:	88 24       	eor	r8, r8
    5c02:	83 94       	inc	r8
    5c04:	17 c0       	rjmp	.+46     	; 0x5c34 <conv_brk+0xfe>
    5c06:	f6 01       	movw	r30, r12
    5c08:	9e 01       	movw	r18, r28
    5c0a:	2f 5d       	subi	r18, 0xDF	; 223
    5c0c:	3f 4f       	sbci	r19, 0xFF	; 255
    5c0e:	80 81       	ld	r24, Z
    5c10:	80 95       	com	r24
    5c12:	81 93       	st	Z+, r24
    5c14:	2e 17       	cp	r18, r30
    5c16:	3f 07       	cpc	r19, r31
    5c18:	d1 f7       	brne	.-12     	; 0x5c0e <conv_brk+0xd8>
    5c1a:	f2 cf       	rjmp	.-28     	; 0x5c00 <conv_brk+0xca>
    5c1c:	e1 14       	cp	r14, r1
    5c1e:	f1 04       	cpc	r15, r1
    5c20:	29 f0       	breq	.+10     	; 0x5c2c <conv_brk+0xf6>
    5c22:	d7 01       	movw	r26, r14
    5c24:	8c 93       	st	X, r24
    5c26:	f7 01       	movw	r30, r14
    5c28:	31 96       	adiw	r30, 0x01	; 1
    5c2a:	7f 01       	movw	r14, r30
    5c2c:	9a 94       	dec	r9
    5c2e:	81 2c       	mov	r8, r1
    5c30:	99 20       	and	r9, r9
    5c32:	f9 f0       	breq	.+62     	; 0x5c72 <conv_brk+0x13c>
    5c34:	c5 01       	movw	r24, r10
    5c36:	0e 94 94 2f 	call	0x5f28	; 0x5f28 <fgetc>
    5c3a:	97 fd       	sbrc	r25, 7
    5c3c:	18 c0       	rjmp	.+48     	; 0x5c6e <conv_brk+0x138>
    5c3e:	fc 01       	movw	r30, r24
    5c40:	ff 27       	eor	r31, r31
    5c42:	23 e0       	ldi	r18, 0x03	; 3
    5c44:	f5 95       	asr	r31
    5c46:	e7 95       	ror	r30
    5c48:	2a 95       	dec	r18
    5c4a:	e1 f7       	brne	.-8      	; 0x5c44 <conv_brk+0x10e>
    5c4c:	ec 0d       	add	r30, r12
    5c4e:	fd 1d       	adc	r31, r13
    5c50:	20 81       	ld	r18, Z
    5c52:	30 e0       	ldi	r19, 0x00	; 0
    5c54:	ac 01       	movw	r20, r24
    5c56:	47 70       	andi	r20, 0x07	; 7
    5c58:	55 27       	eor	r21, r21
    5c5a:	02 c0       	rjmp	.+4      	; 0x5c60 <conv_brk+0x12a>
    5c5c:	35 95       	asr	r19
    5c5e:	27 95       	ror	r18
    5c60:	4a 95       	dec	r20
    5c62:	e2 f7       	brpl	.-8      	; 0x5c5c <conv_brk+0x126>
    5c64:	20 fd       	sbrc	r18, 0
    5c66:	da cf       	rjmp	.-76     	; 0x5c1c <conv_brk+0xe6>
    5c68:	b5 01       	movw	r22, r10
    5c6a:	0e 94 0e 30 	call	0x601c	; 0x601c <ungetc>
    5c6e:	81 10       	cpse	r8, r1
    5c70:	87 cf       	rjmp	.-242    	; 0x5b80 <conv_brk+0x4a>
    5c72:	e1 14       	cp	r14, r1
    5c74:	f1 04       	cpc	r15, r1
    5c76:	11 f0       	breq	.+4      	; 0x5c7c <conv_brk+0x146>
    5c78:	d7 01       	movw	r26, r14
    5c7a:	1c 92       	st	X, r1
    5c7c:	c8 01       	movw	r24, r16
    5c7e:	15 c0       	rjmp	.+42     	; 0x5caa <conv_brk+0x174>
    5c80:	42 2f       	mov	r20, r18
    5c82:	46 95       	lsr	r20
    5c84:	46 95       	lsr	r20
    5c86:	46 95       	lsr	r20
    5c88:	d6 01       	movw	r26, r12
    5c8a:	a4 0f       	add	r26, r20
    5c8c:	b1 1d       	adc	r27, r1
    5c8e:	42 2f       	mov	r20, r18
    5c90:	47 70       	andi	r20, 0x07	; 7
    5c92:	8b 01       	movw	r16, r22
    5c94:	02 c0       	rjmp	.+4      	; 0x5c9a <conv_brk+0x164>
    5c96:	00 0f       	add	r16, r16
    5c98:	11 1f       	adc	r17, r17
    5c9a:	4a 95       	dec	r20
    5c9c:	e2 f7       	brpl	.-8      	; 0x5c96 <conv_brk+0x160>
    5c9e:	a8 01       	movw	r20, r16
    5ca0:	5c 91       	ld	r21, X
    5ca2:	45 2b       	or	r20, r21
    5ca4:	4c 93       	st	X, r20
    5ca6:	62 2e       	mov	r6, r18
    5ca8:	a2 cf       	rjmp	.-188    	; 0x5bee <conv_brk+0xb8>
    5caa:	a0 96       	adiw	r28, 0x20	; 32
    5cac:	ef e0       	ldi	r30, 0x0F	; 15
    5cae:	0c 94 a7 30 	jmp	0x614e	; 0x614e <__epilogue_restores__+0x6>

00005cb2 <vfscanf>:
    5cb2:	a0 e0       	ldi	r26, 0x00	; 0
    5cb4:	b0 e0       	ldi	r27, 0x00	; 0
    5cb6:	ef e5       	ldi	r30, 0x5F	; 95
    5cb8:	fe e2       	ldi	r31, 0x2E	; 46
    5cba:	0c 94 8b 30 	jmp	0x6116	; 0x6116 <__prologue_saves__+0x6>
    5cbe:	6c 01       	movw	r12, r24
    5cc0:	eb 01       	movw	r28, r22
    5cc2:	5a 01       	movw	r10, r20
    5cc4:	fc 01       	movw	r30, r24
    5cc6:	17 82       	std	Z+7, r1	; 0x07
    5cc8:	16 82       	std	Z+6, r1	; 0x06
    5cca:	51 2c       	mov	r5, r1
    5ccc:	f6 01       	movw	r30, r12
    5cce:	e3 80       	ldd	r14, Z+3	; 0x03
    5cd0:	fe 01       	movw	r30, r28
    5cd2:	e3 fc       	sbrc	r14, 3
    5cd4:	85 91       	lpm	r24, Z+
    5cd6:	e3 fe       	sbrs	r14, 3
    5cd8:	81 91       	ld	r24, Z+
    5cda:	18 2f       	mov	r17, r24
    5cdc:	ef 01       	movw	r28, r30
    5cde:	88 23       	and	r24, r24
    5ce0:	09 f4       	brne	.+2      	; 0x5ce4 <vfscanf+0x32>
    5ce2:	ee c0       	rjmp	.+476    	; 0x5ec0 <vfscanf+0x20e>
    5ce4:	90 e0       	ldi	r25, 0x00	; 0
    5ce6:	0e 94 6a 2f 	call	0x5ed4	; 0x5ed4 <isspace>
    5cea:	89 2b       	or	r24, r25
    5cec:	21 f0       	breq	.+8      	; 0x5cf6 <vfscanf+0x44>
    5cee:	c6 01       	movw	r24, r12
    5cf0:	0e 94 f0 2c 	call	0x59e0	; 0x59e0 <skip_spaces>
    5cf4:	eb cf       	rjmp	.-42     	; 0x5ccc <vfscanf+0x1a>
    5cf6:	15 32       	cpi	r17, 0x25	; 37
    5cf8:	41 f4       	brne	.+16     	; 0x5d0a <vfscanf+0x58>
    5cfa:	fe 01       	movw	r30, r28
    5cfc:	e3 fc       	sbrc	r14, 3
    5cfe:	15 91       	lpm	r17, Z+
    5d00:	e3 fe       	sbrs	r14, 3
    5d02:	11 91       	ld	r17, Z+
    5d04:	ef 01       	movw	r28, r30
    5d06:	15 32       	cpi	r17, 0x25	; 37
    5d08:	81 f4       	brne	.+32     	; 0x5d2a <vfscanf+0x78>
    5d0a:	c6 01       	movw	r24, r12
    5d0c:	0e 94 94 2f 	call	0x5f28	; 0x5f28 <fgetc>
    5d10:	97 fd       	sbrc	r25, 7
    5d12:	d4 c0       	rjmp	.+424    	; 0x5ebc <vfscanf+0x20a>
    5d14:	41 2f       	mov	r20, r17
    5d16:	50 e0       	ldi	r21, 0x00	; 0
    5d18:	9c 01       	movw	r18, r24
    5d1a:	33 27       	eor	r19, r19
    5d1c:	24 17       	cp	r18, r20
    5d1e:	35 07       	cpc	r19, r21
    5d20:	a9 f2       	breq	.-86     	; 0x5ccc <vfscanf+0x1a>
    5d22:	b6 01       	movw	r22, r12
    5d24:	0e 94 0e 30 	call	0x601c	; 0x601c <ungetc>
    5d28:	cb c0       	rjmp	.+406    	; 0x5ec0 <vfscanf+0x20e>
    5d2a:	1a 32       	cpi	r17, 0x2A	; 42
    5d2c:	39 f4       	brne	.+14     	; 0x5d3c <vfscanf+0x8a>
    5d2e:	e3 fc       	sbrc	r14, 3
    5d30:	15 91       	lpm	r17, Z+
    5d32:	e3 fe       	sbrs	r14, 3
    5d34:	11 91       	ld	r17, Z+
    5d36:	ef 01       	movw	r28, r30
    5d38:	01 e0       	ldi	r16, 0x01	; 1
    5d3a:	01 c0       	rjmp	.+2      	; 0x5d3e <vfscanf+0x8c>
    5d3c:	00 e0       	ldi	r16, 0x00	; 0
    5d3e:	f1 2c       	mov	r15, r1
    5d40:	20 ed       	ldi	r18, 0xD0	; 208
    5d42:	21 0f       	add	r18, r17
    5d44:	2a 30       	cpi	r18, 0x0A	; 10
    5d46:	80 f4       	brcc	.+32     	; 0x5d68 <vfscanf+0xb6>
    5d48:	02 60       	ori	r16, 0x02	; 2
    5d4a:	6f 2d       	mov	r22, r15
    5d4c:	70 e0       	ldi	r23, 0x00	; 0
    5d4e:	80 e0       	ldi	r24, 0x00	; 0
    5d50:	90 e0       	ldi	r25, 0x00	; 0
    5d52:	40 e2       	ldi	r20, 0x20	; 32
    5d54:	0e 94 c9 2c 	call	0x5992	; 0x5992 <mulacc>
    5d58:	f6 2e       	mov	r15, r22
    5d5a:	fe 01       	movw	r30, r28
    5d5c:	e3 fc       	sbrc	r14, 3
    5d5e:	15 91       	lpm	r17, Z+
    5d60:	e3 fe       	sbrs	r14, 3
    5d62:	11 91       	ld	r17, Z+
    5d64:	ef 01       	movw	r28, r30
    5d66:	ec cf       	rjmp	.-40     	; 0x5d40 <vfscanf+0x8e>
    5d68:	01 ff       	sbrs	r16, 1
    5d6a:	03 c0       	rjmp	.+6      	; 0x5d72 <vfscanf+0xc0>
    5d6c:	f1 10       	cpse	r15, r1
    5d6e:	03 c0       	rjmp	.+6      	; 0x5d76 <vfscanf+0xc4>
    5d70:	a7 c0       	rjmp	.+334    	; 0x5ec0 <vfscanf+0x20e>
    5d72:	ff 24       	eor	r15, r15
    5d74:	fa 94       	dec	r15
    5d76:	18 36       	cpi	r17, 0x68	; 104
    5d78:	19 f0       	breq	.+6      	; 0x5d80 <vfscanf+0xce>
    5d7a:	1c 36       	cpi	r17, 0x6C	; 108
    5d7c:	51 f0       	breq	.+20     	; 0x5d92 <vfscanf+0xe0>
    5d7e:	10 c0       	rjmp	.+32     	; 0x5da0 <vfscanf+0xee>
    5d80:	fe 01       	movw	r30, r28
    5d82:	e3 fc       	sbrc	r14, 3
    5d84:	15 91       	lpm	r17, Z+
    5d86:	e3 fe       	sbrs	r14, 3
    5d88:	11 91       	ld	r17, Z+
    5d8a:	ef 01       	movw	r28, r30
    5d8c:	18 36       	cpi	r17, 0x68	; 104
    5d8e:	41 f4       	brne	.+16     	; 0x5da0 <vfscanf+0xee>
    5d90:	08 60       	ori	r16, 0x08	; 8
    5d92:	04 60       	ori	r16, 0x04	; 4
    5d94:	fe 01       	movw	r30, r28
    5d96:	e3 fc       	sbrc	r14, 3
    5d98:	15 91       	lpm	r17, Z+
    5d9a:	e3 fe       	sbrs	r14, 3
    5d9c:	11 91       	ld	r17, Z+
    5d9e:	ef 01       	movw	r28, r30
    5da0:	11 23       	and	r17, r17
    5da2:	09 f4       	brne	.+2      	; 0x5da6 <vfscanf+0xf4>
    5da4:	8d c0       	rjmp	.+282    	; 0x5ec0 <vfscanf+0x20e>
    5da6:	61 2f       	mov	r22, r17
    5da8:	70 e0       	ldi	r23, 0x00	; 0
    5daa:	8a ea       	ldi	r24, 0xAA	; 170
    5dac:	90 e0       	ldi	r25, 0x00	; 0
    5dae:	0e 94 73 2f 	call	0x5ee6	; 0x5ee6 <strchr_P>
    5db2:	89 2b       	or	r24, r25
    5db4:	09 f4       	brne	.+2      	; 0x5db8 <vfscanf+0x106>
    5db6:	84 c0       	rjmp	.+264    	; 0x5ec0 <vfscanf+0x20e>
    5db8:	00 fd       	sbrc	r16, 0
    5dba:	07 c0       	rjmp	.+14     	; 0x5dca <vfscanf+0x118>
    5dbc:	f5 01       	movw	r30, r10
    5dbe:	80 80       	ld	r8, Z
    5dc0:	91 80       	ldd	r9, Z+1	; 0x01
    5dc2:	c5 01       	movw	r24, r10
    5dc4:	02 96       	adiw	r24, 0x02	; 2
    5dc6:	5c 01       	movw	r10, r24
    5dc8:	02 c0       	rjmp	.+4      	; 0x5dce <vfscanf+0x11c>
    5dca:	81 2c       	mov	r8, r1
    5dcc:	91 2c       	mov	r9, r1
    5dce:	1e 36       	cpi	r17, 0x6E	; 110
    5dd0:	51 f4       	brne	.+20     	; 0x5de6 <vfscanf+0x134>
    5dd2:	f6 01       	movw	r30, r12
    5dd4:	46 81       	ldd	r20, Z+6	; 0x06
    5dd6:	57 81       	ldd	r21, Z+7	; 0x07
    5dd8:	60 e0       	ldi	r22, 0x00	; 0
    5dda:	70 e0       	ldi	r23, 0x00	; 0
    5ddc:	20 2f       	mov	r18, r16
    5dde:	c4 01       	movw	r24, r8
    5de0:	0e 94 bd 2c 	call	0x597a	; 0x597a <putval>
    5de4:	73 cf       	rjmp	.-282    	; 0x5ccc <vfscanf+0x1a>
    5de6:	13 36       	cpi	r17, 0x63	; 99
    5de8:	a9 f4       	brne	.+42     	; 0x5e14 <vfscanf+0x162>
    5dea:	01 fd       	sbrc	r16, 1
    5dec:	02 c0       	rjmp	.+4      	; 0x5df2 <vfscanf+0x140>
    5dee:	ff 24       	eor	r15, r15
    5df0:	f3 94       	inc	r15
    5df2:	c6 01       	movw	r24, r12
    5df4:	0e 94 94 2f 	call	0x5f28	; 0x5f28 <fgetc>
    5df8:	97 fd       	sbrc	r25, 7
    5dfa:	60 c0       	rjmp	.+192    	; 0x5ebc <vfscanf+0x20a>
    5dfc:	81 14       	cp	r8, r1
    5dfe:	91 04       	cpc	r9, r1
    5e00:	29 f0       	breq	.+10     	; 0x5e0c <vfscanf+0x15a>
    5e02:	f4 01       	movw	r30, r8
    5e04:	80 83       	st	Z, r24
    5e06:	c4 01       	movw	r24, r8
    5e08:	01 96       	adiw	r24, 0x01	; 1
    5e0a:	4c 01       	movw	r8, r24
    5e0c:	fa 94       	dec	r15
    5e0e:	f1 10       	cpse	r15, r1
    5e10:	f0 cf       	rjmp	.-32     	; 0x5df2 <vfscanf+0x140>
    5e12:	50 c0       	rjmp	.+160    	; 0x5eb4 <vfscanf+0x202>
    5e14:	1b 35       	cpi	r17, 0x5B	; 91
    5e16:	59 f4       	brne	.+22     	; 0x5e2e <vfscanf+0x17c>
    5e18:	9e 01       	movw	r18, r28
    5e1a:	a4 01       	movw	r20, r8
    5e1c:	6f 2d       	mov	r22, r15
    5e1e:	c6 01       	movw	r24, r12
    5e20:	0e 94 9b 2d 	call	0x5b36	; 0x5b36 <conv_brk>
    5e24:	ec 01       	movw	r28, r24
    5e26:	89 2b       	or	r24, r25
    5e28:	09 f0       	breq	.+2      	; 0x5e2c <vfscanf+0x17a>
    5e2a:	44 c0       	rjmp	.+136    	; 0x5eb4 <vfscanf+0x202>
    5e2c:	3e c0       	rjmp	.+124    	; 0x5eaa <vfscanf+0x1f8>
    5e2e:	c6 01       	movw	r24, r12
    5e30:	0e 94 f0 2c 	call	0x59e0	; 0x59e0 <skip_spaces>
    5e34:	97 fd       	sbrc	r25, 7
    5e36:	42 c0       	rjmp	.+132    	; 0x5ebc <vfscanf+0x20a>
    5e38:	1f 36       	cpi	r17, 0x6F	; 111
    5e3a:	61 f1       	breq	.+88     	; 0x5e94 <vfscanf+0x1e2>
    5e3c:	28 f4       	brcc	.+10     	; 0x5e48 <vfscanf+0x196>
    5e3e:	14 36       	cpi	r17, 0x64	; 100
    5e40:	39 f1       	breq	.+78     	; 0x5e90 <vfscanf+0x1de>
    5e42:	19 36       	cpi	r17, 0x69	; 105
    5e44:	51 f1       	breq	.+84     	; 0x5e9a <vfscanf+0x1e8>
    5e46:	28 c0       	rjmp	.+80     	; 0x5e98 <vfscanf+0x1e6>
    5e48:	13 37       	cpi	r17, 0x73	; 115
    5e4a:	71 f0       	breq	.+28     	; 0x5e68 <vfscanf+0x1b6>
    5e4c:	15 37       	cpi	r17, 0x75	; 117
    5e4e:	01 f1       	breq	.+64     	; 0x5e90 <vfscanf+0x1de>
    5e50:	23 c0       	rjmp	.+70     	; 0x5e98 <vfscanf+0x1e6>
    5e52:	81 14       	cp	r8, r1
    5e54:	91 04       	cpc	r9, r1
    5e56:	29 f0       	breq	.+10     	; 0x5e62 <vfscanf+0x1b0>
    5e58:	f4 01       	movw	r30, r8
    5e5a:	60 82       	st	Z, r6
    5e5c:	c4 01       	movw	r24, r8
    5e5e:	01 96       	adiw	r24, 0x01	; 1
    5e60:	4c 01       	movw	r8, r24
    5e62:	fa 94       	dec	r15
    5e64:	ff 20       	and	r15, r15
    5e66:	71 f0       	breq	.+28     	; 0x5e84 <vfscanf+0x1d2>
    5e68:	c6 01       	movw	r24, r12
    5e6a:	0e 94 94 2f 	call	0x5f28	; 0x5f28 <fgetc>
    5e6e:	3c 01       	movw	r6, r24
    5e70:	97 fd       	sbrc	r25, 7
    5e72:	08 c0       	rjmp	.+16     	; 0x5e84 <vfscanf+0x1d2>
    5e74:	0e 94 6a 2f 	call	0x5ed4	; 0x5ed4 <isspace>
    5e78:	89 2b       	or	r24, r25
    5e7a:	59 f3       	breq	.-42     	; 0x5e52 <vfscanf+0x1a0>
    5e7c:	b6 01       	movw	r22, r12
    5e7e:	c3 01       	movw	r24, r6
    5e80:	0e 94 0e 30 	call	0x601c	; 0x601c <ungetc>
    5e84:	81 14       	cp	r8, r1
    5e86:	91 04       	cpc	r9, r1
    5e88:	a9 f0       	breq	.+42     	; 0x5eb4 <vfscanf+0x202>
    5e8a:	f4 01       	movw	r30, r8
    5e8c:	10 82       	st	Z, r1
    5e8e:	12 c0       	rjmp	.+36     	; 0x5eb4 <vfscanf+0x202>
    5e90:	00 62       	ori	r16, 0x20	; 32
    5e92:	03 c0       	rjmp	.+6      	; 0x5e9a <vfscanf+0x1e8>
    5e94:	00 61       	ori	r16, 0x10	; 16
    5e96:	01 c0       	rjmp	.+2      	; 0x5e9a <vfscanf+0x1e8>
    5e98:	00 64       	ori	r16, 0x40	; 64
    5e9a:	20 2f       	mov	r18, r16
    5e9c:	a4 01       	movw	r20, r8
    5e9e:	6f 2d       	mov	r22, r15
    5ea0:	c6 01       	movw	r24, r12
    5ea2:	0e 94 09 2d 	call	0x5a12	; 0x5a12 <conv_int>
    5ea6:	81 11       	cpse	r24, r1
    5ea8:	05 c0       	rjmp	.+10     	; 0x5eb4 <vfscanf+0x202>
    5eaa:	f6 01       	movw	r30, r12
    5eac:	83 81       	ldd	r24, Z+3	; 0x03
    5eae:	80 73       	andi	r24, 0x30	; 48
    5eb0:	29 f4       	brne	.+10     	; 0x5ebc <vfscanf+0x20a>
    5eb2:	06 c0       	rjmp	.+12     	; 0x5ec0 <vfscanf+0x20e>
    5eb4:	00 fd       	sbrc	r16, 0
    5eb6:	0a cf       	rjmp	.-492    	; 0x5ccc <vfscanf+0x1a>
    5eb8:	53 94       	inc	r5
    5eba:	08 cf       	rjmp	.-496    	; 0x5ccc <vfscanf+0x1a>
    5ebc:	55 20       	and	r5, r5
    5ebe:	19 f0       	breq	.+6      	; 0x5ec6 <vfscanf+0x214>
    5ec0:	85 2d       	mov	r24, r5
    5ec2:	90 e0       	ldi	r25, 0x00	; 0
    5ec4:	02 c0       	rjmp	.+4      	; 0x5eca <vfscanf+0x218>
    5ec6:	8f ef       	ldi	r24, 0xFF	; 255
    5ec8:	9f ef       	ldi	r25, 0xFF	; 255
    5eca:	cd b7       	in	r28, 0x3d	; 61
    5ecc:	de b7       	in	r29, 0x3e	; 62
    5ece:	ef e0       	ldi	r30, 0x0F	; 15
    5ed0:	0c 94 a7 30 	jmp	0x614e	; 0x614e <__epilogue_restores__+0x6>

00005ed4 <isspace>:
    5ed4:	91 11       	cpse	r25, r1
    5ed6:	0c 94 85 30 	jmp	0x610a	; 0x610a <__ctype_isfalse>
    5eda:	80 32       	cpi	r24, 0x20	; 32
    5edc:	19 f0       	breq	.+6      	; 0x5ee4 <isspace+0x10>
    5ede:	89 50       	subi	r24, 0x09	; 9
    5ee0:	85 50       	subi	r24, 0x05	; 5
    5ee2:	c8 f7       	brcc	.-14     	; 0x5ed6 <isspace+0x2>
    5ee4:	08 95       	ret

00005ee6 <strchr_P>:
    5ee6:	fc 01       	movw	r30, r24
    5ee8:	05 90       	lpm	r0, Z+
    5eea:	06 16       	cp	r0, r22
    5eec:	21 f0       	breq	.+8      	; 0x5ef6 <strchr_P+0x10>
    5eee:	00 20       	and	r0, r0
    5ef0:	d9 f7       	brne	.-10     	; 0x5ee8 <strchr_P+0x2>
    5ef2:	c0 01       	movw	r24, r0
    5ef4:	08 95       	ret
    5ef6:	31 97       	sbiw	r30, 0x01	; 1
    5ef8:	cf 01       	movw	r24, r30
    5efa:	08 95       	ret

00005efc <strnlen_P>:
    5efc:	fc 01       	movw	r30, r24
    5efe:	05 90       	lpm	r0, Z+
    5f00:	61 50       	subi	r22, 0x01	; 1
    5f02:	70 40       	sbci	r23, 0x00	; 0
    5f04:	01 10       	cpse	r0, r1
    5f06:	d8 f7       	brcc	.-10     	; 0x5efe <strnlen_P+0x2>
    5f08:	80 95       	com	r24
    5f0a:	90 95       	com	r25
    5f0c:	8e 0f       	add	r24, r30
    5f0e:	9f 1f       	adc	r25, r31
    5f10:	08 95       	ret

00005f12 <strnlen>:
    5f12:	fc 01       	movw	r30, r24
    5f14:	61 50       	subi	r22, 0x01	; 1
    5f16:	70 40       	sbci	r23, 0x00	; 0
    5f18:	01 90       	ld	r0, Z+
    5f1a:	01 10       	cpse	r0, r1
    5f1c:	d8 f7       	brcc	.-10     	; 0x5f14 <strnlen+0x2>
    5f1e:	80 95       	com	r24
    5f20:	90 95       	com	r25
    5f22:	8e 0f       	add	r24, r30
    5f24:	9f 1f       	adc	r25, r31
    5f26:	08 95       	ret

00005f28 <fgetc>:
    5f28:	cf 93       	push	r28
    5f2a:	df 93       	push	r29
    5f2c:	ec 01       	movw	r28, r24
    5f2e:	2b 81       	ldd	r18, Y+3	; 0x03
    5f30:	20 ff       	sbrs	r18, 0
    5f32:	33 c0       	rjmp	.+102    	; 0x5f9a <fgetc+0x72>
    5f34:	26 ff       	sbrs	r18, 6
    5f36:	0a c0       	rjmp	.+20     	; 0x5f4c <fgetc+0x24>
    5f38:	2f 7b       	andi	r18, 0xBF	; 191
    5f3a:	2b 83       	std	Y+3, r18	; 0x03
    5f3c:	8e 81       	ldd	r24, Y+6	; 0x06
    5f3e:	9f 81       	ldd	r25, Y+7	; 0x07
    5f40:	01 96       	adiw	r24, 0x01	; 1
    5f42:	9f 83       	std	Y+7, r25	; 0x07
    5f44:	8e 83       	std	Y+6, r24	; 0x06
    5f46:	8a 81       	ldd	r24, Y+2	; 0x02
    5f48:	90 e0       	ldi	r25, 0x00	; 0
    5f4a:	29 c0       	rjmp	.+82     	; 0x5f9e <fgetc+0x76>
    5f4c:	22 ff       	sbrs	r18, 2
    5f4e:	0f c0       	rjmp	.+30     	; 0x5f6e <fgetc+0x46>
    5f50:	e8 81       	ld	r30, Y
    5f52:	f9 81       	ldd	r31, Y+1	; 0x01
    5f54:	80 81       	ld	r24, Z
    5f56:	08 2e       	mov	r0, r24
    5f58:	00 0c       	add	r0, r0
    5f5a:	99 0b       	sbc	r25, r25
    5f5c:	00 97       	sbiw	r24, 0x00	; 0
    5f5e:	19 f4       	brne	.+6      	; 0x5f66 <fgetc+0x3e>
    5f60:	20 62       	ori	r18, 0x20	; 32
    5f62:	2b 83       	std	Y+3, r18	; 0x03
    5f64:	1a c0       	rjmp	.+52     	; 0x5f9a <fgetc+0x72>
    5f66:	31 96       	adiw	r30, 0x01	; 1
    5f68:	f9 83       	std	Y+1, r31	; 0x01
    5f6a:	e8 83       	st	Y, r30
    5f6c:	0e c0       	rjmp	.+28     	; 0x5f8a <fgetc+0x62>
    5f6e:	ea 85       	ldd	r30, Y+10	; 0x0a
    5f70:	fb 85       	ldd	r31, Y+11	; 0x0b
    5f72:	09 95       	icall
    5f74:	97 ff       	sbrs	r25, 7
    5f76:	09 c0       	rjmp	.+18     	; 0x5f8a <fgetc+0x62>
    5f78:	2b 81       	ldd	r18, Y+3	; 0x03
    5f7a:	01 96       	adiw	r24, 0x01	; 1
    5f7c:	11 f0       	breq	.+4      	; 0x5f82 <fgetc+0x5a>
    5f7e:	80 e2       	ldi	r24, 0x20	; 32
    5f80:	01 c0       	rjmp	.+2      	; 0x5f84 <fgetc+0x5c>
    5f82:	80 e1       	ldi	r24, 0x10	; 16
    5f84:	82 2b       	or	r24, r18
    5f86:	8b 83       	std	Y+3, r24	; 0x03
    5f88:	08 c0       	rjmp	.+16     	; 0x5f9a <fgetc+0x72>
    5f8a:	2e 81       	ldd	r18, Y+6	; 0x06
    5f8c:	3f 81       	ldd	r19, Y+7	; 0x07
    5f8e:	2f 5f       	subi	r18, 0xFF	; 255
    5f90:	3f 4f       	sbci	r19, 0xFF	; 255
    5f92:	3f 83       	std	Y+7, r19	; 0x07
    5f94:	2e 83       	std	Y+6, r18	; 0x06
    5f96:	99 27       	eor	r25, r25
    5f98:	02 c0       	rjmp	.+4      	; 0x5f9e <fgetc+0x76>
    5f9a:	8f ef       	ldi	r24, 0xFF	; 255
    5f9c:	9f ef       	ldi	r25, 0xFF	; 255
    5f9e:	df 91       	pop	r29
    5fa0:	cf 91       	pop	r28
    5fa2:	08 95       	ret

00005fa4 <fputc>:
    5fa4:	0f 93       	push	r16
    5fa6:	1f 93       	push	r17
    5fa8:	cf 93       	push	r28
    5faa:	df 93       	push	r29
    5fac:	fb 01       	movw	r30, r22
    5fae:	23 81       	ldd	r18, Z+3	; 0x03
    5fb0:	21 fd       	sbrc	r18, 1
    5fb2:	03 c0       	rjmp	.+6      	; 0x5fba <fputc+0x16>
    5fb4:	8f ef       	ldi	r24, 0xFF	; 255
    5fb6:	9f ef       	ldi	r25, 0xFF	; 255
    5fb8:	2c c0       	rjmp	.+88     	; 0x6012 <fputc+0x6e>
    5fba:	22 ff       	sbrs	r18, 2
    5fbc:	16 c0       	rjmp	.+44     	; 0x5fea <fputc+0x46>
    5fbe:	46 81       	ldd	r20, Z+6	; 0x06
    5fc0:	57 81       	ldd	r21, Z+7	; 0x07
    5fc2:	24 81       	ldd	r18, Z+4	; 0x04
    5fc4:	35 81       	ldd	r19, Z+5	; 0x05
    5fc6:	42 17       	cp	r20, r18
    5fc8:	53 07       	cpc	r21, r19
    5fca:	44 f4       	brge	.+16     	; 0x5fdc <fputc+0x38>
    5fcc:	a0 81       	ld	r26, Z
    5fce:	b1 81       	ldd	r27, Z+1	; 0x01
    5fd0:	9d 01       	movw	r18, r26
    5fd2:	2f 5f       	subi	r18, 0xFF	; 255
    5fd4:	3f 4f       	sbci	r19, 0xFF	; 255
    5fd6:	31 83       	std	Z+1, r19	; 0x01
    5fd8:	20 83       	st	Z, r18
    5fda:	8c 93       	st	X, r24
    5fdc:	26 81       	ldd	r18, Z+6	; 0x06
    5fde:	37 81       	ldd	r19, Z+7	; 0x07
    5fe0:	2f 5f       	subi	r18, 0xFF	; 255
    5fe2:	3f 4f       	sbci	r19, 0xFF	; 255
    5fe4:	37 83       	std	Z+7, r19	; 0x07
    5fe6:	26 83       	std	Z+6, r18	; 0x06
    5fe8:	14 c0       	rjmp	.+40     	; 0x6012 <fputc+0x6e>
    5fea:	8b 01       	movw	r16, r22
    5fec:	ec 01       	movw	r28, r24
    5fee:	fb 01       	movw	r30, r22
    5ff0:	00 84       	ldd	r0, Z+8	; 0x08
    5ff2:	f1 85       	ldd	r31, Z+9	; 0x09
    5ff4:	e0 2d       	mov	r30, r0
    5ff6:	09 95       	icall
    5ff8:	89 2b       	or	r24, r25
    5ffa:	e1 f6       	brne	.-72     	; 0x5fb4 <fputc+0x10>
    5ffc:	d8 01       	movw	r26, r16
    5ffe:	16 96       	adiw	r26, 0x06	; 6
    6000:	8d 91       	ld	r24, X+
    6002:	9c 91       	ld	r25, X
    6004:	17 97       	sbiw	r26, 0x07	; 7
    6006:	01 96       	adiw	r24, 0x01	; 1
    6008:	17 96       	adiw	r26, 0x07	; 7
    600a:	9c 93       	st	X, r25
    600c:	8e 93       	st	-X, r24
    600e:	16 97       	sbiw	r26, 0x06	; 6
    6010:	ce 01       	movw	r24, r28
    6012:	df 91       	pop	r29
    6014:	cf 91       	pop	r28
    6016:	1f 91       	pop	r17
    6018:	0f 91       	pop	r16
    601a:	08 95       	ret

0000601c <ungetc>:
    601c:	fb 01       	movw	r30, r22
    601e:	23 81       	ldd	r18, Z+3	; 0x03
    6020:	20 ff       	sbrs	r18, 0
    6022:	12 c0       	rjmp	.+36     	; 0x6048 <ungetc+0x2c>
    6024:	26 fd       	sbrc	r18, 6
    6026:	10 c0       	rjmp	.+32     	; 0x6048 <ungetc+0x2c>
    6028:	8f 3f       	cpi	r24, 0xFF	; 255
    602a:	3f ef       	ldi	r19, 0xFF	; 255
    602c:	93 07       	cpc	r25, r19
    602e:	61 f0       	breq	.+24     	; 0x6048 <ungetc+0x2c>
    6030:	82 83       	std	Z+2, r24	; 0x02
    6032:	2f 7d       	andi	r18, 0xDF	; 223
    6034:	20 64       	ori	r18, 0x40	; 64
    6036:	23 83       	std	Z+3, r18	; 0x03
    6038:	26 81       	ldd	r18, Z+6	; 0x06
    603a:	37 81       	ldd	r19, Z+7	; 0x07
    603c:	21 50       	subi	r18, 0x01	; 1
    603e:	31 09       	sbc	r19, r1
    6040:	37 83       	std	Z+7, r19	; 0x07
    6042:	26 83       	std	Z+6, r18	; 0x06
    6044:	99 27       	eor	r25, r25
    6046:	08 95       	ret
    6048:	8f ef       	ldi	r24, 0xFF	; 255
    604a:	9f ef       	ldi	r25, 0xFF	; 255
    604c:	08 95       	ret

0000604e <__ultoa_invert>:
    604e:	fa 01       	movw	r30, r20
    6050:	aa 27       	eor	r26, r26
    6052:	28 30       	cpi	r18, 0x08	; 8
    6054:	51 f1       	breq	.+84     	; 0x60aa <__ultoa_invert+0x5c>
    6056:	20 31       	cpi	r18, 0x10	; 16
    6058:	81 f1       	breq	.+96     	; 0x60ba <__ultoa_invert+0x6c>
    605a:	e8 94       	clt
    605c:	6f 93       	push	r22
    605e:	6e 7f       	andi	r22, 0xFE	; 254
    6060:	6e 5f       	subi	r22, 0xFE	; 254
    6062:	7f 4f       	sbci	r23, 0xFF	; 255
    6064:	8f 4f       	sbci	r24, 0xFF	; 255
    6066:	9f 4f       	sbci	r25, 0xFF	; 255
    6068:	af 4f       	sbci	r26, 0xFF	; 255
    606a:	b1 e0       	ldi	r27, 0x01	; 1
    606c:	3e d0       	rcall	.+124    	; 0x60ea <__ultoa_invert+0x9c>
    606e:	b4 e0       	ldi	r27, 0x04	; 4
    6070:	3c d0       	rcall	.+120    	; 0x60ea <__ultoa_invert+0x9c>
    6072:	67 0f       	add	r22, r23
    6074:	78 1f       	adc	r23, r24
    6076:	89 1f       	adc	r24, r25
    6078:	9a 1f       	adc	r25, r26
    607a:	a1 1d       	adc	r26, r1
    607c:	68 0f       	add	r22, r24
    607e:	79 1f       	adc	r23, r25
    6080:	8a 1f       	adc	r24, r26
    6082:	91 1d       	adc	r25, r1
    6084:	a1 1d       	adc	r26, r1
    6086:	6a 0f       	add	r22, r26
    6088:	71 1d       	adc	r23, r1
    608a:	81 1d       	adc	r24, r1
    608c:	91 1d       	adc	r25, r1
    608e:	a1 1d       	adc	r26, r1
    6090:	20 d0       	rcall	.+64     	; 0x60d2 <__ultoa_invert+0x84>
    6092:	09 f4       	brne	.+2      	; 0x6096 <__ultoa_invert+0x48>
    6094:	68 94       	set
    6096:	3f 91       	pop	r19
    6098:	2a e0       	ldi	r18, 0x0A	; 10
    609a:	26 9f       	mul	r18, r22
    609c:	11 24       	eor	r1, r1
    609e:	30 19       	sub	r19, r0
    60a0:	30 5d       	subi	r19, 0xD0	; 208
    60a2:	31 93       	st	Z+, r19
    60a4:	de f6       	brtc	.-74     	; 0x605c <__ultoa_invert+0xe>
    60a6:	cf 01       	movw	r24, r30
    60a8:	08 95       	ret
    60aa:	46 2f       	mov	r20, r22
    60ac:	47 70       	andi	r20, 0x07	; 7
    60ae:	40 5d       	subi	r20, 0xD0	; 208
    60b0:	41 93       	st	Z+, r20
    60b2:	b3 e0       	ldi	r27, 0x03	; 3
    60b4:	0f d0       	rcall	.+30     	; 0x60d4 <__ultoa_invert+0x86>
    60b6:	c9 f7       	brne	.-14     	; 0x60aa <__ultoa_invert+0x5c>
    60b8:	f6 cf       	rjmp	.-20     	; 0x60a6 <__ultoa_invert+0x58>
    60ba:	46 2f       	mov	r20, r22
    60bc:	4f 70       	andi	r20, 0x0F	; 15
    60be:	40 5d       	subi	r20, 0xD0	; 208
    60c0:	4a 33       	cpi	r20, 0x3A	; 58
    60c2:	18 f0       	brcs	.+6      	; 0x60ca <__ultoa_invert+0x7c>
    60c4:	49 5d       	subi	r20, 0xD9	; 217
    60c6:	31 fd       	sbrc	r19, 1
    60c8:	40 52       	subi	r20, 0x20	; 32
    60ca:	41 93       	st	Z+, r20
    60cc:	02 d0       	rcall	.+4      	; 0x60d2 <__ultoa_invert+0x84>
    60ce:	a9 f7       	brne	.-22     	; 0x60ba <__ultoa_invert+0x6c>
    60d0:	ea cf       	rjmp	.-44     	; 0x60a6 <__ultoa_invert+0x58>
    60d2:	b4 e0       	ldi	r27, 0x04	; 4
    60d4:	a6 95       	lsr	r26
    60d6:	97 95       	ror	r25
    60d8:	87 95       	ror	r24
    60da:	77 95       	ror	r23
    60dc:	67 95       	ror	r22
    60de:	ba 95       	dec	r27
    60e0:	c9 f7       	brne	.-14     	; 0x60d4 <__ultoa_invert+0x86>
    60e2:	00 97       	sbiw	r24, 0x00	; 0
    60e4:	61 05       	cpc	r22, r1
    60e6:	71 05       	cpc	r23, r1
    60e8:	08 95       	ret
    60ea:	9b 01       	movw	r18, r22
    60ec:	ac 01       	movw	r20, r24
    60ee:	0a 2e       	mov	r0, r26
    60f0:	06 94       	lsr	r0
    60f2:	57 95       	ror	r21
    60f4:	47 95       	ror	r20
    60f6:	37 95       	ror	r19
    60f8:	27 95       	ror	r18
    60fa:	ba 95       	dec	r27
    60fc:	c9 f7       	brne	.-14     	; 0x60f0 <__ultoa_invert+0xa2>
    60fe:	62 0f       	add	r22, r18
    6100:	73 1f       	adc	r23, r19
    6102:	84 1f       	adc	r24, r20
    6104:	95 1f       	adc	r25, r21
    6106:	a0 1d       	adc	r26, r0
    6108:	08 95       	ret

0000610a <__ctype_isfalse>:
    610a:	99 27       	eor	r25, r25
    610c:	88 27       	eor	r24, r24

0000610e <__ctype_istrue>:
    610e:	08 95       	ret

00006110 <__prologue_saves__>:
    6110:	2f 92       	push	r2
    6112:	3f 92       	push	r3
    6114:	4f 92       	push	r4
    6116:	5f 92       	push	r5
    6118:	6f 92       	push	r6
    611a:	7f 92       	push	r7
    611c:	8f 92       	push	r8
    611e:	9f 92       	push	r9
    6120:	af 92       	push	r10
    6122:	bf 92       	push	r11
    6124:	cf 92       	push	r12
    6126:	df 92       	push	r13
    6128:	ef 92       	push	r14
    612a:	ff 92       	push	r15
    612c:	0f 93       	push	r16
    612e:	1f 93       	push	r17
    6130:	cf 93       	push	r28
    6132:	df 93       	push	r29
    6134:	cd b7       	in	r28, 0x3d	; 61
    6136:	de b7       	in	r29, 0x3e	; 62
    6138:	ca 1b       	sub	r28, r26
    613a:	db 0b       	sbc	r29, r27
    613c:	0f b6       	in	r0, 0x3f	; 63
    613e:	f8 94       	cli
    6140:	de bf       	out	0x3e, r29	; 62
    6142:	0f be       	out	0x3f, r0	; 63
    6144:	cd bf       	out	0x3d, r28	; 61
    6146:	09 94       	ijmp

00006148 <__epilogue_restores__>:
    6148:	2a 88       	ldd	r2, Y+18	; 0x12
    614a:	39 88       	ldd	r3, Y+17	; 0x11
    614c:	48 88       	ldd	r4, Y+16	; 0x10
    614e:	5f 84       	ldd	r5, Y+15	; 0x0f
    6150:	6e 84       	ldd	r6, Y+14	; 0x0e
    6152:	7d 84       	ldd	r7, Y+13	; 0x0d
    6154:	8c 84       	ldd	r8, Y+12	; 0x0c
    6156:	9b 84       	ldd	r9, Y+11	; 0x0b
    6158:	aa 84       	ldd	r10, Y+10	; 0x0a
    615a:	b9 84       	ldd	r11, Y+9	; 0x09
    615c:	c8 84       	ldd	r12, Y+8	; 0x08
    615e:	df 80       	ldd	r13, Y+7	; 0x07
    6160:	ee 80       	ldd	r14, Y+6	; 0x06
    6162:	fd 80       	ldd	r15, Y+5	; 0x05
    6164:	0c 81       	ldd	r16, Y+4	; 0x04
    6166:	1b 81       	ldd	r17, Y+3	; 0x03
    6168:	aa 81       	ldd	r26, Y+2	; 0x02
    616a:	b9 81       	ldd	r27, Y+1	; 0x01
    616c:	ce 0f       	add	r28, r30
    616e:	d1 1d       	adc	r29, r1
    6170:	0f b6       	in	r0, 0x3f	; 63
    6172:	f8 94       	cli
    6174:	de bf       	out	0x3e, r29	; 62
    6176:	0f be       	out	0x3f, r0	; 63
    6178:	cd bf       	out	0x3d, r28	; 61
    617a:	ed 01       	movw	r28, r26
    617c:	08 95       	ret

0000617e <_exit>:
    617e:	f8 94       	cli

00006180 <__stop_program>:
    6180:	ff cf       	rjmp	.-2      	; 0x6180 <__stop_program>
